
tecnica1.elf:     file format elf32-littlenios2
tecnica1.elf
architecture: nios2:r1, flags 0x00000112:
EXEC_P, HAS_SYMS, D_PAGED
start address 0x04000244

Program Header:
    LOAD off    0x00001000 vaddr 0x04000000 paddr 0x04000000 align 2**12
         filesz 0x00000020 memsz 0x00000020 flags r-x
    LOAD off    0x00001020 vaddr 0x04000020 paddr 0x04000020 align 2**12
         filesz 0x00013204 memsz 0x00013204 flags r-x
    LOAD off    0x00014224 vaddr 0x04013224 paddr 0x04014dac align 2**12
         filesz 0x00001b88 memsz 0x00001b88 flags rw-
    LOAD off    0x00016934 vaddr 0x04016934 paddr 0x04016934 align 2**12
         filesz 0x00000000 memsz 0x0000290c flags rw-

Sections:
Idx Name          Size      VMA       LMA       File off  Algn
  0 .entry        00000020  04000000  04000000  00001000  2**5
                  CONTENTS, ALLOC, LOAD, READONLY, CODE
  1 .exceptions   00000224  04000020  04000020  00001020  2**2
                  CONTENTS, ALLOC, LOAD, READONLY, CODE
  2 .text         00012b28  04000244  04000244  00001244  2**2
                  CONTENTS, ALLOC, LOAD, READONLY, CODE
  3 .rodata       000004b8  04012d6c  04012d6c  00013d6c  2**2
                  CONTENTS, ALLOC, LOAD, READONLY, DATA
  4 .rwdata       00001b88  04013224  04014dac  00014224  2**2
                  CONTENTS, ALLOC, LOAD, DATA, SMALL_DATA
  5 .bss          0000290c  04016934  04016934  00016934  2**2
                  ALLOC, SMALL_DATA
  6 .sdram        00000000  04019240  04019240  00015dac  2**0
                  CONTENTS
  7 .comment      00000023  00000000  00000000  00015dac  2**0
                  CONTENTS, READONLY
  8 .debug_aranges 00001170  00000000  00000000  00015dd0  2**3
                  CONTENTS, READONLY, DEBUGGING
  9 .debug_info   00029238  00000000  00000000  00016f40  2**0
                  CONTENTS, READONLY, DEBUGGING
 10 .debug_abbrev 0000aa07  00000000  00000000  00040178  2**0
                  CONTENTS, READONLY, DEBUGGING
 11 .debug_line   0000d1f7  00000000  00000000  0004ab7f  2**0
                  CONTENTS, READONLY, DEBUGGING
 12 .debug_frame  000027d4  00000000  00000000  00057d78  2**2
                  CONTENTS, READONLY, DEBUGGING
 13 .debug_str    0000457f  00000000  00000000  0005a54c  2**0
                  CONTENTS, READONLY, DEBUGGING
 14 .debug_loc    000183dc  00000000  00000000  0005eacb  2**0
                  CONTENTS, READONLY, DEBUGGING
 15 .debug_alt_sim_info 00000030  00000000  00000000  00076ea8  2**2
                  CONTENTS, READONLY, DEBUGGING
 16 .debug_ranges 00001a98  00000000  00000000  00076ed8  2**3
                  CONTENTS, READONLY, DEBUGGING
 17 .thread_model 00000003  00000000  00000000  0007c562  2**0
                  CONTENTS, READONLY
 18 .cpu          00000003  00000000  00000000  0007c565  2**0
                  CONTENTS, READONLY
 19 .qsys         00000001  00000000  00000000  0007c568  2**0
                  CONTENTS, READONLY
 20 .simulation_enabled 00000001  00000000  00000000  0007c569  2**0
                  CONTENTS, READONLY
 21 .sysid_hash   00000004  00000000  00000000  0007c56a  2**0
                  CONTENTS, READONLY
 22 .sysid_base   00000004  00000000  00000000  0007c56e  2**0
                  CONTENTS, READONLY
 23 .sysid_time   00000004  00000000  00000000  0007c572  2**0
                  CONTENTS, READONLY
 24 .stderr_dev   00000009  00000000  00000000  0007c576  2**0
                  CONTENTS, READONLY
 25 .stdin_dev    00000009  00000000  00000000  0007c57f  2**0
                  CONTENTS, READONLY
 26 .stdout_dev   00000009  00000000  00000000  0007c588  2**0
                  CONTENTS, READONLY
 27 .sopc_system_name 00000010  00000000  00000000  0007c591  2**0
                  CONTENTS, READONLY
 28 .quartus_project_dir 0000003d  00000000  00000000  0007c5a1  2**0
                  CONTENTS, READONLY
 29 .jdi          00003dae  00000000  00000000  0007c5de  2**0
                  CONTENTS, READONLY
 30 .sopcinfo     00079fb4  00000000  00000000  0008038c  2**0
                  CONTENTS, READONLY
SYMBOL TABLE:
04000000 l    d  .entry	00000000 .entry
04000020 l    d  .exceptions	00000000 .exceptions
04000244 l    d  .text	00000000 .text
04012d6c l    d  .rodata	00000000 .rodata
04013224 l    d  .rwdata	00000000 .rwdata
04016934 l    d  .bss	00000000 .bss
04019240 l    d  .sdram	00000000 .sdram
00000000 l    d  .comment	00000000 .comment
00000000 l    d  .debug_aranges	00000000 .debug_aranges
00000000 l    d  .debug_info	00000000 .debug_info
00000000 l    d  .debug_abbrev	00000000 .debug_abbrev
00000000 l    d  .debug_line	00000000 .debug_line
00000000 l    d  .debug_frame	00000000 .debug_frame
00000000 l    d  .debug_str	00000000 .debug_str
00000000 l    d  .debug_loc	00000000 .debug_loc
00000000 l    d  .debug_alt_sim_info	00000000 .debug_alt_sim_info
00000000 l    d  .debug_ranges	00000000 .debug_ranges
00000000 l    df *ABS*	00000000 ../tecnica1_bsp//obj/HAL/src/crt0.o
0400028c l       .text	00000000 alt_after_alt_main
00000000 l    df *ABS*	00000000 alt_irq_handler.c
00000000 l    df *ABS*	00000000 alt_instruction_exception_entry.c
00000000 l    df *ABS*	00000000 backpropagation_best2019_superdef_ver2_alumnos-1.c
00000000 l    df *ABS*	00000000 s_tanh.c
04014ce0 l     O .rwdata	00000008 one
04014ce8 l     O .rwdata	00000008 two
04014cf0 l     O .rwdata	00000008 tiny
00000000 l    df *ABS*	00000000 w_sqrt.c
00000000 l    df *ABS*	00000000 e_sqrt.c
04014cf8 l     O .rwdata	00000008 one
04014d00 l     O .rwdata	00000008 tiny
00000000 l    df *ABS*	00000000 s_expm1.c
04014d08 l     O .rwdata	00000008 one
04014d10 l     O .rwdata	00000008 huge
04014d18 l     O .rwdata	00000008 tiny
04014d20 l     O .rwdata	00000008 o_threshold
04014d28 l     O .rwdata	00000008 ln2_hi
04014d30 l     O .rwdata	00000008 ln2_lo
04014d38 l     O .rwdata	00000008 invln2
04014d40 l     O .rwdata	00000008 Q1
04014d48 l     O .rwdata	00000008 Q2
04014d50 l     O .rwdata	00000008 Q3
04014d58 l     O .rwdata	00000008 Q4
04014d60 l     O .rwdata	00000008 Q5
00000000 l    df *ABS*	00000000 s_fabs.c
00000000 l    df *ABS*	00000000 s_fpclassify.c
00000000 l    df *ABS*	00000000 s_lib_ver.c
00000000 l    df *ABS*	00000000 s_matherr.c
00000000 l    df *ABS*	00000000 adddf3.c
00000000 l    df *ABS*	00000000 divdf3.c
00000000 l    df *ABS*	00000000 eqdf2.c
00000000 l    df *ABS*	00000000 gedf2.c
00000000 l    df *ABS*	00000000 ledf2.c
00000000 l    df *ABS*	00000000 muldf3.c
00000000 l    df *ABS*	00000000 subdf3.c
00000000 l    df *ABS*	00000000 fixdfsi.c
00000000 l    df *ABS*	00000000 floatsidf.c
00000000 l    df *ABS*	00000000 extendsfdf2.c
00000000 l    df *ABS*	00000000 truncdfsf2.c
00000000 l    df *ABS*	00000000 libgcc2.c
00000000 l    df *ABS*	00000000 lib2-divmod.c
00000000 l    df *ABS*	00000000 libgcc2.c
00000000 l    df *ABS*	00000000 errno.c
00000000 l    df *ABS*	00000000 impure.c
04013224 l     O .rwdata	00000424 impure_data
00000000 l    df *ABS*	00000000 printf.c
00000000 l    df *ABS*	00000000 putchar.c
00000000 l    df *ABS*	00000000 puts.c
00000000 l    df *ABS*	00000000 rand.c
00000000 l    df *ABS*	00000000 strlen.c
00000000 l    df *ABS*	00000000 system.c
00000000 l    df *ABS*	00000000 time.c
00000000 l    df *ABS*	00000000 vfprintf.c
04012f76 l     O .rodata	00000010 zeroes.4404
04007fd4 l     F .text	000000bc __sbprintf
04012f86 l     O .rodata	00000010 blanks.4403
00000000 l    df *ABS*	00000000 wsetup.c
00000000 l    df *ABS*	00000000 dtoa.c
040081e4 l     F .text	00000200 quorem
00000000 l    df *ABS*	00000000 fflush.c
00000000 l    df *ABS*	00000000 findfp.c
04009d14 l     F .text	00000008 __fp_unlock
04009d28 l     F .text	0000019c __sinit.part.1
04009ec4 l     F .text	00000008 __fp_lock
00000000 l    df *ABS*	00000000 mallocr.c
00000000 l    df *ABS*	00000000 fvwrite.c
00000000 l    df *ABS*	00000000 fwalk.c
00000000 l    df *ABS*	00000000 gettimeofdayr.c
00000000 l    df *ABS*	00000000 int_errno.c
00000000 l    df *ABS*	00000000 locale.c
04013668 l     O .rwdata	00000020 lc_ctype_charset
04013648 l     O .rwdata	00000020 lc_message_charset
04013688 l     O .rwdata	00000038 lconv
00000000 l    df *ABS*	00000000 makebuf.c
00000000 l    df *ABS*	00000000 mallocr.c
00000000 l    df *ABS*	00000000 memchr.c
00000000 l    df *ABS*	00000000 memcpy.c
00000000 l    df *ABS*	00000000 memmove.c
00000000 l    df *ABS*	00000000 memset.c
00000000 l    df *ABS*	00000000 mprec.c
04012fb4 l     O .rodata	0000000c p05.2768
00000000 l    df *ABS*	00000000 putc.c
00000000 l    df *ABS*	00000000 mallocr.c
00000000 l    df *ABS*	00000000 sbrkr.c
00000000 l    df *ABS*	00000000 stdio.c
00000000 l    df *ABS*	00000000 strcmp.c
00000000 l    df *ABS*	00000000 vfprintf.c
0400d410 l     F .text	000000fc __sprint_r.part.0
040130e8 l     O .rodata	00000010 blanks.4348
040130d8 l     O .rodata	00000010 zeroes.4349
0400e99c l     F .text	000000bc __sbprintf
00000000 l    df *ABS*	00000000 wbuf.c
00000000 l    df *ABS*	00000000 writer.c
00000000 l    df *ABS*	00000000 closer.c
00000000 l    df *ABS*	00000000 mallocr.c
00000000 l    df *ABS*	00000000 fclose.c
00000000 l    df *ABS*	00000000 fputwc.c
00000000 l    df *ABS*	00000000 fstatr.c
00000000 l    df *ABS*	00000000 isattyr.c
00000000 l    df *ABS*	00000000 lseekr.c
00000000 l    df *ABS*	00000000 readr.c
00000000 l    df *ABS*	00000000 wcrtomb.c
00000000 l    df *ABS*	00000000 wctomb_r.c
00000000 l    df *ABS*	00000000 libgcc2.c
00000000 l    df *ABS*	00000000 libgcc2.c
00000000 l    df *ABS*	00000000 libgcc2.c
00000000 l    df *ABS*	00000000 floatunsidf.c
00000000 l    df *ABS*	00000000 alt_close.c
0400ff44 l     F .text	0000003c alt_get_errno
00000000 l    df *ABS*	00000000 alt_dev.c
04010050 l     F .text	0000002c alt_dev_null_write
00000000 l    df *ABS*	00000000 alt_errno.c
00000000 l    df *ABS*	00000000 alt_fstat.c
0401007c l     F .text	0000003c alt_get_errno
00000000 l    df *ABS*	00000000 alt_gettod.c
00000000 l    df *ABS*	00000000 alt_isatty.c
0401035c l     F .text	0000003c alt_get_errno
00000000 l    df *ABS*	00000000 alt_load.c
0401043c l     F .text	00000068 alt_load_section
00000000 l    df *ABS*	00000000 alt_lseek.c
04010528 l     F .text	0000003c alt_get_errno
00000000 l    df *ABS*	00000000 alt_main.c
00000000 l    df *ABS*	00000000 alt_malloc_lock.c
00000000 l    df *ABS*	00000000 alt_read.c
040106fc l     F .text	0000003c alt_get_errno
00000000 l    df *ABS*	00000000 alt_release_fd.c
00000000 l    df *ABS*	00000000 alt_sbrk.c
04014d9c l     O .rwdata	00000004 heap_end
00000000 l    df *ABS*	00000000 alt_tick.c
00000000 l    df *ABS*	00000000 alt_write.c
04010aec l     F .text	0000003c alt_get_errno
00000000 l    df *ABS*	00000000 alt_sys_init.c
04010c20 l     F .text	00000034 alt_dev_reg
04013c70 l     O .rwdata	00001060 jtag_uart
00000000 l    df *ABS*	00000000 altera_avalon_jtag_uart_fd.c
00000000 l    df *ABS*	00000000 altera_avalon_jtag_uart_init.c
04010f1c l     F .text	0000020c altera_avalon_jtag_uart_irq
04011128 l     F .text	000000a0 altera_avalon_jtag_uart_timeout
00000000 l    df *ABS*	00000000 altera_avalon_jtag_uart_ioctl.c
00000000 l    df *ABS*	00000000 altera_avalon_jtag_uart_read.c
00000000 l    df *ABS*	00000000 altera_avalon_jtag_uart_write.c
00000000 l    df *ABS*	00000000 altera_avalon_timer_sc.c
04011760 l     F .text	00000078 alt_avalon_timer_sc_irq
00000000 l    df *ABS*	00000000 perf_print_formatted_report.c
00000000 l    df *ABS*	00000000 alt_alarm_start.c
00000000 l    df *ABS*	00000000 alt_dcache_flush_all.c
00000000 l    df *ABS*	00000000 alt_dev_llist_insert.c
04011c48 l     F .text	0000003c alt_get_errno
00000000 l    df *ABS*	00000000 alt_do_ctors.c
00000000 l    df *ABS*	00000000 alt_do_dtors.c
00000000 l    df *ABS*	00000000 alt_icache_flush_all.c
00000000 l    df *ABS*	00000000 alt_iic.c
00000000 l    df *ABS*	00000000 alt_iic_isr_register.c
00000000 l    df *ABS*	00000000 alt_io_redirect.c
040120bc l     F .text	000000c4 alt_open_fd
00000000 l    df *ABS*	00000000 alt_irq_vars.c
00000000 l    df *ABS*	00000000 alt_open.c
040121fc l     F .text	0000003c alt_get_errno
04012238 l     F .text	000000c4 alt_file_locked
00000000 l    df *ABS*	00000000 altera_nios2_gen2_irq.c
00000000 l    df *ABS*	00000000 altera_avalon_performance_counter.c
00000000 l    df *ABS*	00000000 alt_find_dev.c
00000000 l    df *ABS*	00000000 alt_find_file.c
00000000 l    df *ABS*	00000000 alt_get_fd.c
00000000 l    df *ABS*	00000000 alt_icache_flush.c
00000000 l    df *ABS*	00000000 atexit.c
00000000 l    df *ABS*	00000000 exit.c
00000000 l    df *ABS*	00000000 memcmp.c
00000000 l    df *ABS*	00000000 __atexit.c
00000000 l    df *ABS*	00000000 __call_atexit.c
00000000 l    df *ABS*	00000000 libgcc2.c
00000000 l    df *ABS*	00000000 alt_exit.c
04016994 g     O .bss	00000004 alt_instruction_exception_handler
04005b10 g     F .text	00000018 putchar
0400c960 g     F .text	00000074 _mprec_log10
0400ca4c g     F .text	0000008c __any_on
0400f090 g     F .text	00000054 _isatty_r
04012fc0 g     O .rodata	00000028 __mprec_tinytens
04010638 g     F .text	0000007c alt_main
04005b28 g     F .text	000000c0 _puts_r
04002070 g     F .text	00000dfc expm1
04019140 g     O .bss	00000100 alt_irq
04002e6c g     F .text	00000088 fabs
0400f0e4 g     F .text	00000060 _lseek_r
040018b4 g     F .text	00000174 sqrt
04014dac g       *ABS*	00000000 __flash_rwdata_start
040041f4 g     F .text	00000088 .hidden __eqdf2
0400ab2c g     F .text	0000005c _gettimeofday_r
04019240 g       *ABS*	00000000 __alt_heap_start
04005acc g     F .text	0000003c printf
0400f1a4 g     F .text	0000009c _wcrtomb_r
0400d2d0 g     F .text	0000005c __sseek
0400a064 g     F .text	00000010 __sinit
040125dc g     F .text	00000024 alt_get_cpu_freq
0400ea58 g     F .text	00000140 __swbuf_r
0400ab88 g     F .text	0000007c _setlocale_r
04009ecc g     F .text	00000068 __sfmoreglue
040106d8 g     F .text	00000024 __malloc_unlock
0400b858 g     F .text	0000015c memmove
04011854 g     F .text	00000280 perf_print_formatted_report
0400a04c g     F .text	00000018 _cleanup
04016934 g     O .bss	00000004 patNum
0400badc g     F .text	000000a8 _Balloc
0400427c g     F .text	000000dc .hidden __gtdf2
04012450 g     F .text	00000024 altera_nios2_gen2_irq_init
04005a8c g     F .text	00000010 __errno
04000000 g     F .entry	0000001c __reset
04000020 g       *ABS*	00000000 __flash_exceptions_start
0400f034 g     F .text	0000005c _fstat_r
04016950 g     O .bss	00000004 errno
0400d24c g     F .text	00000008 __seofread
04016980 g     O .bss	00000004 alt_argv
0401ccd0 g       *ABS*	00000000 _gp
04016938 g     O .bss	00000004 errThisPat
04016940 g     O .bss	00000004 RMSerror
04013af0 g     O .rwdata	00000180 alt_fd_list
04000744 g     F .text	00000040 WeightChangesH2O
04000874 g     F .text	000000cc WeightChangesH1H2
04005b08 g     F .text	00000008 _putchar_r
04012600 g     F .text	00000090 alt_find_dev
0400b710 g     F .text	00000148 memcpy
04009d1c g     F .text	0000000c _cleanup_r
040054e0 g     F .text	000000dc .hidden __floatsidf
04012180 g     F .text	0000007c alt_io_redirect
04004358 g     F .text	000000f4 .hidden __ltdf2
04012d6c g       *ABS*	00000000 __DTOR_END__
04005be8 g     F .text	00000014 puts
040128cc g     F .text	0000009c alt_exception_cause_generated_bad_addr
04002ef4 g     F .text	00000104 __fpclassifyd
0400c8bc g     F .text	000000a4 __ratio
04005d40 g     F .text	00000030 system
0400e980 g     F .text	0000001c __vfiprintf_internal
04011320 g     F .text	0000021c altera_avalon_jtag_uart_read
04005a9c g     F .text	00000030 _printf_r
040059d0 g     F .text	00000064 .hidden __udivsi3
04010398 g     F .text	000000a4 isatty
04013010 g     O .rodata	000000c8 __mprec_tens
0400ac04 g     F .text	0000000c __locale_charset
0401696c g     O .bss	00000008 alt_timezone
0401283c g     F .text	00000090 alt_icache_flush
04016968 g     O .bss	00000004 __malloc_top_pad
0401257c g     F .text	00000040 perf_get_num_starts
04014d74 g     O .rwdata	00000004 __mb_cur_max
0400ac34 g     F .text	0000000c _localeconv_r
04014cd8 g     O .rwdata	00000004 LR_H2O
0400bee8 g     F .text	0000003c __i2b
0400a4e8 g     F .text	000004bc __sfvwrite_r
0400d1a4 g     F .text	00000054 _sbrk_r
04000a9c g     F .text	00000128 WeightChangesIH1
04000bc4 g     F .text	00000120 WeightUpdatesIH1
0400f144 g     F .text	00000060 _read_r
04014d94 g     O .rwdata	00000004 alt_max_fd
0400ed28 g     F .text	000000f0 _fclose_r
04009ce4 g     F .text	00000030 fflush
04016964 g     O .bss	00000004 __malloc_max_sbrked_mem
040055bc g     F .text	00000110 .hidden __extendsfdf2
04005d10 g     F .text	00000030 _system_r
04003060 g     F .text	000008ac .hidden __adddf3
04001134 g     F .text	000000d8 displayResults
04014cd4 g     O .rwdata	00000004 LR_IH1
0400c664 g     F .text	0000010c __b2d
0400f964 g     F .text	00000538 .hidden __umoddi3
04010564 g     F .text	000000d4 lseek
04014d68 g     O .rwdata	00000004 __fdlib_version
040169c0 g     O .bss	00000050 hiddenVal2
04014d6c g     O .rwdata	00000004 _global_impure_ptr
0400034c g     F .text	000003f8 calcNet
0400cc40 g     F .text	00000564 _realloc_r
04019240 g       *ABS*	00000000 __bss_end
04011fcc g     F .text	000000f0 alt_iic_isr_register
040109e4 g     F .text	00000108 alt_tick
0400f3ec g     F .text	00000578 .hidden __udivdi3
0400ef90 g     F .text	00000024 _fputwc_r
04012fe8 g     O .rodata	00000028 __mprec_bigtens
0400bccc g     F .text	00000104 __s2b
0400fe9c g     F .text	000000a8 .hidden __floatunsidf
0400c3a4 g     F .text	00000060 __mcmp
0400a084 g     F .text	00000018 __fp_lock_all
04011f80 g     F .text	0000004c alt_ic_irq_enabled
04010948 g     F .text	0000009c alt_alarm_stop
0400120c g     F .text	000000c0 calcOverallError
04016990 g     O .bss	00000004 alt_irq_active
04014cdc g     O .rwdata	00000004 LR_H1H2
040000fc g     F .exceptions	000000d4 alt_irq_handler
04013ac8 g     O .rwdata	00000028 alt_dev_null
04011c00 g     F .text	00000048 alt_dcache_flush_all
0400bdd0 g     F .text	00000068 __hi0bits
04005460 g     F .text	00000080 .hidden __fixdfsi
04014dac g       *ABS*	00000000 __ram_rwdata_end
04016a10 g     O .bss	00000050 delta_h2
04014d8c g     O .rwdata	00000008 alt_dev_list
04010b28 g     F .text	000000f8 write
0400cad8 g     F .text	000000a0 _putc_r
04016a60 g     O .bss	00000054 weightsH2O
04013224 g       *ABS*	00000000 __ram_rodata_end
040100b8 g     F .text	000000b0 fstat
04004358 g     F .text	000000f4 .hidden __ledf2
04000940 g     F .text	0000015c WeightUpdatesH1H2
0400c11c g     F .text	00000140 __pow5mult
0400d524 g     F .text	0000145c ___vfiprintf_internal_r
0401695c g     O .bss	00000004 __nlocale_changed
04005a34 g     F .text	00000058 .hidden __umodsi3
04019240 g       *ABS*	00000000 end
04010e5c g     F .text	000000c0 altera_avalon_jtag_uart_init
040001d0 g     F .exceptions	00000074 alt_instruction_exception_entry
04012d6c g       *ABS*	00000000 __CTOR_LIST__
08000000 g       *ABS*	00000000 __alt_stack_pointer
040117d8 g     F .text	0000007c alt_avalon_timer_sc_init
04005874 g     F .text	00000064 .hidden __clzsi2
0401153c g     F .text	00000224 altera_avalon_jtag_uart_write
040014e0 g     F .text	000003d4 tanh
0400a074 g     F .text	00000004 __sfp_lock_acquire
04000fb0 g     F .text	00000184 initData
0400b62c g     F .text	000000e4 memchr
04005dc0 g     F .text	000021f8 ___vfprintf_internal_r
04000784 g     F .text	000000f0 WeightUpdatesH2O
0400a1d8 g     F .text	00000310 _free_r
04000290 g     F .text	000000bc print_array
0400ac10 g     F .text	00000010 __locale_mb_cur_max
04012b48 g     F .text	00000180 __call_exitprocs
04016958 g     O .bss	00000004 __mlocale_changed
04014d78 g     O .rwdata	00000004 __malloc_sbrk_base
04000244 g     F .text	0000004c _start
04016988 g     O .bss	00000004 _alt_tick_rate
04014cd0 g     O .rwdata	00000004 numEpochs
04016ab4 g     O .bss	000000c8 ponderacion1
04012cc8 g     F .text	00000070 .hidden __floatundidf
04005c14 g     F .text	00000064 rand
0400c25c g     F .text	00000148 __lshift
0401698c g     O .bss	00000004 _alt_nticks
04010738 g     F .text	000000fc read
04010c8c g     F .text	0000006c alt_sys_init
04012a30 g     F .text	00000118 __register_exitproc
0400bf24 g     F .text	000001f8 __multiply
040111c8 g     F .text	00000068 altera_avalon_jtag_uart_close
04013224 g       *ABS*	00000000 __ram_rwdata_start
04012d6c g       *ABS*	00000000 __ram_rodata_start
04016998 g     O .bss	00000028 __malloc_current_mallinfo
04016b7c g     O .bss	000000c8 der_hiddenVal1
0400c770 g     F .text	0000014c __d2b
04016944 g     O .bss	00000004 outPred
04010cf8 g     F .text	00000060 altera_avalon_jtag_uart_read_fd
04012798 g     F .text	000000a4 alt_get_fd
04000ce4 g     F .text	0000003c getRand
0400ec10 g     F .text	00000054 _close_r
04012474 g     F .text	000000bc perf_get_section_time
04016948 g     O .bss	00000004 ponderacion3
040129b4 g     F .text	0000007c memcmp
04010db8 g     F .text	00000050 altera_avalon_jtag_uart_close_fd
04019240 g       *ABS*	00000000 __alt_stack_base
04010e08 g     F .text	00000054 altera_avalon_jtag_uart_ioctl_fd
04008090 g     F .text	00000154 __swsetup_r
0400390c g     F .text	000008e8 .hidden __divdf3
04009f34 g     F .text	00000118 __sfp
0400c9d4 g     F .text	00000078 __copybits
04012530 g     F .text	0000004c perf_get_total_time
04016c44 g     O .bss	00000ff0 weightsH1H2_old
040136c0 g     O .rwdata	00000408 __malloc_av_
0400a080 g     F .text	00000004 __sinit_lock_release
0400444c g     F .text	00000718 .hidden __muldf3
0400d1f8 g     F .text	00000054 __sread
04012690 g     F .text	00000108 alt_find_file
04011c84 g     F .text	000000a4 alt_dev_llist_insert
040106b4 g     F .text	00000024 __malloc_lock
04010898 g     F .text	000000b0 sbrk
04009c88 g     F .text	0000005c _fflush_r
0400ec64 g     F .text	000000c4 _calloc_r
04010168 g     F .text	000001f4 gettimeofday
04016934 g       *ABS*	00000000 __bss_start
0400b9b4 g     F .text	00000128 memset
04000d20 g     F .text	00000290 initWeights
040012cc g     F .text	00000214 main
04016984 g     O .bss	00000004 alt_envp
04016960 g     O .bss	00000004 __malloc_max_total_mem
04010d58 g     F .text	00000060 altera_avalon_jtag_uart_write_fd
0400eb98 g     F .text	00000018 __swbuf
04005bfc g     F .text	00000018 srand
0400d32c g     F .text	00000008 __sclose
04002ff8 g     F .text	00000068 matherr
08000000 g       *ABS*	00000000 __alt_heap_limit
0400ee18 g     F .text	00000014 fclose
040056cc g     F .text	000001a8 .hidden __truncdfsf2
040083e4 g     F .text	00001688 _dtoa_r
0400ae20 g     F .text	0000080c _malloc_r
0400f300 g     F .text	00000030 __ascii_wctomb
04005d70 g     F .text	00000050 time
04014d98 g     O .rwdata	00000004 alt_errno
0400a9a4 g     F .text	000000c4 _fwalk
0400cb78 g     F .text	000000c8 putc
040058d8 g     F .text	00000084 .hidden __divsi3
0400a0b4 g     F .text	00000124 _malloc_trim_r
04012d6c g       *ABS*	00000000 __CTOR_END__
0400d334 g     F .text	000000dc strcmp
04012d6c g       *ABS*	00000000 __flash_rodata_start
04017c34 g     O .bss	000000c8 hiddenVal1
04012d6c g       *ABS*	00000000 __DTOR_LIST__
040041f4 g     F .text	00000088 .hidden __nedf2
04010c54 g     F .text	00000038 alt_irq_init
04010834 g     F .text	00000064 alt_release_fd
04012e29 g     O .rodata	00000100 .hidden __clz_tab
04016954 g     O .bss	00000004 _PathLocale
04012968 g     F .text	00000014 atexit
0400ebb0 g     F .text	00000060 _write_r
0400ac40 g     F .text	00000018 setlocale
04014d70 g     O .rwdata	00000004 _impure_ptr
0401697c g     O .bss	00000004 alt_argc
04009a6c g     F .text	0000021c __sflush_r
04011d88 g     F .text	00000060 _do_dtors
0400ac2c g     F .text	00000008 __locale_cjk_lang
04000020 g       .exceptions	00000000 alt_irq_entry
0400c600 g     F .text	00000064 __ulp
0400a09c g     F .text	00000018 __fp_unlock_all
04014d84 g     O .rwdata	00000008 alt_fs_list
04017cfc g     O .bss	00000258 weightsIH1
04017f54 g     O .bss	00000054 weightsH2O_old
0401694c g     O .bss	00000004 der_outPred
04016974 g     O .bss	00000008 alt_resettime
04000020 g       *ABS*	00000000 __ram_exceptions_start
0400ac58 g     F .text	0000000c localeconv
04001a28 g     F .text	00000648 __ieee754_sqrt
04011e1c g     F .text	00000050 alt_ic_isr_register
04014dac g       *ABS*	00000000 _edata
04019240 g       *ABS*	00000000 _end
0400ee2c g     F .text	00000164 __fputwc
04000244 g       *ABS*	00000000 __ram_exceptions_end
04011230 g     F .text	000000f0 altera_avalon_jtag_uart_ioctl
04011ef4 g     F .text	0000008c alt_ic_irq_disable
04017fa8 g     O .bss	00000030 trainInputs
0400d254 g     F .text	0000007c __swrite
04014d7c g     O .rwdata	00000004 __malloc_trim_threshold
040125bc g     F .text	00000020 alt_get_performance_counter_base
0400ac20 g     F .text	0000000c __locale_msgcharset
0401297c g     F .text	00000038 exit
0400aa68 g     F .text	000000c4 _fwalk_reent
0400c404 g     F .text	000001fc __mdiff
0400595c g     F .text	00000074 .hidden __modsi3
08000000 g       *ABS*	00000000 __alt_data_end
04000020 g     F .exceptions	00000000 alt_exception
0400a078 g     F .text	00000004 __sfp_lock_release
04017fd8 g     O .bss	00000010 trainOutput
04000000 g       *ABS*	00000000 __alt_mem_sdram
04017fe8 g     O .bss	00000050 ponderacion2
04018038 g     O .bss	00000ff0 weightsH1H2
04012d38 g     F .text	00000034 _exit
04011ad4 g     F .text	0000012c alt_alarm_start
0401693c g     O .bss	00000004 delta_o
0400f38c g     F .text	00000060 .hidden __muldi3
0400ac64 g     F .text	000001bc __smakebuf_r
04005c78 g     F .text	00000098 strlen
040122fc g     F .text	00000154 open
0400427c g     F .text	000000dc .hidden __gedf2
04019028 g     O .bss	00000050 der_hiddenVal2
04014d80 g     O .rwdata	00000004 __wctomb
0400d50c g     F .text	00000018 __sprint_r
04011de8 g     F .text	00000034 alt_icache_flush_all
04014da8 g     O .rwdata	00000004 alt_priority_mask
04019078 g     O .bss	000000c8 delta_h1
04011e6c g     F .text	00000088 alt_ic_irq_enable
04007fb8 g     F .text	0000001c __vfprintf_internal
0400f330 g     F .text	0000005c _wctomb_r
04004b64 g     F .text	000008fc .hidden __subdf3
0400be38 g     F .text	000000b0 __lo0bits
04014da0 g     O .rwdata	00000008 alt_alarm_list
04011d28 g     F .text	00000060 _do_ctors
0400f240 g     F .text	000000c0 wcrtomb
0400ff80 g     F .text	000000d0 close
040104a4 g     F .text	00000084 alt_load
0400efb4 g     F .text	00000080 fputwc
0400a07c g     F .text	00000004 __sinit_lock_acquire
0400bbac g     F .text	00000120 __multadd
0400bb84 g     F .text	00000028 _Bfree



Disassembly of section .entry:

04000000 <__reset>:
#if NIOS2_ICACHE_SIZE > 0 && defined(ALT_ALLOW_CODE_AT_RESET) && (!defined(ALT_SIM_OPTIMIZE) || defined(NIOS2_ECC_PRESENT))
    /* Assume the instruction cache size is always a power of two. */
#if NIOS2_ICACHE_SIZE > 0x8000
    movhi r2, %hi(NIOS2_ICACHE_SIZE)
#else
    movui r2, NIOS2_ICACHE_SIZE
 4000000:	00840014 	movui	r2,4096
#endif

0:
    initi r2
 4000004:	1001483a 	initi	r2
    addi r2, r2, -NIOS2_ICACHE_LINE_SIZE
 4000008:	10bff804 	addi	r2,r2,-32
    bgt r2, zero, 0b
 400000c:	00bffd16 	blt	zero,r2,4000004 <__alt_data_end+0xfc000004>
 * Jump to the _start entry point in the .text section if reset code
 * is allowed or if optimizing for RTL simulation.
 */
#if defined(ALT_ALLOW_CODE_AT_RESET) || defined(ALT_SIM_OPTIMIZE)
    /* Jump to the _start entry point in the .text section. */
    movhi r1, %hi(_start)
 4000010:	00410034 	movhi	at,1024
    ori r1, r1, %lo(_start)
 4000014:	08409114 	ori	at,at,580
    jmp r1
 4000018:	0800683a 	jmp	at
 400001c:	00000000 	call	0 <__alt_mem_sdram-0x4000000>

Disassembly of section .exceptions:

04000020 <alt_exception>:

#else /* ALT_EXCEPTION_STACK disabled */
        /* 
         * Reserve space on normal stack for registers about to be pushed.
         */
        addi  sp, sp, -76
 4000020:	deffed04 	addi	sp,sp,-76
         * documentation for details).
         *
         * Leave a gap in the stack frame at 4(sp) for the muldiv handler to
         * store zero into.
         */
        stw   ra,  0(sp)
 4000024:	dfc00015 	stw	ra,0(sp)
        stw   r1,   8(sp)
 4000028:	d8400215 	stw	at,8(sp)
        stw   r2,  12(sp)
 400002c:	d8800315 	stw	r2,12(sp)
        stw   r3,  16(sp)
 4000030:	d8c00415 	stw	r3,16(sp)
        stw   r4,  20(sp)
 4000034:	d9000515 	stw	r4,20(sp)
        stw   r5,  24(sp)
 4000038:	d9400615 	stw	r5,24(sp)
        stw   r6,  28(sp)
 400003c:	d9800715 	stw	r6,28(sp)
        stw   r7,  32(sp)
 4000040:	d9c00815 	stw	r7,32(sp)
        rdctl r5, estatus   /* Read early to avoid usage stall */
 4000044:	000b307a 	rdctl	r5,estatus
        stw   r8,  36(sp)
 4000048:	da000915 	stw	r8,36(sp)
        stw   r9,  40(sp)
 400004c:	da400a15 	stw	r9,40(sp)
        stw   r10, 44(sp)
 4000050:	da800b15 	stw	r10,44(sp)
        stw   r11, 48(sp)
 4000054:	dac00c15 	stw	r11,48(sp)
        stw   r12, 52(sp)
 4000058:	db000d15 	stw	r12,52(sp)
        stw   r13, 56(sp)
 400005c:	db400e15 	stw	r13,56(sp)
        stw   r14, 60(sp)
 4000060:	db800f15 	stw	r14,60(sp)
        stw   r15, 64(sp)
 4000064:	dbc01015 	stw	r15,64(sp)
        /*
         * ea-4 contains the address of the instruction being executed
         * when the exception occured. For interrupt exceptions, we will
         * will be re-issue the isntruction. Store it in 72(sp)
         */
        stw   r5,  68(sp)  /* estatus */
 4000068:	d9401115 	stw	r5,68(sp)
        addi  r15, ea, -4  /* instruction that caused exception */
 400006c:	ebffff04 	addi	r15,ea,-4
        stw   r15,  72(sp)
 4000070:	dbc01215 	stw	r15,72(sp)
#else
        /*
         * Test to see if the exception was a software exception or caused 
         * by an external interrupt, and vector accordingly.
         */
        rdctl r4, ipending
 4000074:	0009313a 	rdctl	r4,ipending
        andi  r2, r5, 1
 4000078:	2880004c 	andi	r2,r5,1
        beq   r2, zero, .Lnot_irq
 400007c:	10000326 	beq	r2,zero,400008c <alt_exception+0x6c>
        beq   r4, zero, .Lnot_irq
 4000080:	20000226 	beq	r4,zero,400008c <alt_exception+0x6c>
        /*
         * Now that all necessary registers have been preserved, call 
         * alt_irq_handler() to process the interrupts.
         */

        call alt_irq_handler
 4000084:	40000fc0 	call	40000fc <alt_irq_handler>

        .section .exceptions.irqreturn, "xa"

        br    .Lexception_exit
 4000088:	00000706 	br	40000a8 <alt_exception+0x88>
         * upon completion, so we write ea (address of instruction *after*
         * the one where the exception occured) into 72(sp). The actual
         * instruction that caused the exception is written in r2, which these
         * handlers will utilize.
         */
        stw ea, 72(sp) /* EA is PC+4 so will skip over instruction causing exception */
 400008c:	df401215 	stw	ea,72(sp)
.Lunknown_16bit:
        addi.n r4, r4, 2 /* Need PC+2 to skip over instruction causing exception */
        stw r4, 72(sp)

#else /* CDX is not Enabled and all instructions are 32bits */
        ldw r2, -4(ea) /* Instruction value that caused exception */
 4000090:	e8bfff17 	ldw	r2,-4(ea)
         * debugger is present) or go into an infinite loop since the
         * handling behavior is undefined; in that case we will not return here.
         */

        /* Load exception-causing address as first argument (r4) */
        addi   r4, ea, -4
 4000094:	e93fff04 	addi	r4,ea,-4

        /* Call the instruction-exception entry */
        call   alt_instruction_exception_entry
 4000098:	40001d00 	call	40001d0 <alt_instruction_exception_entry>
         * instruction
         *
         * Return code was 0: Skip. The instruction after the exception is
         * already stored in 72(sp).
         */
        bne   r2, r0, .Lexception_exit
 400009c:	1000021e 	bne	r2,zero,40000a8 <alt_exception+0x88>

        /*
         * Otherwise, modify 72(sp) to re-issue the instruction that caused the
         * exception.
         */
        addi  r15, ea, -4  /* instruction that caused exception */
 40000a0:	ebffff04 	addi	r15,ea,-4
        stw   r15,  72(sp)
 40000a4:	dbc01215 	stw	r15,72(sp)
        /* 
         * Restore the saved registers, so that all general purpose registers 
         * have been restored to their state at the time the interrupt occured.
         */

        ldw   r5,  68(sp)
 40000a8:	d9401117 	ldw	r5,68(sp)
        ldw   ea,  72(sp)  /* This becomes the PC once eret is executed */
 40000ac:	df401217 	ldw	ea,72(sp)
        ldw   ra,   0(sp)
 40000b0:	dfc00017 	ldw	ra,0(sp)

        wrctl estatus, r5
 40000b4:	2801707a 	wrctl	estatus,r5

        ldw   r1,   8(sp)
 40000b8:	d8400217 	ldw	at,8(sp)
        ldw   r2,  12(sp)
 40000bc:	d8800317 	ldw	r2,12(sp)
        ldw   r3,  16(sp)
 40000c0:	d8c00417 	ldw	r3,16(sp)
        ldw   r4,  20(sp)
 40000c4:	d9000517 	ldw	r4,20(sp)
        ldw   r5,  24(sp)
 40000c8:	d9400617 	ldw	r5,24(sp)
        ldw   r6,  28(sp)
 40000cc:	d9800717 	ldw	r6,28(sp)
        ldw   r7,  32(sp)
 40000d0:	d9c00817 	ldw	r7,32(sp)

#if defined(ALT_EXCEPTION_STACK) && defined(ALT_STACK_CHECK)
        ldw   et, %gprel(alt_exception_old_stack_limit)(gp)
#endif

        ldw   r8,  36(sp)
 40000d4:	da000917 	ldw	r8,36(sp)
        ldw   r9,  40(sp)
 40000d8:	da400a17 	ldw	r9,40(sp)
        ldw   r10, 44(sp)
 40000dc:	da800b17 	ldw	r10,44(sp)
        ldw   r11, 48(sp)
 40000e0:	dac00c17 	ldw	r11,48(sp)
        ldw   r12, 52(sp)
 40000e4:	db000d17 	ldw	r12,52(sp)
        ldw   r13, 56(sp)
 40000e8:	db400e17 	ldw	r13,56(sp)
        ldw   r14, 60(sp)
 40000ec:	db800f17 	ldw	r14,60(sp)
        ldw   r15, 64(sp)
 40000f0:	dbc01017 	ldw	r15,64(sp)
        stw   et, %gprel(alt_stack_limit_value)(gp)
        stw   zero, %gprel(alt_exception_old_stack_limit)(gp)
#endif /* ALT_STACK_CHECK */
        ldw   sp,  76(sp)
#else /* ALT_EXCEPTION_STACK disabled */
        addi  sp, sp, 76
 40000f4:	dec01304 	addi	sp,sp,76

        /*
         * Return to the interrupted instruction.
         */

        eret
 40000f8:	ef80083a 	eret

040000fc <alt_irq_handler>:
 * instruction is present if the macro ALT_CI_INTERRUPT_VECTOR defined.
 */

void alt_irq_handler (void) __attribute__ ((section (".exceptions")));
void alt_irq_handler (void)
{
 40000fc:	defff904 	addi	sp,sp,-28
 4000100:	dfc00615 	stw	ra,24(sp)
 4000104:	df000515 	stw	fp,20(sp)
 4000108:	df000504 	addi	fp,sp,20
  
  /*
   * Notify the operating system that we are at interrupt level.
   */ 
  
  ALT_OS_INT_ENTER();
 400010c:	0001883a 	nop
#ifndef NIOS2_EIC_PRESENT
static ALT_INLINE alt_u32 ALT_ALWAYS_INLINE alt_irq_pending (void)
{
  alt_u32 active;

  NIOS2_READ_IPENDING (active);
 4000110:	0005313a 	rdctl	r2,ipending
 4000114:	e0bffe15 	stw	r2,-8(fp)

  return active;
 4000118:	e0bffe17 	ldw	r2,-8(fp)
   * Consider the case where the high priority interupt is asserted during
   * the interrupt entry sequence for a lower priority interrupt to see why
   * this is the case.
   */

  active = alt_irq_pending ();
 400011c:	e0bffb15 	stw	r2,-20(fp)

  do
  {
    i = 0;
 4000120:	e03ffd15 	stw	zero,-12(fp)
    mask = 1;
 4000124:	00800044 	movi	r2,1
 4000128:	e0bffc15 	stw	r2,-16(fp)
     * called to clear the interrupt condition.
     */

    do
    {
      if (active & mask)
 400012c:	e0fffb17 	ldw	r3,-20(fp)
 4000130:	e0bffc17 	ldw	r2,-16(fp)
 4000134:	1884703a 	and	r2,r3,r2
 4000138:	10001426 	beq	r2,zero,400018c <alt_irq_handler+0x90>
      { 
#ifdef ALT_ENHANCED_INTERRUPT_API_PRESENT
        alt_irq[i].handler(alt_irq[i].context); 
 400013c:	008100b4 	movhi	r2,1026
 4000140:	10a45004 	addi	r2,r2,-28352
 4000144:	e0fffd17 	ldw	r3,-12(fp)
 4000148:	180690fa 	slli	r3,r3,3
 400014c:	10c5883a 	add	r2,r2,r3
 4000150:	10c00017 	ldw	r3,0(r2)
 4000154:	008100b4 	movhi	r2,1026
 4000158:	10a45004 	addi	r2,r2,-28352
 400015c:	e13ffd17 	ldw	r4,-12(fp)
 4000160:	200890fa 	slli	r4,r4,3
 4000164:	1105883a 	add	r2,r2,r4
 4000168:	10800104 	addi	r2,r2,4
 400016c:	10800017 	ldw	r2,0(r2)
 4000170:	1009883a 	mov	r4,r2
 4000174:	183ee83a 	callr	r3
#else
        alt_irq[i].handler(alt_irq[i].context, i); 
#endif
        break;
 4000178:	0001883a 	nop
#ifndef NIOS2_EIC_PRESENT
static ALT_INLINE alt_u32 ALT_ALWAYS_INLINE alt_irq_pending (void)
{
  alt_u32 active;

  NIOS2_READ_IPENDING (active);
 400017c:	0005313a 	rdctl	r2,ipending
 4000180:	e0bfff15 	stw	r2,-4(fp)

  return active;
 4000184:	e0bfff17 	ldw	r2,-4(fp)
 4000188:	00000706 	br	40001a8 <alt_irq_handler+0xac>
      }
      mask <<= 1;
 400018c:	e0bffc17 	ldw	r2,-16(fp)
 4000190:	1085883a 	add	r2,r2,r2
 4000194:	e0bffc15 	stw	r2,-16(fp)
      i++;
 4000198:	e0bffd17 	ldw	r2,-12(fp)
 400019c:	10800044 	addi	r2,r2,1
 40001a0:	e0bffd15 	stw	r2,-12(fp)

    } while (1);
 40001a4:	003fe106 	br	400012c <__alt_data_end+0xfc00012c>

    active = alt_irq_pending ();
 40001a8:	e0bffb15 	stw	r2,-20(fp)
    
  } while (active);
 40001ac:	e0bffb17 	ldw	r2,-20(fp)
 40001b0:	103fdb1e 	bne	r2,zero,4000120 <__alt_data_end+0xfc000120>

  /*
   * Notify the operating system that interrupt processing is complete.
   */ 

  ALT_OS_INT_EXIT();
 40001b4:	0001883a 	nop
}
 40001b8:	0001883a 	nop
 40001bc:	e037883a 	mov	sp,fp
 40001c0:	dfc00117 	ldw	ra,4(sp)
 40001c4:	df000017 	ldw	fp,0(sp)
 40001c8:	dec00204 	addi	sp,sp,8
 40001cc:	f800283a 	ret

040001d0 <alt_instruction_exception_entry>:
 * that handler if it has been registered. Absent a handler, it will
 * break break or hang as discussed below.
 */
int 
alt_instruction_exception_entry (alt_u32 exception_pc)
{
 40001d0:	defffb04 	addi	sp,sp,-20
 40001d4:	dfc00415 	stw	ra,16(sp)
 40001d8:	df000315 	stw	fp,12(sp)
 40001dc:	df000304 	addi	fp,sp,12
 40001e0:	e13fff15 	stw	r4,-4(fp)
 * NIOS2_EXCEPTION_CAUSE_NOT_PRESENT. Your handling routine should
 * check the validity of the cause argument before proceeding.
 */
#ifdef NIOS2_HAS_EXTRA_EXCEPTION_INFO
  /* Get exception cause & "badaddr" */
  NIOS2_READ_EXCEPTION(cause);
 40001e4:	000531fa 	rdctl	r2,exception
 40001e8:	e0bffd15 	stw	r2,-12(fp)
  cause = ( (cause & NIOS2_EXCEPTION_REG_CAUSE_MASK) >>
 40001ec:	e0bffd17 	ldw	r2,-12(fp)
 40001f0:	10801f0c 	andi	r2,r2,124
 40001f4:	1004d0ba 	srli	r2,r2,2
 40001f8:	e0bffd15 	stw	r2,-12(fp)
              NIOS2_EXCEPTION_REG_CAUSE_OFST );

  NIOS2_READ_BADADDR(badaddr);
 40001fc:	0005333a 	rdctl	r2,badaddr
 4000200:	e0bffe15 	stw	r2,-8(fp)
#else
  cause = NIOS2_EXCEPTION_CAUSE_NOT_PRESENT;
  badaddr = 0;
#endif /* NIOS2_HAS_EXTRA_EXCEPTION_INFO */

  if(alt_instruction_exception_handler) {
 4000204:	d0a73117 	ldw	r2,-25404(gp)
 4000208:	10000726 	beq	r2,zero,4000228 <alt_instruction_exception_entry+0x58>
     * Call handler. Its return value indicates whether the exception-causing
     * instruction should be re-issued. The code that called us,
     * alt_eceptions_entry.S, will look at this value and adjust the ea
     * register as necessary
     */
    return alt_instruction_exception_handler(cause, exception_pc, badaddr);
 400020c:	d0a73117 	ldw	r2,-25404(gp)
 4000210:	e0fffd17 	ldw	r3,-12(fp)
 4000214:	e1bffe17 	ldw	r6,-8(fp)
 4000218:	e17fff17 	ldw	r5,-4(fp)
 400021c:	1809883a 	mov	r4,r3
 4000220:	103ee83a 	callr	r2
 4000224:	00000206 	br	4000230 <alt_instruction_exception_entry+0x60>
   *    (a peripheral which negates its interrupt output before its
   *    interrupt handler has been executed will cause spurious interrupts)
   */
  else {
#ifdef NIOS2_HAS_DEBUG_STUB
    NIOS2_BREAK();
 4000228:	003da03a 	break	0
      ;
#endif /* NIOS2_HAS_DEBUG_STUB */
  }

  /* We should not get here. Remove compiler warning. */
  return NIOS2_EXCEPTION_RETURN_REISSUE_INST;
 400022c:	0005883a 	mov	r2,zero
}
 4000230:	e037883a 	mov	sp,fp
 4000234:	dfc00117 	ldw	ra,4(sp)
 4000238:	df000017 	ldw	fp,0(sp)
 400023c:	dec00204 	addi	sp,sp,8
 4000240:	f800283a 	ret

Disassembly of section .text:

04000244 <_start>:

    /* Assume the data cache size is always a power of two. */
#if NIOS2_DCACHE_SIZE > 0x8000
    movhi r2, %hi(NIOS2_DCACHE_SIZE)
#else
    movui r2, NIOS2_DCACHE_SIZE
 4000244:	00820014 	movui	r2,2048
#endif

0:
    initd 0(r2)
 4000248:	10000033 	initd	0(r2)
#ifdef NIOS2_ECC_PRESENT
    addi r2, r2, -4
#else
    addi r2, r2, -NIOS2_DCACHE_LINE_SIZE
 400024c:	10bff804 	addi	r2,r2,-32
#endif
    bgt r2, zero, 0b
 4000250:	00bffd16 	blt	zero,r2,4000248 <__alt_data_end+0xfc000248>

    /*
     * Now that the caches are initialized, set up the stack pointer and global pointer.
     * The values provided by the linker are assumed to be correctly aligned.
     */
    movhi sp, %hi(__alt_stack_pointer)
 4000254:	06c20034 	movhi	sp,2048
    ori sp, sp, %lo(__alt_stack_pointer)
 4000258:	dec00014 	ori	sp,sp,0
    movhi gp, %hi(_gp)
 400025c:	06810074 	movhi	gp,1025
    ori gp, gp, %lo(_gp)
 4000260:	d6b33414 	ori	gp,gp,52432
 */
#ifndef ALT_SIM_OPTIMIZE
    /* Log that the BSS is about to be cleared. */
    ALT_LOG_PUTS(alt_log_msg_bss)

    movhi r2, %hi(__bss_start)
 4000264:	00810074 	movhi	r2,1025
    ori r2, r2, %lo(__bss_start)
 4000268:	109a4d14 	ori	r2,r2,26932

    movhi r3, %hi(__bss_end)
 400026c:	00c10074 	movhi	r3,1025
    ori r3, r3, %lo(__bss_end)
 4000270:	18e49014 	ori	r3,r3,37440

    beq r2, r3, 1f
 4000274:	10c00326 	beq	r2,r3,4000284 <_start+0x40>

0:
    stw zero, (r2)
 4000278:	10000015 	stw	zero,0(r2)
    addi r2, r2, 4
 400027c:	10800104 	addi	r2,r2,4
    bltu r2, r3, 0b
 4000280:	10fffd36 	bltu	r2,r3,4000278 <__alt_data_end+0xfc000278>
     * section aren't defined until alt_load() has been called).
     */
    mov   et, zero
#endif

    call alt_load
 4000284:	40104a40 	call	40104a4 <alt_load>

    /* Log that alt_main is about to be called. */
    ALT_LOG_PUTS(alt_log_msg_alt_main)

    /* Call the C entry point. It should never return. */
    call alt_main
 4000288:	40106380 	call	4010638 <alt_main>

0400028c <alt_after_alt_main>:

    /* Wait in infinite loop in case alt_main does return. */
alt_after_alt_main:
    br alt_after_alt_main
 400028c:	003fff06 	br	400028c <__alt_data_end+0xfc00028c>

04000290 <print_array>:

//==============================================================
//************** function definitions **************************
//==============================================================
void print_array(float data[], int n)
{
 4000290:	defffb04 	addi	sp,sp,-20
 4000294:	dfc00415 	stw	ra,16(sp)
 4000298:	df000315 	stw	fp,12(sp)
 400029c:	df000304 	addi	fp,sp,12
 40002a0:	e13ffe15 	stw	r4,-8(fp)
 40002a4:	e17fff15 	stw	r5,-4(fp)
    int i;

    printf("[");
 40002a8:	010016c4 	movi	r4,91
 40002ac:	4005b100 	call	4005b10 <putchar>
    for (i = 0; i < n; i++)
 40002b0:	e03ffd15 	stw	zero,-12(fp)
 40002b4:	00001906 	br	400031c <print_array+0x8c>
    {

        printf("%f",data[i]);
 40002b8:	e0bffd17 	ldw	r2,-12(fp)
 40002bc:	1085883a 	add	r2,r2,r2
 40002c0:	1085883a 	add	r2,r2,r2
 40002c4:	1007883a 	mov	r3,r2
 40002c8:	e0bffe17 	ldw	r2,-8(fp)
 40002cc:	10c5883a 	add	r2,r2,r3
 40002d0:	10c00017 	ldw	r3,0(r2)
 40002d4:	1809883a 	mov	r4,r3
 40002d8:	40055bc0 	call	40055bc <__extendsfdf2>
 40002dc:	100d883a 	mov	r6,r2
 40002e0:	180f883a 	mov	r7,r3
 40002e4:	300b883a 	mov	r5,r6
 40002e8:	380d883a 	mov	r6,r7
 40002ec:	01010074 	movhi	r4,1025
 40002f0:	210b5b04 	addi	r4,r4,11628
 40002f4:	4005acc0 	call	4005acc <printf>
        if (i != n-1)
 40002f8:	e0bfff17 	ldw	r2,-4(fp)
 40002fc:	10ffffc4 	addi	r3,r2,-1
 4000300:	e0bffd17 	ldw	r2,-12(fp)
 4000304:	18800226 	beq	r3,r2,4000310 <print_array+0x80>
        {
            printf(",");
 4000308:	01000b04 	movi	r4,44
 400030c:	4005b100 	call	4005b10 <putchar>
void print_array(float data[], int n)
{
    int i;

    printf("[");
    for (i = 0; i < n; i++)
 4000310:	e0bffd17 	ldw	r2,-12(fp)
 4000314:	10800044 	addi	r2,r2,1
 4000318:	e0bffd15 	stw	r2,-12(fp)
 400031c:	e0fffd17 	ldw	r3,-12(fp)
 4000320:	e0bfff17 	ldw	r2,-4(fp)
 4000324:	18bfe416 	blt	r3,r2,40002b8 <__alt_data_end+0xfc0002b8>
        if (i != n-1)
        {
            printf(",");
        }
    }
    printf("]\n");
 4000328:	01010074 	movhi	r4,1025
 400032c:	210b5c04 	addi	r4,r4,11632
 4000330:	4005be80 	call	4005be8 <puts>
}
 4000334:	0001883a 	nop
 4000338:	e037883a 	mov	sp,fp
 400033c:	dfc00117 	ldw	ra,4(sp)
 4000340:	df000017 	ldw	fp,0(sp)
 4000344:	dec00204 	addi	sp,sp,8
 4000348:	f800283a 	ret

0400034c <calcNet>:

//***********************************
// calculates the network output
void calcNet(void)
{
 400034c:	defffc04 	addi	sp,sp,-16
 4000350:	dfc00315 	stw	ra,12(sp)
 4000354:	df000215 	stw	fp,8(sp)
 4000358:	df000204 	addi	fp,sp,8
    //calculate the outputs of the hidden neurons of hidden layer 1
    //the hidden neurons are tanh
    int i = 0;
 400035c:	e03ffe15 	stw	zero,-8(fp)
    int j =0;
 4000360:	e03fff15 	stw	zero,-4(fp)


    for(i = 0;i<numHidden1;i++)
 4000364:	e03ffe15 	stw	zero,-8(fp)
 4000368:	00005b06 	br	40004d8 <calcNet+0x18c>
    {

      ponderacion1[i] =  weightsIH1[numInputs][i];
 400036c:	00810074 	movhi	r2,1025
 4000370:	109f3f04 	addi	r2,r2,31996
 4000374:	e0fffe17 	ldw	r3,-8(fp)
 4000378:	18c01904 	addi	r3,r3,100
 400037c:	18c7883a 	add	r3,r3,r3
 4000380:	18c7883a 	add	r3,r3,r3
 4000384:	10c5883a 	add	r2,r2,r3
 4000388:	11000017 	ldw	r4,0(r2)
 400038c:	00810074 	movhi	r2,1025
 4000390:	109aad04 	addi	r2,r2,27316
 4000394:	e0fffe17 	ldw	r3,-8(fp)
 4000398:	18c7883a 	add	r3,r3,r3
 400039c:	18c7883a 	add	r3,r3,r3
 40003a0:	10c5883a 	add	r2,r2,r3
 40003a4:	11000015 	stw	r4,0(r2)

        for(j = 0;j<numInputs;j++)
 40003a8:	e03fff15 	stw	zero,-4(fp)
 40003ac:	00002906 	br	4000454 <calcNet+0x108>
        {

       ponderacion1[i] = ponderacion1[i] + (trainInputs[patNum][j] * weightsIH1[j][i]);
 40003b0:	00810074 	movhi	r2,1025
 40003b4:	109aad04 	addi	r2,r2,27316
 40003b8:	e0fffe17 	ldw	r3,-8(fp)
 40003bc:	18c7883a 	add	r3,r3,r3
 40003c0:	18c7883a 	add	r3,r3,r3
 40003c4:	10c5883a 	add	r2,r2,r3
 40003c8:	11400017 	ldw	r5,0(r2)
 40003cc:	d1271917 	ldw	r4,-25500(gp)
 40003d0:	00c10074 	movhi	r3,1025
 40003d4:	18dfea04 	addi	r3,r3,32680
 40003d8:	2005883a 	mov	r2,r4
 40003dc:	1085883a 	add	r2,r2,r2
 40003e0:	1105883a 	add	r2,r2,r4
 40003e4:	e13fff17 	ldw	r4,-4(fp)
 40003e8:	1105883a 	add	r2,r2,r4
 40003ec:	1085883a 	add	r2,r2,r2
 40003f0:	1085883a 	add	r2,r2,r2
 40003f4:	1885883a 	add	r2,r3,r2
 40003f8:	11000017 	ldw	r4,0(r2)
 40003fc:	00810074 	movhi	r2,1025
 4000400:	109f3f04 	addi	r2,r2,31996
 4000404:	e0ffff17 	ldw	r3,-4(fp)
 4000408:	19800ca4 	muli	r6,r3,50
 400040c:	e0fffe17 	ldw	r3,-8(fp)
 4000410:	30c7883a 	add	r3,r6,r3
 4000414:	18c7883a 	add	r3,r3,r3
 4000418:	18c7883a 	add	r3,r3,r3
 400041c:	10c7883a 	add	r3,r2,r3
 4000420:	18800017 	ldw	r2,0(r3)
 4000424:	2085ff32 	custom	252,r2,r4,r2
 4000428:	2889ff72 	custom	253,r4,r5,r2
 400042c:	00810074 	movhi	r2,1025
 4000430:	109aad04 	addi	r2,r2,27316
 4000434:	e0fffe17 	ldw	r3,-8(fp)
 4000438:	18c7883a 	add	r3,r3,r3
 400043c:	18c7883a 	add	r3,r3,r3
 4000440:	10c5883a 	add	r2,r2,r3
 4000444:	11000015 	stw	r4,0(r2)
    for(i = 0;i<numHidden1;i++)
    {

      ponderacion1[i] =  weightsIH1[numInputs][i];

        for(j = 0;j<numInputs;j++)
 4000448:	e0bfff17 	ldw	r2,-4(fp)
 400044c:	10800044 	addi	r2,r2,1
 4000450:	e0bfff15 	stw	r2,-4(fp)
 4000454:	e0bfff17 	ldw	r2,-4(fp)
 4000458:	10800090 	cmplti	r2,r2,2
 400045c:	103fd41e 	bne	r2,zero,40003b0 <__alt_data_end+0xfc0003b0>

       ponderacion1[i] = ponderacion1[i] + (trainInputs[patNum][j] * weightsIH1[j][i]);

        }

			hiddenVal1[i] = tanh(ponderacion1[i]);
 4000460:	00810074 	movhi	r2,1025
 4000464:	109aad04 	addi	r2,r2,27316
 4000468:	e0fffe17 	ldw	r3,-8(fp)
 400046c:	18c7883a 	add	r3,r3,r3
 4000470:	18c7883a 	add	r3,r3,r3
 4000474:	10c5883a 	add	r2,r2,r3
 4000478:	10c00017 	ldw	r3,0(r2)
 400047c:	1809883a 	mov	r4,r3
 4000480:	40055bc0 	call	40055bc <__extendsfdf2>
 4000484:	100b883a 	mov	r5,r2
 4000488:	180d883a 	mov	r6,r3
 400048c:	2809883a 	mov	r4,r5
 4000490:	300b883a 	mov	r5,r6
 4000494:	40014e00 	call	40014e0 <tanh>
 4000498:	100b883a 	mov	r5,r2
 400049c:	180d883a 	mov	r6,r3
 40004a0:	2809883a 	mov	r4,r5
 40004a4:	300b883a 	mov	r5,r6
 40004a8:	40056cc0 	call	40056cc <__truncdfsf2>
 40004ac:	1009883a 	mov	r4,r2
 40004b0:	00810074 	movhi	r2,1025
 40004b4:	109f0d04 	addi	r2,r2,31796
 40004b8:	e0fffe17 	ldw	r3,-8(fp)
 40004bc:	18c7883a 	add	r3,r3,r3
 40004c0:	18c7883a 	add	r3,r3,r3
 40004c4:	10c5883a 	add	r2,r2,r3
 40004c8:	11000015 	stw	r4,0(r2)
    //the hidden neurons are tanh
    int i = 0;
    int j =0;


    for(i = 0;i<numHidden1;i++)
 40004cc:	e0bffe17 	ldw	r2,-8(fp)
 40004d0:	10800044 	addi	r2,r2,1
 40004d4:	e0bffe15 	stw	r2,-8(fp)
 40004d8:	e0bffe17 	ldw	r2,-8(fp)
 40004dc:	10800c90 	cmplti	r2,r2,50
 40004e0:	103fa21e 	bne	r2,zero,400036c <__alt_data_end+0xfc00036c>
			hiddenVal1[i] = tanh(ponderacion1[i]);

    }


    for(i = 0;i<numHidden2;i++)
 40004e4:	e03ffe15 	stw	zero,-8(fp)
 40004e8:	00005606 	br	4000644 <calcNet+0x2f8>
    {

      ponderacion2[i] =  weightsH1H2[numHidden1][i];
 40004ec:	008100b4 	movhi	r2,1026
 40004f0:	10a00e04 	addi	r2,r2,-32712
 40004f4:	e0fffe17 	ldw	r3,-8(fp)
 40004f8:	18c0fa04 	addi	r3,r3,1000
 40004fc:	18c7883a 	add	r3,r3,r3
 4000500:	18c7883a 	add	r3,r3,r3
 4000504:	10c5883a 	add	r2,r2,r3
 4000508:	11000017 	ldw	r4,0(r2)
 400050c:	00810074 	movhi	r2,1025
 4000510:	109ffa04 	addi	r2,r2,32744
 4000514:	e0fffe17 	ldw	r3,-8(fp)
 4000518:	18c7883a 	add	r3,r3,r3
 400051c:	18c7883a 	add	r3,r3,r3
 4000520:	10c5883a 	add	r2,r2,r3
 4000524:	11000015 	stw	r4,0(r2)

        for(j = 0;j<numHidden1;j++)
 4000528:	e03fff15 	stw	zero,-4(fp)
 400052c:	00002406 	br	40005c0 <calcNet+0x274>
        {

        ponderacion2[i] =ponderacion2[i]+  (hiddenVal1[j] * weightsH1H2[j][i]);
 4000530:	00810074 	movhi	r2,1025
 4000534:	109ffa04 	addi	r2,r2,32744
 4000538:	e0fffe17 	ldw	r3,-8(fp)
 400053c:	18c7883a 	add	r3,r3,r3
 4000540:	18c7883a 	add	r3,r3,r3
 4000544:	10c5883a 	add	r2,r2,r3
 4000548:	11000017 	ldw	r4,0(r2)
 400054c:	00810074 	movhi	r2,1025
 4000550:	109f0d04 	addi	r2,r2,31796
 4000554:	e0ffff17 	ldw	r3,-4(fp)
 4000558:	18c7883a 	add	r3,r3,r3
 400055c:	18c7883a 	add	r3,r3,r3
 4000560:	10c5883a 	add	r2,r2,r3
 4000564:	11400017 	ldw	r5,0(r2)
 4000568:	008100b4 	movhi	r2,1026
 400056c:	10a00e04 	addi	r2,r2,-32712
 4000570:	e0ffff17 	ldw	r3,-4(fp)
 4000574:	19800524 	muli	r6,r3,20
 4000578:	e0fffe17 	ldw	r3,-8(fp)
 400057c:	30c7883a 	add	r3,r6,r3
 4000580:	18c7883a 	add	r3,r3,r3
 4000584:	18c7883a 	add	r3,r3,r3
 4000588:	10c7883a 	add	r3,r2,r3
 400058c:	18800017 	ldw	r2,0(r3)
 4000590:	2885ff32 	custom	252,r2,r5,r2
 4000594:	2089ff72 	custom	253,r4,r4,r2
 4000598:	00810074 	movhi	r2,1025
 400059c:	109ffa04 	addi	r2,r2,32744
 40005a0:	e0fffe17 	ldw	r3,-8(fp)
 40005a4:	18c7883a 	add	r3,r3,r3
 40005a8:	18c7883a 	add	r3,r3,r3
 40005ac:	10c5883a 	add	r2,r2,r3
 40005b0:	11000015 	stw	r4,0(r2)
    for(i = 0;i<numHidden2;i++)
    {

      ponderacion2[i] =  weightsH1H2[numHidden1][i];

        for(j = 0;j<numHidden1;j++)
 40005b4:	e0bfff17 	ldw	r2,-4(fp)
 40005b8:	10800044 	addi	r2,r2,1
 40005bc:	e0bfff15 	stw	r2,-4(fp)
 40005c0:	e0bfff17 	ldw	r2,-4(fp)
 40005c4:	10800c90 	cmplti	r2,r2,50
 40005c8:	103fd91e 	bne	r2,zero,4000530 <__alt_data_end+0xfc000530>
        ponderacion2[i] =ponderacion2[i]+  (hiddenVal1[j] * weightsH1H2[j][i]);

        }


			hiddenVal2[i] = tanh(ponderacion2[i]);
 40005cc:	00810074 	movhi	r2,1025
 40005d0:	109ffa04 	addi	r2,r2,32744
 40005d4:	e0fffe17 	ldw	r3,-8(fp)
 40005d8:	18c7883a 	add	r3,r3,r3
 40005dc:	18c7883a 	add	r3,r3,r3
 40005e0:	10c5883a 	add	r2,r2,r3
 40005e4:	10c00017 	ldw	r3,0(r2)
 40005e8:	1809883a 	mov	r4,r3
 40005ec:	40055bc0 	call	40055bc <__extendsfdf2>
 40005f0:	100b883a 	mov	r5,r2
 40005f4:	180d883a 	mov	r6,r3
 40005f8:	2809883a 	mov	r4,r5
 40005fc:	300b883a 	mov	r5,r6
 4000600:	40014e00 	call	40014e0 <tanh>
 4000604:	100b883a 	mov	r5,r2
 4000608:	180d883a 	mov	r6,r3
 400060c:	2809883a 	mov	r4,r5
 4000610:	300b883a 	mov	r5,r6
 4000614:	40056cc0 	call	40056cc <__truncdfsf2>
 4000618:	1009883a 	mov	r4,r2
 400061c:	00810074 	movhi	r2,1025
 4000620:	109a7004 	addi	r2,r2,27072
 4000624:	e0fffe17 	ldw	r3,-8(fp)
 4000628:	18c7883a 	add	r3,r3,r3
 400062c:	18c7883a 	add	r3,r3,r3
 4000630:	10c5883a 	add	r2,r2,r3
 4000634:	11000015 	stw	r4,0(r2)
			hiddenVal1[i] = tanh(ponderacion1[i]);

    }


    for(i = 0;i<numHidden2;i++)
 4000638:	e0bffe17 	ldw	r2,-8(fp)
 400063c:	10800044 	addi	r2,r2,1
 4000640:	e0bffe15 	stw	r2,-8(fp)
 4000644:	e0bffe17 	ldw	r2,-8(fp)
 4000648:	10800510 	cmplti	r2,r2,20
 400064c:	103fa71e 	bne	r2,zero,40004ec <__alt_data_end+0xfc0004ec>

    }
   //calculate the output of the network
   //the output neuron is linear

   ponderacion3 =  weightsH2O[numHidden2];
 4000650:	00810074 	movhi	r2,1025
 4000654:	109a9804 	addi	r2,r2,27232
 4000658:	10c01417 	ldw	r3,80(r2)
 400065c:	d0e71e15 	stw	r3,-25480(gp)


   for(i = 0;i<numHidden2;i++)
 4000660:	e03ffe15 	stw	zero,-8(fp)
 4000664:	00001506 	br	40006bc <calcNet+0x370>
   {

    ponderacion3= ponderacion3 + hiddenVal2[i] * weightsH2O[i];
 4000668:	00810074 	movhi	r2,1025
 400066c:	109a7004 	addi	r2,r2,27072
 4000670:	e0fffe17 	ldw	r3,-8(fp)
 4000674:	18c7883a 	add	r3,r3,r3
 4000678:	18c7883a 	add	r3,r3,r3
 400067c:	10c5883a 	add	r2,r2,r3
 4000680:	11000017 	ldw	r4,0(r2)
 4000684:	00810074 	movhi	r2,1025
 4000688:	109a9804 	addi	r2,r2,27232
 400068c:	e0fffe17 	ldw	r3,-8(fp)
 4000690:	18c7883a 	add	r3,r3,r3
 4000694:	18c7883a 	add	r3,r3,r3
 4000698:	10c7883a 	add	r3,r2,r3
 400069c:	18800017 	ldw	r2,0(r3)
 40006a0:	2087ff32 	custom	252,r3,r4,r2
 40006a4:	d0a71e17 	ldw	r2,-25480(gp)
 40006a8:	1885ff72 	custom	253,r2,r3,r2
 40006ac:	d0a71e15 	stw	r2,-25480(gp)
   //the output neuron is linear

   ponderacion3 =  weightsH2O[numHidden2];


   for(i = 0;i<numHidden2;i++)
 40006b0:	e0bffe17 	ldw	r2,-8(fp)
 40006b4:	10800044 	addi	r2,r2,1
 40006b8:	e0bffe15 	stw	r2,-8(fp)
 40006bc:	e0bffe17 	ldw	r2,-8(fp)
 40006c0:	10800510 	cmplti	r2,r2,20
 40006c4:	103fe81e 	bne	r2,zero,4000668 <__alt_data_end+0xfc000668>
    ponderacion3= ponderacion3 + hiddenVal2[i] * weightsH2O[i];

   }


        outPred  = tanh(ponderacion3);
 40006c8:	d0a71e17 	ldw	r2,-25480(gp)
 40006cc:	1009883a 	mov	r4,r2
 40006d0:	40055bc0 	call	40055bc <__extendsfdf2>
 40006d4:	100b883a 	mov	r5,r2
 40006d8:	180d883a 	mov	r6,r3
 40006dc:	2809883a 	mov	r4,r5
 40006e0:	300b883a 	mov	r5,r6
 40006e4:	40014e00 	call	40014e0 <tanh>
 40006e8:	100b883a 	mov	r5,r2
 40006ec:	180d883a 	mov	r6,r3
 40006f0:	2809883a 	mov	r4,r5
 40006f4:	300b883a 	mov	r5,r6
 40006f8:	40056cc0 	call	40056cc <__truncdfsf2>
 40006fc:	1007883a 	mov	r3,r2
 4000700:	d0e71d15 	stw	r3,-25484(gp)

    //calculate the error
    errThisPat = trainOutput[patNum]-outPred;
 4000704:	d0e71917 	ldw	r3,-25500(gp)
 4000708:	00810074 	movhi	r2,1025
 400070c:	109ff604 	addi	r2,r2,32728
 4000710:	18c7883a 	add	r3,r3,r3
 4000714:	18c7883a 	add	r3,r3,r3
 4000718:	10c5883a 	add	r2,r2,r3
 400071c:	10c00017 	ldw	r3,0(r2)
 4000720:	d0a71d17 	ldw	r2,-25484(gp)
 4000724:	1885ffb2 	custom	254,r2,r3,r2
 4000728:	d0a71a15 	stw	r2,-25496(gp)

}
 400072c:	0001883a 	nop
 4000730:	e037883a 	mov	sp,fp
 4000734:	dfc00117 	ldw	ra,4(sp)
 4000738:	df000017 	ldw	fp,0(sp)
 400073c:	dec00204 	addi	sp,sp,8
 4000740:	f800283a 	ret

04000744 <WeightChangesH2O>:


//************************************
//adjust the weights hidden-output
void WeightChangesH2O(void)
{
 4000744:	deffff04 	addi	sp,sp,-4
 4000748:	df000015 	stw	fp,0(sp)
 400074c:	d839883a 	mov	fp,sp


		delta_o = (1 - (outPred * outPred))* errThisPat;
 4000750:	d0e71d17 	ldw	r3,-25484(gp)
 4000754:	d0a71d17 	ldw	r2,-25484(gp)
 4000758:	1885ff32 	custom	252,r2,r3,r2
 400075c:	00cfe034 	movhi	r3,16256
 4000760:	1887ffb2 	custom	254,r3,r3,r2
 4000764:	d0a71a17 	ldw	r2,-25496(gp)
 4000768:	1885ff32 	custom	252,r2,r3,r2
 400076c:	d0a71b15 	stw	r2,-25492(gp)


 }
 4000770:	0001883a 	nop
 4000774:	e037883a 	mov	sp,fp
 4000778:	df000017 	ldw	fp,0(sp)
 400077c:	dec00104 	addi	sp,sp,4
 4000780:	f800283a 	ret

04000784 <WeightUpdatesH2O>:

//************************************
//update the weights hidden-output
void WeightUpdatesH2O(void)
{
 4000784:	defffd04 	addi	sp,sp,-12
 4000788:	df000215 	stw	fp,8(sp)
 400078c:	df000204 	addi	fp,sp,8
    int k=0;
 4000790:	e03ffe15 	stw	zero,-8(fp)
   for(k = 0;k<numHidden2+1;k++)
 4000794:	e03ffe15 	stw	zero,-8(fp)
 4000798:	00002e06 	br	4000854 <WeightUpdatesH2O+0xd0>
   {
    float weightChange =delta_o * LR_H2O * hiddenVal2[k];
 400079c:	d0e71b17 	ldw	r3,-25492(gp)
 40007a0:	008f7374 	movhi	r2,15821
 40007a4:	10b33344 	addi	r2,r2,-13107
 40007a8:	1889ff32 	custom	252,r4,r3,r2
 40007ac:	00810074 	movhi	r2,1025
 40007b0:	109a7004 	addi	r2,r2,27072
 40007b4:	e0fffe17 	ldw	r3,-8(fp)
 40007b8:	18c7883a 	add	r3,r3,r3
 40007bc:	18c7883a 	add	r3,r3,r3
 40007c0:	10c7883a 	add	r3,r2,r3
 40007c4:	18800017 	ldw	r2,0(r3)
 40007c8:	2085ff32 	custom	252,r2,r4,r2
 40007cc:	e0bfff15 	stw	r2,-4(fp)

    weightsH2O_old[k] = weightsH2O[k] ;
 40007d0:	00810074 	movhi	r2,1025
 40007d4:	109a9804 	addi	r2,r2,27232
 40007d8:	e0fffe17 	ldw	r3,-8(fp)
 40007dc:	18c7883a 	add	r3,r3,r3
 40007e0:	18c7883a 	add	r3,r3,r3
 40007e4:	10c5883a 	add	r2,r2,r3
 40007e8:	11000017 	ldw	r4,0(r2)
 40007ec:	00810074 	movhi	r2,1025
 40007f0:	109fd504 	addi	r2,r2,32596
 40007f4:	e0fffe17 	ldw	r3,-8(fp)
 40007f8:	18c7883a 	add	r3,r3,r3
 40007fc:	18c7883a 	add	r3,r3,r3
 4000800:	10c5883a 	add	r2,r2,r3
 4000804:	11000015 	stw	r4,0(r2)
    weightsH2O[k] = weightsH2O[k] + weightChange;
 4000808:	00810074 	movhi	r2,1025
 400080c:	109a9804 	addi	r2,r2,27232
 4000810:	e0fffe17 	ldw	r3,-8(fp)
 4000814:	18c7883a 	add	r3,r3,r3
 4000818:	18c7883a 	add	r3,r3,r3
 400081c:	10c5883a 	add	r2,r2,r3
 4000820:	10c00017 	ldw	r3,0(r2)
 4000824:	e0bfff17 	ldw	r2,-4(fp)
 4000828:	1889ff72 	custom	253,r4,r3,r2
 400082c:	00810074 	movhi	r2,1025
 4000830:	109a9804 	addi	r2,r2,27232
 4000834:	e0fffe17 	ldw	r3,-8(fp)
 4000838:	18c7883a 	add	r3,r3,r3
 400083c:	18c7883a 	add	r3,r3,r3
 4000840:	10c5883a 	add	r2,r2,r3
 4000844:	11000015 	stw	r4,0(r2)
//************************************
//update the weights hidden-output
void WeightUpdatesH2O(void)
{
    int k=0;
   for(k = 0;k<numHidden2+1;k++)
 4000848:	e0bffe17 	ldw	r2,-8(fp)
 400084c:	10800044 	addi	r2,r2,1
 4000850:	e0bffe15 	stw	r2,-8(fp)
 4000854:	e0bffe17 	ldw	r2,-8(fp)
 4000858:	10800550 	cmplti	r2,r2,21
 400085c:	103fcf1e 	bne	r2,zero,400079c <__alt_data_end+0xfc00079c>
    weightsH2O_old[k] = weightsH2O[k] ;
    weightsH2O[k] = weightsH2O[k] + weightChange;

   }

 }
 4000860:	0001883a 	nop
 4000864:	e037883a 	mov	sp,fp
 4000868:	df000017 	ldw	fp,0(sp)
 400086c:	dec00104 	addi	sp,sp,4
 4000870:	f800283a 	ret

04000874 <WeightChangesH1H2>:

//************************************
// adjust the weights hidden1-hidden2
void WeightChangesH1H2(void)
{
 4000874:	defffe04 	addi	sp,sp,-8
 4000878:	df000115 	stw	fp,4(sp)
 400087c:	df000104 	addi	fp,sp,4

  int i=0; 
 4000880:	e03fff15 	stw	zero,-4(fp)
  for(i = 0;i<numHidden2;i++)
 4000884:	e03fff15 	stw	zero,-4(fp)
 4000888:	00002506 	br	4000920 <WeightChangesH1H2+0xac>
  {

		delta_h2[i] = (1 - (hiddenVal2[i] * hiddenVal2[i]))* delta_o* weightsH2O_old[i];
 400088c:	00810074 	movhi	r2,1025
 4000890:	109a7004 	addi	r2,r2,27072
 4000894:	e0ffff17 	ldw	r3,-4(fp)
 4000898:	18c7883a 	add	r3,r3,r3
 400089c:	18c7883a 	add	r3,r3,r3
 40008a0:	10c5883a 	add	r2,r2,r3
 40008a4:	11000017 	ldw	r4,0(r2)
 40008a8:	00810074 	movhi	r2,1025
 40008ac:	109a7004 	addi	r2,r2,27072
 40008b0:	e0ffff17 	ldw	r3,-4(fp)
 40008b4:	18c7883a 	add	r3,r3,r3
 40008b8:	18c7883a 	add	r3,r3,r3
 40008bc:	10c7883a 	add	r3,r2,r3
 40008c0:	18800017 	ldw	r2,0(r3)
 40008c4:	2085ff32 	custom	252,r2,r4,r2
 40008c8:	00cfe034 	movhi	r3,16256
 40008cc:	1887ffb2 	custom	254,r3,r3,r2
 40008d0:	d0a71b17 	ldw	r2,-25492(gp)
 40008d4:	1889ff32 	custom	252,r4,r3,r2
 40008d8:	00810074 	movhi	r2,1025
 40008dc:	109fd504 	addi	r2,r2,32596
 40008e0:	e0ffff17 	ldw	r3,-4(fp)
 40008e4:	18c7883a 	add	r3,r3,r3
 40008e8:	18c7883a 	add	r3,r3,r3
 40008ec:	10c7883a 	add	r3,r2,r3
 40008f0:	18800017 	ldw	r2,0(r3)
 40008f4:	2089ff32 	custom	252,r4,r4,r2
 40008f8:	00810074 	movhi	r2,1025
 40008fc:	109a8404 	addi	r2,r2,27152
 4000900:	e0ffff17 	ldw	r3,-4(fp)
 4000904:	18c7883a 	add	r3,r3,r3
 4000908:	18c7883a 	add	r3,r3,r3
 400090c:	10c5883a 	add	r2,r2,r3
 4000910:	11000015 	stw	r4,0(r2)
// adjust the weights hidden1-hidden2
void WeightChangesH1H2(void)
{

  int i=0; 
  for(i = 0;i<numHidden2;i++)
 4000914:	e0bfff17 	ldw	r2,-4(fp)
 4000918:	10800044 	addi	r2,r2,1
 400091c:	e0bfff15 	stw	r2,-4(fp)
 4000920:	e0bfff17 	ldw	r2,-4(fp)
 4000924:	10800510 	cmplti	r2,r2,20
 4000928:	103fd81e 	bne	r2,zero,400088c <__alt_data_end+0xfc00088c>



  }

}
 400092c:	0001883a 	nop
 4000930:	e037883a 	mov	sp,fp
 4000934:	df000017 	ldw	fp,0(sp)
 4000938:	dec00104 	addi	sp,sp,4
 400093c:	f800283a 	ret

04000940 <WeightUpdatesH1H2>:

//************************************
// update the weights hidden1-hidden2
void WeightUpdatesH1H2(void)
{
 4000940:	defffc04 	addi	sp,sp,-16
 4000944:	df000315 	stw	fp,12(sp)
 4000948:	df000304 	addi	fp,sp,12

  int i=0;
 400094c:	e03ffd15 	stw	zero,-12(fp)
  for(i = 0;i<numHidden2;i++)
 4000950:	e03ffd15 	stw	zero,-12(fp)
 4000954:	00004906 	br	4000a7c <WeightUpdatesH1H2+0x13c>
  {
   int k=0;
 4000958:	e03ffe15 	stw	zero,-8(fp)
   for( k = 0;k<numHidden1+1;k++)
 400095c:	e03ffe15 	stw	zero,-8(fp)
 4000960:	00004006 	br	4000a64 <WeightUpdatesH1H2+0x124>
   {
    float weightChange = delta_h2[i] * LR_H1H2 * hiddenVal1[k];
 4000964:	00810074 	movhi	r2,1025
 4000968:	109a8404 	addi	r2,r2,27152
 400096c:	e0fffd17 	ldw	r3,-12(fp)
 4000970:	18c7883a 	add	r3,r3,r3
 4000974:	18c7883a 	add	r3,r3,r3
 4000978:	10c5883a 	add	r2,r2,r3
 400097c:	10c00017 	ldw	r3,0(r2)
 4000980:	008f7374 	movhi	r2,15821
 4000984:	10b33344 	addi	r2,r2,-13107
 4000988:	1889ff32 	custom	252,r4,r3,r2
 400098c:	00810074 	movhi	r2,1025
 4000990:	109f0d04 	addi	r2,r2,31796
 4000994:	e0fffe17 	ldw	r3,-8(fp)
 4000998:	18c7883a 	add	r3,r3,r3
 400099c:	18c7883a 	add	r3,r3,r3
 40009a0:	10c7883a 	add	r3,r2,r3
 40009a4:	18800017 	ldw	r2,0(r3)
 40009a8:	2085ff32 	custom	252,r2,r4,r2
 40009ac:	e0bfff15 	stw	r2,-4(fp)

   weightsH1H2_old[k][i] = weightsH1H2[k][i];
 40009b0:	008100b4 	movhi	r2,1026
 40009b4:	10a00e04 	addi	r2,r2,-32712
 40009b8:	e0fffe17 	ldw	r3,-8(fp)
 40009bc:	19000524 	muli	r4,r3,20
 40009c0:	e0fffd17 	ldw	r3,-12(fp)
 40009c4:	20c7883a 	add	r3,r4,r3
 40009c8:	18c7883a 	add	r3,r3,r3
 40009cc:	18c7883a 	add	r3,r3,r3
 40009d0:	10c5883a 	add	r2,r2,r3
 40009d4:	11000017 	ldw	r4,0(r2)
 40009d8:	00810074 	movhi	r2,1025
 40009dc:	109b1104 	addi	r2,r2,27716
 40009e0:	e0fffe17 	ldw	r3,-8(fp)
 40009e4:	19400524 	muli	r5,r3,20
 40009e8:	e0fffd17 	ldw	r3,-12(fp)
 40009ec:	28c7883a 	add	r3,r5,r3
 40009f0:	18c7883a 	add	r3,r3,r3
 40009f4:	18c7883a 	add	r3,r3,r3
 40009f8:	10c5883a 	add	r2,r2,r3
 40009fc:	11000015 	stw	r4,0(r2)
   weightsH1H2[k][i] = weightsH1H2[k][i] + weightChange;
 4000a00:	008100b4 	movhi	r2,1026
 4000a04:	10a00e04 	addi	r2,r2,-32712
 4000a08:	e0fffe17 	ldw	r3,-8(fp)
 4000a0c:	19000524 	muli	r4,r3,20
 4000a10:	e0fffd17 	ldw	r3,-12(fp)
 4000a14:	20c7883a 	add	r3,r4,r3
 4000a18:	18c7883a 	add	r3,r3,r3
 4000a1c:	18c7883a 	add	r3,r3,r3
 4000a20:	10c5883a 	add	r2,r2,r3
 4000a24:	10c00017 	ldw	r3,0(r2)
 4000a28:	e0bfff17 	ldw	r2,-4(fp)
 4000a2c:	1889ff72 	custom	253,r4,r3,r2
 4000a30:	008100b4 	movhi	r2,1026
 4000a34:	10a00e04 	addi	r2,r2,-32712
 4000a38:	e0fffe17 	ldw	r3,-8(fp)
 4000a3c:	19400524 	muli	r5,r3,20
 4000a40:	e0fffd17 	ldw	r3,-12(fp)
 4000a44:	28c7883a 	add	r3,r5,r3
 4000a48:	18c7883a 	add	r3,r3,r3
 4000a4c:	18c7883a 	add	r3,r3,r3
 4000a50:	10c5883a 	add	r2,r2,r3
 4000a54:	11000015 	stw	r4,0(r2)

  int i=0;
  for(i = 0;i<numHidden2;i++)
  {
   int k=0;
   for( k = 0;k<numHidden1+1;k++)
 4000a58:	e0bffe17 	ldw	r2,-8(fp)
 4000a5c:	10800044 	addi	r2,r2,1
 4000a60:	e0bffe15 	stw	r2,-8(fp)
 4000a64:	e0bffe17 	ldw	r2,-8(fp)
 4000a68:	10800cd0 	cmplti	r2,r2,51
 4000a6c:	103fbd1e 	bne	r2,zero,4000964 <__alt_data_end+0xfc000964>
// update the weights hidden1-hidden2
void WeightUpdatesH1H2(void)
{

  int i=0;
  for(i = 0;i<numHidden2;i++)
 4000a70:	e0bffd17 	ldw	r2,-12(fp)
 4000a74:	10800044 	addi	r2,r2,1
 4000a78:	e0bffd15 	stw	r2,-12(fp)
 4000a7c:	e0bffd17 	ldw	r2,-12(fp)
 4000a80:	10800510 	cmplti	r2,r2,20
 4000a84:	103fb41e 	bne	r2,zero,4000958 <__alt_data_end+0xfc000958>
   weightsH1H2[k][i] = weightsH1H2[k][i] + weightChange;

   }
  }

}
 4000a88:	0001883a 	nop
 4000a8c:	e037883a 	mov	sp,fp
 4000a90:	df000017 	ldw	fp,0(sp)
 4000a94:	dec00104 	addi	sp,sp,4
 4000a98:	f800283a 	ret

04000a9c <WeightChangesIH1>:
//************************************
// adjust the weights input-hidden1
void WeightChangesIH1(void)
{
 4000a9c:	defffc04 	addi	sp,sp,-16
 4000aa0:	df000315 	stw	fp,12(sp)
 4000aa4:	df000304 	addi	fp,sp,12

  int i=0; 
 4000aa8:	e03ffd15 	stw	zero,-12(fp)
  for(i = 0;i<numHidden1;i++)
 4000aac:	e03ffd15 	stw	zero,-12(fp)
 4000ab0:	00003c06 	br	4000ba4 <WeightChangesIH1+0x108>
  {

    int j=0;
 4000ab4:	e03ffe15 	stw	zero,-8(fp)
    float sum_delta=0.0;
 4000ab8:	e03fff15 	stw	zero,-4(fp)
    for ( j = 0;j<numHidden2;j++)
 4000abc:	e03ffe15 	stw	zero,-8(fp)
 4000ac0:	00001806 	br	4000b24 <WeightChangesIH1+0x88>
    {

        sum_delta= sum_delta+ delta_h2[j]*weightsH1H2_old[i][j];
 4000ac4:	00810074 	movhi	r2,1025
 4000ac8:	109a8404 	addi	r2,r2,27152
 4000acc:	e0fffe17 	ldw	r3,-8(fp)
 4000ad0:	18c7883a 	add	r3,r3,r3
 4000ad4:	18c7883a 	add	r3,r3,r3
 4000ad8:	10c5883a 	add	r2,r2,r3
 4000adc:	11000017 	ldw	r4,0(r2)
 4000ae0:	00810074 	movhi	r2,1025
 4000ae4:	109b1104 	addi	r2,r2,27716
 4000ae8:	e0fffd17 	ldw	r3,-12(fp)
 4000aec:	19400524 	muli	r5,r3,20
 4000af0:	e0fffe17 	ldw	r3,-8(fp)
 4000af4:	28c7883a 	add	r3,r5,r3
 4000af8:	18c7883a 	add	r3,r3,r3
 4000afc:	18c7883a 	add	r3,r3,r3
 4000b00:	10c7883a 	add	r3,r2,r3
 4000b04:	18800017 	ldw	r2,0(r3)
 4000b08:	2085ff32 	custom	252,r2,r4,r2
 4000b0c:	e0ffff17 	ldw	r3,-4(fp)
 4000b10:	1885ff72 	custom	253,r2,r3,r2
 4000b14:	e0bfff15 	stw	r2,-4(fp)
  for(i = 0;i<numHidden1;i++)
  {

    int j=0;
    float sum_delta=0.0;
    for ( j = 0;j<numHidden2;j++)
 4000b18:	e0bffe17 	ldw	r2,-8(fp)
 4000b1c:	10800044 	addi	r2,r2,1
 4000b20:	e0bffe15 	stw	r2,-8(fp)
 4000b24:	e0bffe17 	ldw	r2,-8(fp)
 4000b28:	10800510 	cmplti	r2,r2,20
 4000b2c:	103fe51e 	bne	r2,zero,4000ac4 <__alt_data_end+0xfc000ac4>

        sum_delta= sum_delta+ delta_h2[j]*weightsH1H2_old[i][j];

    }

		delta_h1[i]= (1 - (hiddenVal1[i] * hiddenVal1[i]))* sum_delta;
 4000b30:	00810074 	movhi	r2,1025
 4000b34:	109f0d04 	addi	r2,r2,31796
 4000b38:	e0fffd17 	ldw	r3,-12(fp)
 4000b3c:	18c7883a 	add	r3,r3,r3
 4000b40:	18c7883a 	add	r3,r3,r3
 4000b44:	10c5883a 	add	r2,r2,r3
 4000b48:	11000017 	ldw	r4,0(r2)
 4000b4c:	00810074 	movhi	r2,1025
 4000b50:	109f0d04 	addi	r2,r2,31796
 4000b54:	e0fffd17 	ldw	r3,-12(fp)
 4000b58:	18c7883a 	add	r3,r3,r3
 4000b5c:	18c7883a 	add	r3,r3,r3
 4000b60:	10c7883a 	add	r3,r2,r3
 4000b64:	18800017 	ldw	r2,0(r3)
 4000b68:	2085ff32 	custom	252,r2,r4,r2
 4000b6c:	00cfe034 	movhi	r3,16256
 4000b70:	1887ffb2 	custom	254,r3,r3,r2
 4000b74:	e0bfff17 	ldw	r2,-4(fp)
 4000b78:	1889ff32 	custom	252,r4,r3,r2
 4000b7c:	008100b4 	movhi	r2,1026
 4000b80:	10a41e04 	addi	r2,r2,-28552
 4000b84:	e0fffd17 	ldw	r3,-12(fp)
 4000b88:	18c7883a 	add	r3,r3,r3
 4000b8c:	18c7883a 	add	r3,r3,r3
 4000b90:	10c5883a 	add	r2,r2,r3
 4000b94:	11000015 	stw	r4,0(r2)
// adjust the weights input-hidden1
void WeightChangesIH1(void)
{

  int i=0; 
  for(i = 0;i<numHidden1;i++)
 4000b98:	e0bffd17 	ldw	r2,-12(fp)
 4000b9c:	10800044 	addi	r2,r2,1
 4000ba0:	e0bffd15 	stw	r2,-12(fp)
 4000ba4:	e0bffd17 	ldw	r2,-12(fp)
 4000ba8:	10800c90 	cmplti	r2,r2,50
 4000bac:	103fc11e 	bne	r2,zero,4000ab4 <__alt_data_end+0xfc000ab4>

		delta_h1[i]= (1 - (hiddenVal1[i] * hiddenVal1[i]))* sum_delta;

  }

}
 4000bb0:	0001883a 	nop
 4000bb4:	e037883a 	mov	sp,fp
 4000bb8:	df000017 	ldw	fp,0(sp)
 4000bbc:	dec00104 	addi	sp,sp,4
 4000bc0:	f800283a 	ret

04000bc4 <WeightUpdatesIH1>:

//************************************
// update the weights input-hidden1
void WeightUpdatesIH1(void)
{
 4000bc4:	defffc04 	addi	sp,sp,-16
 4000bc8:	df000315 	stw	fp,12(sp)
 4000bcc:	df000304 	addi	fp,sp,12

  int i=0;
 4000bd0:	e03ffd15 	stw	zero,-12(fp)
  for(i = 0;i<numHidden1;i++)
 4000bd4:	e03ffd15 	stw	zero,-12(fp)
 4000bd8:	00003a06 	br	4000cc4 <WeightUpdatesIH1+0x100>
  {
    int k=0;
 4000bdc:	e03ffe15 	stw	zero,-8(fp)
	for( k = 0;k<numInputs+1;k++)
 4000be0:	e03ffe15 	stw	zero,-8(fp)
 4000be4:	00003106 	br	4000cac <WeightUpdatesIH1+0xe8>
	{
    float weightChange = delta_h1[i] * LR_IH1 * trainInputs[patNum][k];
 4000be8:	008100b4 	movhi	r2,1026
 4000bec:	10a41e04 	addi	r2,r2,-28552
 4000bf0:	e0fffd17 	ldw	r3,-12(fp)
 4000bf4:	18c7883a 	add	r3,r3,r3
 4000bf8:	18c7883a 	add	r3,r3,r3
 4000bfc:	10c5883a 	add	r2,r2,r3
 4000c00:	10c00017 	ldw	r3,0(r2)
 4000c04:	008f7374 	movhi	r2,15821
 4000c08:	10b33344 	addi	r2,r2,-13107
 4000c0c:	188bff32 	custom	252,r5,r3,r2
 4000c10:	d1271917 	ldw	r4,-25500(gp)
 4000c14:	00c10074 	movhi	r3,1025
 4000c18:	18dfea04 	addi	r3,r3,32680
 4000c1c:	2005883a 	mov	r2,r4
 4000c20:	1085883a 	add	r2,r2,r2
 4000c24:	1105883a 	add	r2,r2,r4
 4000c28:	e13ffe17 	ldw	r4,-8(fp)
 4000c2c:	1105883a 	add	r2,r2,r4
 4000c30:	1085883a 	add	r2,r2,r2
 4000c34:	1085883a 	add	r2,r2,r2
 4000c38:	1887883a 	add	r3,r3,r2
 4000c3c:	18800017 	ldw	r2,0(r3)
 4000c40:	2885ff32 	custom	252,r2,r5,r2
 4000c44:	e0bfff15 	stw	r2,-4(fp)

     weightsIH1[k][i] = weightsIH1[k][i] + weightChange;
 4000c48:	00810074 	movhi	r2,1025
 4000c4c:	109f3f04 	addi	r2,r2,31996
 4000c50:	e0fffe17 	ldw	r3,-8(fp)
 4000c54:	19000ca4 	muli	r4,r3,50
 4000c58:	e0fffd17 	ldw	r3,-12(fp)
 4000c5c:	20c7883a 	add	r3,r4,r3
 4000c60:	18c7883a 	add	r3,r3,r3
 4000c64:	18c7883a 	add	r3,r3,r3
 4000c68:	10c5883a 	add	r2,r2,r3
 4000c6c:	10c00017 	ldw	r3,0(r2)
 4000c70:	e0bfff17 	ldw	r2,-4(fp)
 4000c74:	1889ff72 	custom	253,r4,r3,r2
 4000c78:	00810074 	movhi	r2,1025
 4000c7c:	109f3f04 	addi	r2,r2,31996
 4000c80:	e0fffe17 	ldw	r3,-8(fp)
 4000c84:	19400ca4 	muli	r5,r3,50
 4000c88:	e0fffd17 	ldw	r3,-12(fp)
 4000c8c:	28c7883a 	add	r3,r5,r3
 4000c90:	18c7883a 	add	r3,r3,r3
 4000c94:	18c7883a 	add	r3,r3,r3
 4000c98:	10c5883a 	add	r2,r2,r3
 4000c9c:	11000015 	stw	r4,0(r2)

  int i=0;
  for(i = 0;i<numHidden1;i++)
  {
    int k=0;
	for( k = 0;k<numInputs+1;k++)
 4000ca0:	e0bffe17 	ldw	r2,-8(fp)
 4000ca4:	10800044 	addi	r2,r2,1
 4000ca8:	e0bffe15 	stw	r2,-8(fp)
 4000cac:	e0bffe17 	ldw	r2,-8(fp)
 4000cb0:	108000d0 	cmplti	r2,r2,3
 4000cb4:	103fcc1e 	bne	r2,zero,4000be8 <__alt_data_end+0xfc000be8>
// update the weights input-hidden1
void WeightUpdatesIH1(void)
{

  int i=0;
  for(i = 0;i<numHidden1;i++)
 4000cb8:	e0bffd17 	ldw	r2,-12(fp)
 4000cbc:	10800044 	addi	r2,r2,1
 4000cc0:	e0bffd15 	stw	r2,-12(fp)
 4000cc4:	e0bffd17 	ldw	r2,-12(fp)
 4000cc8:	10800c90 	cmplti	r2,r2,50
 4000ccc:	103fc31e 	bne	r2,zero,4000bdc <__alt_data_end+0xfc000bdc>
     weightsIH1[k][i] = weightsIH1[k][i] + weightChange;

   }
  }

}
 4000cd0:	0001883a 	nop
 4000cd4:	e037883a 	mov	sp,fp
 4000cd8:	df000017 	ldw	fp,0(sp)
 4000cdc:	dec00104 	addi	sp,sp,4
 4000ce0:	f800283a 	ret

04000ce4 <getRand>:

//************************************
// generates a random number
float getRand(void)
{
 4000ce4:	defffe04 	addi	sp,sp,-8
 4000ce8:	dfc00115 	stw	ra,4(sp)
 4000cec:	df000015 	stw	fp,0(sp)
 4000cf0:	d839883a 	mov	fp,sp
 return ((float)rand())/(float)RAND_MAX;
 4000cf4:	4005c140 	call	4005c14 <rand>
 4000cf8:	1007feb2 	custom	250,r3,r2,zero
 4000cfc:	0093c034 	movhi	r2,20224
 4000d00:	1885fff2 	custom	255,r2,r3,r2
 4000d04:	1007883a 	mov	r3,r2
}
 4000d08:	1805883a 	mov	r2,r3
 4000d0c:	e037883a 	mov	sp,fp
 4000d10:	dfc00117 	ldw	ra,4(sp)
 4000d14:	df000017 	ldw	fp,0(sp)
 4000d18:	dec00204 	addi	sp,sp,8
 4000d1c:	f800283a 	ret

04000d20 <initWeights>:


//************************************
// set weights to random numbers 
void initWeights(void)
{
 4000d20:	defffb04 	addi	sp,sp,-20
 4000d24:	dfc00415 	stw	ra,16(sp)
 4000d28:	df000315 	stw	fp,12(sp)
 4000d2c:	df000304 	addi	fp,sp,12
 int j=0;
 4000d30:	e03ffd15 	stw	zero,-12(fp)
 int i=0;
 4000d34:	e03ffe15 	stw	zero,-8(fp)
 int k=0;
 4000d38:	e03fff15 	stw	zero,-4(fp)

 for( j = 0;j<numHidden2+1;j++)
 4000d3c:	e03ffd15 	stw	zero,-12(fp)
 4000d40:	00002606 	br	4000ddc <initWeights+0xbc>
 {
    weightsH2O[j] = (getRand() - 0.5)/2;
 4000d44:	4000ce40 	call	4000ce4 <getRand>
 4000d48:	1007883a 	mov	r3,r2
 4000d4c:	1809883a 	mov	r4,r3
 4000d50:	40055bc0 	call	40055bc <__extendsfdf2>
 4000d54:	1011883a 	mov	r8,r2
 4000d58:	1813883a 	mov	r9,r3
 4000d5c:	000d883a 	mov	r6,zero
 4000d60:	01cff834 	movhi	r7,16352
 4000d64:	4009883a 	mov	r4,r8
 4000d68:	480b883a 	mov	r5,r9
 4000d6c:	4004b640 	call	4004b64 <__subdf3>
 4000d70:	1009883a 	mov	r4,r2
 4000d74:	180b883a 	mov	r5,r3
 4000d78:	2005883a 	mov	r2,r4
 4000d7c:	2807883a 	mov	r3,r5
 4000d80:	000d883a 	mov	r6,zero
 4000d84:	01d00034 	movhi	r7,16384
 4000d88:	1009883a 	mov	r4,r2
 4000d8c:	180b883a 	mov	r5,r3
 4000d90:	400390c0 	call	400390c <__divdf3>
 4000d94:	1009883a 	mov	r4,r2
 4000d98:	180b883a 	mov	r5,r3
 4000d9c:	2005883a 	mov	r2,r4
 4000da0:	2807883a 	mov	r3,r5
 4000da4:	1009883a 	mov	r4,r2
 4000da8:	180b883a 	mov	r5,r3
 4000dac:	40056cc0 	call	40056cc <__truncdfsf2>
 4000db0:	1009883a 	mov	r4,r2
 4000db4:	00810074 	movhi	r2,1025
 4000db8:	109a9804 	addi	r2,r2,27232
 4000dbc:	e0fffd17 	ldw	r3,-12(fp)
 4000dc0:	18c7883a 	add	r3,r3,r3
 4000dc4:	18c7883a 	add	r3,r3,r3
 4000dc8:	10c5883a 	add	r2,r2,r3
 4000dcc:	11000015 	stw	r4,0(r2)
{
 int j=0;
 int i=0;
 int k=0;

 for( j = 0;j<numHidden2+1;j++)
 4000dd0:	e0bffd17 	ldw	r2,-12(fp)
 4000dd4:	10800044 	addi	r2,r2,1
 4000dd8:	e0bffd15 	stw	r2,-12(fp)
 4000ddc:	e0bffd17 	ldw	r2,-12(fp)
 4000de0:	10800550 	cmplti	r2,r2,21
 4000de4:	103fd71e 	bne	r2,zero,4000d44 <__alt_data_end+0xfc000d44>
 {
    weightsH2O[j] = (getRand() - 0.5)/2;
 }
 for( k = 0;k<numHidden2;k++)
 4000de8:	e03fff15 	stw	zero,-4(fp)
 4000dec:	00003106 	br	4000eb4 <initWeights+0x194>
   {
    for( i = 0;i<numHidden1+1;i++)
 4000df0:	e03ffe15 	stw	zero,-8(fp)
 4000df4:	00002906 	br	4000e9c <initWeights+0x17c>
    {
     weightsH1H2[i][k] = (getRand() - 0.5)/2;
 4000df8:	4000ce40 	call	4000ce4 <getRand>
 4000dfc:	1007883a 	mov	r3,r2
 4000e00:	1809883a 	mov	r4,r3
 4000e04:	40055bc0 	call	40055bc <__extendsfdf2>
 4000e08:	1011883a 	mov	r8,r2
 4000e0c:	1813883a 	mov	r9,r3
 4000e10:	000d883a 	mov	r6,zero
 4000e14:	01cff834 	movhi	r7,16352
 4000e18:	4009883a 	mov	r4,r8
 4000e1c:	480b883a 	mov	r5,r9
 4000e20:	4004b640 	call	4004b64 <__subdf3>
 4000e24:	1009883a 	mov	r4,r2
 4000e28:	180b883a 	mov	r5,r3
 4000e2c:	2005883a 	mov	r2,r4
 4000e30:	2807883a 	mov	r3,r5
 4000e34:	000d883a 	mov	r6,zero
 4000e38:	01d00034 	movhi	r7,16384
 4000e3c:	1009883a 	mov	r4,r2
 4000e40:	180b883a 	mov	r5,r3
 4000e44:	400390c0 	call	400390c <__divdf3>
 4000e48:	1009883a 	mov	r4,r2
 4000e4c:	180b883a 	mov	r5,r3
 4000e50:	2005883a 	mov	r2,r4
 4000e54:	2807883a 	mov	r3,r5
 4000e58:	1009883a 	mov	r4,r2
 4000e5c:	180b883a 	mov	r5,r3
 4000e60:	40056cc0 	call	40056cc <__truncdfsf2>
 4000e64:	100b883a 	mov	r5,r2
 4000e68:	008100b4 	movhi	r2,1026
 4000e6c:	10a00e04 	addi	r2,r2,-32712
 4000e70:	e0fffe17 	ldw	r3,-8(fp)
 4000e74:	19000524 	muli	r4,r3,20
 4000e78:	e0ffff17 	ldw	r3,-4(fp)
 4000e7c:	20c7883a 	add	r3,r4,r3
 4000e80:	18c7883a 	add	r3,r3,r3
 4000e84:	18c7883a 	add	r3,r3,r3
 4000e88:	10c5883a 	add	r2,r2,r3
 4000e8c:	11400015 	stw	r5,0(r2)
 {
    weightsH2O[j] = (getRand() - 0.5)/2;
 }
 for( k = 0;k<numHidden2;k++)
   {
    for( i = 0;i<numHidden1+1;i++)
 4000e90:	e0bffe17 	ldw	r2,-8(fp)
 4000e94:	10800044 	addi	r2,r2,1
 4000e98:	e0bffe15 	stw	r2,-8(fp)
 4000e9c:	e0bffe17 	ldw	r2,-8(fp)
 4000ea0:	10800cd0 	cmplti	r2,r2,51
 4000ea4:	103fd41e 	bne	r2,zero,4000df8 <__alt_data_end+0xfc000df8>

 for( j = 0;j<numHidden2+1;j++)
 {
    weightsH2O[j] = (getRand() - 0.5)/2;
 }
 for( k = 0;k<numHidden2;k++)
 4000ea8:	e0bfff17 	ldw	r2,-4(fp)
 4000eac:	10800044 	addi	r2,r2,1
 4000eb0:	e0bfff15 	stw	r2,-4(fp)
 4000eb4:	e0bfff17 	ldw	r2,-4(fp)
 4000eb8:	10800510 	cmplti	r2,r2,20
 4000ebc:	103fcc1e 	bne	r2,zero,4000df0 <__alt_data_end+0xfc000df0>
    {
     weightsH1H2[i][k] = (getRand() - 0.5)/2;
     //printf("Weight = %f\n", weightsH1H2[i][k]);
    }
   }
 for( k = 0;k<numHidden1;k++)
 4000ec0:	e03fff15 	stw	zero,-4(fp)
 4000ec4:	00003106 	br	4000f8c <initWeights+0x26c>
   {
    for( i = 0;i<numInputs+1;i++)
 4000ec8:	e03ffe15 	stw	zero,-8(fp)
 4000ecc:	00002906 	br	4000f74 <initWeights+0x254>
    {
     weightsIH1[i][k] = (getRand() - 0.5)/2;
 4000ed0:	4000ce40 	call	4000ce4 <getRand>
 4000ed4:	1007883a 	mov	r3,r2
 4000ed8:	1809883a 	mov	r4,r3
 4000edc:	40055bc0 	call	40055bc <__extendsfdf2>
 4000ee0:	1011883a 	mov	r8,r2
 4000ee4:	1813883a 	mov	r9,r3
 4000ee8:	000d883a 	mov	r6,zero
 4000eec:	01cff834 	movhi	r7,16352
 4000ef0:	4009883a 	mov	r4,r8
 4000ef4:	480b883a 	mov	r5,r9
 4000ef8:	4004b640 	call	4004b64 <__subdf3>
 4000efc:	1009883a 	mov	r4,r2
 4000f00:	180b883a 	mov	r5,r3
 4000f04:	2005883a 	mov	r2,r4
 4000f08:	2807883a 	mov	r3,r5
 4000f0c:	000d883a 	mov	r6,zero
 4000f10:	01d00034 	movhi	r7,16384
 4000f14:	1009883a 	mov	r4,r2
 4000f18:	180b883a 	mov	r5,r3
 4000f1c:	400390c0 	call	400390c <__divdf3>
 4000f20:	1009883a 	mov	r4,r2
 4000f24:	180b883a 	mov	r5,r3
 4000f28:	2005883a 	mov	r2,r4
 4000f2c:	2807883a 	mov	r3,r5
 4000f30:	1009883a 	mov	r4,r2
 4000f34:	180b883a 	mov	r5,r3
 4000f38:	40056cc0 	call	40056cc <__truncdfsf2>
 4000f3c:	100b883a 	mov	r5,r2
 4000f40:	00810074 	movhi	r2,1025
 4000f44:	109f3f04 	addi	r2,r2,31996
 4000f48:	e0fffe17 	ldw	r3,-8(fp)
 4000f4c:	19000ca4 	muli	r4,r3,50
 4000f50:	e0ffff17 	ldw	r3,-4(fp)
 4000f54:	20c7883a 	add	r3,r4,r3
 4000f58:	18c7883a 	add	r3,r3,r3
 4000f5c:	18c7883a 	add	r3,r3,r3
 4000f60:	10c5883a 	add	r2,r2,r3
 4000f64:	11400015 	stw	r5,0(r2)
     //printf("Weight = %f\n", weightsH1H2[i][k]);
    }
   }
 for( k = 0;k<numHidden1;k++)
   {
    for( i = 0;i<numInputs+1;i++)
 4000f68:	e0bffe17 	ldw	r2,-8(fp)
 4000f6c:	10800044 	addi	r2,r2,1
 4000f70:	e0bffe15 	stw	r2,-8(fp)
 4000f74:	e0bffe17 	ldw	r2,-8(fp)
 4000f78:	108000d0 	cmplti	r2,r2,3
 4000f7c:	103fd41e 	bne	r2,zero,4000ed0 <__alt_data_end+0xfc000ed0>
    {
     weightsH1H2[i][k] = (getRand() - 0.5)/2;
     //printf("Weight = %f\n", weightsH1H2[i][k]);
    }
   }
 for( k = 0;k<numHidden1;k++)
 4000f80:	e0bfff17 	ldw	r2,-4(fp)
 4000f84:	10800044 	addi	r2,r2,1
 4000f88:	e0bfff15 	stw	r2,-4(fp)
 4000f8c:	e0bfff17 	ldw	r2,-4(fp)
 4000f90:	10800c90 	cmplti	r2,r2,50
 4000f94:	103fcc1e 	bne	r2,zero,4000ec8 <__alt_data_end+0xfc000ec8>
    {
     weightsIH1[i][k] = (getRand() - 0.5)/2;
     //printf("Weight = %f\n", weightsIH1[i][k]);
    }
   }
}
 4000f98:	0001883a 	nop
 4000f9c:	e037883a 	mov	sp,fp
 4000fa0:	dfc00117 	ldw	ra,4(sp)
 4000fa4:	df000017 	ldw	fp,0(sp)
 4000fa8:	dec00204 	addi	sp,sp,8
 4000fac:	f800283a 	ret

04000fb0 <initData>:


//************************************
// read in the data
void initData(void)
{
 4000fb0:	defffe04 	addi	sp,sp,-8
 4000fb4:	dfc00115 	stw	ra,4(sp)
 4000fb8:	df000015 	stw	fp,0(sp)
 4000fbc:	d839883a 	mov	fp,sp
    printf("initialising data\n");
 4000fc0:	01010074 	movhi	r4,1025
 4000fc4:	210b5d04 	addi	r4,r4,11636
 4000fc8:	4005be80 	call	4005be8 <puts>
    // [-1][1]
    // an extra input valued 1 is also added
    // to act as the bias
    // the output must lie in the range -1 to 1

    trainInputs[0][0]  = 0.95;
 4000fcc:	00810074 	movhi	r2,1025
 4000fd0:	109fea04 	addi	r2,r2,32680
 4000fd4:	00cfdcf4 	movhi	r3,16243
 4000fd8:	18ccccc4 	addi	r3,r3,13107
 4000fdc:	10c00015 	stw	r3,0(r2)
    trainInputs[0][1]  = -0.95;
 4000fe0:	00810074 	movhi	r2,1025
 4000fe4:	109fea04 	addi	r2,r2,32680
 4000fe8:	00efdcf4 	movhi	r3,49011
 4000fec:	18ccccc4 	addi	r3,r3,13107
 4000ff0:	10c00115 	stw	r3,4(r2)
    trainInputs[0][2]  = 1;    //bias
 4000ff4:	00810074 	movhi	r2,1025
 4000ff8:	109fea04 	addi	r2,r2,32680
 4000ffc:	00cfe034 	movhi	r3,16256
 4001000:	10c00215 	stw	r3,8(r2)
    trainOutput[0] = 0.95;
 4001004:	00810074 	movhi	r2,1025
 4001008:	109ff604 	addi	r2,r2,32728
 400100c:	00cfdcf4 	movhi	r3,16243
 4001010:	18ccccc4 	addi	r3,r3,13107
 4001014:	10c00015 	stw	r3,0(r2)

    trainInputs[1][0]  = -0.95;
 4001018:	00810074 	movhi	r2,1025
 400101c:	109fea04 	addi	r2,r2,32680
 4001020:	00efdcf4 	movhi	r3,49011
 4001024:	18ccccc4 	addi	r3,r3,13107
 4001028:	10c00315 	stw	r3,12(r2)
    trainInputs[1][1]  = 0.95;   
 400102c:	00810074 	movhi	r2,1025
 4001030:	109fea04 	addi	r2,r2,32680
 4001034:	00cfdcf4 	movhi	r3,16243
 4001038:	18ccccc4 	addi	r3,r3,13107
 400103c:	10c00415 	stw	r3,16(r2)
    trainInputs[1][2]  = 1;       //bias
 4001040:	00810074 	movhi	r2,1025
 4001044:	109fea04 	addi	r2,r2,32680
 4001048:	00cfe034 	movhi	r3,16256
 400104c:	10c00515 	stw	r3,20(r2)
    trainOutput[1] = 0.95;
 4001050:	00810074 	movhi	r2,1025
 4001054:	109ff604 	addi	r2,r2,32728
 4001058:	00cfdcf4 	movhi	r3,16243
 400105c:	18ccccc4 	addi	r3,r3,13107
 4001060:	10c00115 	stw	r3,4(r2)

    trainInputs[2][0]  = 0.95;
 4001064:	00810074 	movhi	r2,1025
 4001068:	109fea04 	addi	r2,r2,32680
 400106c:	00cfdcf4 	movhi	r3,16243
 4001070:	18ccccc4 	addi	r3,r3,13107
 4001074:	10c00615 	stw	r3,24(r2)
    trainInputs[2][1]  = 0.95;
 4001078:	00810074 	movhi	r2,1025
 400107c:	109fea04 	addi	r2,r2,32680
 4001080:	00cfdcf4 	movhi	r3,16243
 4001084:	18ccccc4 	addi	r3,r3,13107
 4001088:	10c00715 	stw	r3,28(r2)
   trainInputs[2][2]  = 1;        //bias
 400108c:	00810074 	movhi	r2,1025
 4001090:	109fea04 	addi	r2,r2,32680
 4001094:	00cfe034 	movhi	r3,16256
 4001098:	10c00815 	stw	r3,32(r2)
    trainOutput[2] = -0.95;
 400109c:	00810074 	movhi	r2,1025
 40010a0:	109ff604 	addi	r2,r2,32728
 40010a4:	00efdcf4 	movhi	r3,49011
 40010a8:	18ccccc4 	addi	r3,r3,13107
 40010ac:	10c00215 	stw	r3,8(r2)
    
    trainInputs[3][0]  = -0.95;
 40010b0:	00810074 	movhi	r2,1025
 40010b4:	109fea04 	addi	r2,r2,32680
 40010b8:	00efdcf4 	movhi	r3,49011
 40010bc:	18ccccc4 	addi	r3,r3,13107
 40010c0:	10c00915 	stw	r3,36(r2)
    trainInputs[3][1]  = -0.95;
 40010c4:	00810074 	movhi	r2,1025
 40010c8:	109fea04 	addi	r2,r2,32680
 40010cc:	00efdcf4 	movhi	r3,49011
 40010d0:	18ccccc4 	addi	r3,r3,13107
 40010d4:	10c00a15 	stw	r3,40(r2)
    trainInputs[3][2]  = 1;     //bias
 40010d8:	00810074 	movhi	r2,1025
 40010dc:	109fea04 	addi	r2,r2,32680
 40010e0:	00cfe034 	movhi	r3,16256
 40010e4:	10c00b15 	stw	r3,44(r2)
    trainOutput[3] = -0.95;
 40010e8:	00810074 	movhi	r2,1025
 40010ec:	109ff604 	addi	r2,r2,32728
 40010f0:	00efdcf4 	movhi	r3,49011
 40010f4:	18ccccc4 	addi	r3,r3,13107
 40010f8:	10c00315 	stw	r3,12(r2)
hiddenVal1[numHidden1]=1;//bias capa oculta1
 40010fc:	00810074 	movhi	r2,1025
 4001100:	109f0d04 	addi	r2,r2,31796
 4001104:	00cfe034 	movhi	r3,16256
 4001108:	10c03215 	stw	r3,200(r2)
hiddenVal2[numHidden2]=1;//bias capa oculta2
 400110c:	00810074 	movhi	r2,1025
 4001110:	109a7004 	addi	r2,r2,27072
 4001114:	00cfe034 	movhi	r3,16256
 4001118:	10c01415 	stw	r3,80(r2)
}
 400111c:	0001883a 	nop
 4001120:	e037883a 	mov	sp,fp
 4001124:	dfc00117 	ldw	ra,4(sp)
 4001128:	df000017 	ldw	fp,0(sp)
 400112c:	dec00204 	addi	sp,sp,8
 4001130:	f800283a 	ret

04001134 <displayResults>:


//************************************
// display results
void displayResults(void)
{
 4001134:	defff804 	addi	sp,sp,-32
 4001138:	dfc00715 	stw	ra,28(sp)
 400113c:	df000615 	stw	fp,24(sp)
 4001140:	dc800515 	stw	r18,20(sp)
 4001144:	dc400415 	stw	r17,16(sp)
 4001148:	dc000315 	stw	r16,12(sp)
 400114c:	df000604 	addi	fp,sp,24
 int i=0;
 4001150:	e03ffc15 	stw	zero,-16(fp)
 for( i = 0;i<numPatterns;i++)
 4001154:	e03ffc15 	stw	zero,-16(fp)
 4001158:	00002006 	br	40011dc <displayResults+0xa8>
 {
  patNum = i;
 400115c:	e0bffc17 	ldw	r2,-16(fp)
 4001160:	d0a71915 	stw	r2,-25500(gp)
  calcNet();
 4001164:	400034c0 	call	400034c <calcNet>
  printf("pat = %d actual = %f neural model = %f\n",patNum+1,trainOutput[patNum],outPred);
 4001168:	d0a71917 	ldw	r2,-25500(gp)
 400116c:	14800044 	addi	r18,r2,1
 4001170:	d0e71917 	ldw	r3,-25500(gp)
 4001174:	00810074 	movhi	r2,1025
 4001178:	109ff604 	addi	r2,r2,32728
 400117c:	18c7883a 	add	r3,r3,r3
 4001180:	18c7883a 	add	r3,r3,r3
 4001184:	10c5883a 	add	r2,r2,r3
 4001188:	10c00017 	ldw	r3,0(r2)
 400118c:	1809883a 	mov	r4,r3
 4001190:	40055bc0 	call	40055bc <__extendsfdf2>
 4001194:	1021883a 	mov	r16,r2
 4001198:	1823883a 	mov	r17,r3
 400119c:	d0a71d17 	ldw	r2,-25484(gp)
 40011a0:	1009883a 	mov	r4,r2
 40011a4:	40055bc0 	call	40055bc <__extendsfdf2>
 40011a8:	1009883a 	mov	r4,r2
 40011ac:	180b883a 	mov	r5,r3
 40011b0:	d9000015 	stw	r4,0(sp)
 40011b4:	d9400115 	stw	r5,4(sp)
 40011b8:	800d883a 	mov	r6,r16
 40011bc:	880f883a 	mov	r7,r17
 40011c0:	900b883a 	mov	r5,r18
 40011c4:	01010074 	movhi	r4,1025
 40011c8:	210b6204 	addi	r4,r4,11656
 40011cc:	4005acc0 	call	4005acc <printf>
//************************************
// display results
void displayResults(void)
{
 int i=0;
 for( i = 0;i<numPatterns;i++)
 40011d0:	e0bffc17 	ldw	r2,-16(fp)
 40011d4:	10800044 	addi	r2,r2,1
 40011d8:	e0bffc15 	stw	r2,-16(fp)
 40011dc:	e0bffc17 	ldw	r2,-16(fp)
 40011e0:	10800110 	cmplti	r2,r2,4
 40011e4:	103fdd1e 	bne	r2,zero,400115c <__alt_data_end+0xfc00115c>
 {
  patNum = i;
  calcNet();
  printf("pat = %d actual = %f neural model = %f\n",patNum+1,trainOutput[patNum],outPred);
 }
}
 40011e8:	0001883a 	nop
 40011ec:	e6fffd04 	addi	sp,fp,-12
 40011f0:	dfc00417 	ldw	ra,16(sp)
 40011f4:	df000317 	ldw	fp,12(sp)
 40011f8:	dc800217 	ldw	r18,8(sp)
 40011fc:	dc400117 	ldw	r17,4(sp)
 4001200:	dc000017 	ldw	r16,0(sp)
 4001204:	dec00504 	addi	sp,sp,20
 4001208:	f800283a 	ret

0400120c <calcOverallError>:


//************************************
// calculate the overall error
void calcOverallError(void)
{
 400120c:	defffd04 	addi	sp,sp,-12
 4001210:	dfc00215 	stw	ra,8(sp)
 4001214:	df000115 	stw	fp,4(sp)
 4001218:	df000104 	addi	fp,sp,4
     int i=0;
 400121c:	e03fff15 	stw	zero,-4(fp)
     RMSerror = 0.0;
 4001220:	d0271c15 	stw	zero,-25488(gp)
     for(i = 0;i<numPatterns;i++)
 4001224:	e03fff15 	stw	zero,-4(fp)
 4001228:	00000c06 	br	400125c <calcOverallError+0x50>
        {
         patNum = i;
 400122c:	e0bfff17 	ldw	r2,-4(fp)
 4001230:	d0a71915 	stw	r2,-25500(gp)
         calcNet();
 4001234:	400034c0 	call	400034c <calcNet>
         RMSerror = RMSerror + (errThisPat * errThisPat);
 4001238:	d0e71a17 	ldw	r3,-25496(gp)
 400123c:	d0a71a17 	ldw	r2,-25496(gp)
 4001240:	1887ff32 	custom	252,r3,r3,r2
 4001244:	d0a71c17 	ldw	r2,-25488(gp)
 4001248:	1885ff72 	custom	253,r2,r3,r2
 400124c:	d0a71c15 	stw	r2,-25488(gp)
// calculate the overall error
void calcOverallError(void)
{
     int i=0;
     RMSerror = 0.0;
     for(i = 0;i<numPatterns;i++)
 4001250:	e0bfff17 	ldw	r2,-4(fp)
 4001254:	10800044 	addi	r2,r2,1
 4001258:	e0bfff15 	stw	r2,-4(fp)
 400125c:	e0bfff17 	ldw	r2,-4(fp)
 4001260:	10800110 	cmplti	r2,r2,4
 4001264:	103ff11e 	bne	r2,zero,400122c <__alt_data_end+0xfc00122c>
        {
         patNum = i;
         calcNet();
         RMSerror = RMSerror + (errThisPat * errThisPat);
        }
     RMSerror = RMSerror/numPatterns;
 4001268:	d0e71c17 	ldw	r3,-25488(gp)
 400126c:	00902034 	movhi	r2,16512
 4001270:	1885fff2 	custom	255,r2,r3,r2
 4001274:	d0a71c15 	stw	r2,-25488(gp)
     RMSerror = sqrt(RMSerror);
 4001278:	d0a71c17 	ldw	r2,-25488(gp)
 400127c:	1009883a 	mov	r4,r2
 4001280:	40055bc0 	call	40055bc <__extendsfdf2>
 4001284:	100b883a 	mov	r5,r2
 4001288:	180d883a 	mov	r6,r3
 400128c:	2809883a 	mov	r4,r5
 4001290:	300b883a 	mov	r5,r6
 4001294:	40018b40 	call	40018b4 <sqrt>
 4001298:	100b883a 	mov	r5,r2
 400129c:	180d883a 	mov	r6,r3
 40012a0:	2809883a 	mov	r4,r5
 40012a4:	300b883a 	mov	r5,r6
 40012a8:	40056cc0 	call	40056cc <__truncdfsf2>
 40012ac:	1007883a 	mov	r3,r2
 40012b0:	d0e71c15 	stw	r3,-25488(gp)
}
 40012b4:	0001883a 	nop
 40012b8:	e037883a 	mov	sp,fp
 40012bc:	dfc00117 	ldw	ra,4(sp)
 40012c0:	df000017 	ldw	fp,0(sp)
 40012c4:	dec00204 	addi	sp,sp,8
 40012c8:	f800283a 	ret

040012cc <main>:
//********** THIS IS THE MAIN PROGRAM **************************
//==============================================================


int main(void)
{
 40012cc:	defff704 	addi	sp,sp,-36
 40012d0:	dfc00815 	stw	ra,32(sp)
 40012d4:	df000715 	stw	fp,28(sp)
 40012d8:	df000704 	addi	fp,sp,28
 // seed random number function
 srand ( time(NULL) );
 40012dc:	0009883a 	mov	r4,zero
 40012e0:	4005d700 	call	4005d70 <time>
 40012e4:	1009883a 	mov	r4,r2
 40012e8:	4005bfc0 	call	4005bfc <srand>
  PERF_RESET(PERFORMANCE_COUNTER_0_BASE);
 40012ec:	00800044 	movi	r2,1
 40012f0:	0007883a 	mov	r3,zero
 40012f4:	18800035 	stwio	r2,0(r3)
  PERF_START_MEASURING(PERFORMANCE_COUNTER_0_BASE);
 40012f8:	0007883a 	mov	r3,zero
 40012fc:	00800104 	movi	r2,4
 4001300:	10c00035 	stwio	r3,0(r2)
 // initiate the weights
  PERF_BEGIN (PERFORMANCE_COUNTER_0_BASE, 1);
 4001304:	0007883a 	mov	r3,zero
 4001308:	00800504 	movi	r2,20
 400130c:	10c00035 	stwio	r3,0(r2)
 initWeights();
 4001310:	4000d200 	call	4000d20 <initWeights>
 // load in the data
 initData();
 4001314:	4000fb00 	call	4000fb0 <initData>
   PERF_END (PERFORMANCE_COUNTER_0_BASE, 1);
 4001318:	0007883a 	mov	r3,zero
 400131c:	00800404 	movi	r2,16
 4001320:	10c00035 	stwio	r3,0(r2)
 int j;
 int i;


 // train the network
    for(j = 0;j <= numEpochs;j++)
 4001324:	e03ffe15 	stw	zero,-8(fp)
 4001328:	00004106 	br	4001430 <main+0x164>
    {
        for(i = 0;i<numPatterns;i++)
 400132c:	e03fff15 	stw	zero,-4(fp)
 4001330:	00002706 	br	40013d0 <main+0x104>
        {
          //select a pattern at random
          patNum = rand()%numPatterns;
 4001334:	4005c140 	call	4005c14 <rand>
 4001338:	1007883a 	mov	r3,r2
 400133c:	00a00034 	movhi	r2,32768
 4001340:	108000c4 	addi	r2,r2,3
 4001344:	1884703a 	and	r2,r3,r2
 4001348:	1000040e 	bge	r2,zero,400135c <main+0x90>
 400134c:	10bfffc4 	addi	r2,r2,-1
 4001350:	00ffff04 	movi	r3,-4
 4001354:	10c4b03a 	or	r2,r2,r3
 4001358:	10800044 	addi	r2,r2,1
 400135c:	d0a71915 	stw	r2,-25500(gp)

          //calculate the current network output
          //and error for this pattern
          //phase forward

          PERF_BEGIN (PERFORMANCE_COUNTER_0_BASE, 2);
 4001360:	0007883a 	mov	r3,zero
 4001364:	00800904 	movi	r2,36
 4001368:	10c00035 	stwio	r3,0(r2)
          calcNet();
 400136c:	400034c0 	call	400034c <calcNet>
          PERF_END (PERFORMANCE_COUNTER_0_BASE, 2);
 4001370:	0007883a 	mov	r3,zero
 4001374:	00800804 	movi	r2,32
 4001378:	10c00035 	stwio	r3,0(r2)
          //change network weights
          //phase backward and update weights
          PERF_BEGIN (PERFORMANCE_COUNTER_0_BASE, 3);
 400137c:	0007883a 	mov	r3,zero
 4001380:	00800d04 	movi	r2,52
 4001384:	10c00035 	stwio	r3,0(r2)
          WeightChangesH2O();
 4001388:	40007440 	call	4000744 <WeightChangesH2O>
          WeightChangesH1H2();         
 400138c:	40008740 	call	4000874 <WeightChangesH1H2>
          WeightChangesIH1();
 4001390:	4000a9c0 	call	4000a9c <WeightChangesIH1>
          PERF_END (PERFORMANCE_COUNTER_0_BASE, 3);
 4001394:	0007883a 	mov	r3,zero
 4001398:	00800c04 	movi	r2,48
 400139c:	10c00035 	stwio	r3,0(r2)
          PERF_BEGIN (PERFORMANCE_COUNTER_0_BASE, 4);
 40013a0:	0007883a 	mov	r3,zero
 40013a4:	00801104 	movi	r2,68
 40013a8:	10c00035 	stwio	r3,0(r2)
          WeightUpdatesH2O();
 40013ac:	40007840 	call	4000784 <WeightUpdatesH2O>
          WeightUpdatesH1H2();
 40013b0:	40009400 	call	4000940 <WeightUpdatesH1H2>
          WeightUpdatesIH1();
 40013b4:	4000bc40 	call	4000bc4 <WeightUpdatesIH1>
          PERF_END (PERFORMANCE_COUNTER_0_BASE, 4);
 40013b8:	0007883a 	mov	r3,zero
 40013bc:	00801004 	movi	r2,64
 40013c0:	10c00035 	stwio	r3,0(r2)


 // train the network
    for(j = 0;j <= numEpochs;j++)
    {
        for(i = 0;i<numPatterns;i++)
 40013c4:	e0bfff17 	ldw	r2,-4(fp)
 40013c8:	10800044 	addi	r2,r2,1
 40013cc:	e0bfff15 	stw	r2,-4(fp)
 40013d0:	e0bfff17 	ldw	r2,-4(fp)
 40013d4:	10800110 	cmplti	r2,r2,4
 40013d8:	103fd61e 	bne	r2,zero,4001334 <__alt_data_end+0xfc001334>
          PERF_END (PERFORMANCE_COUNTER_0_BASE, 4);
        }

        //display the overall network error
        //after each epoch
        PERF_BEGIN (PERFORMANCE_COUNTER_0_BASE, 5);
 40013dc:	0007883a 	mov	r3,zero
 40013e0:	00801504 	movi	r2,84
 40013e4:	10c00035 	stwio	r3,0(r2)
        calcOverallError();
 40013e8:	400120c0 	call	400120c <calcOverallError>
        printf("epoch = %d RMS Error = %f\n",j,RMSerror);
 40013ec:	d0a71c17 	ldw	r2,-25488(gp)
 40013f0:	1009883a 	mov	r4,r2
 40013f4:	40055bc0 	call	40055bc <__extendsfdf2>
 40013f8:	1009883a 	mov	r4,r2
 40013fc:	180b883a 	mov	r5,r3
 4001400:	200d883a 	mov	r6,r4
 4001404:	280f883a 	mov	r7,r5
 4001408:	e17ffe17 	ldw	r5,-8(fp)
 400140c:	01010074 	movhi	r4,1025
 4001410:	210b6c04 	addi	r4,r4,11696
 4001414:	4005acc0 	call	4005acc <printf>
        PERF_END (PERFORMANCE_COUNTER_0_BASE, 5);
 4001418:	0007883a 	mov	r3,zero
 400141c:	00801404 	movi	r2,80
 4001420:	10c00035 	stwio	r3,0(r2)
 int j;
 int i;


 // train the network
    for(j = 0;j <= numEpochs;j++)
 4001424:	e0bffe17 	ldw	r2,-8(fp)
 4001428:	10800044 	addi	r2,r2,1
 400142c:	e0bffe15 	stw	r2,-8(fp)
 4001430:	00c03204 	movi	r3,200
 4001434:	e0bffe17 	ldw	r2,-8(fp)
 4001438:	18bfbc0e 	bge	r3,r2,400132c <__alt_data_end+0xfc00132c>
        PERF_END (PERFORMANCE_COUNTER_0_BASE, 5);
    }

 //training has finished
 //display the results
 PERF_BEGIN (PERFORMANCE_COUNTER_0_BASE, 6);
 400143c:	0007883a 	mov	r3,zero
 4001440:	00801904 	movi	r2,100
 4001444:	10c00035 	stwio	r3,0(r2)
 displayResults();
 4001448:	40011340 	call	4001134 <displayResults>
 PERF_END (PERFORMANCE_COUNTER_0_BASE, 6);
 400144c:	0007883a 	mov	r3,zero
 4001450:	00801804 	movi	r2,96
 4001454:	10c00035 	stwio	r3,0(r2)
 
 PERF_STOP_MEASURING(PERFORMANCE_COUNTER_0_BASE);
 4001458:	0007883a 	mov	r3,zero
 400145c:	0005883a 	mov	r2,zero
 4001460:	10c00035 	stwio	r3,0(r2)

  perf_print_formatted_report((void *)PERFORMANCE_COUNTER_0_BASE,
 4001464:	00810074 	movhi	r2,1025
 4001468:	108b7504 	addi	r2,r2,11732
 400146c:	d8800415 	stw	r2,16(sp)
 4001470:	00810074 	movhi	r2,1025
 4001474:	108b7804 	addi	r2,r2,11744
 4001478:	d8800315 	stw	r2,12(sp)
 400147c:	00810074 	movhi	r2,1025
 4001480:	108b7c04 	addi	r2,r2,11760
 4001484:	d8800215 	stw	r2,8(sp)
 4001488:	00810074 	movhi	r2,1025
 400148c:	108b7f04 	addi	r2,r2,11772
 4001490:	d8800115 	stw	r2,4(sp)
 4001494:	00810074 	movhi	r2,1025
 4001498:	108b8304 	addi	r2,r2,11788
 400149c:	d8800015 	stw	r2,0(sp)
 40014a0:	01c10074 	movhi	r7,1025
 40014a4:	39cb7304 	addi	r7,r7,11724
 40014a8:	01800184 	movi	r6,6
 40014ac:	01417db4 	movhi	r5,1526
 40014b0:	29784004 	addi	r5,r5,-7936
 40014b4:	0009883a 	mov	r4,zero
 40014b8:	40118540 	call	4011854 <perf_print_formatted_report>
							  "FASE UPDATE",
                              "CALCULO ERROR",
                              "TEST FINAL"
                              );

 system("PAUSE");
 40014bc:	01010074 	movhi	r4,1025
 40014c0:	210b8704 	addi	r4,r4,11804
 40014c4:	4005d400 	call	4005d40 <system>
 return 0;
 40014c8:	0005883a 	mov	r2,zero
}
 40014cc:	e037883a 	mov	sp,fp
 40014d0:	dfc00117 	ldw	ra,4(sp)
 40014d4:	df000017 	ldw	fp,0(sp)
 40014d8:	dec00204 	addi	sp,sp,8
 40014dc:	f800283a 	ret

040014e0 <tanh>:
	double tanh(double x)
#else
	double tanh(x)
	double x;
#endif
{
 40014e0:	deffee04 	addi	sp,sp,-72
 40014e4:	dfc01115 	stw	ra,68(sp)
 40014e8:	df001015 	stw	fp,64(sp)
 40014ec:	dd400f15 	stw	r21,60(sp)
 40014f0:	dd000e15 	stw	r20,56(sp)
 40014f4:	dcc00d15 	stw	r19,52(sp)
 40014f8:	dc800c15 	stw	r18,48(sp)
 40014fc:	dc400b15 	stw	r17,44(sp)
 4001500:	dc000a15 	stw	r16,40(sp)
 4001504:	df001004 	addi	fp,sp,64
 4001508:	e13ff815 	stw	r4,-32(fp)
 400150c:	e17ff915 	stw	r5,-28(fp)
	double t,z;
	__int32_t jx,ix;

    /* High word of |x|. */
	GET_HIGH_WORD(jx,x);
 4001510:	e0bff817 	ldw	r2,-32(fp)
 4001514:	e0bff615 	stw	r2,-40(fp)
 4001518:	e0bff917 	ldw	r2,-28(fp)
 400151c:	e0bff715 	stw	r2,-36(fp)
 4001520:	e0bff717 	ldw	r2,-36(fp)
 4001524:	e0bff215 	stw	r2,-56(fp)
	ix = jx&0x7fffffff;
 4001528:	e0fff217 	ldw	r3,-56(fp)
 400152c:	00a00034 	movhi	r2,32768
 4001530:	10bfffc4 	addi	r2,r2,-1
 4001534:	1884703a 	and	r2,r3,r2
 4001538:	e0bff315 	stw	r2,-52(fp)

    /* x is INF or NaN */
	if(ix>=0x7ff00000) { 
 400153c:	e0fff317 	ldw	r3,-52(fp)
 4001540:	009ffc34 	movhi	r2,32752
 4001544:	18803016 	blt	r3,r2,4001608 <tanh+0x128>
	    if (jx>=0) return one/x+one;    /* tanh(+-inf)=+-1 */
 4001548:	e0bff217 	ldw	r2,-56(fp)
 400154c:	10001716 	blt	r2,zero,40015ac <tanh+0xcc>
 4001550:	0005883a 	mov	r2,zero
 4001554:	00cffc34 	movhi	r3,16368
 4001558:	e1bff817 	ldw	r6,-32(fp)
 400155c:	e1fff917 	ldw	r7,-28(fp)
 4001560:	1009883a 	mov	r4,r2
 4001564:	180b883a 	mov	r5,r3
 4001568:	400390c0 	call	400390c <__divdf3>
 400156c:	1009883a 	mov	r4,r2
 4001570:	180b883a 	mov	r5,r3
 4001574:	2011883a 	mov	r8,r4
 4001578:	2813883a 	mov	r9,r5
 400157c:	0005883a 	mov	r2,zero
 4001580:	00cffc34 	movhi	r3,16368
 4001584:	100d883a 	mov	r6,r2
 4001588:	180f883a 	mov	r7,r3
 400158c:	4009883a 	mov	r4,r8
 4001590:	480b883a 	mov	r5,r9
 4001594:	40030600 	call	4003060 <__adddf3>
 4001598:	1009883a 	mov	r4,r2
 400159c:	180b883a 	mov	r5,r3
 40015a0:	2021883a 	mov	r16,r4
 40015a4:	2823883a 	mov	r17,r5
 40015a8:	0000b306 	br	4001878 <tanh+0x398>
	    else       return one/x-one;    /* tanh(NaN) = NaN */
 40015ac:	0005883a 	mov	r2,zero
 40015b0:	00cffc34 	movhi	r3,16368
 40015b4:	e1bff817 	ldw	r6,-32(fp)
 40015b8:	e1fff917 	ldw	r7,-28(fp)
 40015bc:	1009883a 	mov	r4,r2
 40015c0:	180b883a 	mov	r5,r3
 40015c4:	400390c0 	call	400390c <__divdf3>
 40015c8:	1009883a 	mov	r4,r2
 40015cc:	180b883a 	mov	r5,r3
 40015d0:	2011883a 	mov	r8,r4
 40015d4:	2813883a 	mov	r9,r5
 40015d8:	0005883a 	mov	r2,zero
 40015dc:	00cffc34 	movhi	r3,16368
 40015e0:	100d883a 	mov	r6,r2
 40015e4:	180f883a 	mov	r7,r3
 40015e8:	4009883a 	mov	r4,r8
 40015ec:	480b883a 	mov	r5,r9
 40015f0:	4004b640 	call	4004b64 <__subdf3>
 40015f4:	1009883a 	mov	r4,r2
 40015f8:	180b883a 	mov	r5,r3
 40015fc:	2021883a 	mov	r16,r4
 4001600:	2823883a 	mov	r17,r5
 4001604:	00009c06 	br	4001878 <tanh+0x398>
	}

    /* |x| < 22 */
	if (ix < 0x40360000) {		/* |x|<22 */
 4001608:	e0fff317 	ldw	r3,-52(fp)
 400160c:	00900db4 	movhi	r2,16438
 4001610:	1880810e 	bge	r3,r2,4001818 <tanh+0x338>
	    if (ix<0x3c800000) 		/* |x|<2**-55 */
 4001614:	e0fff317 	ldw	r3,-52(fp)
 4001618:	008f2034 	movhi	r2,15488
 400161c:	1880150e 	bge	r3,r2,4001674 <tanh+0x194>
		return x*(one+x);    	/* tanh(small) = small */
 4001620:	0005883a 	mov	r2,zero
 4001624:	00cffc34 	movhi	r3,16368
 4001628:	e1bff817 	ldw	r6,-32(fp)
 400162c:	e1fff917 	ldw	r7,-28(fp)
 4001630:	1009883a 	mov	r4,r2
 4001634:	180b883a 	mov	r5,r3
 4001638:	40030600 	call	4003060 <__adddf3>
 400163c:	1009883a 	mov	r4,r2
 4001640:	180b883a 	mov	r5,r3
 4001644:	2005883a 	mov	r2,r4
 4001648:	2807883a 	mov	r3,r5
 400164c:	e1bff817 	ldw	r6,-32(fp)
 4001650:	e1fff917 	ldw	r7,-28(fp)
 4001654:	1009883a 	mov	r4,r2
 4001658:	180b883a 	mov	r5,r3
 400165c:	400444c0 	call	400444c <__muldf3>
 4001660:	1009883a 	mov	r4,r2
 4001664:	180b883a 	mov	r5,r3
 4001668:	2021883a 	mov	r16,r4
 400166c:	2823883a 	mov	r17,r5
 4001670:	00008106 	br	4001878 <tanh+0x398>
	    if (ix>=0x3ff00000) {	/* |x|>=1  */
 4001674:	e0fff317 	ldw	r3,-52(fp)
 4001678:	008ffc34 	movhi	r2,16368
 400167c:	18803716 	blt	r3,r2,400175c <tanh+0x27c>
		t = expm1(two*fabs(x));
 4001680:	e13ff817 	ldw	r4,-32(fp)
 4001684:	e17ff917 	ldw	r5,-28(fp)
 4001688:	4002e6c0 	call	4002e6c <fabs>
 400168c:	1011883a 	mov	r8,r2
 4001690:	1813883a 	mov	r9,r3
 4001694:	0005883a 	mov	r2,zero
 4001698:	00d00034 	movhi	r3,16384
 400169c:	100d883a 	mov	r6,r2
 40016a0:	180f883a 	mov	r7,r3
 40016a4:	4009883a 	mov	r4,r8
 40016a8:	480b883a 	mov	r5,r9
 40016ac:	400444c0 	call	400444c <__muldf3>
 40016b0:	1009883a 	mov	r4,r2
 40016b4:	180b883a 	mov	r5,r3
 40016b8:	2005883a 	mov	r2,r4
 40016bc:	2807883a 	mov	r3,r5
 40016c0:	1009883a 	mov	r4,r2
 40016c4:	180b883a 	mov	r5,r3
 40016c8:	40020700 	call	4002070 <expm1>
 40016cc:	e0bff415 	stw	r2,-48(fp)
 40016d0:	e0fff515 	stw	r3,-44(fp)
		z = one - two/(t+two);
 40016d4:	0025883a 	mov	r18,zero
 40016d8:	04cffc34 	movhi	r19,16368
 40016dc:	0029883a 	mov	r20,zero
 40016e0:	05500034 	movhi	r21,16384
 40016e4:	0005883a 	mov	r2,zero
 40016e8:	00d00034 	movhi	r3,16384
 40016ec:	e1bff417 	ldw	r6,-48(fp)
 40016f0:	e1fff517 	ldw	r7,-44(fp)
 40016f4:	1009883a 	mov	r4,r2
 40016f8:	180b883a 	mov	r5,r3
 40016fc:	40030600 	call	4003060 <__adddf3>
 4001700:	1009883a 	mov	r4,r2
 4001704:	180b883a 	mov	r5,r3
 4001708:	2005883a 	mov	r2,r4
 400170c:	2807883a 	mov	r3,r5
 4001710:	100d883a 	mov	r6,r2
 4001714:	180f883a 	mov	r7,r3
 4001718:	a009883a 	mov	r4,r20
 400171c:	a80b883a 	mov	r5,r21
 4001720:	400390c0 	call	400390c <__divdf3>
 4001724:	1009883a 	mov	r4,r2
 4001728:	180b883a 	mov	r5,r3
 400172c:	2005883a 	mov	r2,r4
 4001730:	2807883a 	mov	r3,r5
 4001734:	100d883a 	mov	r6,r2
 4001738:	180f883a 	mov	r7,r3
 400173c:	9009883a 	mov	r4,r18
 4001740:	980b883a 	mov	r5,r19
 4001744:	4004b640 	call	4004b64 <__subdf3>
 4001748:	1009883a 	mov	r4,r2
 400174c:	180b883a 	mov	r5,r3
 4001750:	e13ff015 	stw	r4,-64(fp)
 4001754:	e17ff115 	stw	r5,-60(fp)
 4001758:	00003e06 	br	4001854 <tanh+0x374>
	    } else {
	        t = expm1(-two*fabs(x));
 400175c:	0005883a 	mov	r2,zero
 4001760:	00d00034 	movhi	r3,16384
 4001764:	1029883a 	mov	r20,r2
 4001768:	1d60003c 	xorhi	r21,r3,32768
 400176c:	e13ff817 	ldw	r4,-32(fp)
 4001770:	e17ff917 	ldw	r5,-28(fp)
 4001774:	4002e6c0 	call	4002e6c <fabs>
 4001778:	1009883a 	mov	r4,r2
 400177c:	180b883a 	mov	r5,r3
 4001780:	200d883a 	mov	r6,r4
 4001784:	280f883a 	mov	r7,r5
 4001788:	a009883a 	mov	r4,r20
 400178c:	a80b883a 	mov	r5,r21
 4001790:	400444c0 	call	400444c <__muldf3>
 4001794:	1009883a 	mov	r4,r2
 4001798:	180b883a 	mov	r5,r3
 400179c:	2005883a 	mov	r2,r4
 40017a0:	2807883a 	mov	r3,r5
 40017a4:	1009883a 	mov	r4,r2
 40017a8:	180b883a 	mov	r5,r3
 40017ac:	40020700 	call	4002070 <expm1>
 40017b0:	e0bff415 	stw	r2,-48(fp)
 40017b4:	e0fff515 	stw	r3,-44(fp)
	        z= -t/(t+two);
 40017b8:	e4bff417 	ldw	r18,-48(fp)
 40017bc:	e0bff517 	ldw	r2,-44(fp)
 40017c0:	14e0003c 	xorhi	r19,r2,32768
 40017c4:	0005883a 	mov	r2,zero
 40017c8:	00d00034 	movhi	r3,16384
 40017cc:	e1bff417 	ldw	r6,-48(fp)
 40017d0:	e1fff517 	ldw	r7,-44(fp)
 40017d4:	1009883a 	mov	r4,r2
 40017d8:	180b883a 	mov	r5,r3
 40017dc:	40030600 	call	4003060 <__adddf3>
 40017e0:	1009883a 	mov	r4,r2
 40017e4:	180b883a 	mov	r5,r3
 40017e8:	2005883a 	mov	r2,r4
 40017ec:	2807883a 	mov	r3,r5
 40017f0:	100d883a 	mov	r6,r2
 40017f4:	180f883a 	mov	r7,r3
 40017f8:	9009883a 	mov	r4,r18
 40017fc:	980b883a 	mov	r5,r19
 4001800:	400390c0 	call	400390c <__divdf3>
 4001804:	1009883a 	mov	r4,r2
 4001808:	180b883a 	mov	r5,r3
 400180c:	e13ff015 	stw	r4,-64(fp)
 4001810:	e17ff115 	stw	r5,-60(fp)
 4001814:	00000f06 	br	4001854 <tanh+0x374>
	    }
    /* |x| > 22, return +-1 */
	} else {
	    z = one - tiny;		/* raised inexact flag */
 4001818:	0011883a 	mov	r8,zero
 400181c:	024ffc34 	movhi	r9,16368
 4001820:	00b0be74 	movhi	r2,49913
 4001824:	10bcd644 	addi	r2,r2,-3239
 4001828:	00c06974 	movhi	r3,421
 400182c:	18db87c4 	addi	r3,r3,28191
 4001830:	100d883a 	mov	r6,r2
 4001834:	180f883a 	mov	r7,r3
 4001838:	4009883a 	mov	r4,r8
 400183c:	480b883a 	mov	r5,r9
 4001840:	4004b640 	call	4004b64 <__subdf3>
 4001844:	1009883a 	mov	r4,r2
 4001848:	180b883a 	mov	r5,r3
 400184c:	e13ff015 	stw	r4,-64(fp)
 4001850:	e17ff115 	stw	r5,-60(fp)
	}
	return (jx>=0)? z: -z;
 4001854:	e0bff217 	ldw	r2,-56(fp)
 4001858:	1000040e 	bge	r2,zero,400186c <tanh+0x38c>
 400185c:	e43ff017 	ldw	r16,-64(fp)
 4001860:	e0bff117 	ldw	r2,-60(fp)
 4001864:	1460003c 	xorhi	r17,r2,32768
 4001868:	00000206 	br	4001874 <tanh+0x394>
 400186c:	e43ff017 	ldw	r16,-64(fp)
 4001870:	e47ff117 	ldw	r17,-60(fp)
 4001874:	0001883a 	nop
 4001878:	8007883a 	mov	r3,r16
 400187c:	8809883a 	mov	r4,r17
}
 4001880:	1805883a 	mov	r2,r3
 4001884:	2007883a 	mov	r3,r4
 4001888:	e6fffa04 	addi	sp,fp,-24
 400188c:	dfc00717 	ldw	ra,28(sp)
 4001890:	df000617 	ldw	fp,24(sp)
 4001894:	dd400517 	ldw	r21,20(sp)
 4001898:	dd000417 	ldw	r20,16(sp)
 400189c:	dcc00317 	ldw	r19,12(sp)
 40018a0:	dc800217 	ldw	r18,8(sp)
 40018a4:	dc400117 	ldw	r17,4(sp)
 40018a8:	dc000017 	ldw	r16,0(sp)
 40018ac:	dec00804 	addi	sp,sp,32
 40018b0:	f800283a 	ret

040018b4 <sqrt>:
	double sqrt(double x)		/* wrapper sqrt */
#else
	double sqrt(x)			/* wrapper sqrt */
	double x;
#endif
{
 40018b4:	defff104 	addi	sp,sp,-60
 40018b8:	dfc00e15 	stw	ra,56(sp)
 40018bc:	df000d15 	stw	fp,52(sp)
 40018c0:	df000d04 	addi	fp,sp,52
 40018c4:	e13ffe15 	stw	r4,-8(fp)
 40018c8:	e17fff15 	stw	r5,-4(fp)
#ifdef _IEEE_LIBM
	return __ieee754_sqrt(x);
#else
	struct exception exc;
	double z;
	z = __ieee754_sqrt(x);
 40018cc:	e13ffe17 	ldw	r4,-8(fp)
 40018d0:	e17fff17 	ldw	r5,-4(fp)
 40018d4:	4001a280 	call	4001a28 <__ieee754_sqrt>
 40018d8:	e0bff315 	stw	r2,-52(fp)
 40018dc:	e0fff415 	stw	r3,-48(fp)
	if(_LIB_VERSION == _IEEE_ || isnan(x)) return z;
 40018e0:	d0a02617 	ldw	r2,-32616(gp)
 40018e4:	10bfffe0 	cmpeqi	r2,r2,-1
 40018e8:	1000041e 	bne	r2,zero,40018fc <sqrt+0x48>
 40018ec:	e13ffe17 	ldw	r4,-8(fp)
 40018f0:	e17fff17 	ldw	r5,-4(fp)
 40018f4:	4002ef40 	call	4002ef4 <__fpclassifyd>
 40018f8:	1000031e 	bne	r2,zero,4001908 <sqrt+0x54>
 40018fc:	e0bff317 	ldw	r2,-52(fp)
 4001900:	e0fff417 	ldw	r3,-48(fp)
 4001904:	00003f06 	br	4001a04 <sqrt+0x150>
	if(x<0.0) {
 4001908:	000d883a 	mov	r6,zero
 400190c:	000f883a 	mov	r7,zero
 4001910:	e13ffe17 	ldw	r4,-8(fp)
 4001914:	e17fff17 	ldw	r5,-4(fp)
 4001918:	40043580 	call	4004358 <__ledf2>
 400191c:	1000370e 	bge	r2,zero,40019fc <sqrt+0x148>
	  exc.type = DOMAIN;
 4001920:	00800044 	movi	r2,1
 4001924:	e0bff515 	stw	r2,-44(fp)
	  exc.name = "sqrt";
 4001928:	00810074 	movhi	r2,1025
 400192c:	108b8904 	addi	r2,r2,11812
 4001930:	e0bff615 	stw	r2,-40(fp)
	  exc.err = 0;
 4001934:	e03ffd15 	stw	zero,-12(fp)
	  exc.arg1 = exc.arg2 = x;
 4001938:	e0bffe17 	ldw	r2,-8(fp)
 400193c:	e0bff915 	stw	r2,-28(fp)
 4001940:	e0bfff17 	ldw	r2,-4(fp)
 4001944:	e0bffa15 	stw	r2,-24(fp)
 4001948:	e0bff917 	ldw	r2,-28(fp)
 400194c:	e0fffa17 	ldw	r3,-24(fp)
 4001950:	e0bff715 	stw	r2,-36(fp)
 4001954:	e0fff815 	stw	r3,-32(fp)
	  if (_LIB_VERSION == _SVID_)
 4001958:	d0a02617 	ldw	r2,-32616(gp)
 400195c:	1000031e 	bne	r2,zero,400196c <sqrt+0xb8>
	    exc.retval = 0.0;
 4001960:	e03ffb15 	stw	zero,-20(fp)
 4001964:	e03ffc15 	stw	zero,-16(fp)
 4001968:	00000b06 	br	4001998 <sqrt+0xe4>
          else
            exc.retval = 0.0/0.0;
 400196c:	000d883a 	mov	r6,zero
 4001970:	000f883a 	mov	r7,zero
 4001974:	0009883a 	mov	r4,zero
 4001978:	000b883a 	mov	r5,zero
 400197c:	400390c0 	call	400390c <__divdf3>
 4001980:	1009883a 	mov	r4,r2
 4001984:	180b883a 	mov	r5,r3
 4001988:	2005883a 	mov	r2,r4
 400198c:	2807883a 	mov	r3,r5
 4001990:	e0bffb15 	stw	r2,-20(fp)
 4001994:	e0fffc15 	stw	r3,-16(fp)
          if (_LIB_VERSION == _POSIX_)
 4001998:	d0a02617 	ldw	r2,-32616(gp)
 400199c:	10800098 	cmpnei	r2,r2,2
 40019a0:	1000051e 	bne	r2,zero,40019b8 <sqrt+0x104>
            errno = EDOM;
 40019a4:	4005a8c0 	call	4005a8c <__errno>
 40019a8:	1007883a 	mov	r3,r2
 40019ac:	00800844 	movi	r2,33
 40019b0:	18800015 	stw	r2,0(r3)
 40019b4:	00000806 	br	40019d8 <sqrt+0x124>
          else if (!matherr(&exc)) {
 40019b8:	e0bff504 	addi	r2,fp,-44
 40019bc:	1009883a 	mov	r4,r2
 40019c0:	4002ff80 	call	4002ff8 <matherr>
 40019c4:	1000041e 	bne	r2,zero,40019d8 <sqrt+0x124>
            errno = EDOM;
 40019c8:	4005a8c0 	call	4005a8c <__errno>
 40019cc:	1007883a 	mov	r3,r2
 40019d0:	00800844 	movi	r2,33
 40019d4:	18800015 	stw	r2,0(r3)
          }
          if (exc.err != 0)
 40019d8:	e0bffd17 	ldw	r2,-12(fp)
 40019dc:	10000426 	beq	r2,zero,40019f0 <sqrt+0x13c>
	    errno = exc.err;
 40019e0:	4005a8c0 	call	4005a8c <__errno>
 40019e4:	1007883a 	mov	r3,r2
 40019e8:	e0bffd17 	ldw	r2,-12(fp)
 40019ec:	18800015 	stw	r2,0(r3)
	  return exc.retval; 
 40019f0:	e0bffb17 	ldw	r2,-20(fp)
 40019f4:	e0fffc17 	ldw	r3,-16(fp)
 40019f8:	00000206 	br	4001a04 <sqrt+0x150>
	} else
	    return z;
 40019fc:	e0bff317 	ldw	r2,-52(fp)
 4001a00:	e0fff417 	ldw	r3,-48(fp)
 4001a04:	1009883a 	mov	r4,r2
 4001a08:	180b883a 	mov	r5,r3
#endif
}
 4001a0c:	2005883a 	mov	r2,r4
 4001a10:	2807883a 	mov	r3,r5
 4001a14:	e037883a 	mov	sp,fp
 4001a18:	dfc00117 	ldw	ra,4(sp)
 4001a1c:	df000017 	ldw	fp,0(sp)
 4001a20:	dec00204 	addi	sp,sp,8
 4001a24:	f800283a 	ret

04001a28 <__ieee754_sqrt>:
	double __ieee754_sqrt(double x)
#else
	double __ieee754_sqrt(x)
	double x;
#endif
{
 4001a28:	deffe804 	addi	sp,sp,-96
 4001a2c:	dfc01715 	stw	ra,92(sp)
 4001a30:	df001615 	stw	fp,88(sp)
 4001a34:	dc401515 	stw	r17,84(sp)
 4001a38:	dc001415 	stw	r16,80(sp)
 4001a3c:	df001604 	addi	fp,sp,88
 4001a40:	e13ffc15 	stw	r4,-16(fp)
 4001a44:	e17ffd15 	stw	r5,-12(fp)
	double z;
	__int32_t sign = (int)0x80000000; 
 4001a48:	00a00034 	movhi	r2,32768
 4001a4c:	e0bff315 	stw	r2,-52(fp)
	__uint32_t r,t1,s1,ix1,q1;
	__int32_t ix0,s0,q,m,t,i;

	EXTRACT_WORDS(ix0,ix1,x);
 4001a50:	e0bffc17 	ldw	r2,-16(fp)
 4001a54:	e0bff815 	stw	r2,-32(fp)
 4001a58:	e0bffd17 	ldw	r2,-12(fp)
 4001a5c:	e0bff915 	stw	r2,-28(fp)
 4001a60:	e0bff917 	ldw	r2,-28(fp)
 4001a64:	e0bfee15 	stw	r2,-72(fp)
 4001a68:	e0bff817 	ldw	r2,-32(fp)
 4001a6c:	e0bfec15 	stw	r2,-80(fp)

    /* take care of Inf and NaN */
	if((ix0&0x7ff00000)==0x7ff00000) {			
 4001a70:	e0bfee17 	ldw	r2,-72(fp)
 4001a74:	10dffc2c 	andhi	r3,r2,32752
 4001a78:	009ffc34 	movhi	r2,32752
 4001a7c:	1880131e 	bne	r3,r2,4001acc <__ieee754_sqrt+0xa4>
	    return x*x+x;		/* sqrt(NaN)=NaN, sqrt(+inf)=+inf
 4001a80:	e1bffc17 	ldw	r6,-16(fp)
 4001a84:	e1fffd17 	ldw	r7,-12(fp)
 4001a88:	e13ffc17 	ldw	r4,-16(fp)
 4001a8c:	e17ffd17 	ldw	r5,-12(fp)
 4001a90:	400444c0 	call	400444c <__muldf3>
 4001a94:	1009883a 	mov	r4,r2
 4001a98:	180b883a 	mov	r5,r3
 4001a9c:	2005883a 	mov	r2,r4
 4001aa0:	2807883a 	mov	r3,r5
 4001aa4:	e1bffc17 	ldw	r6,-16(fp)
 4001aa8:	e1fffd17 	ldw	r7,-12(fp)
 4001aac:	1009883a 	mov	r4,r2
 4001ab0:	180b883a 	mov	r5,r3
 4001ab4:	40030600 	call	4003060 <__adddf3>
 4001ab8:	1009883a 	mov	r4,r2
 4001abc:	180b883a 	mov	r5,r3
 4001ac0:	2005883a 	mov	r2,r4
 4001ac4:	2807883a 	mov	r3,r5
 4001ac8:	00015e06 	br	4002044 <__ieee754_sqrt+0x61c>
					   sqrt(-inf)=sNaN */
	} 
    /* take care of zero */
	if(ix0<=0) {
 4001acc:	e0bfee17 	ldw	r2,-72(fp)
 4001ad0:	00802916 	blt	zero,r2,4001b78 <__ieee754_sqrt+0x150>
	    if(((ix0&(~sign))|ix1)==0) return x;/* sqrt(+-0) = +-0 */
 4001ad4:	e0bff317 	ldw	r2,-52(fp)
 4001ad8:	0086303a 	nor	r3,zero,r2
 4001adc:	e0bfee17 	ldw	r2,-72(fp)
 4001ae0:	1884703a 	and	r2,r3,r2
 4001ae4:	1007883a 	mov	r3,r2
 4001ae8:	e0bfec17 	ldw	r2,-80(fp)
 4001aec:	1884b03a 	or	r2,r3,r2
 4001af0:	1000031e 	bne	r2,zero,4001b00 <__ieee754_sqrt+0xd8>
 4001af4:	e0bffc17 	ldw	r2,-16(fp)
 4001af8:	e0fffd17 	ldw	r3,-12(fp)
 4001afc:	00015106 	br	4002044 <__ieee754_sqrt+0x61c>
	    else if(ix0<0)
 4001b00:	e0bfee17 	ldw	r2,-72(fp)
 4001b04:	10001c0e 	bge	r2,zero,4001b78 <__ieee754_sqrt+0x150>
		return (x-x)/(x-x);		/* sqrt(-ve) = sNaN */
 4001b08:	e1bffc17 	ldw	r6,-16(fp)
 4001b0c:	e1fffd17 	ldw	r7,-12(fp)
 4001b10:	e13ffc17 	ldw	r4,-16(fp)
 4001b14:	e17ffd17 	ldw	r5,-12(fp)
 4001b18:	4004b640 	call	4004b64 <__subdf3>
 4001b1c:	1009883a 	mov	r4,r2
 4001b20:	180b883a 	mov	r5,r3
 4001b24:	2021883a 	mov	r16,r4
 4001b28:	2823883a 	mov	r17,r5
 4001b2c:	e1bffc17 	ldw	r6,-16(fp)
 4001b30:	e1fffd17 	ldw	r7,-12(fp)
 4001b34:	e13ffc17 	ldw	r4,-16(fp)
 4001b38:	e17ffd17 	ldw	r5,-12(fp)
 4001b3c:	4004b640 	call	4004b64 <__subdf3>
 4001b40:	1009883a 	mov	r4,r2
 4001b44:	180b883a 	mov	r5,r3
 4001b48:	2005883a 	mov	r2,r4
 4001b4c:	2807883a 	mov	r3,r5
 4001b50:	100d883a 	mov	r6,r2
 4001b54:	180f883a 	mov	r7,r3
 4001b58:	8009883a 	mov	r4,r16
 4001b5c:	880b883a 	mov	r5,r17
 4001b60:	400390c0 	call	400390c <__divdf3>
 4001b64:	1009883a 	mov	r4,r2
 4001b68:	180b883a 	mov	r5,r3
 4001b6c:	2005883a 	mov	r2,r4
 4001b70:	2807883a 	mov	r3,r5
 4001b74:	00013306 	br	4002044 <__ieee754_sqrt+0x61c>
	}
    /* normalize x */
	m = (ix0>>20);
 4001b78:	e0bfee17 	ldw	r2,-72(fp)
 4001b7c:	1005d53a 	srai	r2,r2,20
 4001b80:	e0bff115 	stw	r2,-60(fp)
	if(m==0) {				/* subnormal x */
 4001b84:	e0bff117 	ldw	r2,-60(fp)
 4001b88:	10002a1e 	bne	r2,zero,4001c34 <__ieee754_sqrt+0x20c>
	    while(ix0==0) {
 4001b8c:	00000b06 	br	4001bbc <__ieee754_sqrt+0x194>
		m -= 21;
 4001b90:	e0bff117 	ldw	r2,-60(fp)
 4001b94:	10bffac4 	addi	r2,r2,-21
 4001b98:	e0bff115 	stw	r2,-60(fp)
		ix0 |= (ix1>>11); ix1 <<= 21;
 4001b9c:	e0bfec17 	ldw	r2,-80(fp)
 4001ba0:	1006d2fa 	srli	r3,r2,11
 4001ba4:	e0bfee17 	ldw	r2,-72(fp)
 4001ba8:	1884b03a 	or	r2,r3,r2
 4001bac:	e0bfee15 	stw	r2,-72(fp)
 4001bb0:	e0bfec17 	ldw	r2,-80(fp)
 4001bb4:	1004957a 	slli	r2,r2,21
 4001bb8:	e0bfec15 	stw	r2,-80(fp)
		return (x-x)/(x-x);		/* sqrt(-ve) = sNaN */
	}
    /* normalize x */
	m = (ix0>>20);
	if(m==0) {				/* subnormal x */
	    while(ix0==0) {
 4001bbc:	e0bfee17 	ldw	r2,-72(fp)
 4001bc0:	103ff326 	beq	r2,zero,4001b90 <__alt_data_end+0xfc001b90>
		m -= 21;
		ix0 |= (ix1>>11); ix1 <<= 21;
	    }
	    for(i=0;(ix0&0x00100000)==0;i++) ix0<<=1;
 4001bc4:	e03ff215 	stw	zero,-56(fp)
 4001bc8:	00000606 	br	4001be4 <__ieee754_sqrt+0x1bc>
 4001bcc:	e0bfee17 	ldw	r2,-72(fp)
 4001bd0:	1085883a 	add	r2,r2,r2
 4001bd4:	e0bfee15 	stw	r2,-72(fp)
 4001bd8:	e0bff217 	ldw	r2,-56(fp)
 4001bdc:	10800044 	addi	r2,r2,1
 4001be0:	e0bff215 	stw	r2,-56(fp)
 4001be4:	e0bfee17 	ldw	r2,-72(fp)
 4001be8:	1080042c 	andhi	r2,r2,16
 4001bec:	103ff726 	beq	r2,zero,4001bcc <__alt_data_end+0xfc001bcc>
	    m -= i-1;
 4001bf0:	e0bff217 	ldw	r2,-56(fp)
 4001bf4:	10bfffc4 	addi	r2,r2,-1
 4001bf8:	e0fff117 	ldw	r3,-60(fp)
 4001bfc:	1885c83a 	sub	r2,r3,r2
 4001c00:	e0bff115 	stw	r2,-60(fp)
	    ix0 |= (ix1>>(32-i));
 4001c04:	00c00804 	movi	r3,32
 4001c08:	e0bff217 	ldw	r2,-56(fp)
 4001c0c:	1885c83a 	sub	r2,r3,r2
 4001c10:	e0ffec17 	ldw	r3,-80(fp)
 4001c14:	1886d83a 	srl	r3,r3,r2
 4001c18:	e0bfee17 	ldw	r2,-72(fp)
 4001c1c:	1884b03a 	or	r2,r3,r2
 4001c20:	e0bfee15 	stw	r2,-72(fp)
	    ix1 <<= i;
 4001c24:	e0ffec17 	ldw	r3,-80(fp)
 4001c28:	e0bff217 	ldw	r2,-56(fp)
 4001c2c:	1884983a 	sll	r2,r3,r2
 4001c30:	e0bfec15 	stw	r2,-80(fp)
	}
	m -= 1023;	/* unbias exponent */
 4001c34:	e0bff117 	ldw	r2,-60(fp)
 4001c38:	10bf0044 	addi	r2,r2,-1023
 4001c3c:	e0bff115 	stw	r2,-60(fp)
	ix0 = (ix0&0x000fffff)|0x00100000;
 4001c40:	e0ffee17 	ldw	r3,-72(fp)
 4001c44:	00800434 	movhi	r2,16
 4001c48:	10bfffc4 	addi	r2,r2,-1
 4001c4c:	1884703a 	and	r2,r3,r2
 4001c50:	10800434 	orhi	r2,r2,16
 4001c54:	e0bfee15 	stw	r2,-72(fp)
	if(m&1){	/* odd m, double x to make it even */
 4001c58:	e0bff117 	ldw	r2,-60(fp)
 4001c5c:	1080004c 	andi	r2,r2,1
 4001c60:	10000d26 	beq	r2,zero,4001c98 <__ieee754_sqrt+0x270>
	    ix0 += ix0 + ((ix1&sign)>>31);
 4001c64:	e0fff317 	ldw	r3,-52(fp)
 4001c68:	e0bfec17 	ldw	r2,-80(fp)
 4001c6c:	1884703a 	and	r2,r3,r2
 4001c70:	1006d7fa 	srli	r3,r2,31
 4001c74:	e0bfee17 	ldw	r2,-72(fp)
 4001c78:	1887883a 	add	r3,r3,r2
 4001c7c:	e0bfee17 	ldw	r2,-72(fp)
 4001c80:	1885883a 	add	r2,r3,r2
 4001c84:	e0bfee15 	stw	r2,-72(fp)
	    ix1 += ix1;
 4001c88:	e0ffec17 	ldw	r3,-80(fp)
 4001c8c:	e0bfec17 	ldw	r2,-80(fp)
 4001c90:	1885883a 	add	r2,r3,r2
 4001c94:	e0bfec15 	stw	r2,-80(fp)
	}
	m >>= 1;	/* m = [m/2] */
 4001c98:	e0bff117 	ldw	r2,-60(fp)
 4001c9c:	1005d07a 	srai	r2,r2,1
 4001ca0:	e0bff115 	stw	r2,-60(fp)

    /* generate sqrt(x) bit by bit */
	ix0 += ix0 + ((ix1&sign)>>31);
 4001ca4:	e0fff317 	ldw	r3,-52(fp)
 4001ca8:	e0bfec17 	ldw	r2,-80(fp)
 4001cac:	1884703a 	and	r2,r3,r2
 4001cb0:	1006d7fa 	srli	r3,r2,31
 4001cb4:	e0bfee17 	ldw	r2,-72(fp)
 4001cb8:	1887883a 	add	r3,r3,r2
 4001cbc:	e0bfee17 	ldw	r2,-72(fp)
 4001cc0:	1885883a 	add	r2,r3,r2
 4001cc4:	e0bfee15 	stw	r2,-72(fp)
	ix1 += ix1;
 4001cc8:	e0ffec17 	ldw	r3,-80(fp)
 4001ccc:	e0bfec17 	ldw	r2,-80(fp)
 4001cd0:	1885883a 	add	r2,r3,r2
 4001cd4:	e0bfec15 	stw	r2,-80(fp)
	q = q1 = s0 = s1 = 0;	/* [q,q1] = sqrt(x) */
 4001cd8:	e03feb15 	stw	zero,-84(fp)
 4001cdc:	e03fef15 	stw	zero,-68(fp)
 4001ce0:	e0bfef17 	ldw	r2,-68(fp)
 4001ce4:	e0bfed15 	stw	r2,-76(fp)
 4001ce8:	e0bfed17 	ldw	r2,-76(fp)
 4001cec:	e0bff015 	stw	r2,-64(fp)
	r = 0x00200000;		/* r = moving bit from right to left */
 4001cf0:	00800834 	movhi	r2,32
 4001cf4:	e0bfea15 	stw	r2,-88(fp)

	while(r!=0) {
 4001cf8:	00002306 	br	4001d88 <__ieee754_sqrt+0x360>
	    t = s0+r; 
 4001cfc:	e0ffef17 	ldw	r3,-68(fp)
 4001d00:	e0bfea17 	ldw	r2,-88(fp)
 4001d04:	1885883a 	add	r2,r3,r2
 4001d08:	e0bff415 	stw	r2,-48(fp)
	    if(t<=ix0) { 
 4001d0c:	e0bff417 	ldw	r2,-48(fp)
 4001d10:	e0ffee17 	ldw	r3,-72(fp)
 4001d14:	18800c16 	blt	r3,r2,4001d48 <__ieee754_sqrt+0x320>
		s0   = t+r; 
 4001d18:	e0fff417 	ldw	r3,-48(fp)
 4001d1c:	e0bfea17 	ldw	r2,-88(fp)
 4001d20:	1885883a 	add	r2,r3,r2
 4001d24:	e0bfef15 	stw	r2,-68(fp)
		ix0 -= t; 
 4001d28:	e0ffee17 	ldw	r3,-72(fp)
 4001d2c:	e0bff417 	ldw	r2,-48(fp)
 4001d30:	1885c83a 	sub	r2,r3,r2
 4001d34:	e0bfee15 	stw	r2,-72(fp)
		q   += r; 
 4001d38:	e0fff017 	ldw	r3,-64(fp)
 4001d3c:	e0bfea17 	ldw	r2,-88(fp)
 4001d40:	1885883a 	add	r2,r3,r2
 4001d44:	e0bff015 	stw	r2,-64(fp)
	    } 
	    ix0 += ix0 + ((ix1&sign)>>31);
 4001d48:	e0fff317 	ldw	r3,-52(fp)
 4001d4c:	e0bfec17 	ldw	r2,-80(fp)
 4001d50:	1884703a 	and	r2,r3,r2
 4001d54:	1006d7fa 	srli	r3,r2,31
 4001d58:	e0bfee17 	ldw	r2,-72(fp)
 4001d5c:	1887883a 	add	r3,r3,r2
 4001d60:	e0bfee17 	ldw	r2,-72(fp)
 4001d64:	1885883a 	add	r2,r3,r2
 4001d68:	e0bfee15 	stw	r2,-72(fp)
	    ix1 += ix1;
 4001d6c:	e0ffec17 	ldw	r3,-80(fp)
 4001d70:	e0bfec17 	ldw	r2,-80(fp)
 4001d74:	1885883a 	add	r2,r3,r2
 4001d78:	e0bfec15 	stw	r2,-80(fp)
	    r>>=1;
 4001d7c:	e0bfea17 	ldw	r2,-88(fp)
 4001d80:	1004d07a 	srli	r2,r2,1
 4001d84:	e0bfea15 	stw	r2,-88(fp)
	ix0 += ix0 + ((ix1&sign)>>31);
	ix1 += ix1;
	q = q1 = s0 = s1 = 0;	/* [q,q1] = sqrt(x) */
	r = 0x00200000;		/* r = moving bit from right to left */

	while(r!=0) {
 4001d88:	e0bfea17 	ldw	r2,-88(fp)
 4001d8c:	103fdb1e 	bne	r2,zero,4001cfc <__alt_data_end+0xfc001cfc>
	    ix0 += ix0 + ((ix1&sign)>>31);
	    ix1 += ix1;
	    r>>=1;
	}

	r = sign;
 4001d90:	e0bff317 	ldw	r2,-52(fp)
 4001d94:	e0bfea15 	stw	r2,-88(fp)
	while(r!=0) {
 4001d98:	00004106 	br	4001ea0 <__ieee754_sqrt+0x478>
	    t1 = s1+r; 
 4001d9c:	e0ffeb17 	ldw	r3,-84(fp)
 4001da0:	e0bfea17 	ldw	r2,-88(fp)
 4001da4:	1885883a 	add	r2,r3,r2
 4001da8:	e0bff515 	stw	r2,-44(fp)
	    t  = s0;
 4001dac:	e0bfef17 	ldw	r2,-68(fp)
 4001db0:	e0bff415 	stw	r2,-48(fp)
	    if((t<ix0)||((t==ix0)&&(t1<=ix1))) { 
 4001db4:	e0fff417 	ldw	r3,-48(fp)
 4001db8:	e0bfee17 	ldw	r2,-72(fp)
 4001dbc:	18800616 	blt	r3,r2,4001dd8 <__ieee754_sqrt+0x3b0>
 4001dc0:	e0fff417 	ldw	r3,-48(fp)
 4001dc4:	e0bfee17 	ldw	r2,-72(fp)
 4001dc8:	1880251e 	bne	r3,r2,4001e60 <__ieee754_sqrt+0x438>
 4001dcc:	e0bff517 	ldw	r2,-44(fp)
 4001dd0:	e0ffec17 	ldw	r3,-80(fp)
 4001dd4:	18802236 	bltu	r3,r2,4001e60 <__ieee754_sqrt+0x438>
		s1  = t1+r;
 4001dd8:	e0fff517 	ldw	r3,-44(fp)
 4001ddc:	e0bfea17 	ldw	r2,-88(fp)
 4001de0:	1885883a 	add	r2,r3,r2
 4001de4:	e0bfeb15 	stw	r2,-84(fp)
		if(((t1&sign)==sign)&&(s1&sign)==0) s0 += 1;
 4001de8:	e0fff317 	ldw	r3,-52(fp)
 4001dec:	e0bff517 	ldw	r2,-44(fp)
 4001df0:	1886703a 	and	r3,r3,r2
 4001df4:	e0bff317 	ldw	r2,-52(fp)
 4001df8:	1880071e 	bne	r3,r2,4001e18 <__ieee754_sqrt+0x3f0>
 4001dfc:	e0fff317 	ldw	r3,-52(fp)
 4001e00:	e0bfeb17 	ldw	r2,-84(fp)
 4001e04:	1884703a 	and	r2,r3,r2
 4001e08:	1000031e 	bne	r2,zero,4001e18 <__ieee754_sqrt+0x3f0>
 4001e0c:	e0bfef17 	ldw	r2,-68(fp)
 4001e10:	10800044 	addi	r2,r2,1
 4001e14:	e0bfef15 	stw	r2,-68(fp)
		ix0 -= t;
 4001e18:	e0ffee17 	ldw	r3,-72(fp)
 4001e1c:	e0bff417 	ldw	r2,-48(fp)
 4001e20:	1885c83a 	sub	r2,r3,r2
 4001e24:	e0bfee15 	stw	r2,-72(fp)
		if (ix1 < t1) ix0 -= 1;
 4001e28:	e0ffec17 	ldw	r3,-80(fp)
 4001e2c:	e0bff517 	ldw	r2,-44(fp)
 4001e30:	1880032e 	bgeu	r3,r2,4001e40 <__ieee754_sqrt+0x418>
 4001e34:	e0bfee17 	ldw	r2,-72(fp)
 4001e38:	10bfffc4 	addi	r2,r2,-1
 4001e3c:	e0bfee15 	stw	r2,-72(fp)
		ix1 -= t1;
 4001e40:	e0ffec17 	ldw	r3,-80(fp)
 4001e44:	e0bff517 	ldw	r2,-44(fp)
 4001e48:	1885c83a 	sub	r2,r3,r2
 4001e4c:	e0bfec15 	stw	r2,-80(fp)
		q1  += r;
 4001e50:	e0ffed17 	ldw	r3,-76(fp)
 4001e54:	e0bfea17 	ldw	r2,-88(fp)
 4001e58:	1885883a 	add	r2,r3,r2
 4001e5c:	e0bfed15 	stw	r2,-76(fp)
	    }
	    ix0 += ix0 + ((ix1&sign)>>31);
 4001e60:	e0fff317 	ldw	r3,-52(fp)
 4001e64:	e0bfec17 	ldw	r2,-80(fp)
 4001e68:	1884703a 	and	r2,r3,r2
 4001e6c:	1006d7fa 	srli	r3,r2,31
 4001e70:	e0bfee17 	ldw	r2,-72(fp)
 4001e74:	1887883a 	add	r3,r3,r2
 4001e78:	e0bfee17 	ldw	r2,-72(fp)
 4001e7c:	1885883a 	add	r2,r3,r2
 4001e80:	e0bfee15 	stw	r2,-72(fp)
	    ix1 += ix1;
 4001e84:	e0ffec17 	ldw	r3,-80(fp)
 4001e88:	e0bfec17 	ldw	r2,-80(fp)
 4001e8c:	1885883a 	add	r2,r3,r2
 4001e90:	e0bfec15 	stw	r2,-80(fp)
	    r>>=1;
 4001e94:	e0bfea17 	ldw	r2,-88(fp)
 4001e98:	1004d07a 	srli	r2,r2,1
 4001e9c:	e0bfea15 	stw	r2,-88(fp)
	    ix1 += ix1;
	    r>>=1;
	}

	r = sign;
	while(r!=0) {
 4001ea0:	e0bfea17 	ldw	r2,-88(fp)
 4001ea4:	103fbd1e 	bne	r2,zero,4001d9c <__alt_data_end+0xfc001d9c>
	    ix1 += ix1;
	    r>>=1;
	}

    /* use floating add to find out rounding direction */
	if((ix0|ix1)!=0) {
 4001ea8:	e0ffee17 	ldw	r3,-72(fp)
 4001eac:	e0bfec17 	ldw	r2,-80(fp)
 4001eb0:	1884b03a 	or	r2,r3,r2
 4001eb4:	10004526 	beq	r2,zero,4001fcc <__ieee754_sqrt+0x5a4>
	    z = one-tiny; /* trigger inexact flag */
 4001eb8:	0011883a 	mov	r8,zero
 4001ebc:	024ffc34 	movhi	r9,16368
 4001ec0:	00b0be74 	movhi	r2,49913
 4001ec4:	10bcd644 	addi	r2,r2,-3239
 4001ec8:	00c06974 	movhi	r3,421
 4001ecc:	18db87c4 	addi	r3,r3,28191
 4001ed0:	100d883a 	mov	r6,r2
 4001ed4:	180f883a 	mov	r7,r3
 4001ed8:	4009883a 	mov	r4,r8
 4001edc:	480b883a 	mov	r5,r9
 4001ee0:	4004b640 	call	4004b64 <__subdf3>
 4001ee4:	1009883a 	mov	r4,r2
 4001ee8:	180b883a 	mov	r5,r3
 4001eec:	e13ff615 	stw	r4,-40(fp)
 4001ef0:	e17ff715 	stw	r5,-36(fp)
	    if (z>=one) {
 4001ef4:	0005883a 	mov	r2,zero
 4001ef8:	00cffc34 	movhi	r3,16368
 4001efc:	100d883a 	mov	r6,r2
 4001f00:	180f883a 	mov	r7,r3
 4001f04:	e13ff617 	ldw	r4,-40(fp)
 4001f08:	e17ff717 	ldw	r5,-36(fp)
 4001f0c:	400427c0 	call	400427c <__gedf2>
 4001f10:	10002e16 	blt	r2,zero,4001fcc <__ieee754_sqrt+0x5a4>
	        z = one+tiny;
 4001f14:	0011883a 	mov	r8,zero
 4001f18:	024ffc34 	movhi	r9,16368
 4001f1c:	00b0be74 	movhi	r2,49913
 4001f20:	10bcd644 	addi	r2,r2,-3239
 4001f24:	00c06974 	movhi	r3,421
 4001f28:	18db87c4 	addi	r3,r3,28191
 4001f2c:	100d883a 	mov	r6,r2
 4001f30:	180f883a 	mov	r7,r3
 4001f34:	4009883a 	mov	r4,r8
 4001f38:	480b883a 	mov	r5,r9
 4001f3c:	40030600 	call	4003060 <__adddf3>
 4001f40:	1009883a 	mov	r4,r2
 4001f44:	180b883a 	mov	r5,r3
 4001f48:	e13ff615 	stw	r4,-40(fp)
 4001f4c:	e17ff715 	stw	r5,-36(fp)
	        if (q1==(__uint32_t)0xffffffff) { q1=0; q += 1;}
 4001f50:	e0bfed17 	ldw	r2,-76(fp)
 4001f54:	10bfffd8 	cmpnei	r2,r2,-1
 4001f58:	1000051e 	bne	r2,zero,4001f70 <__ieee754_sqrt+0x548>
 4001f5c:	e03fed15 	stw	zero,-76(fp)
 4001f60:	e0bff017 	ldw	r2,-64(fp)
 4001f64:	10800044 	addi	r2,r2,1
 4001f68:	e0bff015 	stw	r2,-64(fp)
 4001f6c:	00001706 	br	4001fcc <__ieee754_sqrt+0x5a4>
		else if (z>one) {
 4001f70:	0005883a 	mov	r2,zero
 4001f74:	00cffc34 	movhi	r3,16368
 4001f78:	100d883a 	mov	r6,r2
 4001f7c:	180f883a 	mov	r7,r3
 4001f80:	e13ff617 	ldw	r4,-40(fp)
 4001f84:	e17ff717 	ldw	r5,-36(fp)
 4001f88:	400427c0 	call	400427c <__gedf2>
 4001f8c:	00800a0e 	bge	zero,r2,4001fb8 <__ieee754_sqrt+0x590>
		    if (q1==(__uint32_t)0xfffffffe) q+=1;
 4001f90:	e0bfed17 	ldw	r2,-76(fp)
 4001f94:	10bfff98 	cmpnei	r2,r2,-2
 4001f98:	1000031e 	bne	r2,zero,4001fa8 <__ieee754_sqrt+0x580>
 4001f9c:	e0bff017 	ldw	r2,-64(fp)
 4001fa0:	10800044 	addi	r2,r2,1
 4001fa4:	e0bff015 	stw	r2,-64(fp)
		    q1+=2; 
 4001fa8:	e0bfed17 	ldw	r2,-76(fp)
 4001fac:	10800084 	addi	r2,r2,2
 4001fb0:	e0bfed15 	stw	r2,-76(fp)
 4001fb4:	00000506 	br	4001fcc <__ieee754_sqrt+0x5a4>
		} else
	            q1 += (q1&1);
 4001fb8:	e0bfed17 	ldw	r2,-76(fp)
 4001fbc:	1080004c 	andi	r2,r2,1
 4001fc0:	e0ffed17 	ldw	r3,-76(fp)
 4001fc4:	1885883a 	add	r2,r3,r2
 4001fc8:	e0bfed15 	stw	r2,-76(fp)
	    }
	}
	ix0 = (q>>1)+0x3fe00000;
 4001fcc:	e0bff017 	ldw	r2,-64(fp)
 4001fd0:	1007d07a 	srai	r3,r2,1
 4001fd4:	008ff834 	movhi	r2,16352
 4001fd8:	1885883a 	add	r2,r3,r2
 4001fdc:	e0bfee15 	stw	r2,-72(fp)
	ix1 =  q1>>1;
 4001fe0:	e0bfed17 	ldw	r2,-76(fp)
 4001fe4:	1004d07a 	srli	r2,r2,1
 4001fe8:	e0bfec15 	stw	r2,-80(fp)
	if ((q&1)==1) ix1 |= sign;
 4001fec:	e0bff017 	ldw	r2,-64(fp)
 4001ff0:	1080004c 	andi	r2,r2,1
 4001ff4:	10000426 	beq	r2,zero,4002008 <__ieee754_sqrt+0x5e0>
 4001ff8:	e0bff317 	ldw	r2,-52(fp)
 4001ffc:	e0ffec17 	ldw	r3,-80(fp)
 4002000:	1884b03a 	or	r2,r3,r2
 4002004:	e0bfec15 	stw	r2,-80(fp)
	ix0 += (m <<20);
 4002008:	e0bff117 	ldw	r2,-60(fp)
 400200c:	1004953a 	slli	r2,r2,20
 4002010:	e0ffee17 	ldw	r3,-72(fp)
 4002014:	1885883a 	add	r2,r3,r2
 4002018:	e0bfee15 	stw	r2,-72(fp)
	INSERT_WORDS(z,ix0,ix1);
 400201c:	e0bfee17 	ldw	r2,-72(fp)
 4002020:	e0bffb15 	stw	r2,-20(fp)
 4002024:	e0bfec17 	ldw	r2,-80(fp)
 4002028:	e0bffa15 	stw	r2,-24(fp)
 400202c:	e0bffa17 	ldw	r2,-24(fp)
 4002030:	e0bff615 	stw	r2,-40(fp)
 4002034:	e0bffb17 	ldw	r2,-20(fp)
 4002038:	e0bff715 	stw	r2,-36(fp)
	return z;
 400203c:	e0bff617 	ldw	r2,-40(fp)
 4002040:	e0fff717 	ldw	r3,-36(fp)
 4002044:	1009883a 	mov	r4,r2
 4002048:	180b883a 	mov	r5,r3
}
 400204c:	2005883a 	mov	r2,r4
 4002050:	2807883a 	mov	r3,r5
 4002054:	e6fffe04 	addi	sp,fp,-8
 4002058:	dfc00317 	ldw	ra,12(sp)
 400205c:	df000217 	ldw	fp,8(sp)
 4002060:	dc400117 	ldw	r17,4(sp)
 4002064:	dc000017 	ldw	r16,0(sp)
 4002068:	dec00404 	addi	sp,sp,16
 400206c:	f800283a 	ret

04002070 <expm1>:
	double expm1(double x)
#else
	double expm1(x)
	double x;
#endif
{
 4002070:	deffcd04 	addi	sp,sp,-204
 4002074:	dfc03215 	stw	ra,200(sp)
 4002078:	df003115 	stw	fp,196(sp)
 400207c:	dc403015 	stw	r17,192(sp)
 4002080:	dc002f15 	stw	r16,188(sp)
 4002084:	df003104 	addi	fp,sp,196
 4002088:	e13ffc15 	stw	r4,-16(fp)
 400208c:	e17ffd15 	stw	r5,-12(fp)
	double y,hi,lo,c,t,e,hxs,hfx,r1;
	__int32_t k,xsb;
	__uint32_t hx;

	GET_HIGH_WORD(hx,x);
 4002090:	e0bffc17 	ldw	r2,-16(fp)
 4002094:	e0bfe815 	stw	r2,-96(fp)
 4002098:	e0bffd17 	ldw	r2,-12(fp)
 400209c:	e0bfe915 	stw	r2,-92(fp)
 40020a0:	e0bfe917 	ldw	r2,-92(fp)
 40020a4:	e0bfd815 	stw	r2,-160(fp)
	xsb = hx&0x80000000;		/* sign bit of x */
 40020a8:	e0bfd817 	ldw	r2,-160(fp)
 40020ac:	10a0002c 	andhi	r2,r2,32768
 40020b0:	e0bfd915 	stw	r2,-156(fp)
	if(xsb==0) y=x; else y= -x;	/* y = |x| */
 40020b4:	e0bfd917 	ldw	r2,-156(fp)
 40020b8:	1000051e 	bne	r2,zero,40020d0 <expm1+0x60>
 40020bc:	e0bffc17 	ldw	r2,-16(fp)
 40020c0:	e0bfcf15 	stw	r2,-196(fp)
 40020c4:	e0bffd17 	ldw	r2,-12(fp)
 40020c8:	e0bfd015 	stw	r2,-192(fp)
 40020cc:	00000506 	br	40020e4 <expm1+0x74>
 40020d0:	e0bffc17 	ldw	r2,-16(fp)
 40020d4:	e0bfcf15 	stw	r2,-196(fp)
 40020d8:	e0bffd17 	ldw	r2,-12(fp)
 40020dc:	10a0003c 	xorhi	r2,r2,32768
 40020e0:	e0bfd015 	stw	r2,-192(fp)
	hx &= 0x7fffffff;		/* high word of |x| */
 40020e4:	e0ffd817 	ldw	r3,-160(fp)
 40020e8:	00a00034 	movhi	r2,32768
 40020ec:	10bfffc4 	addi	r2,r2,-1
 40020f0:	1884703a 	and	r2,r3,r2
 40020f4:	e0bfd815 	stw	r2,-160(fp)

    /* filter out huge and non-finite argument */
	if(hx >= 0x4043687A) {			/* if |x|>=56*ln2 */
 40020f8:	e0ffd817 	ldw	r3,-160(fp)
 40020fc:	009010f4 	movhi	r2,16451
 4002100:	109a1e44 	addi	r2,r2,26745
 4002104:	10c0692e 	bgeu	r2,r3,40022ac <expm1+0x23c>
	    if(hx >= 0x40862E42) {		/* if |x|>=709.78... */
 4002108:	e0ffd817 	ldw	r3,-160(fp)
 400210c:	009021b4 	movhi	r2,16518
 4002110:	108b9044 	addi	r2,r2,11841
 4002114:	10c0402e 	bgeu	r2,r3,4002218 <expm1+0x1a8>
                if(hx>=0x7ff00000) {
 4002118:	e0ffd817 	ldw	r3,-160(fp)
 400211c:	009ffc34 	movhi	r2,32752
 4002120:	18802136 	bltu	r3,r2,40021a8 <expm1+0x138>
		    __uint32_t low;
		    GET_LOW_WORD(low,x);
 4002124:	e0bffc17 	ldw	r2,-16(fp)
 4002128:	e0bfea15 	stw	r2,-88(fp)
 400212c:	e0bffd17 	ldw	r2,-12(fp)
 4002130:	e0bfeb15 	stw	r2,-84(fp)
 4002134:	e0bfea17 	ldw	r2,-88(fp)
 4002138:	e0bfda15 	stw	r2,-152(fp)
		    if(((hx&0xfffff)|low)!=0) 
 400213c:	e0ffd817 	ldw	r3,-160(fp)
 4002140:	00800434 	movhi	r2,16
 4002144:	10bfffc4 	addi	r2,r2,-1
 4002148:	1886703a 	and	r3,r3,r2
 400214c:	e0bfda17 	ldw	r2,-152(fp)
 4002150:	1884b03a 	or	r2,r3,r2
 4002154:	10000c26 	beq	r2,zero,4002188 <expm1+0x118>
		         return x+x; 	 /* NaN */
 4002158:	e0bffc17 	ldw	r2,-16(fp)
 400215c:	e0fffd17 	ldw	r3,-12(fp)
 4002160:	100d883a 	mov	r6,r2
 4002164:	180f883a 	mov	r7,r3
 4002168:	1009883a 	mov	r4,r2
 400216c:	180b883a 	mov	r5,r3
 4002170:	40030600 	call	4003060 <__adddf3>
 4002174:	1009883a 	mov	r4,r2
 4002178:	180b883a 	mov	r5,r3
 400217c:	2005883a 	mov	r2,r4
 4002180:	2807883a 	mov	r3,r5
 4002184:	00032e06 	br	4002e40 <expm1+0xdd0>
		    else return (xsb==0)? x:-1.0;/* exp(+-inf)={inf,-1} */
 4002188:	e0bfd917 	ldw	r2,-156(fp)
 400218c:	1000031e 	bne	r2,zero,400219c <expm1+0x12c>
 4002190:	e0bffc17 	ldw	r2,-16(fp)
 4002194:	e0fffd17 	ldw	r3,-12(fp)
 4002198:	00032906 	br	4002e40 <expm1+0xdd0>
 400219c:	0005883a 	mov	r2,zero
 40021a0:	00effc34 	movhi	r3,49136
 40021a4:	00032606 	br	4002e40 <expm1+0xdd0>
	        }
	        if(x > o_threshold) return huge*huge; /* overflow */
 40021a8:	00bfbeb4 	movhi	r2,65274
 40021ac:	108e7bc4 	addi	r2,r2,14831
 40021b0:	00d021b4 	movhi	r3,16518
 40021b4:	18cb9084 	addi	r3,r3,11842
 40021b8:	100d883a 	mov	r6,r2
 40021bc:	180f883a 	mov	r7,r3
 40021c0:	e13ffc17 	ldw	r4,-16(fp)
 40021c4:	e17ffd17 	ldw	r5,-12(fp)
 40021c8:	400427c0 	call	400427c <__gedf2>
 40021cc:	0080120e 	bge	zero,r2,4002218 <expm1+0x1a8>
 40021d0:	00a20034 	movhi	r2,34816
 40021d4:	109d6704 	addi	r2,r2,30108
 40021d8:	00df8e34 	movhi	r3,32312
 40021dc:	18f90f04 	addi	r3,r3,-7108
 40021e0:	01220034 	movhi	r4,34816
 40021e4:	211d6704 	addi	r4,r4,30108
 40021e8:	015f8e34 	movhi	r5,32312
 40021ec:	29790f04 	addi	r5,r5,-7108
 40021f0:	200d883a 	mov	r6,r4
 40021f4:	280f883a 	mov	r7,r5
 40021f8:	1009883a 	mov	r4,r2
 40021fc:	180b883a 	mov	r5,r3
 4002200:	400444c0 	call	400444c <__muldf3>
 4002204:	1009883a 	mov	r4,r2
 4002208:	180b883a 	mov	r5,r3
 400220c:	2005883a 	mov	r2,r4
 4002210:	2807883a 	mov	r3,r5
 4002214:	00030a06 	br	4002e40 <expm1+0xdd0>
	    }
	    if(xsb!=0) { /* x < -56*ln2, return -1.0 with inexact */
 4002218:	e0bfd917 	ldw	r2,-156(fp)
 400221c:	10002326 	beq	r2,zero,40022ac <expm1+0x23c>
		if(x+tiny<0.0)		/* raise inexact */
 4002220:	00b0be74 	movhi	r2,49913
 4002224:	10bcd644 	addi	r2,r2,-3239
 4002228:	00c06974 	movhi	r3,421
 400222c:	18db87c4 	addi	r3,r3,28191
 4002230:	e1bffc17 	ldw	r6,-16(fp)
 4002234:	e1fffd17 	ldw	r7,-12(fp)
 4002238:	1009883a 	mov	r4,r2
 400223c:	180b883a 	mov	r5,r3
 4002240:	40030600 	call	4003060 <__adddf3>
 4002244:	1009883a 	mov	r4,r2
 4002248:	180b883a 	mov	r5,r3
 400224c:	2005883a 	mov	r2,r4
 4002250:	2807883a 	mov	r3,r5
 4002254:	000d883a 	mov	r6,zero
 4002258:	000f883a 	mov	r7,zero
 400225c:	1009883a 	mov	r4,r2
 4002260:	180b883a 	mov	r5,r3
 4002264:	40043580 	call	4004358 <__ledf2>
 4002268:	1000100e 	bge	r2,zero,40022ac <expm1+0x23c>
		return tiny-one;	/* return -1 */
 400226c:	00b0be74 	movhi	r2,49913
 4002270:	10bcd644 	addi	r2,r2,-3239
 4002274:	00c06974 	movhi	r3,421
 4002278:	18db87c4 	addi	r3,r3,28191
 400227c:	0009883a 	mov	r4,zero
 4002280:	014ffc34 	movhi	r5,16368
 4002284:	200d883a 	mov	r6,r4
 4002288:	280f883a 	mov	r7,r5
 400228c:	1009883a 	mov	r4,r2
 4002290:	180b883a 	mov	r5,r3
 4002294:	4004b640 	call	4004b64 <__subdf3>
 4002298:	1009883a 	mov	r4,r2
 400229c:	180b883a 	mov	r5,r3
 40022a0:	2005883a 	mov	r2,r4
 40022a4:	2807883a 	mov	r3,r5
 40022a8:	0002e506 	br	4002e40 <expm1+0xdd0>
	    }
	}

    /* argument reduction */
	if(hx > 0x3fd62e42) {		/* if  |x| > 0.5 ln2 */ 
 40022ac:	e0ffd817 	ldw	r3,-160(fp)
 40022b0:	008ff5b4 	movhi	r2,16342
 40022b4:	108b9084 	addi	r2,r2,11842
 40022b8:	10c0962e 	bgeu	r2,r3,4002514 <expm1+0x4a4>
	    if(hx < 0x3FF0A2B2) {	/* and |x| < 1.5 ln2 */
 40022bc:	e0ffd817 	ldw	r3,-160(fp)
 40022c0:	008ffc74 	movhi	r2,16369
 40022c4:	10a8ac44 	addi	r2,r2,-23887
 40022c8:	10c02d36 	bltu	r2,r3,4002380 <expm1+0x310>
		if(xsb==0)
 40022cc:	e0bfd917 	ldw	r2,-156(fp)
 40022d0:	1000151e 	bne	r2,zero,4002328 <expm1+0x2b8>
		    {hi = x - ln2_hi; lo =  ln2_lo;  k =  1;}
 40022d4:	00bfb834 	movhi	r2,65248
 40022d8:	00cff9b4 	movhi	r3,16358
 40022dc:	18cb9084 	addi	r3,r3,11842
 40022e0:	100d883a 	mov	r6,r2
 40022e4:	180f883a 	mov	r7,r3
 40022e8:	e13ffc17 	ldw	r4,-16(fp)
 40022ec:	e17ffd17 	ldw	r5,-12(fp)
 40022f0:	4004b640 	call	4004b64 <__subdf3>
 40022f4:	1009883a 	mov	r4,r2
 40022f8:	180b883a 	mov	r5,r3
 40022fc:	e13fd115 	stw	r4,-188(fp)
 4002300:	e17fd215 	stw	r5,-184(fp)
 4002304:	008d5e74 	movhi	r2,13689
 4002308:	108f1d84 	addi	r2,r2,15478
 400230c:	e0bfd315 	stw	r2,-180(fp)
 4002310:	008f7ab4 	movhi	r2,15850
 4002314:	108e7bc4 	addi	r2,r2,14831
 4002318:	e0bfd415 	stw	r2,-176(fp)
 400231c:	00800044 	movi	r2,1
 4002320:	e0bfd715 	stw	r2,-164(fp)
 4002324:	00005f06 	br	40024a4 <expm1+0x434>
		else
		    {hi = x + ln2_hi; lo = -ln2_lo;  k = -1;}
 4002328:	00bfb834 	movhi	r2,65248
 400232c:	00cff9b4 	movhi	r3,16358
 4002330:	18cb9084 	addi	r3,r3,11842
 4002334:	100d883a 	mov	r6,r2
 4002338:	180f883a 	mov	r7,r3
 400233c:	e13ffc17 	ldw	r4,-16(fp)
 4002340:	e17ffd17 	ldw	r5,-12(fp)
 4002344:	40030600 	call	4003060 <__adddf3>
 4002348:	1009883a 	mov	r4,r2
 400234c:	180b883a 	mov	r5,r3
 4002350:	e13fd115 	stw	r4,-188(fp)
 4002354:	e17fd215 	stw	r5,-184(fp)
 4002358:	008d5e74 	movhi	r2,13689
 400235c:	108f1d84 	addi	r2,r2,15478
 4002360:	00cf7ab4 	movhi	r3,15850
 4002364:	18ce7bc4 	addi	r3,r3,14831
 4002368:	e0bfd315 	stw	r2,-180(fp)
 400236c:	18a0003c 	xorhi	r2,r3,32768
 4002370:	e0bfd415 	stw	r2,-176(fp)
 4002374:	00bfffc4 	movi	r2,-1
 4002378:	e0bfd715 	stw	r2,-164(fp)
 400237c:	00004906 	br	40024a4 <expm1+0x434>
	    } else {
		k  = invln2*x+((xsb==0)?0.5:-0.5);
 4002380:	00994b34 	movhi	r2,25900
 4002384:	10a0bf84 	addi	r2,r2,-32002
 4002388:	00cffdf4 	movhi	r3,16375
 400238c:	18c551c4 	addi	r3,r3,5447
 4002390:	e1bffc17 	ldw	r6,-16(fp)
 4002394:	e1fffd17 	ldw	r7,-12(fp)
 4002398:	1009883a 	mov	r4,r2
 400239c:	180b883a 	mov	r5,r3
 40023a0:	400444c0 	call	400444c <__muldf3>
 40023a4:	1009883a 	mov	r4,r2
 40023a8:	180b883a 	mov	r5,r3
 40023ac:	2011883a 	mov	r8,r4
 40023b0:	2813883a 	mov	r9,r5
 40023b4:	e0bfd917 	ldw	r2,-156(fp)
 40023b8:	1000031e 	bne	r2,zero,40023c8 <expm1+0x358>
 40023bc:	0005883a 	mov	r2,zero
 40023c0:	00cff834 	movhi	r3,16352
 40023c4:	00000206 	br	40023d0 <expm1+0x360>
 40023c8:	0005883a 	mov	r2,zero
 40023cc:	00eff834 	movhi	r3,49120
 40023d0:	100d883a 	mov	r6,r2
 40023d4:	180f883a 	mov	r7,r3
 40023d8:	4009883a 	mov	r4,r8
 40023dc:	480b883a 	mov	r5,r9
 40023e0:	40030600 	call	4003060 <__adddf3>
 40023e4:	1009883a 	mov	r4,r2
 40023e8:	180b883a 	mov	r5,r3
 40023ec:	2005883a 	mov	r2,r4
 40023f0:	2807883a 	mov	r3,r5
 40023f4:	1009883a 	mov	r4,r2
 40023f8:	180b883a 	mov	r5,r3
 40023fc:	40054600 	call	4005460 <__fixdfsi>
 4002400:	e0bfd715 	stw	r2,-164(fp)
		t  = k;
 4002404:	e13fd717 	ldw	r4,-164(fp)
 4002408:	40054e00 	call	40054e0 <__floatsidf>
 400240c:	1009883a 	mov	r4,r2
 4002410:	180b883a 	mov	r5,r3
 4002414:	e13fdb15 	stw	r4,-148(fp)
 4002418:	e17fdc15 	stw	r5,-144(fp)
		hi = x - t*ln2_hi;	/* t*ln2_hi is exact here */
 400241c:	00bfb834 	movhi	r2,65248
 4002420:	00cff9b4 	movhi	r3,16358
 4002424:	18cb9084 	addi	r3,r3,11842
 4002428:	e1bfdb17 	ldw	r6,-148(fp)
 400242c:	e1ffdc17 	ldw	r7,-144(fp)
 4002430:	1009883a 	mov	r4,r2
 4002434:	180b883a 	mov	r5,r3
 4002438:	400444c0 	call	400444c <__muldf3>
 400243c:	1009883a 	mov	r4,r2
 4002440:	180b883a 	mov	r5,r3
 4002444:	2005883a 	mov	r2,r4
 4002448:	2807883a 	mov	r3,r5
 400244c:	100d883a 	mov	r6,r2
 4002450:	180f883a 	mov	r7,r3
 4002454:	e13ffc17 	ldw	r4,-16(fp)
 4002458:	e17ffd17 	ldw	r5,-12(fp)
 400245c:	4004b640 	call	4004b64 <__subdf3>
 4002460:	1009883a 	mov	r4,r2
 4002464:	180b883a 	mov	r5,r3
 4002468:	e13fd115 	stw	r4,-188(fp)
 400246c:	e17fd215 	stw	r5,-184(fp)
		lo = t*ln2_lo;
 4002470:	008d5e74 	movhi	r2,13689
 4002474:	108f1d84 	addi	r2,r2,15478
 4002478:	00cf7ab4 	movhi	r3,15850
 400247c:	18ce7bc4 	addi	r3,r3,14831
 4002480:	100d883a 	mov	r6,r2
 4002484:	180f883a 	mov	r7,r3
 4002488:	e13fdb17 	ldw	r4,-148(fp)
 400248c:	e17fdc17 	ldw	r5,-144(fp)
 4002490:	400444c0 	call	400444c <__muldf3>
 4002494:	1009883a 	mov	r4,r2
 4002498:	180b883a 	mov	r5,r3
 400249c:	e13fd315 	stw	r4,-180(fp)
 40024a0:	e17fd415 	stw	r5,-176(fp)
	    }
	    x  = hi - lo;
 40024a4:	e1bfd317 	ldw	r6,-180(fp)
 40024a8:	e1ffd417 	ldw	r7,-176(fp)
 40024ac:	e13fd117 	ldw	r4,-188(fp)
 40024b0:	e17fd217 	ldw	r5,-184(fp)
 40024b4:	4004b640 	call	4004b64 <__subdf3>
 40024b8:	1009883a 	mov	r4,r2
 40024bc:	180b883a 	mov	r5,r3
 40024c0:	e13ffc15 	stw	r4,-16(fp)
 40024c4:	e17ffd15 	stw	r5,-12(fp)
	    c  = (hi-x)-lo;
 40024c8:	e1bffc17 	ldw	r6,-16(fp)
 40024cc:	e1fffd17 	ldw	r7,-12(fp)
 40024d0:	e13fd117 	ldw	r4,-188(fp)
 40024d4:	e17fd217 	ldw	r5,-184(fp)
 40024d8:	4004b640 	call	4004b64 <__subdf3>
 40024dc:	1009883a 	mov	r4,r2
 40024e0:	180b883a 	mov	r5,r3
 40024e4:	2005883a 	mov	r2,r4
 40024e8:	2807883a 	mov	r3,r5
 40024ec:	e1bfd317 	ldw	r6,-180(fp)
 40024f0:	e1ffd417 	ldw	r7,-176(fp)
 40024f4:	1009883a 	mov	r4,r2
 40024f8:	180b883a 	mov	r5,r3
 40024fc:	4004b640 	call	4004b64 <__subdf3>
 4002500:	1009883a 	mov	r4,r2
 4002504:	180b883a 	mov	r5,r3
 4002508:	e13fd515 	stw	r4,-172(fp)
 400250c:	e17fd615 	stw	r5,-168(fp)
 4002510:	00003106 	br	40025d8 <expm1+0x568>
	} 
	else if(hx < 0x3c900000) {  	/* when |x|<2**-54, return x */
 4002514:	e0ffd817 	ldw	r3,-160(fp)
 4002518:	008f2434 	movhi	r2,15504
 400251c:	18802d2e 	bgeu	r3,r2,40025d4 <expm1+0x564>
	    t = huge+x;	/* return x with inexact flags when x!=0 */
 4002520:	00a20034 	movhi	r2,34816
 4002524:	109d6704 	addi	r2,r2,30108
 4002528:	00df8e34 	movhi	r3,32312
 400252c:	18f90f04 	addi	r3,r3,-7108
 4002530:	e1bffc17 	ldw	r6,-16(fp)
 4002534:	e1fffd17 	ldw	r7,-12(fp)
 4002538:	1009883a 	mov	r4,r2
 400253c:	180b883a 	mov	r5,r3
 4002540:	40030600 	call	4003060 <__adddf3>
 4002544:	1009883a 	mov	r4,r2
 4002548:	180b883a 	mov	r5,r3
 400254c:	e13fdb15 	stw	r4,-148(fp)
 4002550:	e17fdc15 	stw	r5,-144(fp)
	    return x - (t-(huge+x));	
 4002554:	00a20034 	movhi	r2,34816
 4002558:	109d6704 	addi	r2,r2,30108
 400255c:	00df8e34 	movhi	r3,32312
 4002560:	18f90f04 	addi	r3,r3,-7108
 4002564:	e1bffc17 	ldw	r6,-16(fp)
 4002568:	e1fffd17 	ldw	r7,-12(fp)
 400256c:	1009883a 	mov	r4,r2
 4002570:	180b883a 	mov	r5,r3
 4002574:	40030600 	call	4003060 <__adddf3>
 4002578:	1009883a 	mov	r4,r2
 400257c:	180b883a 	mov	r5,r3
 4002580:	2005883a 	mov	r2,r4
 4002584:	2807883a 	mov	r3,r5
 4002588:	100d883a 	mov	r6,r2
 400258c:	180f883a 	mov	r7,r3
 4002590:	e13fdb17 	ldw	r4,-148(fp)
 4002594:	e17fdc17 	ldw	r5,-144(fp)
 4002598:	4004b640 	call	4004b64 <__subdf3>
 400259c:	1009883a 	mov	r4,r2
 40025a0:	180b883a 	mov	r5,r3
 40025a4:	2005883a 	mov	r2,r4
 40025a8:	2807883a 	mov	r3,r5
 40025ac:	100d883a 	mov	r6,r2
 40025b0:	180f883a 	mov	r7,r3
 40025b4:	e13ffc17 	ldw	r4,-16(fp)
 40025b8:	e17ffd17 	ldw	r5,-12(fp)
 40025bc:	4004b640 	call	4004b64 <__subdf3>
 40025c0:	1009883a 	mov	r4,r2
 40025c4:	180b883a 	mov	r5,r3
 40025c8:	2005883a 	mov	r2,r4
 40025cc:	2807883a 	mov	r3,r5
 40025d0:	00021b06 	br	4002e40 <expm1+0xdd0>
	}
	else k = 0;
 40025d4:	e03fd715 	stw	zero,-164(fp)

    /* x is now in primary range */
	hfx = 0.5*x;
 40025d8:	000d883a 	mov	r6,zero
 40025dc:	01cff834 	movhi	r7,16352
 40025e0:	e13ffc17 	ldw	r4,-16(fp)
 40025e4:	e17ffd17 	ldw	r5,-12(fp)
 40025e8:	400444c0 	call	400444c <__muldf3>
 40025ec:	1009883a 	mov	r4,r2
 40025f0:	180b883a 	mov	r5,r3
 40025f4:	e13fdd15 	stw	r4,-140(fp)
 40025f8:	e17fde15 	stw	r5,-136(fp)
	hxs = x*hfx;
 40025fc:	e1bfdd17 	ldw	r6,-140(fp)
 4002600:	e1ffde17 	ldw	r7,-136(fp)
 4002604:	e13ffc17 	ldw	r4,-16(fp)
 4002608:	e17ffd17 	ldw	r5,-12(fp)
 400260c:	400444c0 	call	400444c <__muldf3>
 4002610:	1009883a 	mov	r4,r2
 4002614:	180b883a 	mov	r5,r3
 4002618:	e13fdf15 	stw	r4,-132(fp)
 400261c:	e17fe015 	stw	r5,-128(fp)
	r1 = one+hxs*(Q1+hxs*(Q2+hxs*(Q3+hxs*(Q4+hxs*Q5))));
 4002620:	009b82b4 	movhi	r2,28170
 4002624:	10b0cb44 	addi	r2,r2,-15571
 4002628:	00efa2f4 	movhi	r3,48779
 400262c:	18ff6dc4 	addi	r3,r3,-585
 4002630:	e1bfdf17 	ldw	r6,-132(fp)
 4002634:	e1ffe017 	ldw	r7,-128(fp)
 4002638:	1009883a 	mov	r4,r2
 400263c:	180b883a 	mov	r5,r3
 4002640:	400444c0 	call	400444c <__muldf3>
 4002644:	1009883a 	mov	r4,r2
 4002648:	180b883a 	mov	r5,r3
 400264c:	2011883a 	mov	r8,r4
 4002650:	2813883a 	mov	r9,r5
 4002654:	00a1b9b4 	movhi	r2,34534
 4002658:	10948e44 	addi	r2,r2,21049
 400265c:	00cfb474 	movhi	r3,16081
 4002660:	18f3f284 	addi	r3,r3,-12342
 4002664:	100d883a 	mov	r6,r2
 4002668:	180f883a 	mov	r7,r3
 400266c:	4009883a 	mov	r4,r8
 4002670:	480b883a 	mov	r5,r9
 4002674:	40030600 	call	4003060 <__adddf3>
 4002678:	1009883a 	mov	r4,r2
 400267c:	180b883a 	mov	r5,r3
 4002680:	2005883a 	mov	r2,r4
 4002684:	2807883a 	mov	r3,r5
 4002688:	e1bfdf17 	ldw	r6,-132(fp)
 400268c:	e1ffe017 	ldw	r7,-128(fp)
 4002690:	1009883a 	mov	r4,r2
 4002694:	180b883a 	mov	r5,r3
 4002698:	400444c0 	call	400444c <__muldf3>
 400269c:	1009883a 	mov	r4,r2
 40026a0:	180b883a 	mov	r5,r3
 40026a4:	2011883a 	mov	r8,r4
 40026a8:	2813883a 	mov	r9,r5
 40026ac:	00a7aaf4 	movhi	r2,40619
 40026b0:	10b6edc4 	addi	r2,r2,-9289
 40026b4:	00efc574 	movhi	r3,48917
 40026b8:	18f38644 	addi	r3,r3,-12775
 40026bc:	100d883a 	mov	r6,r2
 40026c0:	180f883a 	mov	r7,r3
 40026c4:	4009883a 	mov	r4,r8
 40026c8:	480b883a 	mov	r5,r9
 40026cc:	40030600 	call	4003060 <__adddf3>
 40026d0:	1009883a 	mov	r4,r2
 40026d4:	180b883a 	mov	r5,r3
 40026d8:	2005883a 	mov	r2,r4
 40026dc:	2807883a 	mov	r3,r5
 40026e0:	e1bfdf17 	ldw	r6,-132(fp)
 40026e4:	e1ffe017 	ldw	r7,-128(fp)
 40026e8:	1009883a 	mov	r4,r2
 40026ec:	180b883a 	mov	r5,r3
 40026f0:	400444c0 	call	400444c <__muldf3>
 40026f4:	1009883a 	mov	r4,r2
 40026f8:	180b883a 	mov	r5,r3
 40026fc:	2011883a 	mov	r8,r4
 4002700:	2813883a 	mov	r9,r5
 4002704:	00867fb4 	movhi	r2,6654
 4002708:	10956144 	addi	r2,r2,21893
 400270c:	00cfd6b4 	movhi	r3,16218
 4002710:	18c06804 	addi	r3,r3,416
 4002714:	100d883a 	mov	r6,r2
 4002718:	180f883a 	mov	r7,r3
 400271c:	4009883a 	mov	r4,r8
 4002720:	480b883a 	mov	r5,r9
 4002724:	40030600 	call	4003060 <__adddf3>
 4002728:	1009883a 	mov	r4,r2
 400272c:	180b883a 	mov	r5,r3
 4002730:	2005883a 	mov	r2,r4
 4002734:	2807883a 	mov	r3,r5
 4002738:	e1bfdf17 	ldw	r6,-132(fp)
 400273c:	e1ffe017 	ldw	r7,-128(fp)
 4002740:	1009883a 	mov	r4,r2
 4002744:	180b883a 	mov	r5,r3
 4002748:	400444c0 	call	400444c <__muldf3>
 400274c:	1009883a 	mov	r4,r2
 4002750:	180b883a 	mov	r5,r3
 4002754:	2011883a 	mov	r8,r4
 4002758:	2813883a 	mov	r9,r5
 400275c:	00844474 	movhi	r2,4369
 4002760:	10843d04 	addi	r2,r2,4340
 4002764:	00efe874 	movhi	r3,49057
 4002768:	18c44444 	addi	r3,r3,4369
 400276c:	100d883a 	mov	r6,r2
 4002770:	180f883a 	mov	r7,r3
 4002774:	4009883a 	mov	r4,r8
 4002778:	480b883a 	mov	r5,r9
 400277c:	40030600 	call	4003060 <__adddf3>
 4002780:	1009883a 	mov	r4,r2
 4002784:	180b883a 	mov	r5,r3
 4002788:	2005883a 	mov	r2,r4
 400278c:	2807883a 	mov	r3,r5
 4002790:	e1bfdf17 	ldw	r6,-132(fp)
 4002794:	e1ffe017 	ldw	r7,-128(fp)
 4002798:	1009883a 	mov	r4,r2
 400279c:	180b883a 	mov	r5,r3
 40027a0:	400444c0 	call	400444c <__muldf3>
 40027a4:	1009883a 	mov	r4,r2
 40027a8:	180b883a 	mov	r5,r3
 40027ac:	2011883a 	mov	r8,r4
 40027b0:	2813883a 	mov	r9,r5
 40027b4:	0005883a 	mov	r2,zero
 40027b8:	00cffc34 	movhi	r3,16368
 40027bc:	100d883a 	mov	r6,r2
 40027c0:	180f883a 	mov	r7,r3
 40027c4:	4009883a 	mov	r4,r8
 40027c8:	480b883a 	mov	r5,r9
 40027cc:	40030600 	call	4003060 <__adddf3>
 40027d0:	1009883a 	mov	r4,r2
 40027d4:	180b883a 	mov	r5,r3
 40027d8:	e13fe115 	stw	r4,-124(fp)
 40027dc:	e17fe215 	stw	r5,-120(fp)
	t  = 3.0-r1*hfx;
 40027e0:	e1bfdd17 	ldw	r6,-140(fp)
 40027e4:	e1ffde17 	ldw	r7,-136(fp)
 40027e8:	e13fe117 	ldw	r4,-124(fp)
 40027ec:	e17fe217 	ldw	r5,-120(fp)
 40027f0:	400444c0 	call	400444c <__muldf3>
 40027f4:	1009883a 	mov	r4,r2
 40027f8:	180b883a 	mov	r5,r3
 40027fc:	2005883a 	mov	r2,r4
 4002800:	2807883a 	mov	r3,r5
 4002804:	100d883a 	mov	r6,r2
 4002808:	180f883a 	mov	r7,r3
 400280c:	0009883a 	mov	r4,zero
 4002810:	01500234 	movhi	r5,16392
 4002814:	4004b640 	call	4004b64 <__subdf3>
 4002818:	1009883a 	mov	r4,r2
 400281c:	180b883a 	mov	r5,r3
 4002820:	e13fdb15 	stw	r4,-148(fp)
 4002824:	e17fdc15 	stw	r5,-144(fp)
	e  = hxs*((r1-t)/(6.0 - x*t));
 4002828:	e1bfdb17 	ldw	r6,-148(fp)
 400282c:	e1ffdc17 	ldw	r7,-144(fp)
 4002830:	e13fe117 	ldw	r4,-124(fp)
 4002834:	e17fe217 	ldw	r5,-120(fp)
 4002838:	4004b640 	call	4004b64 <__subdf3>
 400283c:	1009883a 	mov	r4,r2
 4002840:	180b883a 	mov	r5,r3
 4002844:	2021883a 	mov	r16,r4
 4002848:	2823883a 	mov	r17,r5
 400284c:	e1bfdb17 	ldw	r6,-148(fp)
 4002850:	e1ffdc17 	ldw	r7,-144(fp)
 4002854:	e13ffc17 	ldw	r4,-16(fp)
 4002858:	e17ffd17 	ldw	r5,-12(fp)
 400285c:	400444c0 	call	400444c <__muldf3>
 4002860:	1009883a 	mov	r4,r2
 4002864:	180b883a 	mov	r5,r3
 4002868:	2005883a 	mov	r2,r4
 400286c:	2807883a 	mov	r3,r5
 4002870:	100d883a 	mov	r6,r2
 4002874:	180f883a 	mov	r7,r3
 4002878:	0009883a 	mov	r4,zero
 400287c:	01500634 	movhi	r5,16408
 4002880:	4004b640 	call	4004b64 <__subdf3>
 4002884:	1009883a 	mov	r4,r2
 4002888:	180b883a 	mov	r5,r3
 400288c:	2005883a 	mov	r2,r4
 4002890:	2807883a 	mov	r3,r5
 4002894:	100d883a 	mov	r6,r2
 4002898:	180f883a 	mov	r7,r3
 400289c:	8009883a 	mov	r4,r16
 40028a0:	880b883a 	mov	r5,r17
 40028a4:	400390c0 	call	400390c <__divdf3>
 40028a8:	1009883a 	mov	r4,r2
 40028ac:	180b883a 	mov	r5,r3
 40028b0:	2005883a 	mov	r2,r4
 40028b4:	2807883a 	mov	r3,r5
 40028b8:	e1bfdf17 	ldw	r6,-132(fp)
 40028bc:	e1ffe017 	ldw	r7,-128(fp)
 40028c0:	1009883a 	mov	r4,r2
 40028c4:	180b883a 	mov	r5,r3
 40028c8:	400444c0 	call	400444c <__muldf3>
 40028cc:	1009883a 	mov	r4,r2
 40028d0:	180b883a 	mov	r5,r3
 40028d4:	e13fe315 	stw	r4,-116(fp)
 40028d8:	e17fe415 	stw	r5,-112(fp)
	if(k==0) return x - (x*e-hxs);		/* c is 0 */
 40028dc:	e0bfd717 	ldw	r2,-164(fp)
 40028e0:	10001c1e 	bne	r2,zero,4002954 <expm1+0x8e4>
 40028e4:	e1bfe317 	ldw	r6,-116(fp)
 40028e8:	e1ffe417 	ldw	r7,-112(fp)
 40028ec:	e13ffc17 	ldw	r4,-16(fp)
 40028f0:	e17ffd17 	ldw	r5,-12(fp)
 40028f4:	400444c0 	call	400444c <__muldf3>
 40028f8:	1009883a 	mov	r4,r2
 40028fc:	180b883a 	mov	r5,r3
 4002900:	2005883a 	mov	r2,r4
 4002904:	2807883a 	mov	r3,r5
 4002908:	e1bfdf17 	ldw	r6,-132(fp)
 400290c:	e1ffe017 	ldw	r7,-128(fp)
 4002910:	1009883a 	mov	r4,r2
 4002914:	180b883a 	mov	r5,r3
 4002918:	4004b640 	call	4004b64 <__subdf3>
 400291c:	1009883a 	mov	r4,r2
 4002920:	180b883a 	mov	r5,r3
 4002924:	2005883a 	mov	r2,r4
 4002928:	2807883a 	mov	r3,r5
 400292c:	100d883a 	mov	r6,r2
 4002930:	180f883a 	mov	r7,r3
 4002934:	e13ffc17 	ldw	r4,-16(fp)
 4002938:	e17ffd17 	ldw	r5,-12(fp)
 400293c:	4004b640 	call	4004b64 <__subdf3>
 4002940:	1009883a 	mov	r4,r2
 4002944:	180b883a 	mov	r5,r3
 4002948:	2005883a 	mov	r2,r4
 400294c:	2807883a 	mov	r3,r5
 4002950:	00013b06 	br	4002e40 <expm1+0xdd0>
	else {
	    e  = (x*(e-c)-c);
 4002954:	e1bfd517 	ldw	r6,-172(fp)
 4002958:	e1ffd617 	ldw	r7,-168(fp)
 400295c:	e13fe317 	ldw	r4,-116(fp)
 4002960:	e17fe417 	ldw	r5,-112(fp)
 4002964:	4004b640 	call	4004b64 <__subdf3>
 4002968:	1009883a 	mov	r4,r2
 400296c:	180b883a 	mov	r5,r3
 4002970:	2005883a 	mov	r2,r4
 4002974:	2807883a 	mov	r3,r5
 4002978:	e1bffc17 	ldw	r6,-16(fp)
 400297c:	e1fffd17 	ldw	r7,-12(fp)
 4002980:	1009883a 	mov	r4,r2
 4002984:	180b883a 	mov	r5,r3
 4002988:	400444c0 	call	400444c <__muldf3>
 400298c:	1009883a 	mov	r4,r2
 4002990:	180b883a 	mov	r5,r3
 4002994:	2005883a 	mov	r2,r4
 4002998:	2807883a 	mov	r3,r5
 400299c:	e1bfd517 	ldw	r6,-172(fp)
 40029a0:	e1ffd617 	ldw	r7,-168(fp)
 40029a4:	1009883a 	mov	r4,r2
 40029a8:	180b883a 	mov	r5,r3
 40029ac:	4004b640 	call	4004b64 <__subdf3>
 40029b0:	1009883a 	mov	r4,r2
 40029b4:	180b883a 	mov	r5,r3
 40029b8:	e13fe315 	stw	r4,-116(fp)
 40029bc:	e17fe415 	stw	r5,-112(fp)
	    e -= hxs;
 40029c0:	e1bfdf17 	ldw	r6,-132(fp)
 40029c4:	e1ffe017 	ldw	r7,-128(fp)
 40029c8:	e13fe317 	ldw	r4,-116(fp)
 40029cc:	e17fe417 	ldw	r5,-112(fp)
 40029d0:	4004b640 	call	4004b64 <__subdf3>
 40029d4:	1009883a 	mov	r4,r2
 40029d8:	180b883a 	mov	r5,r3
 40029dc:	e13fe315 	stw	r4,-116(fp)
 40029e0:	e17fe415 	stw	r5,-112(fp)
	    if(k== -1) return 0.5*(x-e)-0.5;
 40029e4:	e0bfd717 	ldw	r2,-164(fp)
 40029e8:	10bfffd8 	cmpnei	r2,r2,-1
 40029ec:	10001c1e 	bne	r2,zero,4002a60 <expm1+0x9f0>
 40029f0:	e1bfe317 	ldw	r6,-116(fp)
 40029f4:	e1ffe417 	ldw	r7,-112(fp)
 40029f8:	e13ffc17 	ldw	r4,-16(fp)
 40029fc:	e17ffd17 	ldw	r5,-12(fp)
 4002a00:	4004b640 	call	4004b64 <__subdf3>
 4002a04:	1009883a 	mov	r4,r2
 4002a08:	180b883a 	mov	r5,r3
 4002a0c:	2005883a 	mov	r2,r4
 4002a10:	2807883a 	mov	r3,r5
 4002a14:	000d883a 	mov	r6,zero
 4002a18:	01cff834 	movhi	r7,16352
 4002a1c:	1009883a 	mov	r4,r2
 4002a20:	180b883a 	mov	r5,r3
 4002a24:	400444c0 	call	400444c <__muldf3>
 4002a28:	1009883a 	mov	r4,r2
 4002a2c:	180b883a 	mov	r5,r3
 4002a30:	2005883a 	mov	r2,r4
 4002a34:	2807883a 	mov	r3,r5
 4002a38:	000d883a 	mov	r6,zero
 4002a3c:	01cff834 	movhi	r7,16352
 4002a40:	1009883a 	mov	r4,r2
 4002a44:	180b883a 	mov	r5,r3
 4002a48:	4004b640 	call	4004b64 <__subdf3>
 4002a4c:	1009883a 	mov	r4,r2
 4002a50:	180b883a 	mov	r5,r3
 4002a54:	2005883a 	mov	r2,r4
 4002a58:	2807883a 	mov	r3,r5
 4002a5c:	0000f806 	br	4002e40 <expm1+0xdd0>
          if(k==1) {
 4002a60:	e0bfd717 	ldw	r2,-164(fp)
 4002a64:	10800058 	cmpnei	r2,r2,1
 4002a68:	1000401e 	bne	r2,zero,4002b6c <expm1+0xafc>
	       	if(x < -0.25) return -2.0*(e-(x+0.5));
 4002a6c:	000d883a 	mov	r6,zero
 4002a70:	01eff434 	movhi	r7,49104
 4002a74:	e13ffc17 	ldw	r4,-16(fp)
 4002a78:	e17ffd17 	ldw	r5,-12(fp)
 4002a7c:	40043580 	call	4004358 <__ledf2>
 4002a80:	10001c0e 	bge	r2,zero,4002af4 <expm1+0xa84>
 4002a84:	000d883a 	mov	r6,zero
 4002a88:	01cff834 	movhi	r7,16352
 4002a8c:	e13ffc17 	ldw	r4,-16(fp)
 4002a90:	e17ffd17 	ldw	r5,-12(fp)
 4002a94:	40030600 	call	4003060 <__adddf3>
 4002a98:	1009883a 	mov	r4,r2
 4002a9c:	180b883a 	mov	r5,r3
 4002aa0:	2005883a 	mov	r2,r4
 4002aa4:	2807883a 	mov	r3,r5
 4002aa8:	100d883a 	mov	r6,r2
 4002aac:	180f883a 	mov	r7,r3
 4002ab0:	e13fe317 	ldw	r4,-116(fp)
 4002ab4:	e17fe417 	ldw	r5,-112(fp)
 4002ab8:	4004b640 	call	4004b64 <__subdf3>
 4002abc:	1009883a 	mov	r4,r2
 4002ac0:	180b883a 	mov	r5,r3
 4002ac4:	2005883a 	mov	r2,r4
 4002ac8:	2807883a 	mov	r3,r5
 4002acc:	000d883a 	mov	r6,zero
 4002ad0:	01f00034 	movhi	r7,49152
 4002ad4:	1009883a 	mov	r4,r2
 4002ad8:	180b883a 	mov	r5,r3
 4002adc:	400444c0 	call	400444c <__muldf3>
 4002ae0:	1009883a 	mov	r4,r2
 4002ae4:	180b883a 	mov	r5,r3
 4002ae8:	2005883a 	mov	r2,r4
 4002aec:	2807883a 	mov	r3,r5
 4002af0:	0000d306 	br	4002e40 <expm1+0xdd0>
	       	else 	      return  one+2.0*(x-e);
 4002af4:	e1bfe317 	ldw	r6,-116(fp)
 4002af8:	e1ffe417 	ldw	r7,-112(fp)
 4002afc:	e13ffc17 	ldw	r4,-16(fp)
 4002b00:	e17ffd17 	ldw	r5,-12(fp)
 4002b04:	4004b640 	call	4004b64 <__subdf3>
 4002b08:	1009883a 	mov	r4,r2
 4002b0c:	180b883a 	mov	r5,r3
 4002b10:	2005883a 	mov	r2,r4
 4002b14:	2807883a 	mov	r3,r5
 4002b18:	100d883a 	mov	r6,r2
 4002b1c:	180f883a 	mov	r7,r3
 4002b20:	1009883a 	mov	r4,r2
 4002b24:	180b883a 	mov	r5,r3
 4002b28:	40030600 	call	4003060 <__adddf3>
 4002b2c:	1009883a 	mov	r4,r2
 4002b30:	180b883a 	mov	r5,r3
 4002b34:	2011883a 	mov	r8,r4
 4002b38:	2813883a 	mov	r9,r5
 4002b3c:	0005883a 	mov	r2,zero
 4002b40:	00cffc34 	movhi	r3,16368
 4002b44:	100d883a 	mov	r6,r2
 4002b48:	180f883a 	mov	r7,r3
 4002b4c:	4009883a 	mov	r4,r8
 4002b50:	480b883a 	mov	r5,r9
 4002b54:	40030600 	call	4003060 <__adddf3>
 4002b58:	1009883a 	mov	r4,r2
 4002b5c:	180b883a 	mov	r5,r3
 4002b60:	2005883a 	mov	r2,r4
 4002b64:	2807883a 	mov	r3,r5
 4002b68:	0000b506 	br	4002e40 <expm1+0xdd0>
          }
	    if (k <= -2 || k>56) {   /* suffice to return exp(x)-1 */
 4002b6c:	e0bfd717 	ldw	r2,-164(fp)
 4002b70:	10bfffd0 	cmplti	r2,r2,-1
 4002b74:	1000031e 	bne	r2,zero,4002b84 <expm1+0xb14>
 4002b78:	e0bfd717 	ldw	r2,-164(fp)
 4002b7c:	10800e50 	cmplti	r2,r2,57
 4002b80:	1000341e 	bne	r2,zero,4002c54 <expm1+0xbe4>
	        __uint32_t high;
	        y = one-(e-x);
 4002b84:	0021883a 	mov	r16,zero
 4002b88:	044ffc34 	movhi	r17,16368
 4002b8c:	e1bffc17 	ldw	r6,-16(fp)
 4002b90:	e1fffd17 	ldw	r7,-12(fp)
 4002b94:	e13fe317 	ldw	r4,-116(fp)
 4002b98:	e17fe417 	ldw	r5,-112(fp)
 4002b9c:	4004b640 	call	4004b64 <__subdf3>
 4002ba0:	1009883a 	mov	r4,r2
 4002ba4:	180b883a 	mov	r5,r3
 4002ba8:	2005883a 	mov	r2,r4
 4002bac:	2807883a 	mov	r3,r5
 4002bb0:	100d883a 	mov	r6,r2
 4002bb4:	180f883a 	mov	r7,r3
 4002bb8:	8009883a 	mov	r4,r16
 4002bbc:	880b883a 	mov	r5,r17
 4002bc0:	4004b640 	call	4004b64 <__subdf3>
 4002bc4:	1009883a 	mov	r4,r2
 4002bc8:	180b883a 	mov	r5,r3
 4002bcc:	e13fcf15 	stw	r4,-196(fp)
 4002bd0:	e17fd015 	stw	r5,-192(fp)
		GET_HIGH_WORD(high,y);
 4002bd4:	e0bfcf17 	ldw	r2,-196(fp)
 4002bd8:	e0bfec15 	stw	r2,-80(fp)
 4002bdc:	e0bfd017 	ldw	r2,-192(fp)
 4002be0:	e0bfed15 	stw	r2,-76(fp)
 4002be4:	e0bfed17 	ldw	r2,-76(fp)
 4002be8:	e0bfe715 	stw	r2,-100(fp)
		SET_HIGH_WORD(y,high+(k<<20));	/* add k to y's exponent */
 4002bec:	e0bfcf17 	ldw	r2,-196(fp)
 4002bf0:	e0bfee15 	stw	r2,-72(fp)
 4002bf4:	e0bfd017 	ldw	r2,-192(fp)
 4002bf8:	e0bfef15 	stw	r2,-68(fp)
 4002bfc:	e0bfd717 	ldw	r2,-164(fp)
 4002c00:	1004953a 	slli	r2,r2,20
 4002c04:	1007883a 	mov	r3,r2
 4002c08:	e0bfe717 	ldw	r2,-100(fp)
 4002c0c:	1885883a 	add	r2,r3,r2
 4002c10:	e0bfef15 	stw	r2,-68(fp)
 4002c14:	e0bfee17 	ldw	r2,-72(fp)
 4002c18:	e0bfcf15 	stw	r2,-196(fp)
 4002c1c:	e0bfef17 	ldw	r2,-68(fp)
 4002c20:	e0bfd015 	stw	r2,-192(fp)
	        return y-one;
 4002c24:	0005883a 	mov	r2,zero
 4002c28:	00cffc34 	movhi	r3,16368
 4002c2c:	100d883a 	mov	r6,r2
 4002c30:	180f883a 	mov	r7,r3
 4002c34:	e13fcf17 	ldw	r4,-196(fp)
 4002c38:	e17fd017 	ldw	r5,-192(fp)
 4002c3c:	4004b640 	call	4004b64 <__subdf3>
 4002c40:	1009883a 	mov	r4,r2
 4002c44:	180b883a 	mov	r5,r3
 4002c48:	2005883a 	mov	r2,r4
 4002c4c:	2807883a 	mov	r3,r5
 4002c50:	00007b06 	br	4002e40 <expm1+0xdd0>
	    }
	    t = one;
 4002c54:	e03fdb15 	stw	zero,-148(fp)
 4002c58:	008ffc34 	movhi	r2,16368
 4002c5c:	e0bfdc15 	stw	r2,-144(fp)
	    if(k<20) {
 4002c60:	e0bfd717 	ldw	r2,-164(fp)
 4002c64:	10800508 	cmpgei	r2,r2,20
 4002c68:	1000351e 	bne	r2,zero,4002d40 <expm1+0xcd0>
	        __uint32_t high;
	        SET_HIGH_WORD(t,0x3ff00000 - (0x200000>>k));  /* t=1-2^-k */
 4002c6c:	e0bfdb17 	ldw	r2,-148(fp)
 4002c70:	e0bff015 	stw	r2,-64(fp)
 4002c74:	e0bfdc17 	ldw	r2,-144(fp)
 4002c78:	e0bff115 	stw	r2,-60(fp)
 4002c7c:	00c00834 	movhi	r3,32
 4002c80:	e0bfd717 	ldw	r2,-164(fp)
 4002c84:	1885d83a 	sra	r2,r3,r2
 4002c88:	00cffc34 	movhi	r3,16368
 4002c8c:	1885c83a 	sub	r2,r3,r2
 4002c90:	e0bff115 	stw	r2,-60(fp)
 4002c94:	e0bff017 	ldw	r2,-64(fp)
 4002c98:	e0bfdb15 	stw	r2,-148(fp)
 4002c9c:	e0bff117 	ldw	r2,-60(fp)
 4002ca0:	e0bfdc15 	stw	r2,-144(fp)
	       	y = t-(e-x);
 4002ca4:	e1bffc17 	ldw	r6,-16(fp)
 4002ca8:	e1fffd17 	ldw	r7,-12(fp)
 4002cac:	e13fe317 	ldw	r4,-116(fp)
 4002cb0:	e17fe417 	ldw	r5,-112(fp)
 4002cb4:	4004b640 	call	4004b64 <__subdf3>
 4002cb8:	1009883a 	mov	r4,r2
 4002cbc:	180b883a 	mov	r5,r3
 4002cc0:	2005883a 	mov	r2,r4
 4002cc4:	2807883a 	mov	r3,r5
 4002cc8:	100d883a 	mov	r6,r2
 4002ccc:	180f883a 	mov	r7,r3
 4002cd0:	e13fdb17 	ldw	r4,-148(fp)
 4002cd4:	e17fdc17 	ldw	r5,-144(fp)
 4002cd8:	4004b640 	call	4004b64 <__subdf3>
 4002cdc:	1009883a 	mov	r4,r2
 4002ce0:	180b883a 	mov	r5,r3
 4002ce4:	e13fcf15 	stw	r4,-196(fp)
 4002ce8:	e17fd015 	stw	r5,-192(fp)
		GET_HIGH_WORD(high,y);
 4002cec:	e0bfcf17 	ldw	r2,-196(fp)
 4002cf0:	e0bff215 	stw	r2,-56(fp)
 4002cf4:	e0bfd017 	ldw	r2,-192(fp)
 4002cf8:	e0bff315 	stw	r2,-52(fp)
 4002cfc:	e0bff317 	ldw	r2,-52(fp)
 4002d00:	e0bfe515 	stw	r2,-108(fp)
		SET_HIGH_WORD(y,high+(k<<20));	/* add k to y's exponent */
 4002d04:	e0bfcf17 	ldw	r2,-196(fp)
 4002d08:	e0bff415 	stw	r2,-48(fp)
 4002d0c:	e0bfd017 	ldw	r2,-192(fp)
 4002d10:	e0bff515 	stw	r2,-44(fp)
 4002d14:	e0bfd717 	ldw	r2,-164(fp)
 4002d18:	1004953a 	slli	r2,r2,20
 4002d1c:	1007883a 	mov	r3,r2
 4002d20:	e0bfe517 	ldw	r2,-108(fp)
 4002d24:	1885883a 	add	r2,r3,r2
 4002d28:	e0bff515 	stw	r2,-44(fp)
 4002d2c:	e0bff417 	ldw	r2,-48(fp)
 4002d30:	e0bfcf15 	stw	r2,-196(fp)
 4002d34:	e0bff517 	ldw	r2,-44(fp)
 4002d38:	e0bfd015 	stw	r2,-192(fp)
 4002d3c:	00003e06 	br	4002e38 <expm1+0xdc8>
	   } else {
	        __uint32_t high;
		SET_HIGH_WORD(t,((0x3ff-k)<<20));	/* 2^-k */
 4002d40:	e0bfdb17 	ldw	r2,-148(fp)
 4002d44:	e0bff615 	stw	r2,-40(fp)
 4002d48:	e0bfdc17 	ldw	r2,-144(fp)
 4002d4c:	e0bff715 	stw	r2,-36(fp)
 4002d50:	00c0ffc4 	movi	r3,1023
 4002d54:	e0bfd717 	ldw	r2,-164(fp)
 4002d58:	1885c83a 	sub	r2,r3,r2
 4002d5c:	1004953a 	slli	r2,r2,20
 4002d60:	e0bff715 	stw	r2,-36(fp)
 4002d64:	e0bff617 	ldw	r2,-40(fp)
 4002d68:	e0bfdb15 	stw	r2,-148(fp)
 4002d6c:	e0bff717 	ldw	r2,-36(fp)
 4002d70:	e0bfdc15 	stw	r2,-144(fp)
	       	y = x-(e+t);
 4002d74:	e1bfdb17 	ldw	r6,-148(fp)
 4002d78:	e1ffdc17 	ldw	r7,-144(fp)
 4002d7c:	e13fe317 	ldw	r4,-116(fp)
 4002d80:	e17fe417 	ldw	r5,-112(fp)
 4002d84:	40030600 	call	4003060 <__adddf3>
 4002d88:	1009883a 	mov	r4,r2
 4002d8c:	180b883a 	mov	r5,r3
 4002d90:	2005883a 	mov	r2,r4
 4002d94:	2807883a 	mov	r3,r5
 4002d98:	100d883a 	mov	r6,r2
 4002d9c:	180f883a 	mov	r7,r3
 4002da0:	e13ffc17 	ldw	r4,-16(fp)
 4002da4:	e17ffd17 	ldw	r5,-12(fp)
 4002da8:	4004b640 	call	4004b64 <__subdf3>
 4002dac:	1009883a 	mov	r4,r2
 4002db0:	180b883a 	mov	r5,r3
 4002db4:	e13fcf15 	stw	r4,-196(fp)
 4002db8:	e17fd015 	stw	r5,-192(fp)
	       	y += one;
 4002dbc:	0005883a 	mov	r2,zero
 4002dc0:	00cffc34 	movhi	r3,16368
 4002dc4:	100d883a 	mov	r6,r2
 4002dc8:	180f883a 	mov	r7,r3
 4002dcc:	e13fcf17 	ldw	r4,-196(fp)
 4002dd0:	e17fd017 	ldw	r5,-192(fp)
 4002dd4:	40030600 	call	4003060 <__adddf3>
 4002dd8:	1009883a 	mov	r4,r2
 4002ddc:	180b883a 	mov	r5,r3
 4002de0:	e13fcf15 	stw	r4,-196(fp)
 4002de4:	e17fd015 	stw	r5,-192(fp)
		GET_HIGH_WORD(high,y);
 4002de8:	e0bfcf17 	ldw	r2,-196(fp)
 4002dec:	e0bff815 	stw	r2,-32(fp)
 4002df0:	e0bfd017 	ldw	r2,-192(fp)
 4002df4:	e0bff915 	stw	r2,-28(fp)
 4002df8:	e0bff917 	ldw	r2,-28(fp)
 4002dfc:	e0bfe615 	stw	r2,-104(fp)
		SET_HIGH_WORD(y,high+(k<<20));	/* add k to y's exponent */
 4002e00:	e0bfcf17 	ldw	r2,-196(fp)
 4002e04:	e0bffa15 	stw	r2,-24(fp)
 4002e08:	e0bfd017 	ldw	r2,-192(fp)
 4002e0c:	e0bffb15 	stw	r2,-20(fp)
 4002e10:	e0bfd717 	ldw	r2,-164(fp)
 4002e14:	1004953a 	slli	r2,r2,20
 4002e18:	1007883a 	mov	r3,r2
 4002e1c:	e0bfe617 	ldw	r2,-104(fp)
 4002e20:	1885883a 	add	r2,r3,r2
 4002e24:	e0bffb15 	stw	r2,-20(fp)
 4002e28:	e0bffa17 	ldw	r2,-24(fp)
 4002e2c:	e0bfcf15 	stw	r2,-196(fp)
 4002e30:	e0bffb17 	ldw	r2,-20(fp)
 4002e34:	e0bfd015 	stw	r2,-192(fp)
	    }
	}
	return y;
 4002e38:	e0bfcf17 	ldw	r2,-196(fp)
 4002e3c:	e0ffd017 	ldw	r3,-192(fp)
 4002e40:	1009883a 	mov	r4,r2
 4002e44:	180b883a 	mov	r5,r3
}
 4002e48:	2005883a 	mov	r2,r4
 4002e4c:	2807883a 	mov	r3,r5
 4002e50:	e6fffe04 	addi	sp,fp,-8
 4002e54:	dfc00317 	ldw	ra,12(sp)
 4002e58:	df000217 	ldw	fp,8(sp)
 4002e5c:	dc400117 	ldw	r17,4(sp)
 4002e60:	dc000017 	ldw	r16,0(sp)
 4002e64:	dec00404 	addi	sp,sp,16
 4002e68:	f800283a 	ret

04002e6c <fabs>:
	double fabs(double x)
#else
	double fabs(x)
	double x;
#endif
{
 4002e6c:	defff804 	addi	sp,sp,-32
 4002e70:	df000715 	stw	fp,28(sp)
 4002e74:	df000704 	addi	fp,sp,28
 4002e78:	e13ffe15 	stw	r4,-8(fp)
 4002e7c:	e17fff15 	stw	r5,-4(fp)
	__uint32_t high;
	GET_HIGH_WORD(high,x);
 4002e80:	e0bffe17 	ldw	r2,-8(fp)
 4002e84:	e0bffa15 	stw	r2,-24(fp)
 4002e88:	e0bfff17 	ldw	r2,-4(fp)
 4002e8c:	e0bffb15 	stw	r2,-20(fp)
 4002e90:	e0bffb17 	ldw	r2,-20(fp)
 4002e94:	e0bff915 	stw	r2,-28(fp)
	SET_HIGH_WORD(x,high&0x7fffffff);
 4002e98:	e0bffe17 	ldw	r2,-8(fp)
 4002e9c:	e0bffc15 	stw	r2,-16(fp)
 4002ea0:	e0bfff17 	ldw	r2,-4(fp)
 4002ea4:	e0bffd15 	stw	r2,-12(fp)
 4002ea8:	e0fff917 	ldw	r3,-28(fp)
 4002eac:	00a00034 	movhi	r2,32768
 4002eb0:	10bfffc4 	addi	r2,r2,-1
 4002eb4:	1884703a 	and	r2,r3,r2
 4002eb8:	e0bffd15 	stw	r2,-12(fp)
 4002ebc:	e0bffc17 	ldw	r2,-16(fp)
 4002ec0:	e0bffe15 	stw	r2,-8(fp)
 4002ec4:	e0bffd17 	ldw	r2,-12(fp)
 4002ec8:	e0bfff15 	stw	r2,-4(fp)
        return x;
 4002ecc:	e0bffe17 	ldw	r2,-8(fp)
 4002ed0:	e0ffff17 	ldw	r3,-4(fp)
 4002ed4:	1009883a 	mov	r4,r2
 4002ed8:	180b883a 	mov	r5,r3
}
 4002edc:	2005883a 	mov	r2,r4
 4002ee0:	2807883a 	mov	r3,r5
 4002ee4:	e037883a 	mov	sp,fp
 4002ee8:	df000017 	ldw	fp,0(sp)
 4002eec:	dec00104 	addi	sp,sp,4
 4002ef0:	f800283a 	ret

04002ef4 <__fpclassifyd>:

#include "fdlibm.h"

int
__fpclassifyd (double x)
{
 4002ef4:	defff904 	addi	sp,sp,-28
 4002ef8:	df000615 	stw	fp,24(sp)
 4002efc:	df000604 	addi	fp,sp,24
 4002f00:	e13ffe15 	stw	r4,-8(fp)
 4002f04:	e17fff15 	stw	r5,-4(fp)
  __uint32_t msw, lsw;

  EXTRACT_WORDS(msw,lsw,x);
 4002f08:	e0bffe17 	ldw	r2,-8(fp)
 4002f0c:	e0bffc15 	stw	r2,-16(fp)
 4002f10:	e0bfff17 	ldw	r2,-4(fp)
 4002f14:	e0bffd15 	stw	r2,-12(fp)
 4002f18:	e0bffd17 	ldw	r2,-12(fp)
 4002f1c:	e0bffa15 	stw	r2,-24(fp)
 4002f20:	e0bffc17 	ldw	r2,-16(fp)
 4002f24:	e0bffb15 	stw	r2,-20(fp)

  if ((msw == 0x00000000 && lsw == 0x00000000) ||
 4002f28:	e0bffa17 	ldw	r2,-24(fp)
 4002f2c:	1000021e 	bne	r2,zero,4002f38 <__fpclassifyd+0x44>
 4002f30:	e0bffb17 	ldw	r2,-20(fp)
 4002f34:	10000526 	beq	r2,zero,4002f4c <__fpclassifyd+0x58>
 4002f38:	e0fffa17 	ldw	r3,-24(fp)
 4002f3c:	00a00034 	movhi	r2,32768
 4002f40:	1880041e 	bne	r3,r2,4002f54 <__fpclassifyd+0x60>
      (msw == 0x80000000 && lsw == 0x00000000))
 4002f44:	e0bffb17 	ldw	r2,-20(fp)
 4002f48:	1000021e 	bne	r2,zero,4002f54 <__fpclassifyd+0x60>
    return FP_ZERO;
 4002f4c:	00800084 	movi	r2,2
 4002f50:	00002506 	br	4002fe8 <__fpclassifyd+0xf4>
  else if ((msw >= 0x00100000 && msw <= 0x7fefffff) ||
 4002f54:	e0fffa17 	ldw	r3,-24(fp)
 4002f58:	00800434 	movhi	r2,16
 4002f5c:	18800336 	bltu	r3,r2,4002f6c <__fpclassifyd+0x78>
 4002f60:	e0fffa17 	ldw	r3,-24(fp)
 4002f64:	009ffc34 	movhi	r2,32752
 4002f68:	18800636 	bltu	r3,r2,4002f84 <__fpclassifyd+0x90>
 4002f6c:	e0fffa17 	ldw	r3,-24(fp)
 4002f70:	00a00434 	movhi	r2,32784
 4002f74:	18800536 	bltu	r3,r2,4002f8c <__fpclassifyd+0x98>
           (msw >= 0x80100000 && msw <= 0xffefffff))
 4002f78:	e0fffa17 	ldw	r3,-24(fp)
 4002f7c:	00bffc34 	movhi	r2,65520
 4002f80:	1880022e 	bgeu	r3,r2,4002f8c <__fpclassifyd+0x98>
    return FP_NORMAL;
 4002f84:	00800104 	movi	r2,4
 4002f88:	00001706 	br	4002fe8 <__fpclassifyd+0xf4>
  else if ((msw >= 0x00000000 && msw <= 0x000fffff) ||
 4002f8c:	e0fffa17 	ldw	r3,-24(fp)
 4002f90:	00800434 	movhi	r2,16
 4002f94:	18800536 	bltu	r3,r2,4002fac <__fpclassifyd+0xb8>
           (msw >= 0x80000000 && msw <= 0x800fffff))
 4002f98:	e0bffa17 	ldw	r2,-24(fp)
      (msw == 0x80000000 && lsw == 0x00000000))
    return FP_ZERO;
  else if ((msw >= 0x00100000 && msw <= 0x7fefffff) ||
           (msw >= 0x80100000 && msw <= 0xffefffff))
    return FP_NORMAL;
  else if ((msw >= 0x00000000 && msw <= 0x000fffff) ||
 4002f9c:	1000050e 	bge	r2,zero,4002fb4 <__fpclassifyd+0xc0>
           (msw >= 0x80000000 && msw <= 0x800fffff))
 4002fa0:	e0fffa17 	ldw	r3,-24(fp)
 4002fa4:	00a00434 	movhi	r2,32784
 4002fa8:	1880022e 	bgeu	r3,r2,4002fb4 <__fpclassifyd+0xc0>
    /* zero is already handled above */
    return FP_SUBNORMAL;
 4002fac:	008000c4 	movi	r2,3
 4002fb0:	00000d06 	br	4002fe8 <__fpclassifyd+0xf4>
  else if ((msw == 0x7ff00000 && lsw == 0x00000000) ||
 4002fb4:	e0fffa17 	ldw	r3,-24(fp)
 4002fb8:	009ffc34 	movhi	r2,32752
 4002fbc:	1880021e 	bne	r3,r2,4002fc8 <__fpclassifyd+0xd4>
 4002fc0:	e0bffb17 	ldw	r2,-20(fp)
 4002fc4:	10000526 	beq	r2,zero,4002fdc <__fpclassifyd+0xe8>
 4002fc8:	e0fffa17 	ldw	r3,-24(fp)
 4002fcc:	00bffc34 	movhi	r2,65520
 4002fd0:	1880041e 	bne	r3,r2,4002fe4 <__fpclassifyd+0xf0>
           (msw == 0xfff00000 && lsw == 0x00000000))
 4002fd4:	e0bffb17 	ldw	r2,-20(fp)
 4002fd8:	1000021e 	bne	r2,zero,4002fe4 <__fpclassifyd+0xf0>
    return FP_INFINITE;
 4002fdc:	00800044 	movi	r2,1
 4002fe0:	00000106 	br	4002fe8 <__fpclassifyd+0xf4>
  else
    return FP_NAN;
 4002fe4:	0005883a 	mov	r2,zero
}
 4002fe8:	e037883a 	mov	sp,fp
 4002fec:	df000017 	ldw	fp,0(sp)
 4002ff0:	dec00104 	addi	sp,sp,4
 4002ff4:	f800283a 	ret

04002ff8 <matherr>:
	int matherr(struct exception *x)
#else
	int matherr(x)
	struct exception *x;
#endif
{
 4002ff8:	defffc04 	addi	sp,sp,-16
 4002ffc:	dfc00315 	stw	ra,12(sp)
 4003000:	df000215 	stw	fp,8(sp)
 4003004:	df000204 	addi	fp,sp,8
 4003008:	e13fff15 	stw	r4,-4(fp)
	int n=0;
 400300c:	e03ffe15 	stw	zero,-8(fp)
	if(x->arg1!=x->arg1) return 0;
 4003010:	e13fff17 	ldw	r4,-4(fp)
 4003014:	20800217 	ldw	r2,8(r4)
 4003018:	20c00317 	ldw	r3,12(r4)
 400301c:	e1bfff17 	ldw	r6,-4(fp)
 4003020:	31000217 	ldw	r4,8(r6)
 4003024:	31400317 	ldw	r5,12(r6)
 4003028:	200d883a 	mov	r6,r4
 400302c:	280f883a 	mov	r7,r5
 4003030:	1009883a 	mov	r4,r2
 4003034:	180b883a 	mov	r5,r3
 4003038:	40041f40 	call	40041f4 <__eqdf2>
 400303c:	10000226 	beq	r2,zero,4003048 <matherr+0x50>
 4003040:	0005883a 	mov	r2,zero
 4003044:	00000106 	br	400304c <matherr+0x54>
	return n;
 4003048:	e0bffe17 	ldw	r2,-8(fp)
}
 400304c:	e037883a 	mov	sp,fp
 4003050:	dfc00117 	ldw	ra,4(sp)
 4003054:	df000017 	ldw	fp,0(sp)
 4003058:	dec00204 	addi	sp,sp,8
 400305c:	f800283a 	ret

04003060 <__adddf3>:
 4003060:	02c00434 	movhi	r11,16
 4003064:	5affffc4 	addi	r11,r11,-1
 4003068:	2806d7fa 	srli	r3,r5,31
 400306c:	2ad4703a 	and	r10,r5,r11
 4003070:	3ad2703a 	and	r9,r7,r11
 4003074:	3804d53a 	srli	r2,r7,20
 4003078:	3018d77a 	srli	r12,r6,29
 400307c:	280ad53a 	srli	r5,r5,20
 4003080:	501490fa 	slli	r10,r10,3
 4003084:	2010d77a 	srli	r8,r4,29
 4003088:	481290fa 	slli	r9,r9,3
 400308c:	380ed7fa 	srli	r7,r7,31
 4003090:	defffb04 	addi	sp,sp,-20
 4003094:	dc800215 	stw	r18,8(sp)
 4003098:	dc400115 	stw	r17,4(sp)
 400309c:	dc000015 	stw	r16,0(sp)
 40030a0:	dfc00415 	stw	ra,16(sp)
 40030a4:	dcc00315 	stw	r19,12(sp)
 40030a8:	1c803fcc 	andi	r18,r3,255
 40030ac:	2c01ffcc 	andi	r16,r5,2047
 40030b0:	5210b03a 	or	r8,r10,r8
 40030b4:	202290fa 	slli	r17,r4,3
 40030b8:	1081ffcc 	andi	r2,r2,2047
 40030bc:	4b12b03a 	or	r9,r9,r12
 40030c0:	300c90fa 	slli	r6,r6,3
 40030c4:	91c07526 	beq	r18,r7,400329c <__adddf3+0x23c>
 40030c8:	8087c83a 	sub	r3,r16,r2
 40030cc:	00c0ab0e 	bge	zero,r3,400337c <__adddf3+0x31c>
 40030d0:	10002a1e 	bne	r2,zero,400317c <__adddf3+0x11c>
 40030d4:	4984b03a 	or	r2,r9,r6
 40030d8:	1000961e 	bne	r2,zero,4003334 <__adddf3+0x2d4>
 40030dc:	888001cc 	andi	r2,r17,7
 40030e0:	10000726 	beq	r2,zero,4003100 <__adddf3+0xa0>
 40030e4:	888003cc 	andi	r2,r17,15
 40030e8:	00c00104 	movi	r3,4
 40030ec:	10c00426 	beq	r2,r3,4003100 <__adddf3+0xa0>
 40030f0:	88c7883a 	add	r3,r17,r3
 40030f4:	1c63803a 	cmpltu	r17,r3,r17
 40030f8:	4451883a 	add	r8,r8,r17
 40030fc:	1823883a 	mov	r17,r3
 4003100:	4080202c 	andhi	r2,r8,128
 4003104:	10005926 	beq	r2,zero,400326c <__adddf3+0x20c>
 4003108:	84000044 	addi	r16,r16,1
 400310c:	0081ffc4 	movi	r2,2047
 4003110:	8080ba26 	beq	r16,r2,40033fc <__adddf3+0x39c>
 4003114:	00bfe034 	movhi	r2,65408
 4003118:	10bfffc4 	addi	r2,r2,-1
 400311c:	4090703a 	and	r8,r8,r2
 4003120:	4004977a 	slli	r2,r8,29
 4003124:	4010927a 	slli	r8,r8,9
 4003128:	8822d0fa 	srli	r17,r17,3
 400312c:	8401ffcc 	andi	r16,r16,2047
 4003130:	4010d33a 	srli	r8,r8,12
 4003134:	9007883a 	mov	r3,r18
 4003138:	1444b03a 	or	r2,r2,r17
 400313c:	8401ffcc 	andi	r16,r16,2047
 4003140:	8020953a 	slli	r16,r16,20
 4003144:	18c03fcc 	andi	r3,r3,255
 4003148:	01000434 	movhi	r4,16
 400314c:	213fffc4 	addi	r4,r4,-1
 4003150:	180697fa 	slli	r3,r3,31
 4003154:	4110703a 	and	r8,r8,r4
 4003158:	4410b03a 	or	r8,r8,r16
 400315c:	40c6b03a 	or	r3,r8,r3
 4003160:	dfc00417 	ldw	ra,16(sp)
 4003164:	dcc00317 	ldw	r19,12(sp)
 4003168:	dc800217 	ldw	r18,8(sp)
 400316c:	dc400117 	ldw	r17,4(sp)
 4003170:	dc000017 	ldw	r16,0(sp)
 4003174:	dec00504 	addi	sp,sp,20
 4003178:	f800283a 	ret
 400317c:	0081ffc4 	movi	r2,2047
 4003180:	80bfd626 	beq	r16,r2,40030dc <__alt_data_end+0xfc0030dc>
 4003184:	4a402034 	orhi	r9,r9,128
 4003188:	00800e04 	movi	r2,56
 400318c:	10c09f16 	blt	r2,r3,400340c <__adddf3+0x3ac>
 4003190:	008007c4 	movi	r2,31
 4003194:	10c0c216 	blt	r2,r3,40034a0 <__adddf3+0x440>
 4003198:	00800804 	movi	r2,32
 400319c:	10c5c83a 	sub	r2,r2,r3
 40031a0:	488a983a 	sll	r5,r9,r2
 40031a4:	30c8d83a 	srl	r4,r6,r3
 40031a8:	3084983a 	sll	r2,r6,r2
 40031ac:	48c6d83a 	srl	r3,r9,r3
 40031b0:	290cb03a 	or	r6,r5,r4
 40031b4:	1004c03a 	cmpne	r2,r2,zero
 40031b8:	308cb03a 	or	r6,r6,r2
 40031bc:	898dc83a 	sub	r6,r17,r6
 40031c0:	89a3803a 	cmpltu	r17,r17,r6
 40031c4:	40d1c83a 	sub	r8,r8,r3
 40031c8:	4451c83a 	sub	r8,r8,r17
 40031cc:	3023883a 	mov	r17,r6
 40031d0:	4080202c 	andhi	r2,r8,128
 40031d4:	10002326 	beq	r2,zero,4003264 <__adddf3+0x204>
 40031d8:	04c02034 	movhi	r19,128
 40031dc:	9cffffc4 	addi	r19,r19,-1
 40031e0:	44e6703a 	and	r19,r8,r19
 40031e4:	98007626 	beq	r19,zero,40033c0 <__adddf3+0x360>
 40031e8:	9809883a 	mov	r4,r19
 40031ec:	40058740 	call	4005874 <__clzsi2>
 40031f0:	10fffe04 	addi	r3,r2,-8
 40031f4:	010007c4 	movi	r4,31
 40031f8:	20c07716 	blt	r4,r3,40033d8 <__adddf3+0x378>
 40031fc:	00800804 	movi	r2,32
 4003200:	10c5c83a 	sub	r2,r2,r3
 4003204:	8884d83a 	srl	r2,r17,r2
 4003208:	98d0983a 	sll	r8,r19,r3
 400320c:	88e2983a 	sll	r17,r17,r3
 4003210:	1204b03a 	or	r2,r2,r8
 4003214:	1c007416 	blt	r3,r16,40033e8 <__adddf3+0x388>
 4003218:	1c21c83a 	sub	r16,r3,r16
 400321c:	82000044 	addi	r8,r16,1
 4003220:	00c007c4 	movi	r3,31
 4003224:	1a009116 	blt	r3,r8,400346c <__adddf3+0x40c>
 4003228:	00c00804 	movi	r3,32
 400322c:	1a07c83a 	sub	r3,r3,r8
 4003230:	8a08d83a 	srl	r4,r17,r8
 4003234:	88e2983a 	sll	r17,r17,r3
 4003238:	10c6983a 	sll	r3,r2,r3
 400323c:	1210d83a 	srl	r8,r2,r8
 4003240:	8804c03a 	cmpne	r2,r17,zero
 4003244:	1906b03a 	or	r3,r3,r4
 4003248:	18a2b03a 	or	r17,r3,r2
 400324c:	0021883a 	mov	r16,zero
 4003250:	003fa206 	br	40030dc <__alt_data_end+0xfc0030dc>
 4003254:	1890b03a 	or	r8,r3,r2
 4003258:	40017d26 	beq	r8,zero,4003850 <__adddf3+0x7f0>
 400325c:	1011883a 	mov	r8,r2
 4003260:	1823883a 	mov	r17,r3
 4003264:	888001cc 	andi	r2,r17,7
 4003268:	103f9e1e 	bne	r2,zero,40030e4 <__alt_data_end+0xfc0030e4>
 400326c:	4004977a 	slli	r2,r8,29
 4003270:	8822d0fa 	srli	r17,r17,3
 4003274:	4010d0fa 	srli	r8,r8,3
 4003278:	9007883a 	mov	r3,r18
 400327c:	1444b03a 	or	r2,r2,r17
 4003280:	0101ffc4 	movi	r4,2047
 4003284:	81002426 	beq	r16,r4,4003318 <__adddf3+0x2b8>
 4003288:	8120703a 	and	r16,r16,r4
 400328c:	01000434 	movhi	r4,16
 4003290:	213fffc4 	addi	r4,r4,-1
 4003294:	4110703a 	and	r8,r8,r4
 4003298:	003fa806 	br	400313c <__alt_data_end+0xfc00313c>
 400329c:	8089c83a 	sub	r4,r16,r2
 40032a0:	01005e0e 	bge	zero,r4,400341c <__adddf3+0x3bc>
 40032a4:	10002b26 	beq	r2,zero,4003354 <__adddf3+0x2f4>
 40032a8:	0081ffc4 	movi	r2,2047
 40032ac:	80bf8b26 	beq	r16,r2,40030dc <__alt_data_end+0xfc0030dc>
 40032b0:	4a402034 	orhi	r9,r9,128
 40032b4:	00800e04 	movi	r2,56
 40032b8:	1100a40e 	bge	r2,r4,400354c <__adddf3+0x4ec>
 40032bc:	498cb03a 	or	r6,r9,r6
 40032c0:	300ac03a 	cmpne	r5,r6,zero
 40032c4:	0013883a 	mov	r9,zero
 40032c8:	2c4b883a 	add	r5,r5,r17
 40032cc:	2c63803a 	cmpltu	r17,r5,r17
 40032d0:	4a11883a 	add	r8,r9,r8
 40032d4:	8a11883a 	add	r8,r17,r8
 40032d8:	2823883a 	mov	r17,r5
 40032dc:	4080202c 	andhi	r2,r8,128
 40032e0:	103fe026 	beq	r2,zero,4003264 <__alt_data_end+0xfc003264>
 40032e4:	84000044 	addi	r16,r16,1
 40032e8:	0081ffc4 	movi	r2,2047
 40032ec:	8080d226 	beq	r16,r2,4003638 <__adddf3+0x5d8>
 40032f0:	00bfe034 	movhi	r2,65408
 40032f4:	10bfffc4 	addi	r2,r2,-1
 40032f8:	4090703a 	and	r8,r8,r2
 40032fc:	880ad07a 	srli	r5,r17,1
 4003300:	400897fa 	slli	r4,r8,31
 4003304:	88c0004c 	andi	r3,r17,1
 4003308:	28e2b03a 	or	r17,r5,r3
 400330c:	4010d07a 	srli	r8,r8,1
 4003310:	2462b03a 	or	r17,r4,r17
 4003314:	003f7106 	br	40030dc <__alt_data_end+0xfc0030dc>
 4003318:	4088b03a 	or	r4,r8,r2
 400331c:	20014526 	beq	r4,zero,4003834 <__adddf3+0x7d4>
 4003320:	01000434 	movhi	r4,16
 4003324:	42000234 	orhi	r8,r8,8
 4003328:	213fffc4 	addi	r4,r4,-1
 400332c:	4110703a 	and	r8,r8,r4
 4003330:	003f8206 	br	400313c <__alt_data_end+0xfc00313c>
 4003334:	18ffffc4 	addi	r3,r3,-1
 4003338:	1800491e 	bne	r3,zero,4003460 <__adddf3+0x400>
 400333c:	898bc83a 	sub	r5,r17,r6
 4003340:	8963803a 	cmpltu	r17,r17,r5
 4003344:	4251c83a 	sub	r8,r8,r9
 4003348:	4451c83a 	sub	r8,r8,r17
 400334c:	2823883a 	mov	r17,r5
 4003350:	003f9f06 	br	40031d0 <__alt_data_end+0xfc0031d0>
 4003354:	4984b03a 	or	r2,r9,r6
 4003358:	103f6026 	beq	r2,zero,40030dc <__alt_data_end+0xfc0030dc>
 400335c:	213fffc4 	addi	r4,r4,-1
 4003360:	2000931e 	bne	r4,zero,40035b0 <__adddf3+0x550>
 4003364:	898d883a 	add	r6,r17,r6
 4003368:	3463803a 	cmpltu	r17,r6,r17
 400336c:	4251883a 	add	r8,r8,r9
 4003370:	8a11883a 	add	r8,r17,r8
 4003374:	3023883a 	mov	r17,r6
 4003378:	003fd806 	br	40032dc <__alt_data_end+0xfc0032dc>
 400337c:	1800541e 	bne	r3,zero,40034d0 <__adddf3+0x470>
 4003380:	80800044 	addi	r2,r16,1
 4003384:	1081ffcc 	andi	r2,r2,2047
 4003388:	00c00044 	movi	r3,1
 400338c:	1880a00e 	bge	r3,r2,4003610 <__adddf3+0x5b0>
 4003390:	8989c83a 	sub	r4,r17,r6
 4003394:	8905803a 	cmpltu	r2,r17,r4
 4003398:	4267c83a 	sub	r19,r8,r9
 400339c:	98a7c83a 	sub	r19,r19,r2
 40033a0:	9880202c 	andhi	r2,r19,128
 40033a4:	10006326 	beq	r2,zero,4003534 <__adddf3+0x4d4>
 40033a8:	3463c83a 	sub	r17,r6,r17
 40033ac:	4a07c83a 	sub	r3,r9,r8
 40033b0:	344d803a 	cmpltu	r6,r6,r17
 40033b4:	19a7c83a 	sub	r19,r3,r6
 40033b8:	3825883a 	mov	r18,r7
 40033bc:	983f8a1e 	bne	r19,zero,40031e8 <__alt_data_end+0xfc0031e8>
 40033c0:	8809883a 	mov	r4,r17
 40033c4:	40058740 	call	4005874 <__clzsi2>
 40033c8:	10800804 	addi	r2,r2,32
 40033cc:	10fffe04 	addi	r3,r2,-8
 40033d0:	010007c4 	movi	r4,31
 40033d4:	20ff890e 	bge	r4,r3,40031fc <__alt_data_end+0xfc0031fc>
 40033d8:	10bff604 	addi	r2,r2,-40
 40033dc:	8884983a 	sll	r2,r17,r2
 40033e0:	0023883a 	mov	r17,zero
 40033e4:	1c3f8c0e 	bge	r3,r16,4003218 <__alt_data_end+0xfc003218>
 40033e8:	023fe034 	movhi	r8,65408
 40033ec:	423fffc4 	addi	r8,r8,-1
 40033f0:	80e1c83a 	sub	r16,r16,r3
 40033f4:	1210703a 	and	r8,r2,r8
 40033f8:	003f3806 	br	40030dc <__alt_data_end+0xfc0030dc>
 40033fc:	9007883a 	mov	r3,r18
 4003400:	0011883a 	mov	r8,zero
 4003404:	0005883a 	mov	r2,zero
 4003408:	003f4c06 	br	400313c <__alt_data_end+0xfc00313c>
 400340c:	498cb03a 	or	r6,r9,r6
 4003410:	300cc03a 	cmpne	r6,r6,zero
 4003414:	0007883a 	mov	r3,zero
 4003418:	003f6806 	br	40031bc <__alt_data_end+0xfc0031bc>
 400341c:	20009c1e 	bne	r4,zero,4003690 <__adddf3+0x630>
 4003420:	80800044 	addi	r2,r16,1
 4003424:	1141ffcc 	andi	r5,r2,2047
 4003428:	01000044 	movi	r4,1
 400342c:	2140670e 	bge	r4,r5,40035cc <__adddf3+0x56c>
 4003430:	0101ffc4 	movi	r4,2047
 4003434:	11007f26 	beq	r2,r4,4003634 <__adddf3+0x5d4>
 4003438:	898d883a 	add	r6,r17,r6
 400343c:	4247883a 	add	r3,r8,r9
 4003440:	3451803a 	cmpltu	r8,r6,r17
 4003444:	40d1883a 	add	r8,r8,r3
 4003448:	402297fa 	slli	r17,r8,31
 400344c:	300cd07a 	srli	r6,r6,1
 4003450:	4010d07a 	srli	r8,r8,1
 4003454:	1021883a 	mov	r16,r2
 4003458:	89a2b03a 	or	r17,r17,r6
 400345c:	003f1f06 	br	40030dc <__alt_data_end+0xfc0030dc>
 4003460:	0081ffc4 	movi	r2,2047
 4003464:	80bf481e 	bne	r16,r2,4003188 <__alt_data_end+0xfc003188>
 4003468:	003f1c06 	br	40030dc <__alt_data_end+0xfc0030dc>
 400346c:	843ff844 	addi	r16,r16,-31
 4003470:	01000804 	movi	r4,32
 4003474:	1406d83a 	srl	r3,r2,r16
 4003478:	41005026 	beq	r8,r4,40035bc <__adddf3+0x55c>
 400347c:	01001004 	movi	r4,64
 4003480:	2211c83a 	sub	r8,r4,r8
 4003484:	1204983a 	sll	r2,r2,r8
 4003488:	88a2b03a 	or	r17,r17,r2
 400348c:	8822c03a 	cmpne	r17,r17,zero
 4003490:	1c62b03a 	or	r17,r3,r17
 4003494:	0011883a 	mov	r8,zero
 4003498:	0021883a 	mov	r16,zero
 400349c:	003f7106 	br	4003264 <__alt_data_end+0xfc003264>
 40034a0:	193ff804 	addi	r4,r3,-32
 40034a4:	00800804 	movi	r2,32
 40034a8:	4908d83a 	srl	r4,r9,r4
 40034ac:	18804526 	beq	r3,r2,40035c4 <__adddf3+0x564>
 40034b0:	00801004 	movi	r2,64
 40034b4:	10c5c83a 	sub	r2,r2,r3
 40034b8:	4886983a 	sll	r3,r9,r2
 40034bc:	198cb03a 	or	r6,r3,r6
 40034c0:	300cc03a 	cmpne	r6,r6,zero
 40034c4:	218cb03a 	or	r6,r4,r6
 40034c8:	0007883a 	mov	r3,zero
 40034cc:	003f3b06 	br	40031bc <__alt_data_end+0xfc0031bc>
 40034d0:	80002a26 	beq	r16,zero,400357c <__adddf3+0x51c>
 40034d4:	0101ffc4 	movi	r4,2047
 40034d8:	11006826 	beq	r2,r4,400367c <__adddf3+0x61c>
 40034dc:	00c7c83a 	sub	r3,zero,r3
 40034e0:	42002034 	orhi	r8,r8,128
 40034e4:	01000e04 	movi	r4,56
 40034e8:	20c07c16 	blt	r4,r3,40036dc <__adddf3+0x67c>
 40034ec:	010007c4 	movi	r4,31
 40034f0:	20c0da16 	blt	r4,r3,400385c <__adddf3+0x7fc>
 40034f4:	01000804 	movi	r4,32
 40034f8:	20c9c83a 	sub	r4,r4,r3
 40034fc:	4114983a 	sll	r10,r8,r4
 4003500:	88cad83a 	srl	r5,r17,r3
 4003504:	8908983a 	sll	r4,r17,r4
 4003508:	40c6d83a 	srl	r3,r8,r3
 400350c:	5162b03a 	or	r17,r10,r5
 4003510:	2008c03a 	cmpne	r4,r4,zero
 4003514:	8922b03a 	or	r17,r17,r4
 4003518:	3463c83a 	sub	r17,r6,r17
 400351c:	48c7c83a 	sub	r3,r9,r3
 4003520:	344d803a 	cmpltu	r6,r6,r17
 4003524:	1991c83a 	sub	r8,r3,r6
 4003528:	1021883a 	mov	r16,r2
 400352c:	3825883a 	mov	r18,r7
 4003530:	003f2706 	br	40031d0 <__alt_data_end+0xfc0031d0>
 4003534:	24d0b03a 	or	r8,r4,r19
 4003538:	40001b1e 	bne	r8,zero,40035a8 <__adddf3+0x548>
 400353c:	0005883a 	mov	r2,zero
 4003540:	0007883a 	mov	r3,zero
 4003544:	0021883a 	mov	r16,zero
 4003548:	003f4d06 	br	4003280 <__alt_data_end+0xfc003280>
 400354c:	008007c4 	movi	r2,31
 4003550:	11003c16 	blt	r2,r4,4003644 <__adddf3+0x5e4>
 4003554:	00800804 	movi	r2,32
 4003558:	1105c83a 	sub	r2,r2,r4
 400355c:	488e983a 	sll	r7,r9,r2
 4003560:	310ad83a 	srl	r5,r6,r4
 4003564:	3084983a 	sll	r2,r6,r2
 4003568:	4912d83a 	srl	r9,r9,r4
 400356c:	394ab03a 	or	r5,r7,r5
 4003570:	1004c03a 	cmpne	r2,r2,zero
 4003574:	288ab03a 	or	r5,r5,r2
 4003578:	003f5306 	br	40032c8 <__alt_data_end+0xfc0032c8>
 400357c:	4448b03a 	or	r4,r8,r17
 4003580:	20003e26 	beq	r4,zero,400367c <__adddf3+0x61c>
 4003584:	00c6303a 	nor	r3,zero,r3
 4003588:	18003a1e 	bne	r3,zero,4003674 <__adddf3+0x614>
 400358c:	3463c83a 	sub	r17,r6,r17
 4003590:	4a07c83a 	sub	r3,r9,r8
 4003594:	344d803a 	cmpltu	r6,r6,r17
 4003598:	1991c83a 	sub	r8,r3,r6
 400359c:	1021883a 	mov	r16,r2
 40035a0:	3825883a 	mov	r18,r7
 40035a4:	003f0a06 	br	40031d0 <__alt_data_end+0xfc0031d0>
 40035a8:	2023883a 	mov	r17,r4
 40035ac:	003f0d06 	br	40031e4 <__alt_data_end+0xfc0031e4>
 40035b0:	0081ffc4 	movi	r2,2047
 40035b4:	80bf3f1e 	bne	r16,r2,40032b4 <__alt_data_end+0xfc0032b4>
 40035b8:	003ec806 	br	40030dc <__alt_data_end+0xfc0030dc>
 40035bc:	0005883a 	mov	r2,zero
 40035c0:	003fb106 	br	4003488 <__alt_data_end+0xfc003488>
 40035c4:	0007883a 	mov	r3,zero
 40035c8:	003fbc06 	br	40034bc <__alt_data_end+0xfc0034bc>
 40035cc:	4444b03a 	or	r2,r8,r17
 40035d0:	8000871e 	bne	r16,zero,40037f0 <__adddf3+0x790>
 40035d4:	1000ba26 	beq	r2,zero,40038c0 <__adddf3+0x860>
 40035d8:	4984b03a 	or	r2,r9,r6
 40035dc:	103ebf26 	beq	r2,zero,40030dc <__alt_data_end+0xfc0030dc>
 40035e0:	8985883a 	add	r2,r17,r6
 40035e4:	4247883a 	add	r3,r8,r9
 40035e8:	1451803a 	cmpltu	r8,r2,r17
 40035ec:	40d1883a 	add	r8,r8,r3
 40035f0:	40c0202c 	andhi	r3,r8,128
 40035f4:	1023883a 	mov	r17,r2
 40035f8:	183f1a26 	beq	r3,zero,4003264 <__alt_data_end+0xfc003264>
 40035fc:	00bfe034 	movhi	r2,65408
 4003600:	10bfffc4 	addi	r2,r2,-1
 4003604:	2021883a 	mov	r16,r4
 4003608:	4090703a 	and	r8,r8,r2
 400360c:	003eb306 	br	40030dc <__alt_data_end+0xfc0030dc>
 4003610:	4444b03a 	or	r2,r8,r17
 4003614:	8000291e 	bne	r16,zero,40036bc <__adddf3+0x65c>
 4003618:	10004b1e 	bne	r2,zero,4003748 <__adddf3+0x6e8>
 400361c:	4990b03a 	or	r8,r9,r6
 4003620:	40008b26 	beq	r8,zero,4003850 <__adddf3+0x7f0>
 4003624:	4811883a 	mov	r8,r9
 4003628:	3023883a 	mov	r17,r6
 400362c:	3825883a 	mov	r18,r7
 4003630:	003eaa06 	br	40030dc <__alt_data_end+0xfc0030dc>
 4003634:	1021883a 	mov	r16,r2
 4003638:	0011883a 	mov	r8,zero
 400363c:	0005883a 	mov	r2,zero
 4003640:	003f0f06 	br	4003280 <__alt_data_end+0xfc003280>
 4003644:	217ff804 	addi	r5,r4,-32
 4003648:	00800804 	movi	r2,32
 400364c:	494ad83a 	srl	r5,r9,r5
 4003650:	20807d26 	beq	r4,r2,4003848 <__adddf3+0x7e8>
 4003654:	00801004 	movi	r2,64
 4003658:	1109c83a 	sub	r4,r2,r4
 400365c:	4912983a 	sll	r9,r9,r4
 4003660:	498cb03a 	or	r6,r9,r6
 4003664:	300cc03a 	cmpne	r6,r6,zero
 4003668:	298ab03a 	or	r5,r5,r6
 400366c:	0013883a 	mov	r9,zero
 4003670:	003f1506 	br	40032c8 <__alt_data_end+0xfc0032c8>
 4003674:	0101ffc4 	movi	r4,2047
 4003678:	113f9a1e 	bne	r2,r4,40034e4 <__alt_data_end+0xfc0034e4>
 400367c:	4811883a 	mov	r8,r9
 4003680:	3023883a 	mov	r17,r6
 4003684:	1021883a 	mov	r16,r2
 4003688:	3825883a 	mov	r18,r7
 400368c:	003e9306 	br	40030dc <__alt_data_end+0xfc0030dc>
 4003690:	8000161e 	bne	r16,zero,40036ec <__adddf3+0x68c>
 4003694:	444ab03a 	or	r5,r8,r17
 4003698:	28005126 	beq	r5,zero,40037e0 <__adddf3+0x780>
 400369c:	0108303a 	nor	r4,zero,r4
 40036a0:	20004d1e 	bne	r4,zero,40037d8 <__adddf3+0x778>
 40036a4:	89a3883a 	add	r17,r17,r6
 40036a8:	4253883a 	add	r9,r8,r9
 40036ac:	898d803a 	cmpltu	r6,r17,r6
 40036b0:	3251883a 	add	r8,r6,r9
 40036b4:	1021883a 	mov	r16,r2
 40036b8:	003f0806 	br	40032dc <__alt_data_end+0xfc0032dc>
 40036bc:	1000301e 	bne	r2,zero,4003780 <__adddf3+0x720>
 40036c0:	4984b03a 	or	r2,r9,r6
 40036c4:	10007126 	beq	r2,zero,400388c <__adddf3+0x82c>
 40036c8:	4811883a 	mov	r8,r9
 40036cc:	3023883a 	mov	r17,r6
 40036d0:	3825883a 	mov	r18,r7
 40036d4:	0401ffc4 	movi	r16,2047
 40036d8:	003e8006 	br	40030dc <__alt_data_end+0xfc0030dc>
 40036dc:	4462b03a 	or	r17,r8,r17
 40036e0:	8822c03a 	cmpne	r17,r17,zero
 40036e4:	0007883a 	mov	r3,zero
 40036e8:	003f8b06 	br	4003518 <__alt_data_end+0xfc003518>
 40036ec:	0141ffc4 	movi	r5,2047
 40036f0:	11403b26 	beq	r2,r5,40037e0 <__adddf3+0x780>
 40036f4:	0109c83a 	sub	r4,zero,r4
 40036f8:	42002034 	orhi	r8,r8,128
 40036fc:	01400e04 	movi	r5,56
 4003700:	29006716 	blt	r5,r4,40038a0 <__adddf3+0x840>
 4003704:	014007c4 	movi	r5,31
 4003708:	29007016 	blt	r5,r4,40038cc <__adddf3+0x86c>
 400370c:	01400804 	movi	r5,32
 4003710:	290bc83a 	sub	r5,r5,r4
 4003714:	4154983a 	sll	r10,r8,r5
 4003718:	890ed83a 	srl	r7,r17,r4
 400371c:	894a983a 	sll	r5,r17,r5
 4003720:	4108d83a 	srl	r4,r8,r4
 4003724:	51e2b03a 	or	r17,r10,r7
 4003728:	280ac03a 	cmpne	r5,r5,zero
 400372c:	8962b03a 	or	r17,r17,r5
 4003730:	89a3883a 	add	r17,r17,r6
 4003734:	2253883a 	add	r9,r4,r9
 4003738:	898d803a 	cmpltu	r6,r17,r6
 400373c:	3251883a 	add	r8,r6,r9
 4003740:	1021883a 	mov	r16,r2
 4003744:	003ee506 	br	40032dc <__alt_data_end+0xfc0032dc>
 4003748:	4984b03a 	or	r2,r9,r6
 400374c:	103e6326 	beq	r2,zero,40030dc <__alt_data_end+0xfc0030dc>
 4003750:	8987c83a 	sub	r3,r17,r6
 4003754:	88c9803a 	cmpltu	r4,r17,r3
 4003758:	4245c83a 	sub	r2,r8,r9
 400375c:	1105c83a 	sub	r2,r2,r4
 4003760:	1100202c 	andhi	r4,r2,128
 4003764:	203ebb26 	beq	r4,zero,4003254 <__alt_data_end+0xfc003254>
 4003768:	3463c83a 	sub	r17,r6,r17
 400376c:	4a07c83a 	sub	r3,r9,r8
 4003770:	344d803a 	cmpltu	r6,r6,r17
 4003774:	1991c83a 	sub	r8,r3,r6
 4003778:	3825883a 	mov	r18,r7
 400377c:	003e5706 	br	40030dc <__alt_data_end+0xfc0030dc>
 4003780:	4984b03a 	or	r2,r9,r6
 4003784:	10002e26 	beq	r2,zero,4003840 <__adddf3+0x7e0>
 4003788:	4004d0fa 	srli	r2,r8,3
 400378c:	8822d0fa 	srli	r17,r17,3
 4003790:	4010977a 	slli	r8,r8,29
 4003794:	10c0022c 	andhi	r3,r2,8
 4003798:	4462b03a 	or	r17,r8,r17
 400379c:	18000826 	beq	r3,zero,40037c0 <__adddf3+0x760>
 40037a0:	4808d0fa 	srli	r4,r9,3
 40037a4:	20c0022c 	andhi	r3,r4,8
 40037a8:	1800051e 	bne	r3,zero,40037c0 <__adddf3+0x760>
 40037ac:	300cd0fa 	srli	r6,r6,3
 40037b0:	4806977a 	slli	r3,r9,29
 40037b4:	2005883a 	mov	r2,r4
 40037b8:	3825883a 	mov	r18,r7
 40037bc:	19a2b03a 	or	r17,r3,r6
 40037c0:	8810d77a 	srli	r8,r17,29
 40037c4:	100490fa 	slli	r2,r2,3
 40037c8:	882290fa 	slli	r17,r17,3
 40037cc:	0401ffc4 	movi	r16,2047
 40037d0:	4090b03a 	or	r8,r8,r2
 40037d4:	003e4106 	br	40030dc <__alt_data_end+0xfc0030dc>
 40037d8:	0141ffc4 	movi	r5,2047
 40037dc:	117fc71e 	bne	r2,r5,40036fc <__alt_data_end+0xfc0036fc>
 40037e0:	4811883a 	mov	r8,r9
 40037e4:	3023883a 	mov	r17,r6
 40037e8:	1021883a 	mov	r16,r2
 40037ec:	003e3b06 	br	40030dc <__alt_data_end+0xfc0030dc>
 40037f0:	10002f26 	beq	r2,zero,40038b0 <__adddf3+0x850>
 40037f4:	4984b03a 	or	r2,r9,r6
 40037f8:	10001126 	beq	r2,zero,4003840 <__adddf3+0x7e0>
 40037fc:	4004d0fa 	srli	r2,r8,3
 4003800:	8822d0fa 	srli	r17,r17,3
 4003804:	4010977a 	slli	r8,r8,29
 4003808:	10c0022c 	andhi	r3,r2,8
 400380c:	4462b03a 	or	r17,r8,r17
 4003810:	183feb26 	beq	r3,zero,40037c0 <__alt_data_end+0xfc0037c0>
 4003814:	4808d0fa 	srli	r4,r9,3
 4003818:	20c0022c 	andhi	r3,r4,8
 400381c:	183fe81e 	bne	r3,zero,40037c0 <__alt_data_end+0xfc0037c0>
 4003820:	300cd0fa 	srli	r6,r6,3
 4003824:	4806977a 	slli	r3,r9,29
 4003828:	2005883a 	mov	r2,r4
 400382c:	19a2b03a 	or	r17,r3,r6
 4003830:	003fe306 	br	40037c0 <__alt_data_end+0xfc0037c0>
 4003834:	0011883a 	mov	r8,zero
 4003838:	0005883a 	mov	r2,zero
 400383c:	003e3f06 	br	400313c <__alt_data_end+0xfc00313c>
 4003840:	0401ffc4 	movi	r16,2047
 4003844:	003e2506 	br	40030dc <__alt_data_end+0xfc0030dc>
 4003848:	0013883a 	mov	r9,zero
 400384c:	003f8406 	br	4003660 <__alt_data_end+0xfc003660>
 4003850:	0005883a 	mov	r2,zero
 4003854:	0007883a 	mov	r3,zero
 4003858:	003e8906 	br	4003280 <__alt_data_end+0xfc003280>
 400385c:	197ff804 	addi	r5,r3,-32
 4003860:	01000804 	movi	r4,32
 4003864:	414ad83a 	srl	r5,r8,r5
 4003868:	19002426 	beq	r3,r4,40038fc <__adddf3+0x89c>
 400386c:	01001004 	movi	r4,64
 4003870:	20c7c83a 	sub	r3,r4,r3
 4003874:	40c6983a 	sll	r3,r8,r3
 4003878:	1c46b03a 	or	r3,r3,r17
 400387c:	1806c03a 	cmpne	r3,r3,zero
 4003880:	28e2b03a 	or	r17,r5,r3
 4003884:	0007883a 	mov	r3,zero
 4003888:	003f2306 	br	4003518 <__alt_data_end+0xfc003518>
 400388c:	0007883a 	mov	r3,zero
 4003890:	5811883a 	mov	r8,r11
 4003894:	00bfffc4 	movi	r2,-1
 4003898:	0401ffc4 	movi	r16,2047
 400389c:	003e7806 	br	4003280 <__alt_data_end+0xfc003280>
 40038a0:	4462b03a 	or	r17,r8,r17
 40038a4:	8822c03a 	cmpne	r17,r17,zero
 40038a8:	0009883a 	mov	r4,zero
 40038ac:	003fa006 	br	4003730 <__alt_data_end+0xfc003730>
 40038b0:	4811883a 	mov	r8,r9
 40038b4:	3023883a 	mov	r17,r6
 40038b8:	0401ffc4 	movi	r16,2047
 40038bc:	003e0706 	br	40030dc <__alt_data_end+0xfc0030dc>
 40038c0:	4811883a 	mov	r8,r9
 40038c4:	3023883a 	mov	r17,r6
 40038c8:	003e0406 	br	40030dc <__alt_data_end+0xfc0030dc>
 40038cc:	21fff804 	addi	r7,r4,-32
 40038d0:	01400804 	movi	r5,32
 40038d4:	41ced83a 	srl	r7,r8,r7
 40038d8:	21400a26 	beq	r4,r5,4003904 <__adddf3+0x8a4>
 40038dc:	01401004 	movi	r5,64
 40038e0:	2909c83a 	sub	r4,r5,r4
 40038e4:	4108983a 	sll	r4,r8,r4
 40038e8:	2448b03a 	or	r4,r4,r17
 40038ec:	2008c03a 	cmpne	r4,r4,zero
 40038f0:	3922b03a 	or	r17,r7,r4
 40038f4:	0009883a 	mov	r4,zero
 40038f8:	003f8d06 	br	4003730 <__alt_data_end+0xfc003730>
 40038fc:	0007883a 	mov	r3,zero
 4003900:	003fdd06 	br	4003878 <__alt_data_end+0xfc003878>
 4003904:	0009883a 	mov	r4,zero
 4003908:	003ff706 	br	40038e8 <__alt_data_end+0xfc0038e8>

0400390c <__divdf3>:
 400390c:	defff204 	addi	sp,sp,-56
 4003910:	dd400915 	stw	r21,36(sp)
 4003914:	282ad53a 	srli	r21,r5,20
 4003918:	dd000815 	stw	r20,32(sp)
 400391c:	2828d7fa 	srli	r20,r5,31
 4003920:	dc000415 	stw	r16,16(sp)
 4003924:	04000434 	movhi	r16,16
 4003928:	df000c15 	stw	fp,48(sp)
 400392c:	843fffc4 	addi	r16,r16,-1
 4003930:	dfc00d15 	stw	ra,52(sp)
 4003934:	ddc00b15 	stw	r23,44(sp)
 4003938:	dd800a15 	stw	r22,40(sp)
 400393c:	dcc00715 	stw	r19,28(sp)
 4003940:	dc800615 	stw	r18,24(sp)
 4003944:	dc400515 	stw	r17,20(sp)
 4003948:	ad41ffcc 	andi	r21,r21,2047
 400394c:	2c20703a 	and	r16,r5,r16
 4003950:	a7003fcc 	andi	fp,r20,255
 4003954:	a8006126 	beq	r21,zero,4003adc <__divdf3+0x1d0>
 4003958:	0081ffc4 	movi	r2,2047
 400395c:	2025883a 	mov	r18,r4
 4003960:	a8803726 	beq	r21,r2,4003a40 <__divdf3+0x134>
 4003964:	80800434 	orhi	r2,r16,16
 4003968:	100490fa 	slli	r2,r2,3
 400396c:	2020d77a 	srli	r16,r4,29
 4003970:	202490fa 	slli	r18,r4,3
 4003974:	ad7f0044 	addi	r21,r21,-1023
 4003978:	80a0b03a 	or	r16,r16,r2
 400397c:	0027883a 	mov	r19,zero
 4003980:	0013883a 	mov	r9,zero
 4003984:	3804d53a 	srli	r2,r7,20
 4003988:	382cd7fa 	srli	r22,r7,31
 400398c:	04400434 	movhi	r17,16
 4003990:	8c7fffc4 	addi	r17,r17,-1
 4003994:	1081ffcc 	andi	r2,r2,2047
 4003998:	3011883a 	mov	r8,r6
 400399c:	3c62703a 	and	r17,r7,r17
 40039a0:	b5c03fcc 	andi	r23,r22,255
 40039a4:	10006c26 	beq	r2,zero,4003b58 <__divdf3+0x24c>
 40039a8:	00c1ffc4 	movi	r3,2047
 40039ac:	10c06426 	beq	r2,r3,4003b40 <__divdf3+0x234>
 40039b0:	88c00434 	orhi	r3,r17,16
 40039b4:	180690fa 	slli	r3,r3,3
 40039b8:	3022d77a 	srli	r17,r6,29
 40039bc:	301090fa 	slli	r8,r6,3
 40039c0:	10bf0044 	addi	r2,r2,-1023
 40039c4:	88e2b03a 	or	r17,r17,r3
 40039c8:	000f883a 	mov	r7,zero
 40039cc:	a58cf03a 	xor	r6,r20,r22
 40039d0:	3cc8b03a 	or	r4,r7,r19
 40039d4:	a8abc83a 	sub	r21,r21,r2
 40039d8:	008003c4 	movi	r2,15
 40039dc:	3007883a 	mov	r3,r6
 40039e0:	34c03fcc 	andi	r19,r6,255
 40039e4:	11009036 	bltu	r2,r4,4003c28 <__divdf3+0x31c>
 40039e8:	200890ba 	slli	r4,r4,2
 40039ec:	00810034 	movhi	r2,1024
 40039f0:	108e8004 	addi	r2,r2,14848
 40039f4:	2089883a 	add	r4,r4,r2
 40039f8:	20800017 	ldw	r2,0(r4)
 40039fc:	1000683a 	jmp	r2
 4003a00:	04003c28 	cmpgeui	r16,zero,240
 4003a04:	04003a78 	rdprs	r16,zero,233
 4003a08:	04003c18 	cmpnei	r16,zero,240
 4003a0c:	04003a6c 	andhi	r16,zero,233
 4003a10:	04003c18 	cmpnei	r16,zero,240
 4003a14:	04003bec 	andhi	r16,zero,239
 4003a18:	04003c18 	cmpnei	r16,zero,240
 4003a1c:	04003a6c 	andhi	r16,zero,233
 4003a20:	04003a78 	rdprs	r16,zero,233
 4003a24:	04003a78 	rdprs	r16,zero,233
 4003a28:	04003bec 	andhi	r16,zero,239
 4003a2c:	04003a6c 	andhi	r16,zero,233
 4003a30:	04003a5c 	xori	r16,zero,233
 4003a34:	04003a5c 	xori	r16,zero,233
 4003a38:	04003a5c 	xori	r16,zero,233
 4003a3c:	04003f0c 	andi	r16,zero,252
 4003a40:	2404b03a 	or	r2,r4,r16
 4003a44:	1000661e 	bne	r2,zero,4003be0 <__divdf3+0x2d4>
 4003a48:	04c00204 	movi	r19,8
 4003a4c:	0021883a 	mov	r16,zero
 4003a50:	0025883a 	mov	r18,zero
 4003a54:	02400084 	movi	r9,2
 4003a58:	003fca06 	br	4003984 <__alt_data_end+0xfc003984>
 4003a5c:	8023883a 	mov	r17,r16
 4003a60:	9011883a 	mov	r8,r18
 4003a64:	e02f883a 	mov	r23,fp
 4003a68:	480f883a 	mov	r7,r9
 4003a6c:	00800084 	movi	r2,2
 4003a70:	3881311e 	bne	r7,r2,4003f38 <__divdf3+0x62c>
 4003a74:	b827883a 	mov	r19,r23
 4003a78:	98c0004c 	andi	r3,r19,1
 4003a7c:	0081ffc4 	movi	r2,2047
 4003a80:	000b883a 	mov	r5,zero
 4003a84:	0025883a 	mov	r18,zero
 4003a88:	1004953a 	slli	r2,r2,20
 4003a8c:	18c03fcc 	andi	r3,r3,255
 4003a90:	04400434 	movhi	r17,16
 4003a94:	8c7fffc4 	addi	r17,r17,-1
 4003a98:	180697fa 	slli	r3,r3,31
 4003a9c:	2c4a703a 	and	r5,r5,r17
 4003aa0:	288ab03a 	or	r5,r5,r2
 4003aa4:	28c6b03a 	or	r3,r5,r3
 4003aa8:	9005883a 	mov	r2,r18
 4003aac:	dfc00d17 	ldw	ra,52(sp)
 4003ab0:	df000c17 	ldw	fp,48(sp)
 4003ab4:	ddc00b17 	ldw	r23,44(sp)
 4003ab8:	dd800a17 	ldw	r22,40(sp)
 4003abc:	dd400917 	ldw	r21,36(sp)
 4003ac0:	dd000817 	ldw	r20,32(sp)
 4003ac4:	dcc00717 	ldw	r19,28(sp)
 4003ac8:	dc800617 	ldw	r18,24(sp)
 4003acc:	dc400517 	ldw	r17,20(sp)
 4003ad0:	dc000417 	ldw	r16,16(sp)
 4003ad4:	dec00e04 	addi	sp,sp,56
 4003ad8:	f800283a 	ret
 4003adc:	2404b03a 	or	r2,r4,r16
 4003ae0:	2027883a 	mov	r19,r4
 4003ae4:	10003926 	beq	r2,zero,4003bcc <__divdf3+0x2c0>
 4003ae8:	80012e26 	beq	r16,zero,4003fa4 <__divdf3+0x698>
 4003aec:	8009883a 	mov	r4,r16
 4003af0:	d9800315 	stw	r6,12(sp)
 4003af4:	d9c00215 	stw	r7,8(sp)
 4003af8:	40058740 	call	4005874 <__clzsi2>
 4003afc:	d9800317 	ldw	r6,12(sp)
 4003b00:	d9c00217 	ldw	r7,8(sp)
 4003b04:	113ffd44 	addi	r4,r2,-11
 4003b08:	00c00704 	movi	r3,28
 4003b0c:	19012116 	blt	r3,r4,4003f94 <__divdf3+0x688>
 4003b10:	00c00744 	movi	r3,29
 4003b14:	147ffe04 	addi	r17,r2,-8
 4003b18:	1907c83a 	sub	r3,r3,r4
 4003b1c:	8460983a 	sll	r16,r16,r17
 4003b20:	98c6d83a 	srl	r3,r19,r3
 4003b24:	9c64983a 	sll	r18,r19,r17
 4003b28:	1c20b03a 	or	r16,r3,r16
 4003b2c:	1080fcc4 	addi	r2,r2,1011
 4003b30:	00abc83a 	sub	r21,zero,r2
 4003b34:	0027883a 	mov	r19,zero
 4003b38:	0013883a 	mov	r9,zero
 4003b3c:	003f9106 	br	4003984 <__alt_data_end+0xfc003984>
 4003b40:	3446b03a 	or	r3,r6,r17
 4003b44:	18001f1e 	bne	r3,zero,4003bc4 <__divdf3+0x2b8>
 4003b48:	0023883a 	mov	r17,zero
 4003b4c:	0011883a 	mov	r8,zero
 4003b50:	01c00084 	movi	r7,2
 4003b54:	003f9d06 	br	40039cc <__alt_data_end+0xfc0039cc>
 4003b58:	3446b03a 	or	r3,r6,r17
 4003b5c:	18001526 	beq	r3,zero,4003bb4 <__divdf3+0x2a8>
 4003b60:	88011b26 	beq	r17,zero,4003fd0 <__divdf3+0x6c4>
 4003b64:	8809883a 	mov	r4,r17
 4003b68:	d9800315 	stw	r6,12(sp)
 4003b6c:	da400115 	stw	r9,4(sp)
 4003b70:	40058740 	call	4005874 <__clzsi2>
 4003b74:	d9800317 	ldw	r6,12(sp)
 4003b78:	da400117 	ldw	r9,4(sp)
 4003b7c:	113ffd44 	addi	r4,r2,-11
 4003b80:	00c00704 	movi	r3,28
 4003b84:	19010e16 	blt	r3,r4,4003fc0 <__divdf3+0x6b4>
 4003b88:	00c00744 	movi	r3,29
 4003b8c:	123ffe04 	addi	r8,r2,-8
 4003b90:	1907c83a 	sub	r3,r3,r4
 4003b94:	8a22983a 	sll	r17,r17,r8
 4003b98:	30c6d83a 	srl	r3,r6,r3
 4003b9c:	3210983a 	sll	r8,r6,r8
 4003ba0:	1c62b03a 	or	r17,r3,r17
 4003ba4:	1080fcc4 	addi	r2,r2,1011
 4003ba8:	0085c83a 	sub	r2,zero,r2
 4003bac:	000f883a 	mov	r7,zero
 4003bb0:	003f8606 	br	40039cc <__alt_data_end+0xfc0039cc>
 4003bb4:	0023883a 	mov	r17,zero
 4003bb8:	0011883a 	mov	r8,zero
 4003bbc:	01c00044 	movi	r7,1
 4003bc0:	003f8206 	br	40039cc <__alt_data_end+0xfc0039cc>
 4003bc4:	01c000c4 	movi	r7,3
 4003bc8:	003f8006 	br	40039cc <__alt_data_end+0xfc0039cc>
 4003bcc:	04c00104 	movi	r19,4
 4003bd0:	0021883a 	mov	r16,zero
 4003bd4:	0025883a 	mov	r18,zero
 4003bd8:	02400044 	movi	r9,1
 4003bdc:	003f6906 	br	4003984 <__alt_data_end+0xfc003984>
 4003be0:	04c00304 	movi	r19,12
 4003be4:	024000c4 	movi	r9,3
 4003be8:	003f6606 	br	4003984 <__alt_data_end+0xfc003984>
 4003bec:	01400434 	movhi	r5,16
 4003bf0:	0007883a 	mov	r3,zero
 4003bf4:	297fffc4 	addi	r5,r5,-1
 4003bf8:	04bfffc4 	movi	r18,-1
 4003bfc:	0081ffc4 	movi	r2,2047
 4003c00:	003fa106 	br	4003a88 <__alt_data_end+0xfc003a88>
 4003c04:	00c00044 	movi	r3,1
 4003c08:	1887c83a 	sub	r3,r3,r2
 4003c0c:	01000e04 	movi	r4,56
 4003c10:	20c1210e 	bge	r4,r3,4004098 <__divdf3+0x78c>
 4003c14:	98c0004c 	andi	r3,r19,1
 4003c18:	0005883a 	mov	r2,zero
 4003c1c:	000b883a 	mov	r5,zero
 4003c20:	0025883a 	mov	r18,zero
 4003c24:	003f9806 	br	4003a88 <__alt_data_end+0xfc003a88>
 4003c28:	8c00fd36 	bltu	r17,r16,4004020 <__divdf3+0x714>
 4003c2c:	8440fb26 	beq	r16,r17,400401c <__divdf3+0x710>
 4003c30:	8007883a 	mov	r3,r16
 4003c34:	ad7fffc4 	addi	r21,r21,-1
 4003c38:	0021883a 	mov	r16,zero
 4003c3c:	4004d63a 	srli	r2,r8,24
 4003c40:	8822923a 	slli	r17,r17,8
 4003c44:	1809883a 	mov	r4,r3
 4003c48:	402c923a 	slli	r22,r8,8
 4003c4c:	88b8b03a 	or	fp,r17,r2
 4003c50:	e028d43a 	srli	r20,fp,16
 4003c54:	d8c00015 	stw	r3,0(sp)
 4003c58:	e5ffffcc 	andi	r23,fp,65535
 4003c5c:	a00b883a 	mov	r5,r20
 4003c60:	40059d00 	call	40059d0 <__udivsi3>
 4003c64:	d8c00017 	ldw	r3,0(sp)
 4003c68:	a00b883a 	mov	r5,r20
 4003c6c:	d8800315 	stw	r2,12(sp)
 4003c70:	1809883a 	mov	r4,r3
 4003c74:	4005a340 	call	4005a34 <__umodsi3>
 4003c78:	d9800317 	ldw	r6,12(sp)
 4003c7c:	1006943a 	slli	r3,r2,16
 4003c80:	9004d43a 	srli	r2,r18,16
 4003c84:	b9a3383a 	mul	r17,r23,r6
 4003c88:	10c4b03a 	or	r2,r2,r3
 4003c8c:	1440062e 	bgeu	r2,r17,4003ca8 <__divdf3+0x39c>
 4003c90:	1705883a 	add	r2,r2,fp
 4003c94:	30ffffc4 	addi	r3,r6,-1
 4003c98:	1700ee36 	bltu	r2,fp,4004054 <__divdf3+0x748>
 4003c9c:	1440ed2e 	bgeu	r2,r17,4004054 <__divdf3+0x748>
 4003ca0:	31bfff84 	addi	r6,r6,-2
 4003ca4:	1705883a 	add	r2,r2,fp
 4003ca8:	1463c83a 	sub	r17,r2,r17
 4003cac:	a00b883a 	mov	r5,r20
 4003cb0:	8809883a 	mov	r4,r17
 4003cb4:	d9800315 	stw	r6,12(sp)
 4003cb8:	40059d00 	call	40059d0 <__udivsi3>
 4003cbc:	a00b883a 	mov	r5,r20
 4003cc0:	8809883a 	mov	r4,r17
 4003cc4:	d8800215 	stw	r2,8(sp)
 4003cc8:	4005a340 	call	4005a34 <__umodsi3>
 4003ccc:	d9c00217 	ldw	r7,8(sp)
 4003cd0:	1004943a 	slli	r2,r2,16
 4003cd4:	94bfffcc 	andi	r18,r18,65535
 4003cd8:	b9d1383a 	mul	r8,r23,r7
 4003cdc:	90a4b03a 	or	r18,r18,r2
 4003ce0:	d9800317 	ldw	r6,12(sp)
 4003ce4:	9200062e 	bgeu	r18,r8,4003d00 <__divdf3+0x3f4>
 4003ce8:	9725883a 	add	r18,r18,fp
 4003cec:	38bfffc4 	addi	r2,r7,-1
 4003cf0:	9700d636 	bltu	r18,fp,400404c <__divdf3+0x740>
 4003cf4:	9200d52e 	bgeu	r18,r8,400404c <__divdf3+0x740>
 4003cf8:	39ffff84 	addi	r7,r7,-2
 4003cfc:	9725883a 	add	r18,r18,fp
 4003d00:	3004943a 	slli	r2,r6,16
 4003d04:	b012d43a 	srli	r9,r22,16
 4003d08:	b1bfffcc 	andi	r6,r22,65535
 4003d0c:	11e2b03a 	or	r17,r2,r7
 4003d10:	8806d43a 	srli	r3,r17,16
 4003d14:	893fffcc 	andi	r4,r17,65535
 4003d18:	218b383a 	mul	r5,r4,r6
 4003d1c:	30c5383a 	mul	r2,r6,r3
 4003d20:	2249383a 	mul	r4,r4,r9
 4003d24:	280ed43a 	srli	r7,r5,16
 4003d28:	9225c83a 	sub	r18,r18,r8
 4003d2c:	2089883a 	add	r4,r4,r2
 4003d30:	3909883a 	add	r4,r7,r4
 4003d34:	1a47383a 	mul	r3,r3,r9
 4003d38:	2080022e 	bgeu	r4,r2,4003d44 <__divdf3+0x438>
 4003d3c:	00800074 	movhi	r2,1
 4003d40:	1887883a 	add	r3,r3,r2
 4003d44:	2004d43a 	srli	r2,r4,16
 4003d48:	2008943a 	slli	r4,r4,16
 4003d4c:	297fffcc 	andi	r5,r5,65535
 4003d50:	10c7883a 	add	r3,r2,r3
 4003d54:	2149883a 	add	r4,r4,r5
 4003d58:	90c0a536 	bltu	r18,r3,4003ff0 <__divdf3+0x6e4>
 4003d5c:	90c0bf26 	beq	r18,r3,400405c <__divdf3+0x750>
 4003d60:	90c7c83a 	sub	r3,r18,r3
 4003d64:	810fc83a 	sub	r7,r16,r4
 4003d68:	81e5803a 	cmpltu	r18,r16,r7
 4003d6c:	1ca5c83a 	sub	r18,r3,r18
 4003d70:	e480c126 	beq	fp,r18,4004078 <__divdf3+0x76c>
 4003d74:	a00b883a 	mov	r5,r20
 4003d78:	9009883a 	mov	r4,r18
 4003d7c:	d9800315 	stw	r6,12(sp)
 4003d80:	d9c00215 	stw	r7,8(sp)
 4003d84:	da400115 	stw	r9,4(sp)
 4003d88:	40059d00 	call	40059d0 <__udivsi3>
 4003d8c:	a00b883a 	mov	r5,r20
 4003d90:	9009883a 	mov	r4,r18
 4003d94:	d8800015 	stw	r2,0(sp)
 4003d98:	4005a340 	call	4005a34 <__umodsi3>
 4003d9c:	d9c00217 	ldw	r7,8(sp)
 4003da0:	da000017 	ldw	r8,0(sp)
 4003da4:	1006943a 	slli	r3,r2,16
 4003da8:	3804d43a 	srli	r2,r7,16
 4003dac:	ba21383a 	mul	r16,r23,r8
 4003db0:	d9800317 	ldw	r6,12(sp)
 4003db4:	10c4b03a 	or	r2,r2,r3
 4003db8:	da400117 	ldw	r9,4(sp)
 4003dbc:	1400062e 	bgeu	r2,r16,4003dd8 <__divdf3+0x4cc>
 4003dc0:	1705883a 	add	r2,r2,fp
 4003dc4:	40ffffc4 	addi	r3,r8,-1
 4003dc8:	1700ad36 	bltu	r2,fp,4004080 <__divdf3+0x774>
 4003dcc:	1400ac2e 	bgeu	r2,r16,4004080 <__divdf3+0x774>
 4003dd0:	423fff84 	addi	r8,r8,-2
 4003dd4:	1705883a 	add	r2,r2,fp
 4003dd8:	1421c83a 	sub	r16,r2,r16
 4003ddc:	a00b883a 	mov	r5,r20
 4003de0:	8009883a 	mov	r4,r16
 4003de4:	d9800315 	stw	r6,12(sp)
 4003de8:	d9c00215 	stw	r7,8(sp)
 4003dec:	da000015 	stw	r8,0(sp)
 4003df0:	da400115 	stw	r9,4(sp)
 4003df4:	40059d00 	call	40059d0 <__udivsi3>
 4003df8:	8009883a 	mov	r4,r16
 4003dfc:	a00b883a 	mov	r5,r20
 4003e00:	1025883a 	mov	r18,r2
 4003e04:	4005a340 	call	4005a34 <__umodsi3>
 4003e08:	d9c00217 	ldw	r7,8(sp)
 4003e0c:	1004943a 	slli	r2,r2,16
 4003e10:	bcaf383a 	mul	r23,r23,r18
 4003e14:	393fffcc 	andi	r4,r7,65535
 4003e18:	2088b03a 	or	r4,r4,r2
 4003e1c:	d9800317 	ldw	r6,12(sp)
 4003e20:	da000017 	ldw	r8,0(sp)
 4003e24:	da400117 	ldw	r9,4(sp)
 4003e28:	25c0062e 	bgeu	r4,r23,4003e44 <__divdf3+0x538>
 4003e2c:	2709883a 	add	r4,r4,fp
 4003e30:	90bfffc4 	addi	r2,r18,-1
 4003e34:	27009436 	bltu	r4,fp,4004088 <__divdf3+0x77c>
 4003e38:	25c0932e 	bgeu	r4,r23,4004088 <__divdf3+0x77c>
 4003e3c:	94bfff84 	addi	r18,r18,-2
 4003e40:	2709883a 	add	r4,r4,fp
 4003e44:	4004943a 	slli	r2,r8,16
 4003e48:	25efc83a 	sub	r23,r4,r23
 4003e4c:	1490b03a 	or	r8,r2,r18
 4003e50:	4008d43a 	srli	r4,r8,16
 4003e54:	40ffffcc 	andi	r3,r8,65535
 4003e58:	30c5383a 	mul	r2,r6,r3
 4003e5c:	1a47383a 	mul	r3,r3,r9
 4003e60:	310d383a 	mul	r6,r6,r4
 4003e64:	100ad43a 	srli	r5,r2,16
 4003e68:	4913383a 	mul	r9,r9,r4
 4003e6c:	1987883a 	add	r3,r3,r6
 4003e70:	28c7883a 	add	r3,r5,r3
 4003e74:	1980022e 	bgeu	r3,r6,4003e80 <__divdf3+0x574>
 4003e78:	01000074 	movhi	r4,1
 4003e7c:	4913883a 	add	r9,r9,r4
 4003e80:	1808d43a 	srli	r4,r3,16
 4003e84:	1806943a 	slli	r3,r3,16
 4003e88:	10bfffcc 	andi	r2,r2,65535
 4003e8c:	2253883a 	add	r9,r4,r9
 4003e90:	1887883a 	add	r3,r3,r2
 4003e94:	ba403836 	bltu	r23,r9,4003f78 <__divdf3+0x66c>
 4003e98:	ba403626 	beq	r23,r9,4003f74 <__divdf3+0x668>
 4003e9c:	42000054 	ori	r8,r8,1
 4003ea0:	a880ffc4 	addi	r2,r21,1023
 4003ea4:	00bf570e 	bge	zero,r2,4003c04 <__alt_data_end+0xfc003c04>
 4003ea8:	40c001cc 	andi	r3,r8,7
 4003eac:	18000726 	beq	r3,zero,4003ecc <__divdf3+0x5c0>
 4003eb0:	40c003cc 	andi	r3,r8,15
 4003eb4:	01000104 	movi	r4,4
 4003eb8:	19000426 	beq	r3,r4,4003ecc <__divdf3+0x5c0>
 4003ebc:	4107883a 	add	r3,r8,r4
 4003ec0:	1a11803a 	cmpltu	r8,r3,r8
 4003ec4:	8a23883a 	add	r17,r17,r8
 4003ec8:	1811883a 	mov	r8,r3
 4003ecc:	88c0402c 	andhi	r3,r17,256
 4003ed0:	18000426 	beq	r3,zero,4003ee4 <__divdf3+0x5d8>
 4003ed4:	00ffc034 	movhi	r3,65280
 4003ed8:	18ffffc4 	addi	r3,r3,-1
 4003edc:	a8810004 	addi	r2,r21,1024
 4003ee0:	88e2703a 	and	r17,r17,r3
 4003ee4:	00c1ff84 	movi	r3,2046
 4003ee8:	18bee316 	blt	r3,r2,4003a78 <__alt_data_end+0xfc003a78>
 4003eec:	8824977a 	slli	r18,r17,29
 4003ef0:	4010d0fa 	srli	r8,r8,3
 4003ef4:	8822927a 	slli	r17,r17,9
 4003ef8:	1081ffcc 	andi	r2,r2,2047
 4003efc:	9224b03a 	or	r18,r18,r8
 4003f00:	880ad33a 	srli	r5,r17,12
 4003f04:	98c0004c 	andi	r3,r19,1
 4003f08:	003edf06 	br	4003a88 <__alt_data_end+0xfc003a88>
 4003f0c:	8080022c 	andhi	r2,r16,8
 4003f10:	10001226 	beq	r2,zero,4003f5c <__divdf3+0x650>
 4003f14:	8880022c 	andhi	r2,r17,8
 4003f18:	1000101e 	bne	r2,zero,4003f5c <__divdf3+0x650>
 4003f1c:	00800434 	movhi	r2,16
 4003f20:	89400234 	orhi	r5,r17,8
 4003f24:	10bfffc4 	addi	r2,r2,-1
 4003f28:	b007883a 	mov	r3,r22
 4003f2c:	288a703a 	and	r5,r5,r2
 4003f30:	4025883a 	mov	r18,r8
 4003f34:	003f3106 	br	4003bfc <__alt_data_end+0xfc003bfc>
 4003f38:	008000c4 	movi	r2,3
 4003f3c:	3880a626 	beq	r7,r2,40041d8 <__divdf3+0x8cc>
 4003f40:	00800044 	movi	r2,1
 4003f44:	3880521e 	bne	r7,r2,4004090 <__divdf3+0x784>
 4003f48:	b807883a 	mov	r3,r23
 4003f4c:	0005883a 	mov	r2,zero
 4003f50:	000b883a 	mov	r5,zero
 4003f54:	0025883a 	mov	r18,zero
 4003f58:	003ecb06 	br	4003a88 <__alt_data_end+0xfc003a88>
 4003f5c:	00800434 	movhi	r2,16
 4003f60:	81400234 	orhi	r5,r16,8
 4003f64:	10bfffc4 	addi	r2,r2,-1
 4003f68:	a007883a 	mov	r3,r20
 4003f6c:	288a703a 	and	r5,r5,r2
 4003f70:	003f2206 	br	4003bfc <__alt_data_end+0xfc003bfc>
 4003f74:	183fca26 	beq	r3,zero,4003ea0 <__alt_data_end+0xfc003ea0>
 4003f78:	e5ef883a 	add	r23,fp,r23
 4003f7c:	40bfffc4 	addi	r2,r8,-1
 4003f80:	bf00392e 	bgeu	r23,fp,4004068 <__divdf3+0x75c>
 4003f84:	1011883a 	mov	r8,r2
 4003f88:	ba7fc41e 	bne	r23,r9,4003e9c <__alt_data_end+0xfc003e9c>
 4003f8c:	b0ffc31e 	bne	r22,r3,4003e9c <__alt_data_end+0xfc003e9c>
 4003f90:	003fc306 	br	4003ea0 <__alt_data_end+0xfc003ea0>
 4003f94:	143ff604 	addi	r16,r2,-40
 4003f98:	9c20983a 	sll	r16,r19,r16
 4003f9c:	0025883a 	mov	r18,zero
 4003fa0:	003ee206 	br	4003b2c <__alt_data_end+0xfc003b2c>
 4003fa4:	d9800315 	stw	r6,12(sp)
 4003fa8:	d9c00215 	stw	r7,8(sp)
 4003fac:	40058740 	call	4005874 <__clzsi2>
 4003fb0:	10800804 	addi	r2,r2,32
 4003fb4:	d9c00217 	ldw	r7,8(sp)
 4003fb8:	d9800317 	ldw	r6,12(sp)
 4003fbc:	003ed106 	br	4003b04 <__alt_data_end+0xfc003b04>
 4003fc0:	147ff604 	addi	r17,r2,-40
 4003fc4:	3462983a 	sll	r17,r6,r17
 4003fc8:	0011883a 	mov	r8,zero
 4003fcc:	003ef506 	br	4003ba4 <__alt_data_end+0xfc003ba4>
 4003fd0:	3009883a 	mov	r4,r6
 4003fd4:	d9800315 	stw	r6,12(sp)
 4003fd8:	da400115 	stw	r9,4(sp)
 4003fdc:	40058740 	call	4005874 <__clzsi2>
 4003fe0:	10800804 	addi	r2,r2,32
 4003fe4:	da400117 	ldw	r9,4(sp)
 4003fe8:	d9800317 	ldw	r6,12(sp)
 4003fec:	003ee306 	br	4003b7c <__alt_data_end+0xfc003b7c>
 4003ff0:	85a1883a 	add	r16,r16,r22
 4003ff4:	8585803a 	cmpltu	r2,r16,r22
 4003ff8:	1705883a 	add	r2,r2,fp
 4003ffc:	14a5883a 	add	r18,r2,r18
 4004000:	88bfffc4 	addi	r2,r17,-1
 4004004:	e4800c2e 	bgeu	fp,r18,4004038 <__divdf3+0x72c>
 4004008:	90c03e36 	bltu	r18,r3,4004104 <__divdf3+0x7f8>
 400400c:	1c806926 	beq	r3,r18,40041b4 <__divdf3+0x8a8>
 4004010:	90c7c83a 	sub	r3,r18,r3
 4004014:	1023883a 	mov	r17,r2
 4004018:	003f5206 	br	4003d64 <__alt_data_end+0xfc003d64>
 400401c:	923f0436 	bltu	r18,r8,4003c30 <__alt_data_end+0xfc003c30>
 4004020:	800897fa 	slli	r4,r16,31
 4004024:	9004d07a 	srli	r2,r18,1
 4004028:	8006d07a 	srli	r3,r16,1
 400402c:	902097fa 	slli	r16,r18,31
 4004030:	20a4b03a 	or	r18,r4,r2
 4004034:	003f0106 	br	4003c3c <__alt_data_end+0xfc003c3c>
 4004038:	e4bff51e 	bne	fp,r18,4004010 <__alt_data_end+0xfc004010>
 400403c:	85bff22e 	bgeu	r16,r22,4004008 <__alt_data_end+0xfc004008>
 4004040:	e0c7c83a 	sub	r3,fp,r3
 4004044:	1023883a 	mov	r17,r2
 4004048:	003f4606 	br	4003d64 <__alt_data_end+0xfc003d64>
 400404c:	100f883a 	mov	r7,r2
 4004050:	003f2b06 	br	4003d00 <__alt_data_end+0xfc003d00>
 4004054:	180d883a 	mov	r6,r3
 4004058:	003f1306 	br	4003ca8 <__alt_data_end+0xfc003ca8>
 400405c:	813fe436 	bltu	r16,r4,4003ff0 <__alt_data_end+0xfc003ff0>
 4004060:	0007883a 	mov	r3,zero
 4004064:	003f3f06 	br	4003d64 <__alt_data_end+0xfc003d64>
 4004068:	ba402c36 	bltu	r23,r9,400411c <__divdf3+0x810>
 400406c:	4dc05426 	beq	r9,r23,40041c0 <__divdf3+0x8b4>
 4004070:	1011883a 	mov	r8,r2
 4004074:	003f8906 	br	4003e9c <__alt_data_end+0xfc003e9c>
 4004078:	023fffc4 	movi	r8,-1
 400407c:	003f8806 	br	4003ea0 <__alt_data_end+0xfc003ea0>
 4004080:	1811883a 	mov	r8,r3
 4004084:	003f5406 	br	4003dd8 <__alt_data_end+0xfc003dd8>
 4004088:	1025883a 	mov	r18,r2
 400408c:	003f6d06 	br	4003e44 <__alt_data_end+0xfc003e44>
 4004090:	b827883a 	mov	r19,r23
 4004094:	003f8206 	br	4003ea0 <__alt_data_end+0xfc003ea0>
 4004098:	010007c4 	movi	r4,31
 400409c:	20c02616 	blt	r4,r3,4004138 <__divdf3+0x82c>
 40040a0:	00800804 	movi	r2,32
 40040a4:	10c5c83a 	sub	r2,r2,r3
 40040a8:	888a983a 	sll	r5,r17,r2
 40040ac:	40c8d83a 	srl	r4,r8,r3
 40040b0:	4084983a 	sll	r2,r8,r2
 40040b4:	88e2d83a 	srl	r17,r17,r3
 40040b8:	2906b03a 	or	r3,r5,r4
 40040bc:	1004c03a 	cmpne	r2,r2,zero
 40040c0:	1886b03a 	or	r3,r3,r2
 40040c4:	188001cc 	andi	r2,r3,7
 40040c8:	10000726 	beq	r2,zero,40040e8 <__divdf3+0x7dc>
 40040cc:	188003cc 	andi	r2,r3,15
 40040d0:	01000104 	movi	r4,4
 40040d4:	11000426 	beq	r2,r4,40040e8 <__divdf3+0x7dc>
 40040d8:	1805883a 	mov	r2,r3
 40040dc:	10c00104 	addi	r3,r2,4
 40040e0:	1885803a 	cmpltu	r2,r3,r2
 40040e4:	88a3883a 	add	r17,r17,r2
 40040e8:	8880202c 	andhi	r2,r17,128
 40040ec:	10002726 	beq	r2,zero,400418c <__divdf3+0x880>
 40040f0:	98c0004c 	andi	r3,r19,1
 40040f4:	00800044 	movi	r2,1
 40040f8:	000b883a 	mov	r5,zero
 40040fc:	0025883a 	mov	r18,zero
 4004100:	003e6106 	br	4003a88 <__alt_data_end+0xfc003a88>
 4004104:	85a1883a 	add	r16,r16,r22
 4004108:	8585803a 	cmpltu	r2,r16,r22
 400410c:	1705883a 	add	r2,r2,fp
 4004110:	14a5883a 	add	r18,r2,r18
 4004114:	8c7fff84 	addi	r17,r17,-2
 4004118:	003f1106 	br	4003d60 <__alt_data_end+0xfc003d60>
 400411c:	b589883a 	add	r4,r22,r22
 4004120:	25ad803a 	cmpltu	r22,r4,r22
 4004124:	b739883a 	add	fp,r22,fp
 4004128:	40bfff84 	addi	r2,r8,-2
 400412c:	bf2f883a 	add	r23,r23,fp
 4004130:	202d883a 	mov	r22,r4
 4004134:	003f9306 	br	4003f84 <__alt_data_end+0xfc003f84>
 4004138:	013ff844 	movi	r4,-31
 400413c:	2085c83a 	sub	r2,r4,r2
 4004140:	8888d83a 	srl	r4,r17,r2
 4004144:	00800804 	movi	r2,32
 4004148:	18802126 	beq	r3,r2,40041d0 <__divdf3+0x8c4>
 400414c:	00801004 	movi	r2,64
 4004150:	10c5c83a 	sub	r2,r2,r3
 4004154:	8884983a 	sll	r2,r17,r2
 4004158:	1204b03a 	or	r2,r2,r8
 400415c:	1004c03a 	cmpne	r2,r2,zero
 4004160:	2084b03a 	or	r2,r4,r2
 4004164:	144001cc 	andi	r17,r2,7
 4004168:	88000d1e 	bne	r17,zero,40041a0 <__divdf3+0x894>
 400416c:	000b883a 	mov	r5,zero
 4004170:	1024d0fa 	srli	r18,r2,3
 4004174:	98c0004c 	andi	r3,r19,1
 4004178:	0005883a 	mov	r2,zero
 400417c:	9464b03a 	or	r18,r18,r17
 4004180:	003e4106 	br	4003a88 <__alt_data_end+0xfc003a88>
 4004184:	1007883a 	mov	r3,r2
 4004188:	0023883a 	mov	r17,zero
 400418c:	880a927a 	slli	r5,r17,9
 4004190:	1805883a 	mov	r2,r3
 4004194:	8822977a 	slli	r17,r17,29
 4004198:	280ad33a 	srli	r5,r5,12
 400419c:	003ff406 	br	4004170 <__alt_data_end+0xfc004170>
 40041a0:	10c003cc 	andi	r3,r2,15
 40041a4:	01000104 	movi	r4,4
 40041a8:	193ff626 	beq	r3,r4,4004184 <__alt_data_end+0xfc004184>
 40041ac:	0023883a 	mov	r17,zero
 40041b0:	003fca06 	br	40040dc <__alt_data_end+0xfc0040dc>
 40041b4:	813fd336 	bltu	r16,r4,4004104 <__alt_data_end+0xfc004104>
 40041b8:	1023883a 	mov	r17,r2
 40041bc:	003fa806 	br	4004060 <__alt_data_end+0xfc004060>
 40041c0:	b0ffd636 	bltu	r22,r3,400411c <__alt_data_end+0xfc00411c>
 40041c4:	1011883a 	mov	r8,r2
 40041c8:	b0ff341e 	bne	r22,r3,4003e9c <__alt_data_end+0xfc003e9c>
 40041cc:	003f3406 	br	4003ea0 <__alt_data_end+0xfc003ea0>
 40041d0:	0005883a 	mov	r2,zero
 40041d4:	003fe006 	br	4004158 <__alt_data_end+0xfc004158>
 40041d8:	00800434 	movhi	r2,16
 40041dc:	89400234 	orhi	r5,r17,8
 40041e0:	10bfffc4 	addi	r2,r2,-1
 40041e4:	b807883a 	mov	r3,r23
 40041e8:	288a703a 	and	r5,r5,r2
 40041ec:	4025883a 	mov	r18,r8
 40041f0:	003e8206 	br	4003bfc <__alt_data_end+0xfc003bfc>

040041f4 <__eqdf2>:
 40041f4:	2804d53a 	srli	r2,r5,20
 40041f8:	3806d53a 	srli	r3,r7,20
 40041fc:	02000434 	movhi	r8,16
 4004200:	423fffc4 	addi	r8,r8,-1
 4004204:	1081ffcc 	andi	r2,r2,2047
 4004208:	0281ffc4 	movi	r10,2047
 400420c:	2a12703a 	and	r9,r5,r8
 4004210:	18c1ffcc 	andi	r3,r3,2047
 4004214:	3a10703a 	and	r8,r7,r8
 4004218:	280ad7fa 	srli	r5,r5,31
 400421c:	380ed7fa 	srli	r7,r7,31
 4004220:	12801026 	beq	r2,r10,4004264 <__eqdf2+0x70>
 4004224:	0281ffc4 	movi	r10,2047
 4004228:	1a800a26 	beq	r3,r10,4004254 <__eqdf2+0x60>
 400422c:	10c00226 	beq	r2,r3,4004238 <__eqdf2+0x44>
 4004230:	00800044 	movi	r2,1
 4004234:	f800283a 	ret
 4004238:	4a3ffd1e 	bne	r9,r8,4004230 <__alt_data_end+0xfc004230>
 400423c:	21bffc1e 	bne	r4,r6,4004230 <__alt_data_end+0xfc004230>
 4004240:	29c00c26 	beq	r5,r7,4004274 <__eqdf2+0x80>
 4004244:	103ffa1e 	bne	r2,zero,4004230 <__alt_data_end+0xfc004230>
 4004248:	2244b03a 	or	r2,r4,r9
 400424c:	1004c03a 	cmpne	r2,r2,zero
 4004250:	f800283a 	ret
 4004254:	3214b03a 	or	r10,r6,r8
 4004258:	503ff426 	beq	r10,zero,400422c <__alt_data_end+0xfc00422c>
 400425c:	00800044 	movi	r2,1
 4004260:	f800283a 	ret
 4004264:	2254b03a 	or	r10,r4,r9
 4004268:	503fee26 	beq	r10,zero,4004224 <__alt_data_end+0xfc004224>
 400426c:	00800044 	movi	r2,1
 4004270:	f800283a 	ret
 4004274:	0005883a 	mov	r2,zero
 4004278:	f800283a 	ret

0400427c <__gedf2>:
 400427c:	2804d53a 	srli	r2,r5,20
 4004280:	3806d53a 	srli	r3,r7,20
 4004284:	02000434 	movhi	r8,16
 4004288:	423fffc4 	addi	r8,r8,-1
 400428c:	1081ffcc 	andi	r2,r2,2047
 4004290:	0241ffc4 	movi	r9,2047
 4004294:	2a14703a 	and	r10,r5,r8
 4004298:	18c1ffcc 	andi	r3,r3,2047
 400429c:	3a10703a 	and	r8,r7,r8
 40042a0:	280ad7fa 	srli	r5,r5,31
 40042a4:	380ed7fa 	srli	r7,r7,31
 40042a8:	12401d26 	beq	r2,r9,4004320 <__gedf2+0xa4>
 40042ac:	0241ffc4 	movi	r9,2047
 40042b0:	1a401226 	beq	r3,r9,40042fc <__gedf2+0x80>
 40042b4:	1000081e 	bne	r2,zero,40042d8 <__gedf2+0x5c>
 40042b8:	2296b03a 	or	r11,r4,r10
 40042bc:	5813003a 	cmpeq	r9,r11,zero
 40042c0:	1800091e 	bne	r3,zero,40042e8 <__gedf2+0x6c>
 40042c4:	3218b03a 	or	r12,r6,r8
 40042c8:	6000071e 	bne	r12,zero,40042e8 <__gedf2+0x6c>
 40042cc:	0005883a 	mov	r2,zero
 40042d0:	5800101e 	bne	r11,zero,4004314 <__gedf2+0x98>
 40042d4:	f800283a 	ret
 40042d8:	18000c1e 	bne	r3,zero,400430c <__gedf2+0x90>
 40042dc:	3212b03a 	or	r9,r6,r8
 40042e0:	48000c26 	beq	r9,zero,4004314 <__gedf2+0x98>
 40042e4:	0013883a 	mov	r9,zero
 40042e8:	39c03fcc 	andi	r7,r7,255
 40042ec:	48000826 	beq	r9,zero,4004310 <__gedf2+0x94>
 40042f0:	38000926 	beq	r7,zero,4004318 <__gedf2+0x9c>
 40042f4:	00800044 	movi	r2,1
 40042f8:	f800283a 	ret
 40042fc:	3212b03a 	or	r9,r6,r8
 4004300:	483fec26 	beq	r9,zero,40042b4 <__alt_data_end+0xfc0042b4>
 4004304:	00bfff84 	movi	r2,-2
 4004308:	f800283a 	ret
 400430c:	39c03fcc 	andi	r7,r7,255
 4004310:	29c00626 	beq	r5,r7,400432c <__gedf2+0xb0>
 4004314:	283ff726 	beq	r5,zero,40042f4 <__alt_data_end+0xfc0042f4>
 4004318:	00bfffc4 	movi	r2,-1
 400431c:	f800283a 	ret
 4004320:	2292b03a 	or	r9,r4,r10
 4004324:	483fe126 	beq	r9,zero,40042ac <__alt_data_end+0xfc0042ac>
 4004328:	003ff606 	br	4004304 <__alt_data_end+0xfc004304>
 400432c:	18bff916 	blt	r3,r2,4004314 <__alt_data_end+0xfc004314>
 4004330:	10c00316 	blt	r2,r3,4004340 <__gedf2+0xc4>
 4004334:	42bff736 	bltu	r8,r10,4004314 <__alt_data_end+0xfc004314>
 4004338:	52000326 	beq	r10,r8,4004348 <__gedf2+0xcc>
 400433c:	5200042e 	bgeu	r10,r8,4004350 <__gedf2+0xd4>
 4004340:	283fec1e 	bne	r5,zero,40042f4 <__alt_data_end+0xfc0042f4>
 4004344:	003ff406 	br	4004318 <__alt_data_end+0xfc004318>
 4004348:	313ff236 	bltu	r6,r4,4004314 <__alt_data_end+0xfc004314>
 400434c:	21bffc36 	bltu	r4,r6,4004340 <__alt_data_end+0xfc004340>
 4004350:	0005883a 	mov	r2,zero
 4004354:	f800283a 	ret

04004358 <__ledf2>:
 4004358:	2804d53a 	srli	r2,r5,20
 400435c:	3810d53a 	srli	r8,r7,20
 4004360:	00c00434 	movhi	r3,16
 4004364:	18ffffc4 	addi	r3,r3,-1
 4004368:	1081ffcc 	andi	r2,r2,2047
 400436c:	0241ffc4 	movi	r9,2047
 4004370:	28d4703a 	and	r10,r5,r3
 4004374:	4201ffcc 	andi	r8,r8,2047
 4004378:	38c6703a 	and	r3,r7,r3
 400437c:	280ad7fa 	srli	r5,r5,31
 4004380:	380ed7fa 	srli	r7,r7,31
 4004384:	12401f26 	beq	r2,r9,4004404 <__ledf2+0xac>
 4004388:	0241ffc4 	movi	r9,2047
 400438c:	42401426 	beq	r8,r9,40043e0 <__ledf2+0x88>
 4004390:	1000091e 	bne	r2,zero,40043b8 <__ledf2+0x60>
 4004394:	2296b03a 	or	r11,r4,r10
 4004398:	5813003a 	cmpeq	r9,r11,zero
 400439c:	29403fcc 	andi	r5,r5,255
 40043a0:	40000a1e 	bne	r8,zero,40043cc <__ledf2+0x74>
 40043a4:	30d8b03a 	or	r12,r6,r3
 40043a8:	6000081e 	bne	r12,zero,40043cc <__ledf2+0x74>
 40043ac:	0005883a 	mov	r2,zero
 40043b0:	5800111e 	bne	r11,zero,40043f8 <__ledf2+0xa0>
 40043b4:	f800283a 	ret
 40043b8:	29403fcc 	andi	r5,r5,255
 40043bc:	40000c1e 	bne	r8,zero,40043f0 <__ledf2+0x98>
 40043c0:	30d2b03a 	or	r9,r6,r3
 40043c4:	48000c26 	beq	r9,zero,40043f8 <__ledf2+0xa0>
 40043c8:	0013883a 	mov	r9,zero
 40043cc:	39c03fcc 	andi	r7,r7,255
 40043d0:	48000826 	beq	r9,zero,40043f4 <__ledf2+0x9c>
 40043d4:	38001126 	beq	r7,zero,400441c <__ledf2+0xc4>
 40043d8:	00800044 	movi	r2,1
 40043dc:	f800283a 	ret
 40043e0:	30d2b03a 	or	r9,r6,r3
 40043e4:	483fea26 	beq	r9,zero,4004390 <__alt_data_end+0xfc004390>
 40043e8:	00800084 	movi	r2,2
 40043ec:	f800283a 	ret
 40043f0:	39c03fcc 	andi	r7,r7,255
 40043f4:	39400726 	beq	r7,r5,4004414 <__ledf2+0xbc>
 40043f8:	2800081e 	bne	r5,zero,400441c <__ledf2+0xc4>
 40043fc:	00800044 	movi	r2,1
 4004400:	f800283a 	ret
 4004404:	2292b03a 	or	r9,r4,r10
 4004408:	483fdf26 	beq	r9,zero,4004388 <__alt_data_end+0xfc004388>
 400440c:	00800084 	movi	r2,2
 4004410:	f800283a 	ret
 4004414:	4080030e 	bge	r8,r2,4004424 <__ledf2+0xcc>
 4004418:	383fef26 	beq	r7,zero,40043d8 <__alt_data_end+0xfc0043d8>
 400441c:	00bfffc4 	movi	r2,-1
 4004420:	f800283a 	ret
 4004424:	123feb16 	blt	r2,r8,40043d4 <__alt_data_end+0xfc0043d4>
 4004428:	1abff336 	bltu	r3,r10,40043f8 <__alt_data_end+0xfc0043f8>
 400442c:	50c00326 	beq	r10,r3,400443c <__ledf2+0xe4>
 4004430:	50c0042e 	bgeu	r10,r3,4004444 <__ledf2+0xec>
 4004434:	283fe81e 	bne	r5,zero,40043d8 <__alt_data_end+0xfc0043d8>
 4004438:	003ff806 	br	400441c <__alt_data_end+0xfc00441c>
 400443c:	313fee36 	bltu	r6,r4,40043f8 <__alt_data_end+0xfc0043f8>
 4004440:	21bffc36 	bltu	r4,r6,4004434 <__alt_data_end+0xfc004434>
 4004444:	0005883a 	mov	r2,zero
 4004448:	f800283a 	ret

0400444c <__muldf3>:
 400444c:	defff304 	addi	sp,sp,-52
 4004450:	2804d53a 	srli	r2,r5,20
 4004454:	dd800915 	stw	r22,36(sp)
 4004458:	282cd7fa 	srli	r22,r5,31
 400445c:	dc000315 	stw	r16,12(sp)
 4004460:	04000434 	movhi	r16,16
 4004464:	dd400815 	stw	r21,32(sp)
 4004468:	dc800515 	stw	r18,20(sp)
 400446c:	843fffc4 	addi	r16,r16,-1
 4004470:	dfc00c15 	stw	ra,48(sp)
 4004474:	df000b15 	stw	fp,44(sp)
 4004478:	ddc00a15 	stw	r23,40(sp)
 400447c:	dd000715 	stw	r20,28(sp)
 4004480:	dcc00615 	stw	r19,24(sp)
 4004484:	dc400415 	stw	r17,16(sp)
 4004488:	1481ffcc 	andi	r18,r2,2047
 400448c:	2c20703a 	and	r16,r5,r16
 4004490:	b02b883a 	mov	r21,r22
 4004494:	b2403fcc 	andi	r9,r22,255
 4004498:	90006026 	beq	r18,zero,400461c <__muldf3+0x1d0>
 400449c:	0081ffc4 	movi	r2,2047
 40044a0:	2029883a 	mov	r20,r4
 40044a4:	90803626 	beq	r18,r2,4004580 <__muldf3+0x134>
 40044a8:	80800434 	orhi	r2,r16,16
 40044ac:	100490fa 	slli	r2,r2,3
 40044b0:	2020d77a 	srli	r16,r4,29
 40044b4:	202890fa 	slli	r20,r4,3
 40044b8:	94bf0044 	addi	r18,r18,-1023
 40044bc:	80a0b03a 	or	r16,r16,r2
 40044c0:	0027883a 	mov	r19,zero
 40044c4:	0039883a 	mov	fp,zero
 40044c8:	3804d53a 	srli	r2,r7,20
 40044cc:	382ed7fa 	srli	r23,r7,31
 40044d0:	04400434 	movhi	r17,16
 40044d4:	8c7fffc4 	addi	r17,r17,-1
 40044d8:	1081ffcc 	andi	r2,r2,2047
 40044dc:	3011883a 	mov	r8,r6
 40044e0:	3c62703a 	and	r17,r7,r17
 40044e4:	ba803fcc 	andi	r10,r23,255
 40044e8:	10006d26 	beq	r2,zero,40046a0 <__muldf3+0x254>
 40044ec:	00c1ffc4 	movi	r3,2047
 40044f0:	10c06526 	beq	r2,r3,4004688 <__muldf3+0x23c>
 40044f4:	88c00434 	orhi	r3,r17,16
 40044f8:	180690fa 	slli	r3,r3,3
 40044fc:	3022d77a 	srli	r17,r6,29
 4004500:	301090fa 	slli	r8,r6,3
 4004504:	10bf0044 	addi	r2,r2,-1023
 4004508:	88e2b03a 	or	r17,r17,r3
 400450c:	000b883a 	mov	r5,zero
 4004510:	9085883a 	add	r2,r18,r2
 4004514:	2cc8b03a 	or	r4,r5,r19
 4004518:	00c003c4 	movi	r3,15
 400451c:	bdacf03a 	xor	r22,r23,r22
 4004520:	12c00044 	addi	r11,r2,1
 4004524:	19009936 	bltu	r3,r4,400478c <__muldf3+0x340>
 4004528:	200890ba 	slli	r4,r4,2
 400452c:	00c10034 	movhi	r3,1024
 4004530:	18d15004 	addi	r3,r3,17728
 4004534:	20c9883a 	add	r4,r4,r3
 4004538:	20c00017 	ldw	r3,0(r4)
 400453c:	1800683a 	jmp	r3
 4004540:	0400478c 	andi	r16,zero,286
 4004544:	040045a0 	cmpeqi	r16,zero,278
 4004548:	040045a0 	cmpeqi	r16,zero,278
 400454c:	0400459c 	xori	r16,zero,278
 4004550:	04004768 	cmpgeui	r16,zero,285
 4004554:	04004768 	cmpgeui	r16,zero,285
 4004558:	04004750 	cmplti	r16,zero,285
 400455c:	0400459c 	xori	r16,zero,278
 4004560:	04004768 	cmpgeui	r16,zero,285
 4004564:	04004750 	cmplti	r16,zero,285
 4004568:	04004768 	cmpgeui	r16,zero,285
 400456c:	0400459c 	xori	r16,zero,278
 4004570:	04004778 	rdprs	r16,zero,285
 4004574:	04004778 	rdprs	r16,zero,285
 4004578:	04004778 	rdprs	r16,zero,285
 400457c:	04004994 	movui	r16,294
 4004580:	2404b03a 	or	r2,r4,r16
 4004584:	10006f1e 	bne	r2,zero,4004744 <__muldf3+0x2f8>
 4004588:	04c00204 	movi	r19,8
 400458c:	0021883a 	mov	r16,zero
 4004590:	0029883a 	mov	r20,zero
 4004594:	07000084 	movi	fp,2
 4004598:	003fcb06 	br	40044c8 <__alt_data_end+0xfc0044c8>
 400459c:	502d883a 	mov	r22,r10
 40045a0:	00800084 	movi	r2,2
 40045a4:	28805726 	beq	r5,r2,4004704 <__muldf3+0x2b8>
 40045a8:	008000c4 	movi	r2,3
 40045ac:	28816626 	beq	r5,r2,4004b48 <__muldf3+0x6fc>
 40045b0:	00800044 	movi	r2,1
 40045b4:	2881411e 	bne	r5,r2,4004abc <__muldf3+0x670>
 40045b8:	b02b883a 	mov	r21,r22
 40045bc:	0005883a 	mov	r2,zero
 40045c0:	000b883a 	mov	r5,zero
 40045c4:	0029883a 	mov	r20,zero
 40045c8:	1004953a 	slli	r2,r2,20
 40045cc:	a8c03fcc 	andi	r3,r21,255
 40045d0:	04400434 	movhi	r17,16
 40045d4:	8c7fffc4 	addi	r17,r17,-1
 40045d8:	180697fa 	slli	r3,r3,31
 40045dc:	2c4a703a 	and	r5,r5,r17
 40045e0:	288ab03a 	or	r5,r5,r2
 40045e4:	28c6b03a 	or	r3,r5,r3
 40045e8:	a005883a 	mov	r2,r20
 40045ec:	dfc00c17 	ldw	ra,48(sp)
 40045f0:	df000b17 	ldw	fp,44(sp)
 40045f4:	ddc00a17 	ldw	r23,40(sp)
 40045f8:	dd800917 	ldw	r22,36(sp)
 40045fc:	dd400817 	ldw	r21,32(sp)
 4004600:	dd000717 	ldw	r20,28(sp)
 4004604:	dcc00617 	ldw	r19,24(sp)
 4004608:	dc800517 	ldw	r18,20(sp)
 400460c:	dc400417 	ldw	r17,16(sp)
 4004610:	dc000317 	ldw	r16,12(sp)
 4004614:	dec00d04 	addi	sp,sp,52
 4004618:	f800283a 	ret
 400461c:	2404b03a 	or	r2,r4,r16
 4004620:	2027883a 	mov	r19,r4
 4004624:	10004226 	beq	r2,zero,4004730 <__muldf3+0x2e4>
 4004628:	8000fc26 	beq	r16,zero,4004a1c <__muldf3+0x5d0>
 400462c:	8009883a 	mov	r4,r16
 4004630:	d9800215 	stw	r6,8(sp)
 4004634:	d9c00015 	stw	r7,0(sp)
 4004638:	da400115 	stw	r9,4(sp)
 400463c:	40058740 	call	4005874 <__clzsi2>
 4004640:	d9800217 	ldw	r6,8(sp)
 4004644:	d9c00017 	ldw	r7,0(sp)
 4004648:	da400117 	ldw	r9,4(sp)
 400464c:	113ffd44 	addi	r4,r2,-11
 4004650:	00c00704 	movi	r3,28
 4004654:	1900ed16 	blt	r3,r4,4004a0c <__muldf3+0x5c0>
 4004658:	00c00744 	movi	r3,29
 400465c:	147ffe04 	addi	r17,r2,-8
 4004660:	1907c83a 	sub	r3,r3,r4
 4004664:	8460983a 	sll	r16,r16,r17
 4004668:	98c6d83a 	srl	r3,r19,r3
 400466c:	9c68983a 	sll	r20,r19,r17
 4004670:	1c20b03a 	or	r16,r3,r16
 4004674:	1080fcc4 	addi	r2,r2,1011
 4004678:	00a5c83a 	sub	r18,zero,r2
 400467c:	0027883a 	mov	r19,zero
 4004680:	0039883a 	mov	fp,zero
 4004684:	003f9006 	br	40044c8 <__alt_data_end+0xfc0044c8>
 4004688:	3446b03a 	or	r3,r6,r17
 400468c:	1800261e 	bne	r3,zero,4004728 <__muldf3+0x2dc>
 4004690:	0023883a 	mov	r17,zero
 4004694:	0011883a 	mov	r8,zero
 4004698:	01400084 	movi	r5,2
 400469c:	003f9c06 	br	4004510 <__alt_data_end+0xfc004510>
 40046a0:	3446b03a 	or	r3,r6,r17
 40046a4:	18001c26 	beq	r3,zero,4004718 <__muldf3+0x2cc>
 40046a8:	8800ce26 	beq	r17,zero,40049e4 <__muldf3+0x598>
 40046ac:	8809883a 	mov	r4,r17
 40046b0:	d9800215 	stw	r6,8(sp)
 40046b4:	da400115 	stw	r9,4(sp)
 40046b8:	da800015 	stw	r10,0(sp)
 40046bc:	40058740 	call	4005874 <__clzsi2>
 40046c0:	d9800217 	ldw	r6,8(sp)
 40046c4:	da400117 	ldw	r9,4(sp)
 40046c8:	da800017 	ldw	r10,0(sp)
 40046cc:	113ffd44 	addi	r4,r2,-11
 40046d0:	00c00704 	movi	r3,28
 40046d4:	1900bf16 	blt	r3,r4,40049d4 <__muldf3+0x588>
 40046d8:	00c00744 	movi	r3,29
 40046dc:	123ffe04 	addi	r8,r2,-8
 40046e0:	1907c83a 	sub	r3,r3,r4
 40046e4:	8a22983a 	sll	r17,r17,r8
 40046e8:	30c6d83a 	srl	r3,r6,r3
 40046ec:	3210983a 	sll	r8,r6,r8
 40046f0:	1c62b03a 	or	r17,r3,r17
 40046f4:	1080fcc4 	addi	r2,r2,1011
 40046f8:	0085c83a 	sub	r2,zero,r2
 40046fc:	000b883a 	mov	r5,zero
 4004700:	003f8306 	br	4004510 <__alt_data_end+0xfc004510>
 4004704:	b02b883a 	mov	r21,r22
 4004708:	0081ffc4 	movi	r2,2047
 400470c:	000b883a 	mov	r5,zero
 4004710:	0029883a 	mov	r20,zero
 4004714:	003fac06 	br	40045c8 <__alt_data_end+0xfc0045c8>
 4004718:	0023883a 	mov	r17,zero
 400471c:	0011883a 	mov	r8,zero
 4004720:	01400044 	movi	r5,1
 4004724:	003f7a06 	br	4004510 <__alt_data_end+0xfc004510>
 4004728:	014000c4 	movi	r5,3
 400472c:	003f7806 	br	4004510 <__alt_data_end+0xfc004510>
 4004730:	04c00104 	movi	r19,4
 4004734:	0021883a 	mov	r16,zero
 4004738:	0029883a 	mov	r20,zero
 400473c:	07000044 	movi	fp,1
 4004740:	003f6106 	br	40044c8 <__alt_data_end+0xfc0044c8>
 4004744:	04c00304 	movi	r19,12
 4004748:	070000c4 	movi	fp,3
 400474c:	003f5e06 	br	40044c8 <__alt_data_end+0xfc0044c8>
 4004750:	01400434 	movhi	r5,16
 4004754:	002b883a 	mov	r21,zero
 4004758:	297fffc4 	addi	r5,r5,-1
 400475c:	053fffc4 	movi	r20,-1
 4004760:	0081ffc4 	movi	r2,2047
 4004764:	003f9806 	br	40045c8 <__alt_data_end+0xfc0045c8>
 4004768:	8023883a 	mov	r17,r16
 400476c:	a011883a 	mov	r8,r20
 4004770:	e00b883a 	mov	r5,fp
 4004774:	003f8a06 	br	40045a0 <__alt_data_end+0xfc0045a0>
 4004778:	8023883a 	mov	r17,r16
 400477c:	a011883a 	mov	r8,r20
 4004780:	482d883a 	mov	r22,r9
 4004784:	e00b883a 	mov	r5,fp
 4004788:	003f8506 	br	40045a0 <__alt_data_end+0xfc0045a0>
 400478c:	a00ad43a 	srli	r5,r20,16
 4004790:	401ad43a 	srli	r13,r8,16
 4004794:	a53fffcc 	andi	r20,r20,65535
 4004798:	423fffcc 	andi	r8,r8,65535
 400479c:	4519383a 	mul	r12,r8,r20
 40047a0:	4147383a 	mul	r3,r8,r5
 40047a4:	6d09383a 	mul	r4,r13,r20
 40047a8:	600cd43a 	srli	r6,r12,16
 40047ac:	2b5d383a 	mul	r14,r5,r13
 40047b0:	20c9883a 	add	r4,r4,r3
 40047b4:	310d883a 	add	r6,r6,r4
 40047b8:	30c0022e 	bgeu	r6,r3,40047c4 <__muldf3+0x378>
 40047bc:	00c00074 	movhi	r3,1
 40047c0:	70dd883a 	add	r14,r14,r3
 40047c4:	8826d43a 	srli	r19,r17,16
 40047c8:	8bffffcc 	andi	r15,r17,65535
 40047cc:	7d23383a 	mul	r17,r15,r20
 40047d0:	7949383a 	mul	r4,r15,r5
 40047d4:	9d29383a 	mul	r20,r19,r20
 40047d8:	8814d43a 	srli	r10,r17,16
 40047dc:	3012943a 	slli	r9,r6,16
 40047e0:	a129883a 	add	r20,r20,r4
 40047e4:	633fffcc 	andi	r12,r12,65535
 40047e8:	5515883a 	add	r10,r10,r20
 40047ec:	3006d43a 	srli	r3,r6,16
 40047f0:	4b13883a 	add	r9,r9,r12
 40047f4:	2ccb383a 	mul	r5,r5,r19
 40047f8:	5100022e 	bgeu	r10,r4,4004804 <__muldf3+0x3b8>
 40047fc:	01000074 	movhi	r4,1
 4004800:	290b883a 	add	r5,r5,r4
 4004804:	802ad43a 	srli	r21,r16,16
 4004808:	843fffcc 	andi	r16,r16,65535
 400480c:	440d383a 	mul	r6,r8,r16
 4004810:	4565383a 	mul	r18,r8,r21
 4004814:	8349383a 	mul	r4,r16,r13
 4004818:	500e943a 	slli	r7,r10,16
 400481c:	3010d43a 	srli	r8,r6,16
 4004820:	5028d43a 	srli	r20,r10,16
 4004824:	2489883a 	add	r4,r4,r18
 4004828:	8abfffcc 	andi	r10,r17,65535
 400482c:	3a95883a 	add	r10,r7,r10
 4004830:	4119883a 	add	r12,r8,r4
 4004834:	a169883a 	add	r20,r20,r5
 4004838:	1a87883a 	add	r3,r3,r10
 400483c:	6d5b383a 	mul	r13,r13,r21
 4004840:	6480022e 	bgeu	r12,r18,400484c <__muldf3+0x400>
 4004844:	01000074 	movhi	r4,1
 4004848:	691b883a 	add	r13,r13,r4
 400484c:	7c25383a 	mul	r18,r15,r16
 4004850:	7d4b383a 	mul	r5,r15,r21
 4004854:	84cf383a 	mul	r7,r16,r19
 4004858:	901ed43a 	srli	r15,r18,16
 400485c:	6008d43a 	srli	r4,r12,16
 4004860:	6010943a 	slli	r8,r12,16
 4004864:	394f883a 	add	r7,r7,r5
 4004868:	333fffcc 	andi	r12,r6,65535
 400486c:	79df883a 	add	r15,r15,r7
 4004870:	235b883a 	add	r13,r4,r13
 4004874:	9d63383a 	mul	r17,r19,r21
 4004878:	4309883a 	add	r4,r8,r12
 400487c:	7940022e 	bgeu	r15,r5,4004888 <__muldf3+0x43c>
 4004880:	01400074 	movhi	r5,1
 4004884:	8963883a 	add	r17,r17,r5
 4004888:	780a943a 	slli	r5,r15,16
 400488c:	91bfffcc 	andi	r6,r18,65535
 4004890:	70c7883a 	add	r3,r14,r3
 4004894:	298d883a 	add	r6,r5,r6
 4004898:	1a8f803a 	cmpltu	r7,r3,r10
 400489c:	350b883a 	add	r5,r6,r20
 40048a0:	20c7883a 	add	r3,r4,r3
 40048a4:	3955883a 	add	r10,r7,r5
 40048a8:	1909803a 	cmpltu	r4,r3,r4
 40048ac:	6a91883a 	add	r8,r13,r10
 40048b0:	780cd43a 	srli	r6,r15,16
 40048b4:	2219883a 	add	r12,r4,r8
 40048b8:	2d0b803a 	cmpltu	r5,r5,r20
 40048bc:	51cf803a 	cmpltu	r7,r10,r7
 40048c0:	29ceb03a 	or	r7,r5,r7
 40048c4:	4351803a 	cmpltu	r8,r8,r13
 40048c8:	610b803a 	cmpltu	r5,r12,r4
 40048cc:	4148b03a 	or	r4,r8,r5
 40048d0:	398f883a 	add	r7,r7,r6
 40048d4:	3909883a 	add	r4,r7,r4
 40048d8:	1810927a 	slli	r8,r3,9
 40048dc:	2449883a 	add	r4,r4,r17
 40048e0:	2008927a 	slli	r4,r4,9
 40048e4:	6022d5fa 	srli	r17,r12,23
 40048e8:	1806d5fa 	srli	r3,r3,23
 40048ec:	4252b03a 	or	r9,r8,r9
 40048f0:	600a927a 	slli	r5,r12,9
 40048f4:	4810c03a 	cmpne	r8,r9,zero
 40048f8:	2462b03a 	or	r17,r4,r17
 40048fc:	40c6b03a 	or	r3,r8,r3
 4004900:	8900402c 	andhi	r4,r17,256
 4004904:	1950b03a 	or	r8,r3,r5
 4004908:	20000726 	beq	r4,zero,4004928 <__muldf3+0x4dc>
 400490c:	4006d07a 	srli	r3,r8,1
 4004910:	880497fa 	slli	r2,r17,31
 4004914:	4200004c 	andi	r8,r8,1
 4004918:	8822d07a 	srli	r17,r17,1
 400491c:	1a10b03a 	or	r8,r3,r8
 4004920:	1210b03a 	or	r8,r2,r8
 4004924:	5805883a 	mov	r2,r11
 4004928:	1140ffc4 	addi	r5,r2,1023
 400492c:	0140440e 	bge	zero,r5,4004a40 <__muldf3+0x5f4>
 4004930:	40c001cc 	andi	r3,r8,7
 4004934:	18000726 	beq	r3,zero,4004954 <__muldf3+0x508>
 4004938:	40c003cc 	andi	r3,r8,15
 400493c:	01000104 	movi	r4,4
 4004940:	19000426 	beq	r3,r4,4004954 <__muldf3+0x508>
 4004944:	4107883a 	add	r3,r8,r4
 4004948:	1a11803a 	cmpltu	r8,r3,r8
 400494c:	8a23883a 	add	r17,r17,r8
 4004950:	1811883a 	mov	r8,r3
 4004954:	88c0402c 	andhi	r3,r17,256
 4004958:	18000426 	beq	r3,zero,400496c <__muldf3+0x520>
 400495c:	11410004 	addi	r5,r2,1024
 4004960:	00bfc034 	movhi	r2,65280
 4004964:	10bfffc4 	addi	r2,r2,-1
 4004968:	88a2703a 	and	r17,r17,r2
 400496c:	0081ff84 	movi	r2,2046
 4004970:	117f6416 	blt	r2,r5,4004704 <__alt_data_end+0xfc004704>
 4004974:	8828977a 	slli	r20,r17,29
 4004978:	4010d0fa 	srli	r8,r8,3
 400497c:	8822927a 	slli	r17,r17,9
 4004980:	2881ffcc 	andi	r2,r5,2047
 4004984:	a228b03a 	or	r20,r20,r8
 4004988:	880ad33a 	srli	r5,r17,12
 400498c:	b02b883a 	mov	r21,r22
 4004990:	003f0d06 	br	40045c8 <__alt_data_end+0xfc0045c8>
 4004994:	8080022c 	andhi	r2,r16,8
 4004998:	10000926 	beq	r2,zero,40049c0 <__muldf3+0x574>
 400499c:	8880022c 	andhi	r2,r17,8
 40049a0:	1000071e 	bne	r2,zero,40049c0 <__muldf3+0x574>
 40049a4:	00800434 	movhi	r2,16
 40049a8:	89400234 	orhi	r5,r17,8
 40049ac:	10bfffc4 	addi	r2,r2,-1
 40049b0:	b82b883a 	mov	r21,r23
 40049b4:	288a703a 	and	r5,r5,r2
 40049b8:	4029883a 	mov	r20,r8
 40049bc:	003f6806 	br	4004760 <__alt_data_end+0xfc004760>
 40049c0:	00800434 	movhi	r2,16
 40049c4:	81400234 	orhi	r5,r16,8
 40049c8:	10bfffc4 	addi	r2,r2,-1
 40049cc:	288a703a 	and	r5,r5,r2
 40049d0:	003f6306 	br	4004760 <__alt_data_end+0xfc004760>
 40049d4:	147ff604 	addi	r17,r2,-40
 40049d8:	3462983a 	sll	r17,r6,r17
 40049dc:	0011883a 	mov	r8,zero
 40049e0:	003f4406 	br	40046f4 <__alt_data_end+0xfc0046f4>
 40049e4:	3009883a 	mov	r4,r6
 40049e8:	d9800215 	stw	r6,8(sp)
 40049ec:	da400115 	stw	r9,4(sp)
 40049f0:	da800015 	stw	r10,0(sp)
 40049f4:	40058740 	call	4005874 <__clzsi2>
 40049f8:	10800804 	addi	r2,r2,32
 40049fc:	da800017 	ldw	r10,0(sp)
 4004a00:	da400117 	ldw	r9,4(sp)
 4004a04:	d9800217 	ldw	r6,8(sp)
 4004a08:	003f3006 	br	40046cc <__alt_data_end+0xfc0046cc>
 4004a0c:	143ff604 	addi	r16,r2,-40
 4004a10:	9c20983a 	sll	r16,r19,r16
 4004a14:	0029883a 	mov	r20,zero
 4004a18:	003f1606 	br	4004674 <__alt_data_end+0xfc004674>
 4004a1c:	d9800215 	stw	r6,8(sp)
 4004a20:	d9c00015 	stw	r7,0(sp)
 4004a24:	da400115 	stw	r9,4(sp)
 4004a28:	40058740 	call	4005874 <__clzsi2>
 4004a2c:	10800804 	addi	r2,r2,32
 4004a30:	da400117 	ldw	r9,4(sp)
 4004a34:	d9c00017 	ldw	r7,0(sp)
 4004a38:	d9800217 	ldw	r6,8(sp)
 4004a3c:	003f0306 	br	400464c <__alt_data_end+0xfc00464c>
 4004a40:	00c00044 	movi	r3,1
 4004a44:	1947c83a 	sub	r3,r3,r5
 4004a48:	00800e04 	movi	r2,56
 4004a4c:	10feda16 	blt	r2,r3,40045b8 <__alt_data_end+0xfc0045b8>
 4004a50:	008007c4 	movi	r2,31
 4004a54:	10c01b16 	blt	r2,r3,4004ac4 <__muldf3+0x678>
 4004a58:	00800804 	movi	r2,32
 4004a5c:	10c5c83a 	sub	r2,r2,r3
 4004a60:	888a983a 	sll	r5,r17,r2
 4004a64:	40c8d83a 	srl	r4,r8,r3
 4004a68:	4084983a 	sll	r2,r8,r2
 4004a6c:	88e2d83a 	srl	r17,r17,r3
 4004a70:	2906b03a 	or	r3,r5,r4
 4004a74:	1004c03a 	cmpne	r2,r2,zero
 4004a78:	1886b03a 	or	r3,r3,r2
 4004a7c:	188001cc 	andi	r2,r3,7
 4004a80:	10000726 	beq	r2,zero,4004aa0 <__muldf3+0x654>
 4004a84:	188003cc 	andi	r2,r3,15
 4004a88:	01000104 	movi	r4,4
 4004a8c:	11000426 	beq	r2,r4,4004aa0 <__muldf3+0x654>
 4004a90:	1805883a 	mov	r2,r3
 4004a94:	10c00104 	addi	r3,r2,4
 4004a98:	1885803a 	cmpltu	r2,r3,r2
 4004a9c:	88a3883a 	add	r17,r17,r2
 4004aa0:	8880202c 	andhi	r2,r17,128
 4004aa4:	10001c26 	beq	r2,zero,4004b18 <__muldf3+0x6cc>
 4004aa8:	b02b883a 	mov	r21,r22
 4004aac:	00800044 	movi	r2,1
 4004ab0:	000b883a 	mov	r5,zero
 4004ab4:	0029883a 	mov	r20,zero
 4004ab8:	003ec306 	br	40045c8 <__alt_data_end+0xfc0045c8>
 4004abc:	5805883a 	mov	r2,r11
 4004ac0:	003f9906 	br	4004928 <__alt_data_end+0xfc004928>
 4004ac4:	00bff844 	movi	r2,-31
 4004ac8:	1145c83a 	sub	r2,r2,r5
 4004acc:	8888d83a 	srl	r4,r17,r2
 4004ad0:	00800804 	movi	r2,32
 4004ad4:	18801a26 	beq	r3,r2,4004b40 <__muldf3+0x6f4>
 4004ad8:	00801004 	movi	r2,64
 4004adc:	10c5c83a 	sub	r2,r2,r3
 4004ae0:	8884983a 	sll	r2,r17,r2
 4004ae4:	1204b03a 	or	r2,r2,r8
 4004ae8:	1004c03a 	cmpne	r2,r2,zero
 4004aec:	2084b03a 	or	r2,r4,r2
 4004af0:	144001cc 	andi	r17,r2,7
 4004af4:	88000d1e 	bne	r17,zero,4004b2c <__muldf3+0x6e0>
 4004af8:	000b883a 	mov	r5,zero
 4004afc:	1028d0fa 	srli	r20,r2,3
 4004b00:	b02b883a 	mov	r21,r22
 4004b04:	0005883a 	mov	r2,zero
 4004b08:	a468b03a 	or	r20,r20,r17
 4004b0c:	003eae06 	br	40045c8 <__alt_data_end+0xfc0045c8>
 4004b10:	1007883a 	mov	r3,r2
 4004b14:	0023883a 	mov	r17,zero
 4004b18:	880a927a 	slli	r5,r17,9
 4004b1c:	1805883a 	mov	r2,r3
 4004b20:	8822977a 	slli	r17,r17,29
 4004b24:	280ad33a 	srli	r5,r5,12
 4004b28:	003ff406 	br	4004afc <__alt_data_end+0xfc004afc>
 4004b2c:	10c003cc 	andi	r3,r2,15
 4004b30:	01000104 	movi	r4,4
 4004b34:	193ff626 	beq	r3,r4,4004b10 <__alt_data_end+0xfc004b10>
 4004b38:	0023883a 	mov	r17,zero
 4004b3c:	003fd506 	br	4004a94 <__alt_data_end+0xfc004a94>
 4004b40:	0005883a 	mov	r2,zero
 4004b44:	003fe706 	br	4004ae4 <__alt_data_end+0xfc004ae4>
 4004b48:	00800434 	movhi	r2,16
 4004b4c:	89400234 	orhi	r5,r17,8
 4004b50:	10bfffc4 	addi	r2,r2,-1
 4004b54:	b02b883a 	mov	r21,r22
 4004b58:	288a703a 	and	r5,r5,r2
 4004b5c:	4029883a 	mov	r20,r8
 4004b60:	003eff06 	br	4004760 <__alt_data_end+0xfc004760>

04004b64 <__subdf3>:
 4004b64:	02000434 	movhi	r8,16
 4004b68:	423fffc4 	addi	r8,r8,-1
 4004b6c:	defffb04 	addi	sp,sp,-20
 4004b70:	2a14703a 	and	r10,r5,r8
 4004b74:	3812d53a 	srli	r9,r7,20
 4004b78:	3a10703a 	and	r8,r7,r8
 4004b7c:	2006d77a 	srli	r3,r4,29
 4004b80:	3004d77a 	srli	r2,r6,29
 4004b84:	dc000015 	stw	r16,0(sp)
 4004b88:	501490fa 	slli	r10,r10,3
 4004b8c:	2820d53a 	srli	r16,r5,20
 4004b90:	401090fa 	slli	r8,r8,3
 4004b94:	dc800215 	stw	r18,8(sp)
 4004b98:	dc400115 	stw	r17,4(sp)
 4004b9c:	dfc00415 	stw	ra,16(sp)
 4004ba0:	202290fa 	slli	r17,r4,3
 4004ba4:	dcc00315 	stw	r19,12(sp)
 4004ba8:	4a41ffcc 	andi	r9,r9,2047
 4004bac:	0101ffc4 	movi	r4,2047
 4004bb0:	2824d7fa 	srli	r18,r5,31
 4004bb4:	8401ffcc 	andi	r16,r16,2047
 4004bb8:	50c6b03a 	or	r3,r10,r3
 4004bbc:	380ed7fa 	srli	r7,r7,31
 4004bc0:	408ab03a 	or	r5,r8,r2
 4004bc4:	300c90fa 	slli	r6,r6,3
 4004bc8:	49009626 	beq	r9,r4,4004e24 <__subdf3+0x2c0>
 4004bcc:	39c0005c 	xori	r7,r7,1
 4004bd0:	8245c83a 	sub	r2,r16,r9
 4004bd4:	3c807426 	beq	r7,r18,4004da8 <__subdf3+0x244>
 4004bd8:	0080af0e 	bge	zero,r2,4004e98 <__subdf3+0x334>
 4004bdc:	48002a1e 	bne	r9,zero,4004c88 <__subdf3+0x124>
 4004be0:	2988b03a 	or	r4,r5,r6
 4004be4:	20009a1e 	bne	r4,zero,4004e50 <__subdf3+0x2ec>
 4004be8:	888001cc 	andi	r2,r17,7
 4004bec:	10000726 	beq	r2,zero,4004c0c <__subdf3+0xa8>
 4004bf0:	888003cc 	andi	r2,r17,15
 4004bf4:	01000104 	movi	r4,4
 4004bf8:	11000426 	beq	r2,r4,4004c0c <__subdf3+0xa8>
 4004bfc:	890b883a 	add	r5,r17,r4
 4004c00:	2c63803a 	cmpltu	r17,r5,r17
 4004c04:	1c47883a 	add	r3,r3,r17
 4004c08:	2823883a 	mov	r17,r5
 4004c0c:	1880202c 	andhi	r2,r3,128
 4004c10:	10005926 	beq	r2,zero,4004d78 <__subdf3+0x214>
 4004c14:	84000044 	addi	r16,r16,1
 4004c18:	0081ffc4 	movi	r2,2047
 4004c1c:	8080be26 	beq	r16,r2,4004f18 <__subdf3+0x3b4>
 4004c20:	017fe034 	movhi	r5,65408
 4004c24:	297fffc4 	addi	r5,r5,-1
 4004c28:	1946703a 	and	r3,r3,r5
 4004c2c:	1804977a 	slli	r2,r3,29
 4004c30:	1806927a 	slli	r3,r3,9
 4004c34:	8822d0fa 	srli	r17,r17,3
 4004c38:	8401ffcc 	andi	r16,r16,2047
 4004c3c:	180ad33a 	srli	r5,r3,12
 4004c40:	9100004c 	andi	r4,r18,1
 4004c44:	1444b03a 	or	r2,r2,r17
 4004c48:	80c1ffcc 	andi	r3,r16,2047
 4004c4c:	1820953a 	slli	r16,r3,20
 4004c50:	20c03fcc 	andi	r3,r4,255
 4004c54:	180897fa 	slli	r4,r3,31
 4004c58:	00c00434 	movhi	r3,16
 4004c5c:	18ffffc4 	addi	r3,r3,-1
 4004c60:	28c6703a 	and	r3,r5,r3
 4004c64:	1c06b03a 	or	r3,r3,r16
 4004c68:	1906b03a 	or	r3,r3,r4
 4004c6c:	dfc00417 	ldw	ra,16(sp)
 4004c70:	dcc00317 	ldw	r19,12(sp)
 4004c74:	dc800217 	ldw	r18,8(sp)
 4004c78:	dc400117 	ldw	r17,4(sp)
 4004c7c:	dc000017 	ldw	r16,0(sp)
 4004c80:	dec00504 	addi	sp,sp,20
 4004c84:	f800283a 	ret
 4004c88:	0101ffc4 	movi	r4,2047
 4004c8c:	813fd626 	beq	r16,r4,4004be8 <__alt_data_end+0xfc004be8>
 4004c90:	29402034 	orhi	r5,r5,128
 4004c94:	01000e04 	movi	r4,56
 4004c98:	2080a316 	blt	r4,r2,4004f28 <__subdf3+0x3c4>
 4004c9c:	010007c4 	movi	r4,31
 4004ca0:	2080c616 	blt	r4,r2,4004fbc <__subdf3+0x458>
 4004ca4:	01000804 	movi	r4,32
 4004ca8:	2089c83a 	sub	r4,r4,r2
 4004cac:	2910983a 	sll	r8,r5,r4
 4004cb0:	308ed83a 	srl	r7,r6,r2
 4004cb4:	3108983a 	sll	r4,r6,r4
 4004cb8:	2884d83a 	srl	r2,r5,r2
 4004cbc:	41ccb03a 	or	r6,r8,r7
 4004cc0:	2008c03a 	cmpne	r4,r4,zero
 4004cc4:	310cb03a 	or	r6,r6,r4
 4004cc8:	898dc83a 	sub	r6,r17,r6
 4004ccc:	89a3803a 	cmpltu	r17,r17,r6
 4004cd0:	1887c83a 	sub	r3,r3,r2
 4004cd4:	1c47c83a 	sub	r3,r3,r17
 4004cd8:	3023883a 	mov	r17,r6
 4004cdc:	1880202c 	andhi	r2,r3,128
 4004ce0:	10002326 	beq	r2,zero,4004d70 <__subdf3+0x20c>
 4004ce4:	04c02034 	movhi	r19,128
 4004ce8:	9cffffc4 	addi	r19,r19,-1
 4004cec:	1ce6703a 	and	r19,r3,r19
 4004cf0:	98007a26 	beq	r19,zero,4004edc <__subdf3+0x378>
 4004cf4:	9809883a 	mov	r4,r19
 4004cf8:	40058740 	call	4005874 <__clzsi2>
 4004cfc:	113ffe04 	addi	r4,r2,-8
 4004d00:	00c007c4 	movi	r3,31
 4004d04:	19007b16 	blt	r3,r4,4004ef4 <__subdf3+0x390>
 4004d08:	00800804 	movi	r2,32
 4004d0c:	1105c83a 	sub	r2,r2,r4
 4004d10:	8884d83a 	srl	r2,r17,r2
 4004d14:	9906983a 	sll	r3,r19,r4
 4004d18:	8922983a 	sll	r17,r17,r4
 4004d1c:	10c4b03a 	or	r2,r2,r3
 4004d20:	24007816 	blt	r4,r16,4004f04 <__subdf3+0x3a0>
 4004d24:	2421c83a 	sub	r16,r4,r16
 4004d28:	80c00044 	addi	r3,r16,1
 4004d2c:	010007c4 	movi	r4,31
 4004d30:	20c09516 	blt	r4,r3,4004f88 <__subdf3+0x424>
 4004d34:	01400804 	movi	r5,32
 4004d38:	28cbc83a 	sub	r5,r5,r3
 4004d3c:	88c8d83a 	srl	r4,r17,r3
 4004d40:	8962983a 	sll	r17,r17,r5
 4004d44:	114a983a 	sll	r5,r2,r5
 4004d48:	10c6d83a 	srl	r3,r2,r3
 4004d4c:	8804c03a 	cmpne	r2,r17,zero
 4004d50:	290ab03a 	or	r5,r5,r4
 4004d54:	28a2b03a 	or	r17,r5,r2
 4004d58:	0021883a 	mov	r16,zero
 4004d5c:	003fa206 	br	4004be8 <__alt_data_end+0xfc004be8>
 4004d60:	2090b03a 	or	r8,r4,r2
 4004d64:	40018e26 	beq	r8,zero,40053a0 <__subdf3+0x83c>
 4004d68:	1007883a 	mov	r3,r2
 4004d6c:	2023883a 	mov	r17,r4
 4004d70:	888001cc 	andi	r2,r17,7
 4004d74:	103f9e1e 	bne	r2,zero,4004bf0 <__alt_data_end+0xfc004bf0>
 4004d78:	1804977a 	slli	r2,r3,29
 4004d7c:	8822d0fa 	srli	r17,r17,3
 4004d80:	1810d0fa 	srli	r8,r3,3
 4004d84:	9100004c 	andi	r4,r18,1
 4004d88:	1444b03a 	or	r2,r2,r17
 4004d8c:	00c1ffc4 	movi	r3,2047
 4004d90:	80c02826 	beq	r16,r3,4004e34 <__subdf3+0x2d0>
 4004d94:	01400434 	movhi	r5,16
 4004d98:	297fffc4 	addi	r5,r5,-1
 4004d9c:	80e0703a 	and	r16,r16,r3
 4004da0:	414a703a 	and	r5,r8,r5
 4004da4:	003fa806 	br	4004c48 <__alt_data_end+0xfc004c48>
 4004da8:	0080630e 	bge	zero,r2,4004f38 <__subdf3+0x3d4>
 4004dac:	48003026 	beq	r9,zero,4004e70 <__subdf3+0x30c>
 4004db0:	0101ffc4 	movi	r4,2047
 4004db4:	813f8c26 	beq	r16,r4,4004be8 <__alt_data_end+0xfc004be8>
 4004db8:	29402034 	orhi	r5,r5,128
 4004dbc:	01000e04 	movi	r4,56
 4004dc0:	2080a90e 	bge	r4,r2,4005068 <__subdf3+0x504>
 4004dc4:	298cb03a 	or	r6,r5,r6
 4004dc8:	3012c03a 	cmpne	r9,r6,zero
 4004dcc:	0005883a 	mov	r2,zero
 4004dd0:	4c53883a 	add	r9,r9,r17
 4004dd4:	4c63803a 	cmpltu	r17,r9,r17
 4004dd8:	10c7883a 	add	r3,r2,r3
 4004ddc:	88c7883a 	add	r3,r17,r3
 4004de0:	4823883a 	mov	r17,r9
 4004de4:	1880202c 	andhi	r2,r3,128
 4004de8:	1000d026 	beq	r2,zero,400512c <__subdf3+0x5c8>
 4004dec:	84000044 	addi	r16,r16,1
 4004df0:	0081ffc4 	movi	r2,2047
 4004df4:	8080fe26 	beq	r16,r2,40051f0 <__subdf3+0x68c>
 4004df8:	00bfe034 	movhi	r2,65408
 4004dfc:	10bfffc4 	addi	r2,r2,-1
 4004e00:	1886703a 	and	r3,r3,r2
 4004e04:	880ad07a 	srli	r5,r17,1
 4004e08:	180497fa 	slli	r2,r3,31
 4004e0c:	8900004c 	andi	r4,r17,1
 4004e10:	2922b03a 	or	r17,r5,r4
 4004e14:	1806d07a 	srli	r3,r3,1
 4004e18:	1462b03a 	or	r17,r2,r17
 4004e1c:	3825883a 	mov	r18,r7
 4004e20:	003f7106 	br	4004be8 <__alt_data_end+0xfc004be8>
 4004e24:	2984b03a 	or	r2,r5,r6
 4004e28:	103f6826 	beq	r2,zero,4004bcc <__alt_data_end+0xfc004bcc>
 4004e2c:	39c03fcc 	andi	r7,r7,255
 4004e30:	003f6706 	br	4004bd0 <__alt_data_end+0xfc004bd0>
 4004e34:	4086b03a 	or	r3,r8,r2
 4004e38:	18015226 	beq	r3,zero,4005384 <__subdf3+0x820>
 4004e3c:	00c00434 	movhi	r3,16
 4004e40:	41400234 	orhi	r5,r8,8
 4004e44:	18ffffc4 	addi	r3,r3,-1
 4004e48:	28ca703a 	and	r5,r5,r3
 4004e4c:	003f7e06 	br	4004c48 <__alt_data_end+0xfc004c48>
 4004e50:	10bfffc4 	addi	r2,r2,-1
 4004e54:	1000491e 	bne	r2,zero,4004f7c <__subdf3+0x418>
 4004e58:	898fc83a 	sub	r7,r17,r6
 4004e5c:	89e3803a 	cmpltu	r17,r17,r7
 4004e60:	1947c83a 	sub	r3,r3,r5
 4004e64:	1c47c83a 	sub	r3,r3,r17
 4004e68:	3823883a 	mov	r17,r7
 4004e6c:	003f9b06 	br	4004cdc <__alt_data_end+0xfc004cdc>
 4004e70:	2988b03a 	or	r4,r5,r6
 4004e74:	203f5c26 	beq	r4,zero,4004be8 <__alt_data_end+0xfc004be8>
 4004e78:	10bfffc4 	addi	r2,r2,-1
 4004e7c:	1000931e 	bne	r2,zero,40050cc <__subdf3+0x568>
 4004e80:	898d883a 	add	r6,r17,r6
 4004e84:	3463803a 	cmpltu	r17,r6,r17
 4004e88:	1947883a 	add	r3,r3,r5
 4004e8c:	88c7883a 	add	r3,r17,r3
 4004e90:	3023883a 	mov	r17,r6
 4004e94:	003fd306 	br	4004de4 <__alt_data_end+0xfc004de4>
 4004e98:	1000541e 	bne	r2,zero,4004fec <__subdf3+0x488>
 4004e9c:	80800044 	addi	r2,r16,1
 4004ea0:	1081ffcc 	andi	r2,r2,2047
 4004ea4:	01000044 	movi	r4,1
 4004ea8:	2080a20e 	bge	r4,r2,4005134 <__subdf3+0x5d0>
 4004eac:	8989c83a 	sub	r4,r17,r6
 4004eb0:	8905803a 	cmpltu	r2,r17,r4
 4004eb4:	1967c83a 	sub	r19,r3,r5
 4004eb8:	98a7c83a 	sub	r19,r19,r2
 4004ebc:	9880202c 	andhi	r2,r19,128
 4004ec0:	10006326 	beq	r2,zero,4005050 <__subdf3+0x4ec>
 4004ec4:	3463c83a 	sub	r17,r6,r17
 4004ec8:	28c7c83a 	sub	r3,r5,r3
 4004ecc:	344d803a 	cmpltu	r6,r6,r17
 4004ed0:	19a7c83a 	sub	r19,r3,r6
 4004ed4:	3825883a 	mov	r18,r7
 4004ed8:	983f861e 	bne	r19,zero,4004cf4 <__alt_data_end+0xfc004cf4>
 4004edc:	8809883a 	mov	r4,r17
 4004ee0:	40058740 	call	4005874 <__clzsi2>
 4004ee4:	10800804 	addi	r2,r2,32
 4004ee8:	113ffe04 	addi	r4,r2,-8
 4004eec:	00c007c4 	movi	r3,31
 4004ef0:	193f850e 	bge	r3,r4,4004d08 <__alt_data_end+0xfc004d08>
 4004ef4:	10bff604 	addi	r2,r2,-40
 4004ef8:	8884983a 	sll	r2,r17,r2
 4004efc:	0023883a 	mov	r17,zero
 4004f00:	243f880e 	bge	r4,r16,4004d24 <__alt_data_end+0xfc004d24>
 4004f04:	00ffe034 	movhi	r3,65408
 4004f08:	18ffffc4 	addi	r3,r3,-1
 4004f0c:	8121c83a 	sub	r16,r16,r4
 4004f10:	10c6703a 	and	r3,r2,r3
 4004f14:	003f3406 	br	4004be8 <__alt_data_end+0xfc004be8>
 4004f18:	9100004c 	andi	r4,r18,1
 4004f1c:	000b883a 	mov	r5,zero
 4004f20:	0005883a 	mov	r2,zero
 4004f24:	003f4806 	br	4004c48 <__alt_data_end+0xfc004c48>
 4004f28:	298cb03a 	or	r6,r5,r6
 4004f2c:	300cc03a 	cmpne	r6,r6,zero
 4004f30:	0005883a 	mov	r2,zero
 4004f34:	003f6406 	br	4004cc8 <__alt_data_end+0xfc004cc8>
 4004f38:	10009a1e 	bne	r2,zero,40051a4 <__subdf3+0x640>
 4004f3c:	82400044 	addi	r9,r16,1
 4004f40:	4881ffcc 	andi	r2,r9,2047
 4004f44:	02800044 	movi	r10,1
 4004f48:	5080670e 	bge	r10,r2,40050e8 <__subdf3+0x584>
 4004f4c:	0081ffc4 	movi	r2,2047
 4004f50:	4880af26 	beq	r9,r2,4005210 <__subdf3+0x6ac>
 4004f54:	898d883a 	add	r6,r17,r6
 4004f58:	1945883a 	add	r2,r3,r5
 4004f5c:	3447803a 	cmpltu	r3,r6,r17
 4004f60:	1887883a 	add	r3,r3,r2
 4004f64:	182297fa 	slli	r17,r3,31
 4004f68:	300cd07a 	srli	r6,r6,1
 4004f6c:	1806d07a 	srli	r3,r3,1
 4004f70:	4821883a 	mov	r16,r9
 4004f74:	89a2b03a 	or	r17,r17,r6
 4004f78:	003f1b06 	br	4004be8 <__alt_data_end+0xfc004be8>
 4004f7c:	0101ffc4 	movi	r4,2047
 4004f80:	813f441e 	bne	r16,r4,4004c94 <__alt_data_end+0xfc004c94>
 4004f84:	003f1806 	br	4004be8 <__alt_data_end+0xfc004be8>
 4004f88:	843ff844 	addi	r16,r16,-31
 4004f8c:	01400804 	movi	r5,32
 4004f90:	1408d83a 	srl	r4,r2,r16
 4004f94:	19405026 	beq	r3,r5,40050d8 <__subdf3+0x574>
 4004f98:	01401004 	movi	r5,64
 4004f9c:	28c7c83a 	sub	r3,r5,r3
 4004fa0:	10c4983a 	sll	r2,r2,r3
 4004fa4:	88a2b03a 	or	r17,r17,r2
 4004fa8:	8822c03a 	cmpne	r17,r17,zero
 4004fac:	2462b03a 	or	r17,r4,r17
 4004fb0:	0007883a 	mov	r3,zero
 4004fb4:	0021883a 	mov	r16,zero
 4004fb8:	003f6d06 	br	4004d70 <__alt_data_end+0xfc004d70>
 4004fbc:	11fff804 	addi	r7,r2,-32
 4004fc0:	01000804 	movi	r4,32
 4004fc4:	29ced83a 	srl	r7,r5,r7
 4004fc8:	11004526 	beq	r2,r4,40050e0 <__subdf3+0x57c>
 4004fcc:	01001004 	movi	r4,64
 4004fd0:	2089c83a 	sub	r4,r4,r2
 4004fd4:	2904983a 	sll	r2,r5,r4
 4004fd8:	118cb03a 	or	r6,r2,r6
 4004fdc:	300cc03a 	cmpne	r6,r6,zero
 4004fe0:	398cb03a 	or	r6,r7,r6
 4004fe4:	0005883a 	mov	r2,zero
 4004fe8:	003f3706 	br	4004cc8 <__alt_data_end+0xfc004cc8>
 4004fec:	80002a26 	beq	r16,zero,4005098 <__subdf3+0x534>
 4004ff0:	0101ffc4 	movi	r4,2047
 4004ff4:	49006626 	beq	r9,r4,4005190 <__subdf3+0x62c>
 4004ff8:	0085c83a 	sub	r2,zero,r2
 4004ffc:	18c02034 	orhi	r3,r3,128
 4005000:	01000e04 	movi	r4,56
 4005004:	20807e16 	blt	r4,r2,4005200 <__subdf3+0x69c>
 4005008:	010007c4 	movi	r4,31
 400500c:	2080e716 	blt	r4,r2,40053ac <__subdf3+0x848>
 4005010:	01000804 	movi	r4,32
 4005014:	2089c83a 	sub	r4,r4,r2
 4005018:	1914983a 	sll	r10,r3,r4
 400501c:	8890d83a 	srl	r8,r17,r2
 4005020:	8908983a 	sll	r4,r17,r4
 4005024:	1884d83a 	srl	r2,r3,r2
 4005028:	5222b03a 	or	r17,r10,r8
 400502c:	2006c03a 	cmpne	r3,r4,zero
 4005030:	88e2b03a 	or	r17,r17,r3
 4005034:	3463c83a 	sub	r17,r6,r17
 4005038:	2885c83a 	sub	r2,r5,r2
 400503c:	344d803a 	cmpltu	r6,r6,r17
 4005040:	1187c83a 	sub	r3,r2,r6
 4005044:	4821883a 	mov	r16,r9
 4005048:	3825883a 	mov	r18,r7
 400504c:	003f2306 	br	4004cdc <__alt_data_end+0xfc004cdc>
 4005050:	24d0b03a 	or	r8,r4,r19
 4005054:	40001b1e 	bne	r8,zero,40050c4 <__subdf3+0x560>
 4005058:	0005883a 	mov	r2,zero
 400505c:	0009883a 	mov	r4,zero
 4005060:	0021883a 	mov	r16,zero
 4005064:	003f4906 	br	4004d8c <__alt_data_end+0xfc004d8c>
 4005068:	010007c4 	movi	r4,31
 400506c:	20803a16 	blt	r4,r2,4005158 <__subdf3+0x5f4>
 4005070:	01000804 	movi	r4,32
 4005074:	2089c83a 	sub	r4,r4,r2
 4005078:	2912983a 	sll	r9,r5,r4
 400507c:	3090d83a 	srl	r8,r6,r2
 4005080:	3108983a 	sll	r4,r6,r4
 4005084:	2884d83a 	srl	r2,r5,r2
 4005088:	4a12b03a 	or	r9,r9,r8
 400508c:	2008c03a 	cmpne	r4,r4,zero
 4005090:	4912b03a 	or	r9,r9,r4
 4005094:	003f4e06 	br	4004dd0 <__alt_data_end+0xfc004dd0>
 4005098:	1c48b03a 	or	r4,r3,r17
 400509c:	20003c26 	beq	r4,zero,4005190 <__subdf3+0x62c>
 40050a0:	0084303a 	nor	r2,zero,r2
 40050a4:	1000381e 	bne	r2,zero,4005188 <__subdf3+0x624>
 40050a8:	3463c83a 	sub	r17,r6,r17
 40050ac:	28c5c83a 	sub	r2,r5,r3
 40050b0:	344d803a 	cmpltu	r6,r6,r17
 40050b4:	1187c83a 	sub	r3,r2,r6
 40050b8:	4821883a 	mov	r16,r9
 40050bc:	3825883a 	mov	r18,r7
 40050c0:	003f0606 	br	4004cdc <__alt_data_end+0xfc004cdc>
 40050c4:	2023883a 	mov	r17,r4
 40050c8:	003f0906 	br	4004cf0 <__alt_data_end+0xfc004cf0>
 40050cc:	0101ffc4 	movi	r4,2047
 40050d0:	813f3a1e 	bne	r16,r4,4004dbc <__alt_data_end+0xfc004dbc>
 40050d4:	003ec406 	br	4004be8 <__alt_data_end+0xfc004be8>
 40050d8:	0005883a 	mov	r2,zero
 40050dc:	003fb106 	br	4004fa4 <__alt_data_end+0xfc004fa4>
 40050e0:	0005883a 	mov	r2,zero
 40050e4:	003fbc06 	br	4004fd8 <__alt_data_end+0xfc004fd8>
 40050e8:	1c44b03a 	or	r2,r3,r17
 40050ec:	80008e1e 	bne	r16,zero,4005328 <__subdf3+0x7c4>
 40050f0:	1000c826 	beq	r2,zero,4005414 <__subdf3+0x8b0>
 40050f4:	2984b03a 	or	r2,r5,r6
 40050f8:	103ebb26 	beq	r2,zero,4004be8 <__alt_data_end+0xfc004be8>
 40050fc:	8989883a 	add	r4,r17,r6
 4005100:	1945883a 	add	r2,r3,r5
 4005104:	2447803a 	cmpltu	r3,r4,r17
 4005108:	1887883a 	add	r3,r3,r2
 400510c:	1880202c 	andhi	r2,r3,128
 4005110:	2023883a 	mov	r17,r4
 4005114:	103f1626 	beq	r2,zero,4004d70 <__alt_data_end+0xfc004d70>
 4005118:	00bfe034 	movhi	r2,65408
 400511c:	10bfffc4 	addi	r2,r2,-1
 4005120:	5021883a 	mov	r16,r10
 4005124:	1886703a 	and	r3,r3,r2
 4005128:	003eaf06 	br	4004be8 <__alt_data_end+0xfc004be8>
 400512c:	3825883a 	mov	r18,r7
 4005130:	003f0f06 	br	4004d70 <__alt_data_end+0xfc004d70>
 4005134:	1c44b03a 	or	r2,r3,r17
 4005138:	8000251e 	bne	r16,zero,40051d0 <__subdf3+0x66c>
 400513c:	1000661e 	bne	r2,zero,40052d8 <__subdf3+0x774>
 4005140:	2990b03a 	or	r8,r5,r6
 4005144:	40009626 	beq	r8,zero,40053a0 <__subdf3+0x83c>
 4005148:	2807883a 	mov	r3,r5
 400514c:	3023883a 	mov	r17,r6
 4005150:	3825883a 	mov	r18,r7
 4005154:	003ea406 	br	4004be8 <__alt_data_end+0xfc004be8>
 4005158:	127ff804 	addi	r9,r2,-32
 400515c:	01000804 	movi	r4,32
 4005160:	2a52d83a 	srl	r9,r5,r9
 4005164:	11008c26 	beq	r2,r4,4005398 <__subdf3+0x834>
 4005168:	01001004 	movi	r4,64
 400516c:	2085c83a 	sub	r2,r4,r2
 4005170:	2884983a 	sll	r2,r5,r2
 4005174:	118cb03a 	or	r6,r2,r6
 4005178:	300cc03a 	cmpne	r6,r6,zero
 400517c:	4992b03a 	or	r9,r9,r6
 4005180:	0005883a 	mov	r2,zero
 4005184:	003f1206 	br	4004dd0 <__alt_data_end+0xfc004dd0>
 4005188:	0101ffc4 	movi	r4,2047
 400518c:	493f9c1e 	bne	r9,r4,4005000 <__alt_data_end+0xfc005000>
 4005190:	2807883a 	mov	r3,r5
 4005194:	3023883a 	mov	r17,r6
 4005198:	4821883a 	mov	r16,r9
 400519c:	3825883a 	mov	r18,r7
 40051a0:	003e9106 	br	4004be8 <__alt_data_end+0xfc004be8>
 40051a4:	80001f1e 	bne	r16,zero,4005224 <__subdf3+0x6c0>
 40051a8:	1c48b03a 	or	r4,r3,r17
 40051ac:	20005a26 	beq	r4,zero,4005318 <__subdf3+0x7b4>
 40051b0:	0084303a 	nor	r2,zero,r2
 40051b4:	1000561e 	bne	r2,zero,4005310 <__subdf3+0x7ac>
 40051b8:	89a3883a 	add	r17,r17,r6
 40051bc:	1945883a 	add	r2,r3,r5
 40051c0:	898d803a 	cmpltu	r6,r17,r6
 40051c4:	3087883a 	add	r3,r6,r2
 40051c8:	4821883a 	mov	r16,r9
 40051cc:	003f0506 	br	4004de4 <__alt_data_end+0xfc004de4>
 40051d0:	10002b1e 	bne	r2,zero,4005280 <__subdf3+0x71c>
 40051d4:	2984b03a 	or	r2,r5,r6
 40051d8:	10008026 	beq	r2,zero,40053dc <__subdf3+0x878>
 40051dc:	2807883a 	mov	r3,r5
 40051e0:	3023883a 	mov	r17,r6
 40051e4:	3825883a 	mov	r18,r7
 40051e8:	0401ffc4 	movi	r16,2047
 40051ec:	003e7e06 	br	4004be8 <__alt_data_end+0xfc004be8>
 40051f0:	3809883a 	mov	r4,r7
 40051f4:	0011883a 	mov	r8,zero
 40051f8:	0005883a 	mov	r2,zero
 40051fc:	003ee306 	br	4004d8c <__alt_data_end+0xfc004d8c>
 4005200:	1c62b03a 	or	r17,r3,r17
 4005204:	8822c03a 	cmpne	r17,r17,zero
 4005208:	0005883a 	mov	r2,zero
 400520c:	003f8906 	br	4005034 <__alt_data_end+0xfc005034>
 4005210:	3809883a 	mov	r4,r7
 4005214:	4821883a 	mov	r16,r9
 4005218:	0011883a 	mov	r8,zero
 400521c:	0005883a 	mov	r2,zero
 4005220:	003eda06 	br	4004d8c <__alt_data_end+0xfc004d8c>
 4005224:	0101ffc4 	movi	r4,2047
 4005228:	49003b26 	beq	r9,r4,4005318 <__subdf3+0x7b4>
 400522c:	0085c83a 	sub	r2,zero,r2
 4005230:	18c02034 	orhi	r3,r3,128
 4005234:	01000e04 	movi	r4,56
 4005238:	20806e16 	blt	r4,r2,40053f4 <__subdf3+0x890>
 400523c:	010007c4 	movi	r4,31
 4005240:	20807716 	blt	r4,r2,4005420 <__subdf3+0x8bc>
 4005244:	01000804 	movi	r4,32
 4005248:	2089c83a 	sub	r4,r4,r2
 400524c:	1914983a 	sll	r10,r3,r4
 4005250:	8890d83a 	srl	r8,r17,r2
 4005254:	8908983a 	sll	r4,r17,r4
 4005258:	1884d83a 	srl	r2,r3,r2
 400525c:	5222b03a 	or	r17,r10,r8
 4005260:	2006c03a 	cmpne	r3,r4,zero
 4005264:	88e2b03a 	or	r17,r17,r3
 4005268:	89a3883a 	add	r17,r17,r6
 400526c:	1145883a 	add	r2,r2,r5
 4005270:	898d803a 	cmpltu	r6,r17,r6
 4005274:	3087883a 	add	r3,r6,r2
 4005278:	4821883a 	mov	r16,r9
 400527c:	003ed906 	br	4004de4 <__alt_data_end+0xfc004de4>
 4005280:	2984b03a 	or	r2,r5,r6
