Archive member included to satisfy reference by file (symbol)

../tecnica2_bsp//newlib/nios2-elf/lib\libm.a(lib_a-w_sqrt.o)
                              obj/default/backpropagation_best2019_superdef_ver2_alumnos-1.o (sqrt)
../tecnica2_bsp//newlib/nios2-elf/lib\libm.a(lib_a-e_sqrt.o)
                              ../tecnica2_bsp//newlib/nios2-elf/lib\libm.a(lib_a-w_sqrt.o) (__ieee754_sqrt)
../tecnica2_bsp//newlib/nios2-elf/lib\libm.a(lib_a-s_fpclassify.o)
                              ../tecnica2_bsp//newlib/nios2-elf/lib\libm.a(lib_a-w_sqrt.o) (__fpclassifyd)
../tecnica2_bsp//newlib/nios2-elf/lib\libm.a(lib_a-s_lib_ver.o)
                              ../tecnica2_bsp//newlib/nios2-elf/lib\libm.a(lib_a-w_sqrt.o) (__fdlib_version)
../tecnica2_bsp//newlib/nios2-elf/lib\libm.a(lib_a-s_matherr.o)
                              ../tecnica2_bsp//newlib/nios2-elf/lib\libm.a(lib_a-w_sqrt.o) (matherr)
c:/intelfpga/17.1/nios2eds/bin/gnu/h-x86_64-mingw32/bin/../lib/gcc/nios2-elf/5.3.0\libgcc.a(adddf3.o)
                              ../tecnica2_bsp//newlib/nios2-elf/lib\libm.a(lib_a-e_sqrt.o) (__adddf3)
c:/intelfpga/17.1/nios2eds/bin/gnu/h-x86_64-mingw32/bin/../lib/gcc/nios2-elf/5.3.0\libgcc.a(divdf3.o)
                              obj/default/backpropagation_best2019_superdef_ver2_alumnos-1.o (__divdf3)
c:/intelfpga/17.1/nios2eds/bin/gnu/h-x86_64-mingw32/bin/../lib/gcc/nios2-elf/5.3.0\libgcc.a(eqdf2.o)
                              ../tecnica2_bsp//newlib/nios2-elf/lib\libm.a(lib_a-s_matherr.o) (__eqdf2)
c:/intelfpga/17.1/nios2eds/bin/gnu/h-x86_64-mingw32/bin/../lib/gcc/nios2-elf/5.3.0\libgcc.a(gedf2.o)
                              ../tecnica2_bsp//newlib/nios2-elf/lib\libm.a(lib_a-e_sqrt.o) (__gedf2)
c:/intelfpga/17.1/nios2eds/bin/gnu/h-x86_64-mingw32/bin/../lib/gcc/nios2-elf/5.3.0\libgcc.a(ledf2.o)
                              ../tecnica2_bsp//newlib/nios2-elf/lib\libm.a(lib_a-w_sqrt.o) (__ltdf2)
c:/intelfpga/17.1/nios2eds/bin/gnu/h-x86_64-mingw32/bin/../lib/gcc/nios2-elf/5.3.0\libgcc.a(muldf3.o)
                              ../tecnica2_bsp//newlib/nios2-elf/lib\libm.a(lib_a-e_sqrt.o) (__muldf3)
c:/intelfpga/17.1/nios2eds/bin/gnu/h-x86_64-mingw32/bin/../lib/gcc/nios2-elf/5.3.0\libgcc.a(subdf3.o)
                              obj/default/backpropagation_best2019_superdef_ver2_alumnos-1.o (__subdf3)
c:/intelfpga/17.1/nios2eds/bin/gnu/h-x86_64-mingw32/bin/../lib/gcc/nios2-elf/5.3.0\libgcc.a(extendsfdf2.o)
                              obj/default/backpropagation_best2019_superdef_ver2_alumnos-1.o (__extendsfdf2)
c:/intelfpga/17.1/nios2eds/bin/gnu/h-x86_64-mingw32/bin/../lib/gcc/nios2-elf/5.3.0\libgcc.a(truncdfsf2.o)
                              obj/default/backpropagation_best2019_superdef_ver2_alumnos-1.o (__truncdfsf2)
c:/intelfpga/17.1/nios2eds/bin/gnu/h-x86_64-mingw32/bin/../lib/gcc/nios2-elf/5.3.0\libgcc.a(_clzsi2.o)
                              c:/intelfpga/17.1/nios2eds/bin/gnu/h-x86_64-mingw32/bin/../lib/gcc/nios2-elf/5.3.0\libgcc.a(adddf3.o) (__clzsi2)
c:/intelfpga/17.1/nios2eds/bin/gnu/h-x86_64-mingw32/bin/../lib/gcc/nios2-elf/5.3.0\libgcc.a(lib2-divmod.o)
                              c:/intelfpga/17.1/nios2eds/bin/gnu/h-x86_64-mingw32/bin/../lib/gcc/nios2-elf/5.3.0\libgcc.a(divdf3.o) (__udivsi3)
c:/intelfpga/17.1/nios2eds/bin/gnu/h-x86_64-mingw32/bin/../lib/gcc/nios2-elf/5.3.0\libgcc.a(_clz.o)
                              c:/intelfpga/17.1/nios2eds/bin/gnu/h-x86_64-mingw32/bin/../lib/gcc/nios2-elf/5.3.0\libgcc.a(_clzsi2.o) (__clz_tab)
../tecnica2_bsp//newlib/nios2-elf/lib\libc.a(lib_a-errno.o)
                              ../tecnica2_bsp//newlib/nios2-elf/lib\libm.a(lib_a-w_sqrt.o) (__errno)
../tecnica2_bsp//newlib/nios2-elf/lib\libc.a(lib_a-impure.o)
                              ../tecnica2_bsp//newlib/nios2-elf/lib\libc.a(lib_a-errno.o) (_impure_ptr)
../tecnica2_bsp//newlib/nios2-elf/lib\libc.a(lib_a-printf.o)
                              obj/default/backpropagation_best2019_superdef_ver2_alumnos-1.o (printf)
../tecnica2_bsp//newlib/nios2-elf/lib\libc.a(lib_a-putchar.o)
                              obj/default/backpropagation_best2019_superdef_ver2_alumnos-1.o (putchar)
../tecnica2_bsp//newlib/nios2-elf/lib\libc.a(lib_a-puts.o)
                              obj/default/backpropagation_best2019_superdef_ver2_alumnos-1.o (puts)
../tecnica2_bsp//newlib/nios2-elf/lib\libc.a(lib_a-rand.o)
                              obj/default/backpropagation_best2019_superdef_ver2_alumnos-1.o (srand)
../tecnica2_bsp//newlib/nios2-elf/lib\libc.a(lib_a-strlen.o)
                              ../tecnica2_bsp//newlib/nios2-elf/lib\libc.a(lib_a-puts.o) (strlen)
../tecnica2_bsp//newlib/nios2-elf/lib\libc.a(lib_a-system.o)
                              obj/default/backpropagation_best2019_superdef_ver2_alumnos-1.o (system)
../tecnica2_bsp//newlib/nios2-elf/lib\libc.a(lib_a-time.o)
                              obj/default/backpropagation_best2019_superdef_ver2_alumnos-1.o (time)
../tecnica2_bsp//newlib/nios2-elf/lib\libc.a(lib_a-vfprintf.o)
                              ../tecnica2_bsp//newlib/nios2-elf/lib\libc.a(lib_a-printf.o) (___vfprintf_internal_r)
../tecnica2_bsp//newlib/nios2-elf/lib\libc.a(lib_a-wsetup.o)
                              ../tecnica2_bsp//newlib/nios2-elf/lib\libc.a(lib_a-vfprintf.o) (__swsetup_r)
../tecnica2_bsp//newlib/nios2-elf/lib\libc.a(lib_a-dtoa.o)
                              ../tecnica2_bsp//newlib/nios2-elf/lib\libc.a(lib_a-vfprintf.o) (_dtoa_r)
../tecnica2_bsp//newlib/nios2-elf/lib\libc.a(lib_a-fflush.o)
                              ../tecnica2_bsp//newlib/nios2-elf/lib\libc.a(lib_a-vfprintf.o) (_fflush_r)
../tecnica2_bsp//newlib/nios2-elf/lib\libc.a(lib_a-findfp.o)
                              ../tecnica2_bsp//newlib/nios2-elf/lib\libc.a(lib_a-puts.o) (__sinit)
../tecnica2_bsp//newlib/nios2-elf/lib\libc.a(lib_a-freer.o)
                              ../tecnica2_bsp//newlib/nios2-elf/lib\libc.a(lib_a-vfprintf.o) (_free_r)
../tecnica2_bsp//newlib/nios2-elf/lib\libc.a(lib_a-fvwrite.o)
                              ../tecnica2_bsp//newlib/nios2-elf/lib\libc.a(lib_a-puts.o) (__sfvwrite_r)
../tecnica2_bsp//newlib/nios2-elf/lib\libc.a(lib_a-fwalk.o)
                              ../tecnica2_bsp//newlib/nios2-elf/lib\libc.a(lib_a-findfp.o) (_fwalk)
../tecnica2_bsp//newlib/nios2-elf/lib\libc.a(lib_a-gettimeofdayr.o)
                              ../tecnica2_bsp//newlib/nios2-elf/lib\libc.a(lib_a-time.o) (_gettimeofday_r)
../tecnica2_bsp//newlib/nios2-elf/lib\libc.a(lib_a-int_errno.o)
                              ../tecnica2_bsp//newlib/nios2-elf/lib\libc.a(lib_a-gettimeofdayr.o) (errno)
../tecnica2_bsp//newlib/nios2-elf/lib\libc.a(lib_a-locale.o)
                              ../tecnica2_bsp//newlib/nios2-elf/lib\libc.a(lib_a-vfprintf.o) (_localeconv_r)
../tecnica2_bsp//newlib/nios2-elf/lib\libc.a(lib_a-makebuf.o)
                              ../tecnica2_bsp//newlib/nios2-elf/lib\libc.a(lib_a-wsetup.o) (__smakebuf_r)
../tecnica2_bsp//newlib/nios2-elf/lib\libc.a(lib_a-mallocr.o)
                              ../tecnica2_bsp//newlib/nios2-elf/lib\libc.a(lib_a-freer.o) (__malloc_av_)
../tecnica2_bsp//newlib/nios2-elf/lib\libc.a(lib_a-memchr.o)
                              ../tecnica2_bsp//newlib/nios2-elf/lib\libc.a(lib_a-vfprintf.o) (memchr)
../tecnica2_bsp//newlib/nios2-elf/lib\libc.a(lib_a-memcpy.o)
                              ../tecnica2_bsp//newlib/nios2-elf/lib\libc.a(lib_a-dtoa.o) (memcpy)
../tecnica2_bsp//newlib/nios2-elf/lib\libc.a(lib_a-memmove.o)
                              ../tecnica2_bsp//newlib/nios2-elf/lib\libc.a(lib_a-fvwrite.o) (memmove)
../tecnica2_bsp//newlib/nios2-elf/lib\libc.a(lib_a-memset.o)
                              ../tecnica2_bsp//newlib/nios2-elf/lib\libc.a(lib_a-findfp.o) (memset)
../tecnica2_bsp//newlib/nios2-elf/lib\libc.a(lib_a-mprec.o)
                              ../tecnica2_bsp//newlib/nios2-elf/lib\libc.a(lib_a-dtoa.o) (_Balloc)
../tecnica2_bsp//newlib/nios2-elf/lib\libc.a(lib_a-putc.o)
                              ../tecnica2_bsp//newlib/nios2-elf/lib\libc.a(lib_a-putchar.o) (_putc_r)
../tecnica2_bsp//newlib/nios2-elf/lib\libc.a(lib_a-reallocr.o)
                              ../tecnica2_bsp//newlib/nios2-elf/lib\libc.a(lib_a-fvwrite.o) (_realloc_r)
../tecnica2_bsp//newlib/nios2-elf/lib\libc.a(lib_a-sbrkr.o)
                              ../tecnica2_bsp//newlib/nios2-elf/lib\libc.a(lib_a-freer.o) (_sbrk_r)
../tecnica2_bsp//newlib/nios2-elf/lib\libc.a(lib_a-stdio.o)
                              ../tecnica2_bsp//newlib/nios2-elf/lib\libc.a(lib_a-findfp.o) (__sread)
../tecnica2_bsp//newlib/nios2-elf/lib\libc.a(lib_a-strcmp.o)
                              ../tecnica2_bsp//newlib/nios2-elf/lib\libc.a(lib_a-locale.o) (strcmp)
../tecnica2_bsp//newlib/nios2-elf/lib\libc.a(lib_a-vfiprintf.o)
                              ../tecnica2_bsp//newlib/nios2-elf/lib\libc.a(lib_a-vfprintf.o) (__sprint_r)
../tecnica2_bsp//newlib/nios2-elf/lib\libc.a(lib_a-wbuf.o)
                              ../tecnica2_bsp//newlib/nios2-elf/lib\libc.a(lib_a-putc.o) (__swbuf_r)
../tecnica2_bsp//newlib/nios2-elf/lib\libc.a(lib_a-writer.o)
                              ../tecnica2_bsp//newlib/nios2-elf/lib\libc.a(lib_a-stdio.o) (_write_r)
../tecnica2_bsp//newlib/nios2-elf/lib\libc.a(closer.o)
                              ../tecnica2_bsp//newlib/nios2-elf/lib\libc.a(lib_a-stdio.o) (_close_r)
../tecnica2_bsp//newlib/nios2-elf/lib\libc.a(lib_a-callocr.o)
                              ../tecnica2_bsp//newlib/nios2-elf/lib\libc.a(lib_a-mprec.o) (_calloc_r)
../tecnica2_bsp//newlib/nios2-elf/lib\libc.a(lib_a-fclose.o)
                              ../tecnica2_bsp//newlib/nios2-elf/lib\libc.a(lib_a-findfp.o) (_fclose_r)
../tecnica2_bsp//newlib/nios2-elf/lib\libc.a(lib_a-fputwc.o)
                              ../tecnica2_bsp//newlib/nios2-elf/lib\libc.a(lib_a-vfiprintf.o) (_fputwc_r)
../tecnica2_bsp//newlib/nios2-elf/lib\libc.a(lib_a-fstatr.o)
                              ../tecnica2_bsp//newlib/nios2-elf/lib\libc.a(lib_a-makebuf.o) (_fstat_r)
../tecnica2_bsp//newlib/nios2-elf/lib\libc.a(lib_a-isattyr.o)
                              ../tecnica2_bsp//newlib/nios2-elf/lib\libc.a(lib_a-makebuf.o) (_isatty_r)
../tecnica2_bsp//newlib/nios2-elf/lib\libc.a(lib_a-lseekr.o)
                              ../tecnica2_bsp//newlib/nios2-elf/lib\libc.a(lib_a-stdio.o) (_lseek_r)
../tecnica2_bsp//newlib/nios2-elf/lib\libc.a(lib_a-readr.o)
                              ../tecnica2_bsp//newlib/nios2-elf/lib\libc.a(lib_a-stdio.o) (_read_r)
../tecnica2_bsp//newlib/nios2-elf/lib\libc.a(lib_a-wcrtomb.o)
                              ../tecnica2_bsp//newlib/nios2-elf/lib\libc.a(lib_a-fputwc.o) (_wcrtomb_r)
../tecnica2_bsp//newlib/nios2-elf/lib\libc.a(lib_a-wctomb_r.o)
                              ../tecnica2_bsp//newlib/nios2-elf/lib\libc.a(lib_a-wcrtomb.o) (__wctomb)
c:/intelfpga/17.1/nios2eds/bin/gnu/h-x86_64-mingw32/bin/../lib/gcc/nios2-elf/5.3.0\libgcc.a(_muldi3.o)
                              ../tecnica2_bsp//newlib/nios2-elf/lib\libc.a(lib_a-rand.o) (__muldi3)
c:/intelfpga/17.1/nios2eds/bin/gnu/h-x86_64-mingw32/bin/../lib/gcc/nios2-elf/5.3.0\libgcc.a(_udivdi3.o)
                              ../tecnica2_bsp//newlib/nios2-elf/lib\libc.a(lib_a-vfprintf.o) (__udivdi3)
c:/intelfpga/17.1/nios2eds/bin/gnu/h-x86_64-mingw32/bin/../lib/gcc/nios2-elf/5.3.0\libgcc.a(_umoddi3.o)
                              ../tecnica2_bsp//newlib/nios2-elf/lib\libc.a(lib_a-vfprintf.o) (__umoddi3)
c:/intelfpga/17.1/nios2eds/bin/gnu/h-x86_64-mingw32/bin/../lib/gcc/nios2-elf/5.3.0\libgcc.a(fixdfsi.o)
                              ../tecnica2_bsp//newlib/nios2-elf/lib\libc.a(lib_a-dtoa.o) (__fixdfsi)
c:/intelfpga/17.1/nios2eds/bin/gnu/h-x86_64-mingw32/bin/../lib/gcc/nios2-elf/5.3.0\libgcc.a(floatsidf.o)
                              ../tecnica2_bsp//newlib/nios2-elf/lib\libc.a(lib_a-dtoa.o) (__floatsidf)
c:/intelfpga/17.1/nios2eds/bin/gnu/h-x86_64-mingw32/bin/../lib/gcc/nios2-elf/5.3.0\libgcc.a(floatunsidf.o)
                              ../tecnica2_bsp//newlib/nios2-elf/lib\libc.a(lib_a-dtoa.o) (__floatunsidf)
../tecnica2_bsp/\libhal_bsp.a(alt_close.o)
                              ../tecnica2_bsp//newlib/nios2-elf/lib\libc.a(closer.o) (close)
../tecnica2_bsp/\libhal_bsp.a(alt_dev.o)
                              ../tecnica2_bsp/\libhal_bsp.a(alt_close.o) (alt_fd_list)
../tecnica2_bsp/\libhal_bsp.a(alt_errno.o)
                              ../tecnica2_bsp/\libhal_bsp.a(alt_close.o) (alt_errno)
../tecnica2_bsp/\libhal_bsp.a(alt_fstat.o)
                              ../tecnica2_bsp//newlib/nios2-elf/lib\libc.a(lib_a-fstatr.o) (fstat)
../tecnica2_bsp/\libhal_bsp.a(alt_gettod.o)
                              ../tecnica2_bsp//newlib/nios2-elf/lib\libc.a(lib_a-gettimeofdayr.o) (gettimeofday)
../tecnica2_bsp/\libhal_bsp.a(alt_isatty.o)
                              ../tecnica2_bsp//newlib/nios2-elf/lib\libc.a(lib_a-isattyr.o) (isatty)
../tecnica2_bsp/\libhal_bsp.a(alt_load.o)
                              ../tecnica2_bsp//obj/HAL/src/crt0.o (alt_load)
../tecnica2_bsp/\libhal_bsp.a(alt_lseek.o)
                              ../tecnica2_bsp//newlib/nios2-elf/lib\libc.a(lib_a-lseekr.o) (lseek)
../tecnica2_bsp/\libhal_bsp.a(alt_main.o)
                              ../tecnica2_bsp//obj/HAL/src/crt0.o (alt_main)
../tecnica2_bsp/\libhal_bsp.a(alt_malloc_lock.o)
                              ../tecnica2_bsp//newlib/nios2-elf/lib\libc.a(lib_a-freer.o) (__malloc_lock)
../tecnica2_bsp/\libhal_bsp.a(alt_read.o)
                              ../tecnica2_bsp//newlib/nios2-elf/lib\libc.a(lib_a-readr.o) (read)
../tecnica2_bsp/\libhal_bsp.a(alt_release_fd.o)
                              ../tecnica2_bsp/\libhal_bsp.a(alt_close.o) (alt_release_fd)
../tecnica2_bsp/\libhal_bsp.a(alt_sbrk.o)
                              ../tecnica2_bsp//newlib/nios2-elf/lib\libc.a(lib_a-sbrkr.o) (sbrk)
../tecnica2_bsp/\libhal_bsp.a(alt_tick.o)
                              ../tecnica2_bsp/\libhal_bsp.a(alt_gettod.o) (_alt_tick_rate)
../tecnica2_bsp/\libhal_bsp.a(alt_write.o)
                              ../tecnica2_bsp//newlib/nios2-elf/lib\libc.a(lib_a-writer.o) (write)
../tecnica2_bsp/\libhal_bsp.a(alt_sys_init.o)
                              ../tecnica2_bsp/\libhal_bsp.a(alt_main.o) (alt_irq_init)
../tecnica2_bsp/\libhal_bsp.a(altera_avalon_jtag_uart_fd.o)
                              ../tecnica2_bsp/\libhal_bsp.a(alt_sys_init.o) (altera_avalon_jtag_uart_read_fd)
../tecnica2_bsp/\libhal_bsp.a(altera_avalon_jtag_uart_init.o)
                              ../tecnica2_bsp/\libhal_bsp.a(alt_sys_init.o) (altera_avalon_jtag_uart_init)
../tecnica2_bsp/\libhal_bsp.a(altera_avalon_jtag_uart_ioctl.o)
                              ../tecnica2_bsp/\libhal_bsp.a(altera_avalon_jtag_uart_fd.o) (altera_avalon_jtag_uart_ioctl)
../tecnica2_bsp/\libhal_bsp.a(altera_avalon_jtag_uart_read.o)
                              ../tecnica2_bsp/\libhal_bsp.a(altera_avalon_jtag_uart_fd.o) (altera_avalon_jtag_uart_read)
../tecnica2_bsp/\libhal_bsp.a(altera_avalon_jtag_uart_write.o)
                              ../tecnica2_bsp/\libhal_bsp.a(altera_avalon_jtag_uart_fd.o) (altera_avalon_jtag_uart_write)
../tecnica2_bsp/\libhal_bsp.a(altera_avalon_timer_sc.o)
                              ../tecnica2_bsp/\libhal_bsp.a(alt_sys_init.o) (alt_avalon_timer_sc_init)
../tecnica2_bsp/\libhal_bsp.a(perf_print_formatted_report.o)
                              obj/default/backpropagation_best2019_superdef_ver2_alumnos-1.o (perf_print_formatted_report)
../tecnica2_bsp/\libhal_bsp.a(alt_alarm_start.o)
                              ../tecnica2_bsp/\libhal_bsp.a(altera_avalon_jtag_uart_init.o) (alt_alarm_start)
../tecnica2_bsp/\libhal_bsp.a(alt_dcache_flush_all.o)
                              ../tecnica2_bsp/\libhal_bsp.a(alt_load.o) (alt_dcache_flush_all)
../tecnica2_bsp/\libhal_bsp.a(alt_dev_llist_insert.o)
                              ../tecnica2_bsp/\libhal_bsp.a(alt_sys_init.o) (alt_dev_llist_insert)
../tecnica2_bsp/\libhal_bsp.a(alt_do_ctors.o)
                              ../tecnica2_bsp/\libhal_bsp.a(alt_main.o) (_do_ctors)
../tecnica2_bsp/\libhal_bsp.a(alt_do_dtors.o)
                              ../tecnica2_bsp/\libhal_bsp.a(alt_main.o) (_do_dtors)
../tecnica2_bsp/\libhal_bsp.a(alt_icache_flush_all.o)
                              ../tecnica2_bsp/\libhal_bsp.a(alt_load.o) (alt_icache_flush_all)
../tecnica2_bsp/\libhal_bsp.a(alt_iic.o)
                              ../tecnica2_bsp/\libhal_bsp.a(altera_avalon_jtag_uart_init.o) (alt_ic_isr_register)
../tecnica2_bsp/\libhal_bsp.a(alt_iic_isr_register.o)
                              ../tecnica2_bsp/\libhal_bsp.a(alt_iic.o) (alt_iic_isr_register)
../tecnica2_bsp/\libhal_bsp.a(alt_io_redirect.o)
                              ../tecnica2_bsp/\libhal_bsp.a(alt_main.o) (alt_io_redirect)
../tecnica2_bsp/\libhal_bsp.a(alt_irq_entry.o)
                              ../tecnica2_bsp/\libhal_bsp.a(alt_iic_isr_register.o) (alt_irq_entry)
../tecnica2_bsp/\libhal_bsp.a(alt_irq_handler.o)
                              ../tecnica2_bsp/\libhal_bsp.a(alt_iic_isr_register.o) (alt_irq)
../tecnica2_bsp/\libhal_bsp.a(alt_irq_vars.o)
                              ../tecnica2_bsp/\libhal_bsp.a(alt_iic.o) (alt_irq_active)
../tecnica2_bsp/\libhal_bsp.a(alt_open.o)
                              ../tecnica2_bsp/\libhal_bsp.a(alt_io_redirect.o) (open)
../tecnica2_bsp/\libhal_bsp.a(altera_nios2_gen2_irq.o)
                              ../tecnica2_bsp/\libhal_bsp.a(alt_sys_init.o) (altera_nios2_gen2_irq_init)
../tecnica2_bsp/\libhal_bsp.a(altera_avalon_performance_counter.o)
                              ../tecnica2_bsp/\libhal_bsp.a(perf_print_formatted_report.o) (perf_get_section_time)
../tecnica2_bsp/\libhal_bsp.a(alt_exception_entry.o)
                              ../tecnica2_bsp/\libhal_bsp.a(alt_irq_entry.o) (alt_exception)
../tecnica2_bsp/\libhal_bsp.a(alt_find_dev.o)
                              ../tecnica2_bsp/\libhal_bsp.a(alt_open.o) (alt_find_dev)
../tecnica2_bsp/\libhal_bsp.a(alt_find_file.o)
                              ../tecnica2_bsp/\libhal_bsp.a(alt_open.o) (alt_find_file)
../tecnica2_bsp/\libhal_bsp.a(alt_get_fd.o)
                              ../tecnica2_bsp/\libhal_bsp.a(alt_open.o) (alt_get_fd)
../tecnica2_bsp/\libhal_bsp.a(alt_icache_flush.o)
                              ../tecnica2_bsp/\libhal_bsp.a(alt_icache_flush_all.o) (alt_icache_flush)
../tecnica2_bsp/\libhal_bsp.a(alt_instruction_exception_entry.o)
                              ../tecnica2_bsp/\libhal_bsp.a(alt_exception_entry.o) (alt_instruction_exception_entry)
../tecnica2_bsp//newlib/nios2-elf/lib\libc.a(lib_a-atexit.o)
                              ../tecnica2_bsp/\libhal_bsp.a(alt_main.o) (atexit)
../tecnica2_bsp//newlib/nios2-elf/lib\libc.a(lib_a-exit.o)
                              ../tecnica2_bsp/\libhal_bsp.a(alt_main.o) (exit)
../tecnica2_bsp//newlib/nios2-elf/lib\libc.a(lib_a-memcmp.o)
                              ../tecnica2_bsp/\libhal_bsp.a(alt_find_dev.o) (memcmp)
../tecnica2_bsp//newlib/nios2-elf/lib\libc.a(lib_a-__atexit.o)
                              ../tecnica2_bsp//newlib/nios2-elf/lib\libc.a(lib_a-atexit.o) (__register_exitproc)
../tecnica2_bsp//newlib/nios2-elf/lib\libc.a(lib_a-__call_atexit.o)
                              ../tecnica2_bsp//newlib/nios2-elf/lib\libc.a(lib_a-exit.o) (__call_exitprocs)
c:/intelfpga/17.1/nios2eds/bin/gnu/h-x86_64-mingw32/bin/../lib/gcc/nios2-elf/5.3.0\libgcc.a(_floatundidf.o)
                              ../tecnica2_bsp/\libhal_bsp.a(perf_print_formatted_report.o) (__floatundidf)
../tecnica2_bsp/\libhal_bsp.a(alt_exit.o)
                              ../tecnica2_bsp//newlib/nios2-elf/lib\libc.a(lib_a-exit.o) (_exit)

Allocating common symbols
Common symbol       size              file

alt_irq             0x100             ../tecnica2_bsp/\libhal_bsp.a(alt_irq_handler.o)
errno               0x4               ../tecnica2_bsp//newlib/nios2-elf/lib\libc.a(lib_a-int_errno.o)
hiddenVal2          0x50              obj/default/backpropagation_best2019_superdef_ver2_alumnos-1.o
delta_h2            0x50              obj/default/backpropagation_best2019_superdef_ver2_alumnos-1.o
weightsH2O          0x54              obj/default/backpropagation_best2019_superdef_ver2_alumnos-1.o
ponderacion1        0xc8              obj/default/backpropagation_best2019_superdef_ver2_alumnos-1.o
der_hiddenVal1      0xc8              obj/default/backpropagation_best2019_superdef_ver2_alumnos-1.o
outPred             0x4               obj/default/backpropagation_best2019_superdef_ver2_alumnos-1.o
ponderacion3        0x4               obj/default/backpropagation_best2019_superdef_ver2_alumnos-1.o
weightsH1H2_old     0xff0             obj/default/backpropagation_best2019_superdef_ver2_alumnos-1.o
hiddenVal1          0xc8              obj/default/backpropagation_best2019_superdef_ver2_alumnos-1.o
weightsIH1          0x258             obj/default/backpropagation_best2019_superdef_ver2_alumnos-1.o
weightsH2O_old      0x54              obj/default/backpropagation_best2019_superdef_ver2_alumnos-1.o
der_outPred         0x4               obj/default/backpropagation_best2019_superdef_ver2_alumnos-1.o
trainInputs         0x30              obj/default/backpropagation_best2019_superdef_ver2_alumnos-1.o
trainOutput         0x10              obj/default/backpropagation_best2019_superdef_ver2_alumnos-1.o
ponderacion2        0x50              obj/default/backpropagation_best2019_superdef_ver2_alumnos-1.o
weightsH1H2         0xff0             obj/default/backpropagation_best2019_superdef_ver2_alumnos-1.o
der_hiddenVal2      0x50              obj/default/backpropagation_best2019_superdef_ver2_alumnos-1.o
delta_h1            0xc8              obj/default/backpropagation_best2019_superdef_ver2_alumnos-1.o

Memory Configuration

Name             Origin             Length             Attributes
reset            0x0000000004000000 0x0000000000000020
sdram            0x0000000004000020 0x0000000003ffffe0
*default*        0x0000000000000000 0xffffffffffffffff

Linker script and memory map

LOAD ../tecnica2_bsp//obj/HAL/src/crt0.o
LOAD obj/default/backpropagation_best2019_superdef_ver2_alumnos-1.o
LOAD c:/intelfpga/17.1/nios2eds/bin/gnu/h-x86_64-mingw32/bin/../lib/gcc/nios2-elf/5.3.0/../../../../../H-x86_64-mingw32/nios2-elf/lib\libstdc++.a
LOAD ../tecnica2_bsp//newlib/nios2-elf/lib\libm.a
LOAD c:/intelfpga/17.1/nios2eds/bin/gnu/h-x86_64-mingw32/bin/../lib/gcc/nios2-elf/5.3.0\libgcc.a
START GROUP
LOAD ../tecnica2_bsp//newlib/nios2-elf/lib\libc.a
LOAD c:/intelfpga/17.1/nios2eds/bin/gnu/h-x86_64-mingw32/bin/../lib/gcc/nios2-elf/5.3.0\libgcc.a
LOAD ../tecnica2_bsp/\libhal_bsp.a
LOAD ../tecnica2_bsp//newlib/nios2-elf/lib\libm.a
END GROUP
LOAD c:/intelfpga/17.1/nios2eds/bin/gnu/h-x86_64-mingw32/bin/../lib/gcc/nios2-elf/5.3.0\libgcc.a
                0x0000000004000000                __alt_mem_sdram = 0x4000000

.entry          0x0000000004000000       0x20
 *(.entry)
 .entry         0x0000000004000000       0x20 ../tecnica2_bsp//obj/HAL/src/crt0.o
                0x0000000004000000                __reset

.exceptions     0x0000000004000020      0x224
                0x0000000004000020                PROVIDE (__ram_exceptions_start, ABSOLUTE (.))
                0x0000000004000020                . = ALIGN (0x20)
 *(.irq)
 *(.exceptions.entry.label)
 .exceptions.entry.label
                0x0000000004000020        0x0 ../tecnica2_bsp/\libhal_bsp.a(alt_irq_entry.o)
                0x0000000004000020                alt_irq_entry
 .exceptions.entry.label
                0x0000000004000020        0x0 ../tecnica2_bsp/\libhal_bsp.a(alt_exception_entry.o)
                0x0000000004000020                alt_exception
 *(.exceptions.entry.user)
 *(.exceptions.entry.ecc_fatal)
 *(.exceptions.entry)
 .exceptions.entry
                0x0000000004000020       0x54 ../tecnica2_bsp/\libhal_bsp.a(alt_exception_entry.o)
 *(.exceptions.irqtest.user)
 *(.exceptions.irqtest)
 .exceptions.irqtest
                0x0000000004000074       0x10 ../tecnica2_bsp/\libhal_bsp.a(alt_irq_entry.o)
 *(.exceptions.irqhandler.user)
 *(.exceptions.irqhandler)
 .exceptions.irqhandler
                0x0000000004000084        0x4 ../tecnica2_bsp/\libhal_bsp.a(alt_irq_entry.o)
 *(.exceptions.irqreturn.user)
 *(.exceptions.irqreturn)
 .exceptions.irqreturn
                0x0000000004000088        0x4 ../tecnica2_bsp/\libhal_bsp.a(alt_irq_entry.o)
 *(.exceptions.notirq.label)
 .exceptions.notirq.label
                0x000000000400008c        0x0 ../tecnica2_bsp/\libhal_bsp.a(alt_irq_entry.o)
 *(.exceptions.notirq.user)
 *(.exceptions.notirq)
 .exceptions.notirq
                0x000000000400008c        0x8 ../tecnica2_bsp/\libhal_bsp.a(alt_exception_entry.o)
 *(.exceptions.soft.user)
 *(.exceptions.soft)
 *(.exceptions.unknown.user)
 *(.exceptions.unknown)
 .exceptions.unknown
                0x0000000004000094       0x14 ../tecnica2_bsp/\libhal_bsp.a(alt_exception_entry.o)
 *(.exceptions.exit.label)
 .exceptions.exit.label
                0x00000000040000a8        0x0 ../tecnica2_bsp/\libhal_bsp.a(alt_irq_entry.o)
 .exceptions.exit.label
                0x00000000040000a8        0x0 ../tecnica2_bsp/\libhal_bsp.a(alt_exception_entry.o)
 *(.exceptions.exit.user)
 *(.exceptions.exit)
 .exceptions.exit
                0x00000000040000a8       0x54 ../tecnica2_bsp/\libhal_bsp.a(alt_exception_entry.o)
 *(.exceptions)
 .exceptions    0x00000000040000fc       0xd4 ../tecnica2_bsp/\libhal_bsp.a(alt_irq_handler.o)
                0x00000000040000fc                alt_irq_handler
 .exceptions    0x00000000040001d0       0x74 ../tecnica2_bsp/\libhal_bsp.a(alt_instruction_exception_entry.o)
                0x00000000040001d0                alt_instruction_exception_entry
                0x0000000004000244                PROVIDE (__ram_exceptions_end, ABSOLUTE (.))
                0x0000000004000020                PROVIDE (__flash_exceptions_start, LOADADDR (.exceptions))

.text           0x0000000004000244    0x14e1c
                [!provide]                        PROVIDE (stext, ABSOLUTE (.))
 *(.interp)
 *(.hash)
 *(.dynsym)
 *(.dynstr)
 *(.gnu.version)
 *(.gnu.version_d)
 *(.gnu.version_r)
 *(.rel.init)
 *(.rela.init)
 *(.rel.text .rel.text.* .rel.gnu.linkonce.t.*)
 *(.rela.text .rela.text.* .rela.gnu.linkonce.t.*)
 *(.rel.fini)
 *(.rela.fini)
 *(.rel.rodata .rel.rodata.* .rel.gnu.linkonce.r.*)
 *(.rela.rodata .rela.rodata.* .rela.gnu.linkonce.r.*)
 *(.rel.data .rel.data.* .rel.gnu.linkonce.d.*)
 *(.rela.data .rela.data.* .rela.gnu.linkonce.d.*)
 *(.rel.tdata .rel.tdata.* .rel.gnu.linkonce.td.*)
 *(.rela.tdata .rela.tdata.* .rela.gnu.linkonce.td.*)
 *(.rel.tbss .rel.tbss.* .rel.gnu.linkonce.tb.*)
 *(.rela.tbss .rela.tbss.* .rela.gnu.linkonce.tb.*)
 *(.rel.ctors)
 *(.rela.ctors)
 *(.rel.dtors)
 *(.rela.dtors)
 *(.rel.got)
 *(.rela.got)
 *(.rel.sdata .rel.sdata.* .rel.gnu.linkonce.s.*)
 *(.rela.sdata .rela.sdata.* .rela.gnu.linkonce.s.*)
 *(.rel.sbss .rel.sbss.* .rel.gnu.linkonce.sb.*)
 *(.rela.sbss .rela.sbss.* .rela.gnu.linkonce.sb.*)
 *(.rel.sdata2 .rel.sdata2.* .rel.gnu.linkonce.s2.*)
 *(.rela.sdata2 .rela.sdata2.* .rela.gnu.linkonce.s2.*)
 *(.rel.sbss2 .rel.sbss2.* .rel.gnu.linkonce.sb2.*)
 *(.rela.sbss2 .rela.sbss2.* .rela.gnu.linkonce.sb2.*)
 *(.rel.bss .rel.bss.* .rel.gnu.linkonce.b.*)
 *(.rela.bss .rela.bss.* .rela.gnu.linkonce.b.*)
 *(.rel.plt)
 *(.rela.plt)
 *(.rel.dyn)
 *(.init)
 *(.plt)
 *(.text .stub .text.* .gnu.linkonce.t.*)
 .text          0x0000000004000244       0x4c ../tecnica2_bsp//obj/HAL/src/crt0.o
                0x0000000004000244                _start
 .text          0x0000000004000290     0x121c obj/default/backpropagation_best2019_superdef_ver2_alumnos-1.o
                0x0000000004000290                tanh_hard
                0x00000000040002d4                print_array
                0x0000000004000390                calcNet
                0x0000000004000710                WeightChangesH2O
                0x0000000004000750                WeightUpdatesH2O
                0x0000000004000840                WeightChangesH1H2
                0x000000000400090c                WeightUpdatesH1H2
                0x0000000004000a68                WeightChangesIH1
                0x0000000004000b90                WeightUpdatesIH1
                0x0000000004000cb0                getRand
                0x0000000004000cec                initWeights
                0x0000000004000f7c                initData
                0x0000000004001100                displayResults
                0x00000000040011d8                calcOverallError
                0x0000000004001298                main
 .text          0x00000000040014ac        0x0 ../tecnica2_bsp//newlib/nios2-elf/lib\libm.a(lib_a-w_sqrt.o)
 .text.sqrt     0x00000000040014ac      0x174 ../tecnica2_bsp//newlib/nios2-elf/lib\libm.a(lib_a-w_sqrt.o)
                0x00000000040014ac                sqrt
 .text          0x0000000004001620        0x0 ../tecnica2_bsp//newlib/nios2-elf/lib\libm.a(lib_a-e_sqrt.o)
 .text.__ieee754_sqrt
                0x0000000004001620      0x648 ../tecnica2_bsp//newlib/nios2-elf/lib\libm.a(lib_a-e_sqrt.o)
                0x0000000004001620                __ieee754_sqrt
 .text          0x0000000004001c68        0x0 ../tecnica2_bsp//newlib/nios2-elf/lib\libm.a(lib_a-s_fpclassify.o)
 .text.__fpclassifyd
                0x0000000004001c68      0x104 ../tecnica2_bsp//newlib/nios2-elf/lib\libm.a(lib_a-s_fpclassify.o)
                0x0000000004001c68                __fpclassifyd
 .text          0x0000000004001d6c        0x0 ../tecnica2_bsp//newlib/nios2-elf/lib\libm.a(lib_a-s_lib_ver.o)
 .text          0x0000000004001d6c        0x0 ../tecnica2_bsp//newlib/nios2-elf/lib\libm.a(lib_a-s_matherr.o)
 .text.matherr  0x0000000004001d6c       0x68 ../tecnica2_bsp//newlib/nios2-elf/lib\libm.a(lib_a-s_matherr.o)
                0x0000000004001d6c                matherr
 .text          0x0000000004001dd4      0x8ac c:/intelfpga/17.1/nios2eds/bin/gnu/h-x86_64-mingw32/bin/../lib/gcc/nios2-elf/5.3.0\libgcc.a(adddf3.o)
                0x0000000004001dd4                __adddf3
 .text          0x0000000004002680      0x8e8 c:/intelfpga/17.1/nios2eds/bin/gnu/h-x86_64-mingw32/bin/../lib/gcc/nios2-elf/5.3.0\libgcc.a(divdf3.o)
                0x0000000004002680                __divdf3
 .text          0x0000000004002f68       0x88 c:/intelfpga/17.1/nios2eds/bin/gnu/h-x86_64-mingw32/bin/../lib/gcc/nios2-elf/5.3.0\libgcc.a(eqdf2.o)
                0x0000000004002f68                __nedf2
                0x0000000004002f68                __eqdf2
 .text          0x0000000004002ff0       0xdc c:/intelfpga/17.1/nios2eds/bin/gnu/h-x86_64-mingw32/bin/../lib/gcc/nios2-elf/5.3.0\libgcc.a(gedf2.o)
                0x0000000004002ff0                __gedf2
                0x0000000004002ff0                __gtdf2
 .text          0x00000000040030cc       0xf4 c:/intelfpga/17.1/nios2eds/bin/gnu/h-x86_64-mingw32/bin/../lib/gcc/nios2-elf/5.3.0\libgcc.a(ledf2.o)
                0x00000000040030cc                __ledf2
                0x00000000040030cc                __ltdf2
 .text          0x00000000040031c0      0x718 c:/intelfpga/17.1/nios2eds/bin/gnu/h-x86_64-mingw32/bin/../lib/gcc/nios2-elf/5.3.0\libgcc.a(muldf3.o)
                0x00000000040031c0                __muldf3
 .text          0x00000000040038d8      0x8fc c:/intelfpga/17.1/nios2eds/bin/gnu/h-x86_64-mingw32/bin/../lib/gcc/nios2-elf/5.3.0\libgcc.a(subdf3.o)
                0x00000000040038d8                __subdf3
 .text          0x00000000040041d4      0x110 c:/intelfpga/17.1/nios2eds/bin/gnu/h-x86_64-mingw32/bin/../lib/gcc/nios2-elf/5.3.0\libgcc.a(extendsfdf2.o)
                0x00000000040041d4                __extendsfdf2
 .text          0x00000000040042e4      0x1a8 c:/intelfpga/17.1/nios2eds/bin/gnu/h-x86_64-mingw32/bin/../lib/gcc/nios2-elf/5.3.0\libgcc.a(truncdfsf2.o)
                0x00000000040042e4                __truncdfsf2
 .text          0x000000000400448c       0x64 c:/intelfpga/17.1/nios2eds/bin/gnu/h-x86_64-mingw32/bin/../lib/gcc/nios2-elf/5.3.0\libgcc.a(_clzsi2.o)
                0x000000000400448c                __clzsi2
 .text          0x00000000040044f0      0x1b4 c:/intelfpga/17.1/nios2eds/bin/gnu/h-x86_64-mingw32/bin/../lib/gcc/nios2-elf/5.3.0\libgcc.a(lib2-divmod.o)
                0x00000000040044f0                __divsi3
                0x0000000004004574                __modsi3
                0x00000000040045e8                __udivsi3
                0x000000000400464c                __umodsi3
 .text          0x00000000040046a4        0x0 c:/intelfpga/17.1/nios2eds/bin/gnu/h-x86_64-mingw32/bin/../lib/gcc/nios2-elf/5.3.0\libgcc.a(_clz.o)
 .text          0x00000000040046a4        0x0 ../tecnica2_bsp//newlib/nios2-elf/lib\libc.a(lib_a-errno.o)
 .text.__errno  0x00000000040046a4       0x20 ../tecnica2_bsp//newlib/nios2-elf/lib\libc.a(lib_a-errno.o)
                0x00000000040046a4                __errno
 .text          0x00000000040046c4        0x0 ../tecnica2_bsp//newlib/nios2-elf/lib\libc.a(lib_a-impure.o)
 .text          0x00000000040046c4        0x0 ../tecnica2_bsp//newlib/nios2-elf/lib\libc.a(lib_a-printf.o)
 .text._printf_r
                0x00000000040046c4       0x64 ../tecnica2_bsp//newlib/nios2-elf/lib\libc.a(lib_a-printf.o)
                0x00000000040046c4                _printf_r
 .text.printf   0x0000000004004728       0x68 ../tecnica2_bsp//newlib/nios2-elf/lib\libc.a(lib_a-printf.o)
                0x0000000004004728                printf
 .text          0x0000000004004790        0x0 ../tecnica2_bsp//newlib/nios2-elf/lib\libc.a(lib_a-putchar.o)
 .text._putchar_r
                0x0000000004004790       0x44 ../tecnica2_bsp//newlib/nios2-elf/lib\libc.a(lib_a-putchar.o)
                0x0000000004004790                _putchar_r
 .text.putchar  0x00000000040047d4       0x48 ../tecnica2_bsp//newlib/nios2-elf/lib\libc.a(lib_a-putchar.o)
                0x00000000040047d4                putchar
 .text          0x000000000400481c        0x0 ../tecnica2_bsp//newlib/nios2-elf/lib\libc.a(lib_a-puts.o)
 .text._puts_r  0x000000000400481c      0x118 ../tecnica2_bsp//newlib/nios2-elf/lib\libc.a(lib_a-puts.o)
                0x000000000400481c                _puts_r
 .text.puts     0x0000000004004934       0x38 ../tecnica2_bsp//newlib/nios2-elf/lib\libc.a(lib_a-puts.o)
                0x0000000004004934                puts
 .text          0x000000000400496c        0x0 ../tecnica2_bsp//newlib/nios2-elf/lib\libc.a(lib_a-rand.o)
 .text.srand    0x000000000400496c       0x44 ../tecnica2_bsp//newlib/nios2-elf/lib\libc.a(lib_a-rand.o)
                0x000000000400496c                srand
 .text.rand     0x00000000040049b0       0xc8 ../tecnica2_bsp//newlib/nios2-elf/lib\libc.a(lib_a-rand.o)
                0x00000000040049b0                rand
 .text          0x0000000004004a78        0x0 ../tecnica2_bsp//newlib/nios2-elf/lib\libc.a(lib_a-strlen.o)
 .text.strlen   0x0000000004004a78       0xf4 ../tecnica2_bsp//newlib/nios2-elf/lib\libc.a(lib_a-strlen.o)
                0x0000000004004a78                strlen
 .text          0x0000000004004b6c        0x0 ../tecnica2_bsp//newlib/nios2-elf/lib\libc.a(lib_a-system.o)
 .text._system_r
                0x0000000004004b6c       0x50 ../tecnica2_bsp//newlib/nios2-elf/lib\libc.a(lib_a-system.o)
                0x0000000004004b6c                _system_r
 .text.system   0x0000000004004bbc       0x38 ../tecnica2_bsp//newlib/nios2-elf/lib\libc.a(lib_a-system.o)
                0x0000000004004bbc                system
 .text          0x0000000004004bf4        0x0 ../tecnica2_bsp//newlib/nios2-elf/lib\libc.a(lib_a-time.o)
 .text.time     0x0000000004004bf4       0x60 ../tecnica2_bsp//newlib/nios2-elf/lib\libc.a(lib_a-time.o)
                0x0000000004004bf4                time
 .text          0x0000000004004c54        0x0 ../tecnica2_bsp//newlib/nios2-elf/lib\libc.a(lib_a-vfprintf.o)
 .text.__sbprintf
                0x0000000004004c54       0xf0 ../tecnica2_bsp//newlib/nios2-elf/lib\libc.a(lib_a-vfprintf.o)
 .text.__vfprintf_internal
                0x0000000004004d44       0x50 ../tecnica2_bsp//newlib/nios2-elf/lib\libc.a(lib_a-vfprintf.o)
                0x0000000004004d44                __vfprintf_internal
 .text.___vfprintf_internal_r
                0x0000000004004d94     0x20d0 ../tecnica2_bsp//newlib/nios2-elf/lib\libc.a(lib_a-vfprintf.o)
                0x0000000004004d94                ___vfprintf_internal_r
 .text.cvt      0x0000000004006e64      0x20c ../tecnica2_bsp//newlib/nios2-elf/lib\libc.a(lib_a-vfprintf.o)
 .text.exponent
                0x0000000004007070      0x140 ../tecnica2_bsp//newlib/nios2-elf/lib\libc.a(lib_a-vfprintf.o)
 .text          0x00000000040071b0        0x0 ../tecnica2_bsp//newlib/nios2-elf/lib\libc.a(lib_a-wsetup.o)
 .text.__swsetup_r
                0x00000000040071b0      0x1a0 ../tecnica2_bsp//newlib/nios2-elf/lib\libc.a(lib_a-wsetup.o)
                0x00000000040071b0                __swsetup_r
 .text          0x0000000004007350        0x0 ../tecnica2_bsp//newlib/nios2-elf/lib\libc.a(lib_a-dtoa.o)
 .text.quorem   0x0000000004007350      0x3b4 ../tecnica2_bsp//newlib/nios2-elf/lib\libc.a(lib_a-dtoa.o)
 .text._dtoa_r  0x0000000004007704     0x1b78 ../tecnica2_bsp//newlib/nios2-elf/lib\libc.a(lib_a-dtoa.o)
                0x0000000004007704                _dtoa_r
 .text          0x000000000400927c        0x0 ../tecnica2_bsp//newlib/nios2-elf/lib\libc.a(lib_a-fflush.o)
 .text.__sflush_r
                0x000000000400927c      0x304 ../tecnica2_bsp//newlib/nios2-elf/lib\libc.a(lib_a-fflush.o)
                0x000000000400927c                __sflush_r
 .text._fflush_r
                0x0000000004009580       0x88 ../tecnica2_bsp//newlib/nios2-elf/lib\libc.a(lib_a-fflush.o)
                0x0000000004009580                _fflush_r
 .text.fflush   0x0000000004009608       0x54 ../tecnica2_bsp//newlib/nios2-elf/lib\libc.a(lib_a-fflush.o)
                0x0000000004009608                fflush
 .text          0x000000000400965c        0x0 ../tecnica2_bsp//newlib/nios2-elf/lib\libc.a(lib_a-findfp.o)
 .text.std      0x000000000400965c       0xf4 ../tecnica2_bsp//newlib/nios2-elf/lib\libc.a(lib_a-findfp.o)
 .text.__sfmoreglue
                0x0000000004009750       0xa4 ../tecnica2_bsp//newlib/nios2-elf/lib\libc.a(lib_a-findfp.o)
                0x0000000004009750                __sfmoreglue
 .text.__sfp    0x00000000040097f4      0x194 ../tecnica2_bsp//newlib/nios2-elf/lib\libc.a(lib_a-findfp.o)
                0x00000000040097f4                __sfp
 .text._cleanup_r
                0x0000000004009988       0x44 ../tecnica2_bsp//newlib/nios2-elf/lib\libc.a(lib_a-findfp.o)
                0x0000000004009988                _cleanup_r
 .text._cleanup
                0x00000000040099cc       0x34 ../tecnica2_bsp//newlib/nios2-elf/lib\libc.a(lib_a-findfp.o)
                0x00000000040099cc                _cleanup
 .text.__sinit  0x0000000004009a00       0xd8 ../tecnica2_bsp//newlib/nios2-elf/lib\libc.a(lib_a-findfp.o)
                0x0000000004009a00                __sinit
 .text.__sfp_lock_acquire
                0x0000000004009ad8       0x20 ../tecnica2_bsp//newlib/nios2-elf/lib\libc.a(lib_a-findfp.o)
                0x0000000004009ad8                __sfp_lock_acquire
 .text.__sfp_lock_release
                0x0000000004009af8       0x20 ../tecnica2_bsp//newlib/nios2-elf/lib\libc.a(lib_a-findfp.o)
                0x0000000004009af8                __sfp_lock_release
 .text.__sinit_lock_acquire
                0x0000000004009b18       0x20 ../tecnica2_bsp//newlib/nios2-elf/lib\libc.a(lib_a-findfp.o)
                0x0000000004009b18                __sinit_lock_acquire
 .text.__sinit_lock_release
                0x0000000004009b38       0x20 ../tecnica2_bsp//newlib/nios2-elf/lib\libc.a(lib_a-findfp.o)
                0x0000000004009b38                __sinit_lock_release
 .text.__fp_lock
                0x0000000004009b58       0x24 ../tecnica2_bsp//newlib/nios2-elf/lib\libc.a(lib_a-findfp.o)
 .text.__fp_unlock
                0x0000000004009b7c       0x24 ../tecnica2_bsp//newlib/nios2-elf/lib\libc.a(lib_a-findfp.o)
 .text.__fp_lock_all
                0x0000000004009ba0       0x40 ../tecnica2_bsp//newlib/nios2-elf/lib\libc.a(lib_a-findfp.o)
                0x0000000004009ba0                __fp_lock_all
 .text.__fp_unlock_all
                0x0000000004009be0       0x40 ../tecnica2_bsp//newlib/nios2-elf/lib\libc.a(lib_a-findfp.o)
                0x0000000004009be0                __fp_unlock_all
 .text          0x0000000004009c20        0x0 ../tecnica2_bsp//newlib/nios2-elf/lib\libc.a(lib_a-freer.o)
 .text._free_r  0x0000000004009c20      0x560 ../tecnica2_bsp//newlib/nios2-elf/lib\libc.a(lib_a-freer.o)
                0x0000000004009c20                _free_r
 .text._malloc_trim_r
                0x000000000400a180      0x1cc ../tecnica2_bsp//newlib/nios2-elf/lib\libc.a(lib_a-freer.o)
                0x000000000400a180                _malloc_trim_r
 .text          0x000000000400a34c        0x0 ../tecnica2_bsp//newlib/nios2-elf/lib\libc.a(lib_a-fvwrite.o)
 .text.__sfvwrite_r
                0x000000000400a34c      0x5dc ../tecnica2_bsp//newlib/nios2-elf/lib\libc.a(lib_a-fvwrite.o)
                0x000000000400a34c                __sfvwrite_r
 .text          0x000000000400a928        0x0 ../tecnica2_bsp//newlib/nios2-elf/lib\libc.a(lib_a-fwalk.o)
 .text._fwalk   0x000000000400a928       0xd8 ../tecnica2_bsp//newlib/nios2-elf/lib\libc.a(lib_a-fwalk.o)
                0x000000000400a928                _fwalk
 .text._fwalk_reent
                0x000000000400aa00       0xdc ../tecnica2_bsp//newlib/nios2-elf/lib\libc.a(lib_a-fwalk.o)
                0x000000000400aa00                _fwalk_reent
 .text          0x000000000400aadc        0x0 ../tecnica2_bsp//newlib/nios2-elf/lib\libc.a(lib_a-gettimeofdayr.o)
 .text._gettimeofday_r
                0x000000000400aadc       0x68 ../tecnica2_bsp//newlib/nios2-elf/lib\libc.a(lib_a-gettimeofdayr.o)
                0x000000000400aadc                _gettimeofday_r
 .text          0x000000000400ab44        0x0 ../tecnica2_bsp//newlib/nios2-elf/lib\libc.a(lib_a-int_errno.o)
 .text          0x000000000400ab44        0x0 ../tecnica2_bsp//newlib/nios2-elf/lib\libc.a(lib_a-locale.o)
 .text._setlocale_r
                0x000000000400ab44       0x84 ../tecnica2_bsp//newlib/nios2-elf/lib\libc.a(lib_a-locale.o)
                0x000000000400ab44                _setlocale_r
 .text.__locale_charset
                0x000000000400abc8       0x24 ../tecnica2_bsp//newlib/nios2-elf/lib\libc.a(lib_a-locale.o)
                0x000000000400abc8                __locale_charset
 .text.__locale_mb_cur_max
                0x000000000400abec       0x20 ../tecnica2_bsp//newlib/nios2-elf/lib\libc.a(lib_a-locale.o)
                0x000000000400abec                __locale_mb_cur_max
 .text.__locale_msgcharset
                0x000000000400ac0c       0x24 ../tecnica2_bsp//newlib/nios2-elf/lib\libc.a(lib_a-locale.o)
                0x000000000400ac0c                __locale_msgcharset
 .text.__locale_cjk_lang
                0x000000000400ac30       0x20 ../tecnica2_bsp//newlib/nios2-elf/lib\libc.a(lib_a-locale.o)
                0x000000000400ac30                __locale_cjk_lang
 .text._localeconv_r
                0x000000000400ac50       0x28 ../tecnica2_bsp//newlib/nios2-elf/lib\libc.a(lib_a-locale.o)
                0x000000000400ac50                _localeconv_r
 .text.setlocale
                0x000000000400ac78       0x40 ../tecnica2_bsp//newlib/nios2-elf/lib\libc.a(lib_a-locale.o)
                0x000000000400ac78                setlocale
 .text.localeconv
                0x000000000400acb8       0x30 ../tecnica2_bsp//newlib/nios2-elf/lib\libc.a(lib_a-locale.o)
                0x000000000400acb8                localeconv
 .text          0x000000000400ace8        0x0 ../tecnica2_bsp//newlib/nios2-elf/lib\libc.a(lib_a-makebuf.o)
 .text.__smakebuf_r
                0x000000000400ace8      0x22c ../tecnica2_bsp//newlib/nios2-elf/lib\libc.a(lib_a-makebuf.o)
                0x000000000400ace8                __smakebuf_r
 .text          0x000000000400af14        0x0 ../tecnica2_bsp//newlib/nios2-elf/lib\libc.a(lib_a-mallocr.o)
 .text.malloc_extend_top
                0x000000000400af14      0x3b4 ../tecnica2_bsp//newlib/nios2-elf/lib\libc.a(lib_a-mallocr.o)
 .text._malloc_r
                0x000000000400b2c8      0xb7c ../tecnica2_bsp//newlib/nios2-elf/lib\libc.a(lib_a-mallocr.o)
                0x000000000400b2c8                _malloc_r
 .text          0x000000000400be44        0x0 ../tecnica2_bsp//newlib/nios2-elf/lib\libc.a(lib_a-memchr.o)
 .text.memchr   0x000000000400be44      0x1bc ../tecnica2_bsp//newlib/nios2-elf/lib\libc.a(lib_a-memchr.o)
                0x000000000400be44                memchr
 .text          0x000000000400c000        0x0 ../tecnica2_bsp//newlib/nios2-elf/lib\libc.a(lib_a-memcpy.o)
 .text.memcpy   0x000000000400c000      0x188 ../tecnica2_bsp//newlib/nios2-elf/lib\libc.a(lib_a-memcpy.o)
                0x000000000400c000                memcpy
 .text          0x000000000400c188        0x0 ../tecnica2_bsp//newlib/nios2-elf/lib\libc.a(lib_a-memmove.o)
 .text.memmove  0x000000000400c188      0x208 ../tecnica2_bsp//newlib/nios2-elf/lib\libc.a(lib_a-memmove.o)
                0x000000000400c188                memmove
 .text          0x000000000400c390        0x0 ../tecnica2_bsp//newlib/nios2-elf/lib\libc.a(lib_a-memset.o)
 .text.memset   0x000000000400c390      0x1c4 ../tecnica2_bsp//newlib/nios2-elf/lib\libc.a(lib_a-memset.o)
                0x000000000400c390                memset
 .text          0x000000000400c554        0x0 ../tecnica2_bsp//newlib/nios2-elf/lib\libc.a(lib_a-mprec.o)
 .text._Balloc  0x000000000400c554      0x130 ../tecnica2_bsp//newlib/nios2-elf/lib\libc.a(lib_a-mprec.o)
                0x000000000400c554                _Balloc
 .text._Bfree   0x000000000400c684       0x7c ../tecnica2_bsp//newlib/nios2-elf/lib\libc.a(lib_a-mprec.o)
                0x000000000400c684                _Bfree
 .text.__multadd
                0x000000000400c700      0x194 ../tecnica2_bsp//newlib/nios2-elf/lib\libc.a(lib_a-mprec.o)
                0x000000000400c700                __multadd
 .text.__s2b    0x000000000400c894      0x18c ../tecnica2_bsp//newlib/nios2-elf/lib\libc.a(lib_a-mprec.o)
                0x000000000400c894                __s2b
 .text.__hi0bits
                0x000000000400ca20       0x90 ../tecnica2_bsp//newlib/nios2-elf/lib\libc.a(lib_a-mprec.o)
                0x000000000400ca20                __hi0bits
 .text.__lo0bits
                0x000000000400cab0       0xec ../tecnica2_bsp//newlib/nios2-elf/lib\libc.a(lib_a-mprec.o)
                0x000000000400cab0                __lo0bits
 .text.__i2b    0x000000000400cb9c       0x58 ../tecnica2_bsp//newlib/nios2-elf/lib\libc.a(lib_a-mprec.o)
                0x000000000400cb9c                __i2b
 .text.__multiply
                0x000000000400cbf4      0x3d0 ../tecnica2_bsp//newlib/nios2-elf/lib\libc.a(lib_a-mprec.o)
                0x000000000400cbf4                __multiply
 .text.__pow5mult
                0x000000000400cfc4      0x178 ../tecnica2_bsp//newlib/nios2-elf/lib\libc.a(lib_a-mprec.o)
                0x000000000400cfc4                __pow5mult
 .text.__lshift
                0x000000000400d13c      0x1f8 ../tecnica2_bsp//newlib/nios2-elf/lib\libc.a(lib_a-mprec.o)
                0x000000000400d13c                __lshift
 .text.__mcmp   0x000000000400d334      0x114 ../tecnica2_bsp//newlib/nios2-elf/lib\libc.a(lib_a-mprec.o)
                0x000000000400d334                __mcmp
 .text.__mdiff  0x000000000400d448      0x2a4 ../tecnica2_bsp//newlib/nios2-elf/lib\libc.a(lib_a-mprec.o)
                0x000000000400d448                __mdiff
 .text.__ulp    0x000000000400d6ec       0xcc ../tecnica2_bsp//newlib/nios2-elf/lib\libc.a(lib_a-mprec.o)
                0x000000000400d6ec                __ulp
 .text.__b2d    0x000000000400d7b8      0x204 ../tecnica2_bsp//newlib/nios2-elf/lib\libc.a(lib_a-mprec.o)
                0x000000000400d7b8                __b2d
 .text.__d2b    0x000000000400d9bc      0x240 ../tecnica2_bsp//newlib/nios2-elf/lib\libc.a(lib_a-mprec.o)
                0x000000000400d9bc                __d2b
 .text.__ratio  0x000000000400dbfc      0x11c ../tecnica2_bsp//newlib/nios2-elf/lib\libc.a(lib_a-mprec.o)
                0x000000000400dbfc                __ratio
 .text._mprec_log10
                0x000000000400dd18       0xb0 ../tecnica2_bsp//newlib/nios2-elf/lib\libc.a(lib_a-mprec.o)
                0x000000000400dd18                _mprec_log10
 .text.__copybits
                0x000000000400ddc8       0xd0 ../tecnica2_bsp//newlib/nios2-elf/lib\libc.a(lib_a-mprec.o)
                0x000000000400ddc8                __copybits
 .text.__any_on
                0x000000000400de98      0x134 ../tecnica2_bsp//newlib/nios2-elf/lib\libc.a(lib_a-mprec.o)
                0x000000000400de98                __any_on
 .text          0x000000000400dfcc        0x0 ../tecnica2_bsp//newlib/nios2-elf/lib\libc.a(lib_a-putc.o)
 .text._putc_r  0x000000000400dfcc      0x104 ../tecnica2_bsp//newlib/nios2-elf/lib\libc.a(lib_a-putc.o)
                0x000000000400dfcc                _putc_r
 .text.putc     0x000000000400e0d0      0x108 ../tecnica2_bsp//newlib/nios2-elf/lib\libc.a(lib_a-putc.o)
                0x000000000400e0d0                putc
 .text          0x000000000400e1d8        0x0 ../tecnica2_bsp//newlib/nios2-elf/lib\libc.a(lib_a-reallocr.o)
 .text._realloc_r
                0x000000000400e1d8      0xbf0 ../tecnica2_bsp//newlib/nios2-elf/lib\libc.a(lib_a-reallocr.o)
                0x000000000400e1d8                _realloc_r
 .text          0x000000000400edc8        0x0 ../tecnica2_bsp//newlib/nios2-elf/lib\libc.a(lib_a-sbrkr.o)
 .text._sbrk_r  0x000000000400edc8       0x60 ../tecnica2_bsp//newlib/nios2-elf/lib\libc.a(lib_a-sbrkr.o)
                0x000000000400edc8                _sbrk_r
 .text          0x000000000400ee28        0x0 ../tecnica2_bsp//newlib/nios2-elf/lib\libc.a(lib_a-stdio.o)
 .text.__sread  0x000000000400ee28       0x9c ../tecnica2_bsp//newlib/nios2-elf/lib\libc.a(lib_a-stdio.o)
                0x000000000400ee28                __sread
 .text.__seofread
                0x000000000400eec4       0x30 ../tecnica2_bsp//newlib/nios2-elf/lib\libc.a(lib_a-stdio.o)
                0x000000000400eec4                __seofread
 .text.__swrite
                0x000000000400eef4       0xb4 ../tecnica2_bsp//newlib/nios2-elf/lib\libc.a(lib_a-stdio.o)
                0x000000000400eef4                __swrite
 .text.__sseek  0x000000000400efa8       0xa0 ../tecnica2_bsp//newlib/nios2-elf/lib\libc.a(lib_a-stdio.o)
                0x000000000400efa8                __sseek
 .text.__sclose
                0x000000000400f048       0x54 ../tecnica2_bsp//newlib/nios2-elf/lib\libc.a(lib_a-stdio.o)
                0x000000000400f048                __sclose
 .text          0x000000000400f09c        0x0 ../tecnica2_bsp//newlib/nios2-elf/lib\libc.a(lib_a-strcmp.o)
 .text.strcmp   0x000000000400f09c      0x140 ../tecnica2_bsp//newlib/nios2-elf/lib\libc.a(lib_a-strcmp.o)
                0x000000000400f09c                strcmp
 .text          0x000000000400f1dc        0x0 ../tecnica2_bsp//newlib/nios2-elf/lib\libc.a(lib_a-vfiprintf.o)
 .text.__sprint_r
                0x000000000400f1dc      0x13c ../tecnica2_bsp//newlib/nios2-elf/lib\libc.a(lib_a-vfiprintf.o)
                0x000000000400f1dc                __sprint_r
 .text.__sbprintf
                0x000000000400f318       0xf0 ../tecnica2_bsp//newlib/nios2-elf/lib\libc.a(lib_a-vfiprintf.o)
 .text.__vfiprintf_internal
                0x000000000400f408       0x50 ../tecnica2_bsp//newlib/nios2-elf/lib\libc.a(lib_a-vfiprintf.o)
                0x000000000400f408                __vfiprintf_internal
 .text.___vfiprintf_internal_r
                0x000000000400f458     0x12c4 ../tecnica2_bsp//newlib/nios2-elf/lib\libc.a(lib_a-vfiprintf.o)
                0x000000000400f458                ___vfiprintf_internal_r
 .text          0x000000000401071c        0x0 ../tecnica2_bsp//newlib/nios2-elf/lib\libc.a(lib_a-wbuf.o)
 .text.__swbuf_r
                0x000000000401071c      0x168 ../tecnica2_bsp//newlib/nios2-elf/lib\libc.a(lib_a-wbuf.o)
                0x000000000401071c                __swbuf_r
 .text.__swbuf  0x0000000004010884       0x40 ../tecnica2_bsp//newlib/nios2-elf/lib\libc.a(lib_a-wbuf.o)
                0x0000000004010884                __swbuf
 .text          0x00000000040108c4        0x0 ../tecnica2_bsp//newlib/nios2-elf/lib\libc.a(lib_a-writer.o)
 .text._write_r
                0x00000000040108c4       0x70 ../tecnica2_bsp//newlib/nios2-elf/lib\libc.a(lib_a-writer.o)
                0x00000000040108c4                _write_r
 .text          0x0000000004010934        0x0 ../tecnica2_bsp//newlib/nios2-elf/lib\libc.a(closer.o)
 .text._close_r
                0x0000000004010934       0x60 ../tecnica2_bsp//newlib/nios2-elf/lib\libc.a(closer.o)
                0x0000000004010934                _close_r
 .text          0x0000000004010994        0x0 ../tecnica2_bsp//newlib/nios2-elf/lib\libc.a(lib_a-callocr.o)
 .text._calloc_r
                0x0000000004010994      0x164 ../tecnica2_bsp//newlib/nios2-elf/lib\libc.a(lib_a-callocr.o)
                0x0000000004010994                _calloc_r
 .text          0x0000000004010af8        0x0 ../tecnica2_bsp//newlib/nios2-elf/lib\libc.a(lib_a-fclose.o)
 .text._fclose_r
                0x0000000004010af8      0x12c ../tecnica2_bsp//newlib/nios2-elf/lib\libc.a(lib_a-fclose.o)
                0x0000000004010af8                _fclose_r
 .text.fclose   0x0000000004010c24       0x38 ../tecnica2_bsp//newlib/nios2-elf/lib\libc.a(lib_a-fclose.o)
                0x0000000004010c24                fclose
 .text          0x0000000004010c5c        0x0 ../tecnica2_bsp//newlib/nios2-elf/lib\libc.a(lib_a-fputwc.o)
 .text.__fputwc
                0x0000000004010c5c      0x1f4 ../tecnica2_bsp//newlib/nios2-elf/lib\libc.a(lib_a-fputwc.o)
                0x0000000004010c5c                __fputwc
 .text._fputwc_r
                0x0000000004010e50       0x88 ../tecnica2_bsp//newlib/nios2-elf/lib\libc.a(lib_a-fputwc.o)
                0x0000000004010e50                _fputwc_r
 .text.fputwc   0x0000000004010ed8       0x68 ../tecnica2_bsp//newlib/nios2-elf/lib\libc.a(lib_a-fputwc.o)
                0x0000000004010ed8                fputwc
 .text          0x0000000004010f40        0x0 ../tecnica2_bsp//newlib/nios2-elf/lib\libc.a(lib_a-fstatr.o)
 .text._fstat_r
                0x0000000004010f40       0x68 ../tecnica2_bsp//newlib/nios2-elf/lib\libc.a(lib_a-fstatr.o)
                0x0000000004010f40                _fstat_r
 .text          0x0000000004010fa8        0x0 ../tecnica2_bsp//newlib/nios2-elf/lib\libc.a(lib_a-isattyr.o)
 .text._isatty_r
                0x0000000004010fa8       0x60 ../tecnica2_bsp//newlib/nios2-elf/lib\libc.a(lib_a-isattyr.o)
                0x0000000004010fa8                _isatty_r
 .text          0x0000000004011008        0x0 ../tecnica2_bsp//newlib/nios2-elf/lib\libc.a(lib_a-lseekr.o)
 .text._lseek_r
                0x0000000004011008       0x70 ../tecnica2_bsp//newlib/nios2-elf/lib\libc.a(lib_a-lseekr.o)
                0x0000000004011008                _lseek_r
 .text          0x0000000004011078        0x0 ../tecnica2_bsp//newlib/nios2-elf/lib\libc.a(lib_a-readr.o)
 .text._read_r  0x0000000004011078       0x70 ../tecnica2_bsp//newlib/nios2-elf/lib\libc.a(lib_a-readr.o)
                0x0000000004011078                _read_r
 .text          0x00000000040110e8        0x0 ../tecnica2_bsp//newlib/nios2-elf/lib\libc.a(lib_a-wcrtomb.o)
 .text._wcrtomb_r
                0x00000000040110e8       0xd4 ../tecnica2_bsp//newlib/nios2-elf/lib\libc.a(lib_a-wcrtomb.o)
                0x00000000040110e8                _wcrtomb_r
 .text.wcrtomb  0x00000000040111bc       0xd8 ../tecnica2_bsp//newlib/nios2-elf/lib\libc.a(lib_a-wcrtomb.o)
                0x00000000040111bc                wcrtomb
 .text          0x0000000004011294        0x0 ../tecnica2_bsp//newlib/nios2-elf/lib\libc.a(lib_a-wctomb_r.o)
 .text._wctomb_r
                0x0000000004011294       0x64 ../tecnica2_bsp//newlib/nios2-elf/lib\libc.a(lib_a-wctomb_r.o)
                0x0000000004011294                _wctomb_r
 .text.__ascii_wctomb
                0x00000000040112f8       0x78 ../tecnica2_bsp//newlib/nios2-elf/lib\libc.a(lib_a-wctomb_r.o)
                0x00000000040112f8                __ascii_wctomb
 .text          0x0000000004011370       0x60 c:/intelfpga/17.1/nios2eds/bin/gnu/h-x86_64-mingw32/bin/../lib/gcc/nios2-elf/5.3.0\libgcc.a(_muldi3.o)
                0x0000000004011370                __muldi3
 .text          0x00000000040113d0      0x578 c:/intelfpga/17.1/nios2eds/bin/gnu/h-x86_64-mingw32/bin/../lib/gcc/nios2-elf/5.3.0\libgcc.a(_udivdi3.o)
                0x00000000040113d0                __udivdi3
 .text          0x0000000004011948      0x538 c:/intelfpga/17.1/nios2eds/bin/gnu/h-x86_64-mingw32/bin/../lib/gcc/nios2-elf/5.3.0\libgcc.a(_umoddi3.o)
                0x0000000004011948                __umoddi3
 .text          0x0000000004011e80       0x80 c:/intelfpga/17.1/nios2eds/bin/gnu/h-x86_64-mingw32/bin/../lib/gcc/nios2-elf/5.3.0\libgcc.a(fixdfsi.o)
                0x0000000004011e80                __fixdfsi
 .text          0x0000000004011f00       0xdc c:/intelfpga/17.1/nios2eds/bin/gnu/h-x86_64-mingw32/bin/../lib/gcc/nios2-elf/5.3.0\libgcc.a(floatsidf.o)
                0x0000000004011f00                __floatsidf
 .text          0x0000000004011fdc       0xa8 c:/intelfpga/17.1/nios2eds/bin/gnu/h-x86_64-mingw32/bin/../lib/gcc/nios2-elf/5.3.0\libgcc.a(floatunsidf.o)
                0x0000000004011fdc                __floatunsidf
 .text          0x0000000004012084      0x10c ../tecnica2_bsp/\libhal_bsp.a(alt_close.o)
                0x00000000040120c0                close
 .text          0x0000000004012190       0x2c ../tecnica2_bsp/\libhal_bsp.a(alt_dev.o)
 .text          0x00000000040121bc        0x0 ../tecnica2_bsp/\libhal_bsp.a(alt_errno.o)
 .text          0x00000000040121bc       0xec ../tecnica2_bsp/\libhal_bsp.a(alt_fstat.o)
                0x00000000040121f8                fstat
 .text          0x00000000040122a8      0x1f4 ../tecnica2_bsp/\libhal_bsp.a(alt_gettod.o)
                0x00000000040122a8                gettimeofday
 .text          0x000000000401249c       0xe0 ../tecnica2_bsp/\libhal_bsp.a(alt_isatty.o)
                0x00000000040124d8                isatty
 .text          0x000000000401257c       0xec ../tecnica2_bsp/\libhal_bsp.a(alt_load.o)
                0x00000000040125e4                alt_load
 .text          0x0000000004012668      0x110 ../tecnica2_bsp/\libhal_bsp.a(alt_lseek.o)
                0x00000000040126a4                lseek
 .text          0x0000000004012778       0x7c ../tecnica2_bsp/\libhal_bsp.a(alt_main.o)
                0x0000000004012778                alt_main
 .text          0x00000000040127f4       0x48 ../tecnica2_bsp/\libhal_bsp.a(alt_malloc_lock.o)
                0x00000000040127f4                __malloc_lock
                0x0000000004012818                __malloc_unlock
 .text          0x000000000401283c      0x138 ../tecnica2_bsp/\libhal_bsp.a(alt_read.o)
                0x0000000004012878                read
 .text          0x0000000004012974       0x64 ../tecnica2_bsp/\libhal_bsp.a(alt_release_fd.o)
                0x0000000004012974                alt_release_fd
 .text          0x00000000040129d8       0xb0 ../tecnica2_bsp/\libhal_bsp.a(alt_sbrk.o)
                0x00000000040129d8                sbrk
 .text          0x0000000004012a88      0x1a4 ../tecnica2_bsp/\libhal_bsp.a(alt_tick.o)
                0x0000000004012a88                alt_alarm_stop
                0x0000000004012b24                alt_tick
 .text          0x0000000004012c2c      0x134 ../tecnica2_bsp/\libhal_bsp.a(alt_write.o)
                0x0000000004012c68                write
 .text          0x0000000004012d60       0xd8 ../tecnica2_bsp/\libhal_bsp.a(alt_sys_init.o)
                0x0000000004012d94                alt_irq_init
                0x0000000004012dcc                alt_sys_init
 .text          0x0000000004012e38      0x164 ../tecnica2_bsp/\libhal_bsp.a(altera_avalon_jtag_uart_fd.o)
                0x0000000004012e38                altera_avalon_jtag_uart_read_fd
                0x0000000004012e98                altera_avalon_jtag_uart_write_fd
                0x0000000004012ef8                altera_avalon_jtag_uart_close_fd
                0x0000000004012f48                altera_avalon_jtag_uart_ioctl_fd
 .text          0x0000000004012f9c      0x3d4 ../tecnica2_bsp/\libhal_bsp.a(altera_avalon_jtag_uart_init.o)
                0x0000000004012f9c                altera_avalon_jtag_uart_init
                0x0000000004013308                altera_avalon_jtag_uart_close
 .text          0x0000000004013370       0xf0 ../tecnica2_bsp/\libhal_bsp.a(altera_avalon_jtag_uart_ioctl.o)
                0x0000000004013370                altera_avalon_jtag_uart_ioctl
 .text          0x0000000004013460      0x21c ../tecnica2_bsp/\libhal_bsp.a(altera_avalon_jtag_uart_read.o)
                0x0000000004013460                altera_avalon_jtag_uart_read
 .text          0x000000000401367c      0x224 ../tecnica2_bsp/\libhal_bsp.a(altera_avalon_jtag_uart_write.o)
                0x000000000401367c                altera_avalon_jtag_uart_write
 .text          0x00000000040138a0       0xf4 ../tecnica2_bsp/\libhal_bsp.a(altera_avalon_timer_sc.o)
                0x0000000004013918                alt_avalon_timer_sc_init
 .text          0x0000000004013994      0x280 ../tecnica2_bsp/\libhal_bsp.a(perf_print_formatted_report.o)
                0x0000000004013994                perf_print_formatted_report
 .text          0x0000000004013c14      0x12c ../tecnica2_bsp/\libhal_bsp.a(alt_alarm_start.o)
                0x0000000004013c14                alt_alarm_start
 .text          0x0000000004013d40       0x48 ../tecnica2_bsp/\libhal_bsp.a(alt_dcache_flush_all.o)
                0x0000000004013d40                alt_dcache_flush_all
 .text          0x0000000004013d88       0xe0 ../tecnica2_bsp/\libhal_bsp.a(alt_dev_llist_insert.o)
                0x0000000004013dc4                alt_dev_llist_insert
 .text          0x0000000004013e68       0x60 ../tecnica2_bsp/\libhal_bsp.a(alt_do_ctors.o)
                0x0000000004013e68                _do_ctors
 .text          0x0000000004013ec8       0x60 ../tecnica2_bsp/\libhal_bsp.a(alt_do_dtors.o)
                0x0000000004013ec8                _do_dtors
 .text          0x0000000004013f28       0x34 ../tecnica2_bsp/\libhal_bsp.a(alt_icache_flush_all.o)
                0x0000000004013f28                alt_icache_flush_all
 .text          0x0000000004013f5c      0x1b0 ../tecnica2_bsp/\libhal_bsp.a(alt_iic.o)
                0x0000000004013f5c                alt_ic_isr_register
                0x0000000004013fac                alt_ic_irq_enable
                0x0000000004014034                alt_ic_irq_disable
                0x00000000040140c0                alt_ic_irq_enabled
 .text          0x000000000401410c       0xf0 ../tecnica2_bsp/\libhal_bsp.a(alt_iic_isr_register.o)
                0x000000000401410c                alt_iic_isr_register
 .text          0x00000000040141fc      0x140 ../tecnica2_bsp/\libhal_bsp.a(alt_io_redirect.o)
                0x00000000040142c0                alt_io_redirect
 .text          0x000000000401433c        0x0 ../tecnica2_bsp/\libhal_bsp.a(alt_irq_entry.o)
 .text          0x000000000401433c        0x0 ../tecnica2_bsp/\libhal_bsp.a(alt_irq_handler.o)
 .text          0x000000000401433c        0x0 ../tecnica2_bsp/\libhal_bsp.a(alt_irq_vars.o)
 .text          0x000000000401433c      0x254 ../tecnica2_bsp/\libhal_bsp.a(alt_open.o)
                0x000000000401443c                open
 .text          0x0000000004014590       0x24 ../tecnica2_bsp/\libhal_bsp.a(altera_nios2_gen2_irq.o)
                0x0000000004014590                altera_nios2_gen2_irq_init
 .text          0x00000000040145b4      0x18c ../tecnica2_bsp/\libhal_bsp.a(altera_avalon_performance_counter.o)
                0x00000000040145b4                perf_get_section_time
                0x0000000004014670                perf_get_total_time
                0x00000000040146bc                perf_get_num_starts
                0x00000000040146fc                alt_get_performance_counter_base
                0x000000000401471c                alt_get_cpu_freq
 .text          0x0000000004014740        0x0 ../tecnica2_bsp/\libhal_bsp.a(alt_exception_entry.o)
 .text          0x0000000004014740       0x90 ../tecnica2_bsp/\libhal_bsp.a(alt_find_dev.o)
                0x0000000004014740                alt_find_dev
 .text          0x00000000040147d0      0x108 ../tecnica2_bsp/\libhal_bsp.a(alt_find_file.o)
                0x00000000040147d0                alt_find_file
 .text          0x00000000040148d8       0xa4 ../tecnica2_bsp/\libhal_bsp.a(alt_get_fd.o)
                0x00000000040148d8                alt_get_fd
 .text          0x000000000401497c       0x90 ../tecnica2_bsp/\libhal_bsp.a(alt_icache_flush.o)
                0x000000000401497c                alt_icache_flush
 .text          0x0000000004014a0c       0x9c ../tecnica2_bsp/\libhal_bsp.a(alt_instruction_exception_entry.o)
                0x0000000004014a0c                alt_exception_cause_generated_bad_addr
 .text          0x0000000004014aa8        0x0 ../tecnica2_bsp//newlib/nios2-elf/lib\libc.a(lib_a-atexit.o)
 .text.atexit   0x0000000004014aa8       0x3c ../tecnica2_bsp//newlib/nios2-elf/lib\libc.a(lib_a-atexit.o)
                0x0000000004014aa8                atexit
 .text          0x0000000004014ae4        0x0 ../tecnica2_bsp//newlib/nios2-elf/lib\libc.a(lib_a-exit.o)
 .text.exit     0x0000000004014ae4       0x48 ../tecnica2_bsp//newlib/nios2-elf/lib\libc.a(lib_a-exit.o)
                0x0000000004014ae4                exit
 .text          0x0000000004014b2c        0x0 ../tecnica2_bsp//newlib/nios2-elf/lib\libc.a(lib_a-memcmp.o)
 .text.memcmp   0x0000000004014b2c      0x134 ../tecnica2_bsp//newlib/nios2-elf/lib\libc.a(lib_a-memcmp.o)
                0x0000000004014b2c                memcmp
 .text          0x0000000004014c60        0x0 ../tecnica2_bsp//newlib/nios2-elf/lib\libc.a(lib_a-__atexit.o)
 .text.__register_exitproc
                0x0000000004014c60      0x170 ../tecnica2_bsp//newlib/nios2-elf/lib\libc.a(lib_a-__atexit.o)
                0x0000000004014c60                __register_exitproc
 .text          0x0000000004014dd0        0x0 ../tecnica2_bsp//newlib/nios2-elf/lib\libc.a(lib_a-__call_atexit.o)
 .text.__call_exitprocs
                0x0000000004014dd0      0x1ec ../tecnica2_bsp//newlib/nios2-elf/lib\libc.a(lib_a-__call_atexit.o)
                0x0000000004014dd0                __call_exitprocs
 .text          0x0000000004014fbc       0x70 c:/intelfpga/17.1/nios2eds/bin/gnu/h-x86_64-mingw32/bin/../lib/gcc/nios2-elf/5.3.0\libgcc.a(_floatundidf.o)
                0x0000000004014fbc                __floatundidf
 .text          0x000000000401502c       0x34 ../tecnica2_bsp/\libhal_bsp.a(alt_exit.o)
                0x000000000401502c                _exit
 *(.gnu.warning.*)
 *(.fini)
                [!provide]                        PROVIDE (__etext, ABSOLUTE (.))
                [!provide]                        PROVIDE (_etext, ABSOLUTE (.))
                [!provide]                        PROVIDE (etext, ABSOLUTE (.))
 *(.eh_frame_hdr)
                0x0000000004015060                . = ALIGN (0x4)
                [!provide]                        PROVIDE (__preinit_array_start, ABSOLUTE (.))
 *(.preinit_array)
                [!provide]                        PROVIDE (__preinit_array_end, ABSOLUTE (.))
                [!provide]                        PROVIDE (__init_array_start, ABSOLUTE (.))
 *(.init_array)
                [!provide]                        PROVIDE (__init_array_end, ABSOLUTE (.))
                [!provide]                        PROVIDE (__fini_array_start, ABSOLUTE (.))
 *(.fini_array)
                [!provide]                        PROVIDE (__fini_array_end, ABSOLUTE (.))
 *(.eh_frame)
 *(.gcc_except_table .gcc_except_table.*)
 *(.dynamic)
                0x0000000004015060                PROVIDE (__CTOR_LIST__, ABSOLUTE (.))
 *(.ctors)
 *(SORT(.ctors.*))
                0x0000000004015060                PROVIDE (__CTOR_END__, ABSOLUTE (.))
                0x0000000004015060                PROVIDE (__DTOR_LIST__, ABSOLUTE (.))
 *(.dtors)
 *(SORT(.dtors.*))
                0x0000000004015060                PROVIDE (__DTOR_END__, ABSOLUTE (.))
 *(.jcr)
                0x0000000004015060                . = ALIGN (0x4)

.rodata         0x0000000004015060      0x52c
                0x0000000004015060                PROVIDE (__ram_rodata_start, ABSOLUTE (.))
                0x0000000004015060                . = ALIGN (0x4)
 *(.rodata .rodata.* .gnu.linkonce.r.*)
 .rodata        0x0000000004015060       0xb6 obj/default/backpropagation_best2019_superdef_ver2_alumnos-1.o
 *fill*         0x0000000004015116        0x2 
 .rodata        0x0000000004015118        0x5 ../tecnica2_bsp//newlib/nios2-elf/lib\libm.a(lib_a-w_sqrt.o)
 .rodata        0x000000000401511d      0x100 c:/intelfpga/17.1/nios2eds/bin/gnu/h-x86_64-mingw32/bin/../lib/gcc/nios2-elf/5.3.0\libgcc.a(_clz.o)
                0x000000000401511d                __clz_tab
 *fill*         0x000000000401521d        0x3 
 .rodata        0x0000000004015220        0x2 ../tecnica2_bsp//newlib/nios2-elf/lib\libc.a(lib_a-impure.o)
 *fill*         0x0000000004015222        0x2 
 .rodata        0x0000000004015224        0x2 ../tecnica2_bsp//newlib/nios2-elf/lib\libc.a(lib_a-puts.o)
 *fill*         0x0000000004015226        0x2 
 .rodata        0x0000000004015228       0x5e ../tecnica2_bsp//newlib/nios2-elf/lib\libc.a(lib_a-vfprintf.o)
 .rodata.blanks.4403
                0x0000000004015286       0x10 ../tecnica2_bsp//newlib/nios2-elf/lib\libc.a(lib_a-vfprintf.o)
 .rodata.zeroes.4404
                0x0000000004015296       0x10 ../tecnica2_bsp//newlib/nios2-elf/lib\libc.a(lib_a-vfprintf.o)
 *fill*         0x00000000040152a6        0x2 
 .rodata        0x00000000040152a8       0x12 ../tecnica2_bsp//newlib/nios2-elf/lib\libc.a(lib_a-dtoa.o)
 *fill*         0x00000000040152ba        0x2 
 .rodata        0x00000000040152bc       0x12 ../tecnica2_bsp//newlib/nios2-elf/lib\libc.a(lib_a-locale.o)
 *fill*         0x00000000040152ce        0x2 
 .rodata.__mprec_tens
                0x00000000040152d0       0xc8 ../tecnica2_bsp//newlib/nios2-elf/lib\libc.a(lib_a-mprec.o)
                0x00000000040152d0                __mprec_tens
 .rodata.__mprec_bigtens
                0x0000000004015398       0x28 ../tecnica2_bsp//newlib/nios2-elf/lib\libc.a(lib_a-mprec.o)
                0x0000000004015398                __mprec_bigtens
 .rodata.__mprec_tinytens
                0x00000000040153c0       0x28 ../tecnica2_bsp//newlib/nios2-elf/lib\libc.a(lib_a-mprec.o)
                0x00000000040153c0                __mprec_tinytens
 .rodata.p05.2768
                0x00000000040153e8        0xc ../tecnica2_bsp//newlib/nios2-elf/lib\libc.a(lib_a-mprec.o)
 .rodata        0x00000000040153f4       0x4a ../tecnica2_bsp//newlib/nios2-elf/lib\libc.a(lib_a-vfiprintf.o)
 .rodata.blanks.4348
                0x000000000401543e       0x10 ../tecnica2_bsp//newlib/nios2-elf/lib\libc.a(lib_a-vfiprintf.o)
 .rodata.zeroes.4349
                0x000000000401544e       0x10 ../tecnica2_bsp//newlib/nios2-elf/lib\libc.a(lib_a-vfiprintf.o)
 *fill*         0x000000000401545e        0x2 
 .rodata        0x0000000004015460        0xa ../tecnica2_bsp/\libhal_bsp.a(alt_dev.o)
 *fill*         0x000000000401546a        0x2 
 .rodata        0x000000000401546c        0xf ../tecnica2_bsp/\libhal_bsp.a(alt_main.o)
 *fill*         0x000000000401547b        0x1 
 .rodata        0x000000000401547c        0xf ../tecnica2_bsp/\libhal_bsp.a(alt_sys_init.o)
 *fill*         0x000000000401548b        0x1 
 .rodata        0x000000000401548c      0x100 ../tecnica2_bsp/\libhal_bsp.a(perf_print_formatted_report.o)
 *(.rodata1)
                0x000000000401558c                . = ALIGN (0x4)
                0x000000000401558c                PROVIDE (__ram_rodata_end, ABSOLUTE (.))
                0x0000000004015060                PROVIDE (__flash_rodata_start, LOADADDR (.rodata))

.rwdata         0x000000000401558c     0x1b10 load address 0x000000000401709c
                0x000000000401558c                PROVIDE (__ram_rwdata_start, ABSOLUTE (.))
                0x000000000401558c                . = ALIGN (0x4)
 *(.got.plt)
 *(.got)
 *(.data1)
 *(.data .data.* .gnu.linkonce.d.*)
 .data          0x000000000401558c        0x0 ../tecnica2_bsp//obj/HAL/src/crt0.o
 .data          0x000000000401558c        0x0 obj/default/backpropagation_best2019_superdef_ver2_alumnos-1.o
 .data          0x000000000401558c        0x0 ../tecnica2_bsp//newlib/nios2-elf/lib\libm.a(lib_a-w_sqrt.o)
 .data          0x000000000401558c        0x0 ../tecnica2_bsp//newlib/nios2-elf/lib\libm.a(lib_a-e_sqrt.o)
 .data          0x000000000401558c        0x0 ../tecnica2_bsp//newlib/nios2-elf/lib\libm.a(lib_a-s_fpclassify.o)
 .data          0x000000000401558c        0x0 ../tecnica2_bsp//newlib/nios2-elf/lib\libm.a(lib_a-s_lib_ver.o)
 .data          0x000000000401558c        0x0 ../tecnica2_bsp//newlib/nios2-elf/lib\libm.a(lib_a-s_matherr.o)
 .data          0x000000000401558c        0x0 c:/intelfpga/17.1/nios2eds/bin/gnu/h-x86_64-mingw32/bin/../lib/gcc/nios2-elf/5.3.0\libgcc.a(adddf3.o)
 .data          0x000000000401558c        0x0 c:/intelfpga/17.1/nios2eds/bin/gnu/h-x86_64-mingw32/bin/../lib/gcc/nios2-elf/5.3.0\libgcc.a(divdf3.o)
 .data          0x000000000401558c        0x0 c:/intelfpga/17.1/nios2eds/bin/gnu/h-x86_64-mingw32/bin/../lib/gcc/nios2-elf/5.3.0\libgcc.a(eqdf2.o)
 .data          0x000000000401558c        0x0 c:/intelfpga/17.1/nios2eds/bin/gnu/h-x86_64-mingw32/bin/../lib/gcc/nios2-elf/5.3.0\libgcc.a(gedf2.o)
 .data          0x000000000401558c        0x0 c:/intelfpga/17.1/nios2eds/bin/gnu/h-x86_64-mingw32/bin/../lib/gcc/nios2-elf/5.3.0\libgcc.a(ledf2.o)
 .data          0x000000000401558c        0x0 c:/intelfpga/17.1/nios2eds/bin/gnu/h-x86_64-mingw32/bin/../lib/gcc/nios2-elf/5.3.0\libgcc.a(muldf3.o)
 .data          0x000000000401558c        0x0 c:/intelfpga/17.1/nios2eds/bin/gnu/h-x86_64-mingw32/bin/../lib/gcc/nios2-elf/5.3.0\libgcc.a(subdf3.o)
 .data          0x000000000401558c        0x0 c:/intelfpga/17.1/nios2eds/bin/gnu/h-x86_64-mingw32/bin/../lib/gcc/nios2-elf/5.3.0\libgcc.a(extendsfdf2.o)
 .data          0x000000000401558c        0x0 c:/intelfpga/17.1/nios2eds/bin/gnu/h-x86_64-mingw32/bin/../lib/gcc/nios2-elf/5.3.0\libgcc.a(truncdfsf2.o)
 .data          0x000000000401558c        0x0 c:/intelfpga/17.1/nios2eds/bin/gnu/h-x86_64-mingw32/bin/../lib/gcc/nios2-elf/5.3.0\libgcc.a(_clzsi2.o)
 .data          0x000000000401558c        0x0 c:/intelfpga/17.1/nios2eds/bin/gnu/h-x86_64-mingw32/bin/../lib/gcc/nios2-elf/5.3.0\libgcc.a(lib2-divmod.o)
 .data          0x000000000401558c        0x0 c:/intelfpga/17.1/nios2eds/bin/gnu/h-x86_64-mingw32/bin/../lib/gcc/nios2-elf/5.3.0\libgcc.a(_clz.o)
 .data          0x000000000401558c        0x0 ../tecnica2_bsp//newlib/nios2-elf/lib\libc.a(lib_a-errno.o)
 .data          0x000000000401558c        0x0 ../tecnica2_bsp//newlib/nios2-elf/lib\libc.a(lib_a-impure.o)
 .data.impure_data
                0x000000000401558c      0x424 ../tecnica2_bsp//newlib/nios2-elf/lib\libc.a(lib_a-impure.o)
 .data          0x00000000040159b0        0x0 ../tecnica2_bsp//newlib/nios2-elf/lib\libc.a(lib_a-printf.o)
 .data          0x00000000040159b0        0x0 ../tecnica2_bsp//newlib/nios2-elf/lib\libc.a(lib_a-putchar.o)
 .data          0x00000000040159b0        0x0 ../tecnica2_bsp//newlib/nios2-elf/lib\libc.a(lib_a-puts.o)
 .data          0x00000000040159b0        0x0 ../tecnica2_bsp//newlib/nios2-elf/lib\libc.a(lib_a-rand.o)
 .data          0x00000000040159b0        0x0 ../tecnica2_bsp//newlib/nios2-elf/lib\libc.a(lib_a-strlen.o)
 .data          0x00000000040159b0        0x0 ../tecnica2_bsp//newlib/nios2-elf/lib\libc.a(lib_a-system.o)
 .data          0x00000000040159b0        0x0 ../tecnica2_bsp//newlib/nios2-elf/lib\libc.a(lib_a-time.o)
 .data          0x00000000040159b0        0x0 ../tecnica2_bsp//newlib/nios2-elf/lib\libc.a(lib_a-vfprintf.o)
 .data          0x00000000040159b0        0x0 ../tecnica2_bsp//newlib/nios2-elf/lib\libc.a(lib_a-wsetup.o)
 .data          0x00000000040159b0        0x0 ../tecnica2_bsp//newlib/nios2-elf/lib\libc.a(lib_a-dtoa.o)
 .data          0x00000000040159b0        0x0 ../tecnica2_bsp//newlib/nios2-elf/lib\libc.a(lib_a-fflush.o)
 .data          0x00000000040159b0        0x0 ../tecnica2_bsp//newlib/nios2-elf/lib\libc.a(lib_a-findfp.o)
 .data          0x00000000040159b0        0x0 ../tecnica2_bsp//newlib/nios2-elf/lib\libc.a(lib_a-freer.o)
 .data          0x00000000040159b0        0x0 ../tecnica2_bsp//newlib/nios2-elf/lib\libc.a(lib_a-fvwrite.o)
 .data          0x00000000040159b0        0x0 ../tecnica2_bsp//newlib/nios2-elf/lib\libc.a(lib_a-fwalk.o)
 .data          0x00000000040159b0        0x0 ../tecnica2_bsp//newlib/nios2-elf/lib\libc.a(lib_a-gettimeofdayr.o)
 .data          0x00000000040159b0        0x0 ../tecnica2_bsp//newlib/nios2-elf/lib\libc.a(lib_a-int_errno.o)
 .data          0x00000000040159b0        0x0 ../tecnica2_bsp//newlib/nios2-elf/lib\libc.a(lib_a-locale.o)
 .data.lconv    0x00000000040159b0       0x38 ../tecnica2_bsp//newlib/nios2-elf/lib\libc.a(lib_a-locale.o)
 .data.lc_ctype_charset
                0x00000000040159e8       0x20 ../tecnica2_bsp//newlib/nios2-elf/lib\libc.a(lib_a-locale.o)
 .data.lc_message_charset
                0x0000000004015a08       0x20 ../tecnica2_bsp//newlib/nios2-elf/lib\libc.a(lib_a-locale.o)
 .data          0x0000000004015a28        0x0 ../tecnica2_bsp//newlib/nios2-elf/lib\libc.a(lib_a-makebuf.o)
 .data          0x0000000004015a28        0x0 ../tecnica2_bsp//newlib/nios2-elf/lib\libc.a(lib_a-mallocr.o)
 .data.__malloc_av_
                0x0000000004015a28      0x408 ../tecnica2_bsp//newlib/nios2-elf/lib\libc.a(lib_a-mallocr.o)
                0x0000000004015a28                __malloc_av_
 .data          0x0000000004015e30        0x0 ../tecnica2_bsp//newlib/nios2-elf/lib\libc.a(lib_a-memchr.o)
 .data          0x0000000004015e30        0x0 ../tecnica2_bsp//newlib/nios2-elf/lib\libc.a(lib_a-memcpy.o)
 .data          0x0000000004015e30        0x0 ../tecnica2_bsp//newlib/nios2-elf/lib\libc.a(lib_a-memmove.o)
 .data          0x0000000004015e30        0x0 ../tecnica2_bsp//newlib/nios2-elf/lib\libc.a(lib_a-memset.o)
 .data          0x0000000004015e30        0x0 ../tecnica2_bsp//newlib/nios2-elf/lib\libc.a(lib_a-mprec.o)
 .data          0x0000000004015e30        0x0 ../tecnica2_bsp//newlib/nios2-elf/lib\libc.a(lib_a-putc.o)
 .data          0x0000000004015e30        0x0 ../tecnica2_bsp//newlib/nios2-elf/lib\libc.a(lib_a-reallocr.o)
 .data          0x0000000004015e30        0x0 ../tecnica2_bsp//newlib/nios2-elf/lib\libc.a(lib_a-sbrkr.o)
 .data          0x0000000004015e30        0x0 ../tecnica2_bsp//newlib/nios2-elf/lib\libc.a(lib_a-stdio.o)
 .data          0x0000000004015e30        0x0 ../tecnica2_bsp//newlib/nios2-elf/lib\libc.a(lib_a-strcmp.o)
 .data          0x0000000004015e30        0x0 ../tecnica2_bsp//newlib/nios2-elf/lib\libc.a(lib_a-vfiprintf.o)
 .data          0x0000000004015e30        0x0 ../tecnica2_bsp//newlib/nios2-elf/lib\libc.a(lib_a-wbuf.o)
 .data          0x0000000004015e30        0x0 ../tecnica2_bsp//newlib/nios2-elf/lib\libc.a(lib_a-writer.o)
 .data          0x0000000004015e30        0x0 ../tecnica2_bsp//newlib/nios2-elf/lib\libc.a(closer.o)
 .data          0x0000000004015e30        0x0 ../tecnica2_bsp//newlib/nios2-elf/lib\libc.a(lib_a-callocr.o)
 .data          0x0000000004015e30        0x0 ../tecnica2_bsp//newlib/nios2-elf/lib\libc.a(lib_a-fclose.o)
 .data          0x0000000004015e30        0x0 ../tecnica2_bsp//newlib/nios2-elf/lib\libc.a(lib_a-fputwc.o)
 .data          0x0000000004015e30        0x0 ../tecnica2_bsp//newlib/nios2-elf/lib\libc.a(lib_a-fstatr.o)
 .data          0x0000000004015e30        0x0 ../tecnica2_bsp//newlib/nios2-elf/lib\libc.a(lib_a-isattyr.o)
 .data          0x0000000004015e30        0x0 ../tecnica2_bsp//newlib/nios2-elf/lib\libc.a(lib_a-lseekr.o)
 .data          0x0000000004015e30        0x0 ../tecnica2_bsp//newlib/nios2-elf/lib\libc.a(lib_a-readr.o)
 .data          0x0000000004015e30        0x0 ../tecnica2_bsp//newlib/nios2-elf/lib\libc.a(lib_a-wcrtomb.o)
 .data          0x0000000004015e30        0x0 ../tecnica2_bsp//newlib/nios2-elf/lib\libc.a(lib_a-wctomb_r.o)
 .data          0x0000000004015e30        0x0 c:/intelfpga/17.1/nios2eds/bin/gnu/h-x86_64-mingw32/bin/../lib/gcc/nios2-elf/5.3.0\libgcc.a(_muldi3.o)
 .data          0x0000000004015e30        0x0 c:/intelfpga/17.1/nios2eds/bin/gnu/h-x86_64-mingw32/bin/../lib/gcc/nios2-elf/5.3.0\libgcc.a(_udivdi3.o)
 .data          0x0000000004015e30        0x0 c:/intelfpga/17.1/nios2eds/bin/gnu/h-x86_64-mingw32/bin/../lib/gcc/nios2-elf/5.3.0\libgcc.a(_umoddi3.o)
 .data          0x0000000004015e30        0x0 c:/intelfpga/17.1/nios2eds/bin/gnu/h-x86_64-mingw32/bin/../lib/gcc/nios2-elf/5.3.0\libgcc.a(fixdfsi.o)
 .data          0x0000000004015e30        0x0 c:/intelfpga/17.1/nios2eds/bin/gnu/h-x86_64-mingw32/bin/../lib/gcc/nios2-elf/5.3.0\libgcc.a(floatsidf.o)
 .data          0x0000000004015e30        0x0 c:/intelfpga/17.1/nios2eds/bin/gnu/h-x86_64-mingw32/bin/../lib/gcc/nios2-elf/5.3.0\libgcc.a(floatunsidf.o)
 .data          0x0000000004015e30        0x0 ../tecnica2_bsp/\libhal_bsp.a(alt_close.o)
 .data          0x0000000004015e30      0x1a8 ../tecnica2_bsp/\libhal_bsp.a(alt_dev.o)
                0x0000000004015e30                alt_dev_null
                0x0000000004015e58                alt_fd_list
 .data          0x0000000004015fd8        0x0 ../tecnica2_bsp/\libhal_bsp.a(alt_errno.o)
 .data          0x0000000004015fd8        0x0 ../tecnica2_bsp/\libhal_bsp.a(alt_fstat.o)
 .data          0x0000000004015fd8        0x0 ../tecnica2_bsp/\libhal_bsp.a(alt_gettod.o)
 .data          0x0000000004015fd8        0x0 ../tecnica2_bsp/\libhal_bsp.a(alt_isatty.o)
 .data          0x0000000004015fd8        0x0 ../tecnica2_bsp/\libhal_bsp.a(alt_load.o)
 .data          0x0000000004015fd8        0x0 ../tecnica2_bsp/\libhal_bsp.a(alt_lseek.o)
 .data          0x0000000004015fd8        0x0 ../tecnica2_bsp/\libhal_bsp.a(alt_main.o)
 .data          0x0000000004015fd8        0x0 ../tecnica2_bsp/\libhal_bsp.a(alt_malloc_lock.o)
 .data          0x0000000004015fd8        0x0 ../tecnica2_bsp/\libhal_bsp.a(alt_read.o)
 .data          0x0000000004015fd8        0x0 ../tecnica2_bsp/\libhal_bsp.a(alt_release_fd.o)
 .data          0x0000000004015fd8        0x0 ../tecnica2_bsp/\libhal_bsp.a(alt_sbrk.o)
 .data          0x0000000004015fd8        0x0 ../tecnica2_bsp/\libhal_bsp.a(alt_tick.o)
 .data          0x0000000004015fd8        0x0 ../tecnica2_bsp/\libhal_bsp.a(alt_write.o)
 .data          0x0000000004015fd8     0x1060 ../tecnica2_bsp/\libhal_bsp.a(alt_sys_init.o)
 .data          0x0000000004017038        0x0 ../tecnica2_bsp/\libhal_bsp.a(altera_avalon_jtag_uart_fd.o)
 .data          0x0000000004017038        0x0 ../tecnica2_bsp/\libhal_bsp.a(altera_avalon_jtag_uart_init.o)
 .data          0x0000000004017038        0x0 ../tecnica2_bsp/\libhal_bsp.a(altera_avalon_jtag_uart_ioctl.o)
 .data          0x0000000004017038        0x0 ../tecnica2_bsp/\libhal_bsp.a(altera_avalon_jtag_uart_read.o)
 .data          0x0000000004017038        0x0 ../tecnica2_bsp/\libhal_bsp.a(altera_avalon_jtag_uart_write.o)
 .data          0x0000000004017038        0x0 ../tecnica2_bsp/\libhal_bsp.a(altera_avalon_timer_sc.o)
 .data          0x0000000004017038        0x0 ../tecnica2_bsp/\libhal_bsp.a(perf_print_formatted_report.o)
 .data          0x0000000004017038        0x0 ../tecnica2_bsp/\libhal_bsp.a(alt_alarm_start.o)
 .data          0x0000000004017038        0x0 ../tecnica2_bsp/\libhal_bsp.a(alt_dcache_flush_all.o)
 .data          0x0000000004017038        0x0 ../tecnica2_bsp/\libhal_bsp.a(alt_dev_llist_insert.o)
 .data          0x0000000004017038        0x0 ../tecnica2_bsp/\libhal_bsp.a(alt_do_ctors.o)
 .data          0x0000000004017038        0x0 ../tecnica2_bsp/\libhal_bsp.a(alt_do_dtors.o)
 .data          0x0000000004017038        0x0 ../tecnica2_bsp/\libhal_bsp.a(alt_icache_flush_all.o)
 .data          0x0000000004017038        0x0 ../tecnica2_bsp/\libhal_bsp.a(alt_iic.o)
 .data          0x0000000004017038        0x0 ../tecnica2_bsp/\libhal_bsp.a(alt_iic_isr_register.o)
 .data          0x0000000004017038        0x0 ../tecnica2_bsp/\libhal_bsp.a(alt_io_redirect.o)
 .data          0x0000000004017038        0x0 ../tecnica2_bsp/\libhal_bsp.a(alt_irq_entry.o)
 .data          0x0000000004017038        0x0 ../tecnica2_bsp/\libhal_bsp.a(alt_irq_handler.o)
 .data          0x0000000004017038        0x0 ../tecnica2_bsp/\libhal_bsp.a(alt_irq_vars.o)
 .data          0x0000000004017038        0x0 ../tecnica2_bsp/\libhal_bsp.a(alt_open.o)
 .data          0x0000000004017038        0x0 ../tecnica2_bsp/\libhal_bsp.a(altera_nios2_gen2_irq.o)
 .data          0x0000000004017038        0x0 ../tecnica2_bsp/\libhal_bsp.a(altera_avalon_performance_counter.o)
 .data          0x0000000004017038        0x0 ../tecnica2_bsp/\libhal_bsp.a(alt_exception_entry.o)
 .data          0x0000000004017038        0x0 ../tecnica2_bsp/\libhal_bsp.a(alt_find_dev.o)
 .data          0x0000000004017038        0x0 ../tecnica2_bsp/\libhal_bsp.a(alt_find_file.o)
 .data          0x0000000004017038        0x0 ../tecnica2_bsp/\libhal_bsp.a(alt_get_fd.o)
 .data          0x0000000004017038        0x0 ../tecnica2_bsp/\libhal_bsp.a(alt_icache_flush.o)
 .data          0x0000000004017038        0x0 ../tecnica2_bsp/\libhal_bsp.a(alt_instruction_exception_entry.o)
 .data          0x0000000004017038        0x0 ../tecnica2_bsp//newlib/nios2-elf/lib\libc.a(lib_a-atexit.o)
 .data          0x0000000004017038        0x0 ../tecnica2_bsp//newlib/nios2-elf/lib\libc.a(lib_a-exit.o)
 .data          0x0000000004017038        0x0 ../tecnica2_bsp//newlib/nios2-elf/lib\libc.a(lib_a-memcmp.o)
 .data          0x0000000004017038        0x0 ../tecnica2_bsp//newlib/nios2-elf/lib\libc.a(lib_a-__atexit.o)
 .data          0x0000000004017038        0x0 ../tecnica2_bsp//newlib/nios2-elf/lib\libc.a(lib_a-__call_atexit.o)
 .data          0x0000000004017038        0x0 c:/intelfpga/17.1/nios2eds/bin/gnu/h-x86_64-mingw32/bin/../lib/gcc/nios2-elf/5.3.0\libgcc.a(_floatundidf.o)
 .data          0x0000000004017038        0x0 ../tecnica2_bsp/\libhal_bsp.a(alt_exit.o)
                0x000000000401f038                _gp = ABSOLUTE ((. + 0x8000))
                [!provide]                        PROVIDE (gp, _gp)
 *(.rwdata .rwdata.*)
 *(.sdata .sdata.* .gnu.linkonce.s.*)
 .sdata         0x0000000004017038       0x10 obj/default/backpropagation_best2019_superdef_ver2_alumnos-1.o
                0x0000000004017038                numEpochs
                0x000000000401703c                LR_IH1
                0x0000000004017040                LR_H2O
                0x0000000004017044                LR_H1H2
 .sdata.one     0x0000000004017048        0x8 ../tecnica2_bsp//newlib/nios2-elf/lib\libm.a(lib_a-e_sqrt.o)
 .sdata.tiny    0x0000000004017050        0x8 ../tecnica2_bsp//newlib/nios2-elf/lib\libm.a(lib_a-e_sqrt.o)
 .sdata.__fdlib_version
                0x0000000004017058        0x4 ../tecnica2_bsp//newlib/nios2-elf/lib\libm.a(lib_a-s_lib_ver.o)
                0x0000000004017058                __fdlib_version
 .sdata._impure_ptr
                0x000000000401705c        0x4 ../tecnica2_bsp//newlib/nios2-elf/lib\libc.a(lib_a-impure.o)
                0x000000000401705c                _impure_ptr
 .sdata._global_impure_ptr
                0x0000000004017060        0x4 ../tecnica2_bsp//newlib/nios2-elf/lib\libc.a(lib_a-impure.o)
                0x0000000004017060                _global_impure_ptr
 .sdata.__mb_cur_max
                0x0000000004017064        0x4 ../tecnica2_bsp//newlib/nios2-elf/lib\libc.a(lib_a-locale.o)
                0x0000000004017064                __mb_cur_max
 .sdata.__malloc_trim_threshold
                0x0000000004017068        0x4 ../tecnica2_bsp//newlib/nios2-elf/lib\libc.a(lib_a-mallocr.o)
                0x0000000004017068                __malloc_trim_threshold
 .sdata.__malloc_sbrk_base
                0x000000000401706c        0x4 ../tecnica2_bsp//newlib/nios2-elf/lib\libc.a(lib_a-mallocr.o)
                0x000000000401706c                __malloc_sbrk_base
 .sdata.__wctomb
                0x0000000004017070        0x4 ../tecnica2_bsp//newlib/nios2-elf/lib\libc.a(lib_a-wctomb_r.o)
                0x0000000004017070                __wctomb
 .sdata         0x0000000004017074       0x14 ../tecnica2_bsp/\libhal_bsp.a(alt_dev.o)
                0x0000000004017074                alt_fs_list
                0x000000000401707c                alt_dev_list
                0x0000000004017084                alt_max_fd
 .sdata         0x0000000004017088        0x4 ../tecnica2_bsp/\libhal_bsp.a(alt_errno.o)
                0x0000000004017088                alt_errno
 .sdata         0x000000000401708c        0x4 ../tecnica2_bsp/\libhal_bsp.a(alt_sbrk.o)
 .sdata         0x0000000004017090        0x8 ../tecnica2_bsp/\libhal_bsp.a(alt_tick.o)
                0x0000000004017090                alt_alarm_list
 .sdata         0x0000000004017098        0x4 ../tecnica2_bsp/\libhal_bsp.a(alt_irq_vars.o)
                0x0000000004017098                alt_priority_mask
 *(.sdata2 .sdata2.* .gnu.linkonce.s2.*)
                0x000000000401709c                . = ALIGN (0x4)
                0x000000000401709c                _edata = ABSOLUTE (.)
                [!provide]                        PROVIDE (edata, ABSOLUTE (.))
                0x000000000401709c                PROVIDE (__ram_rwdata_end, ABSOLUTE (.))
                0x000000000401709c                PROVIDE (__flash_rwdata_start, LOADADDR (.rwdata))

.bss            0x0000000004018bac     0x291c
                0x0000000004018bac                __bss_start = ABSOLUTE (.)
                [!provide]                        PROVIDE (__sbss_start, ABSOLUTE (.))
                [!provide]                        PROVIDE (___sbss_start, ABSOLUTE (.))
 *(.dynsbss)
 *(.sbss .sbss.* .gnu.linkonce.sb.*)
 .sbss          0x0000000004018bac       0x10 obj/default/backpropagation_best2019_superdef_ver2_alumnos-1.o
                0x0000000004018bac                patNum
                0x0000000004018bb0                errThisPat
                0x0000000004018bb4                delta_o
                0x0000000004018bb8                RMSerror
 .sbss          0x0000000004018bbc        0xc obj/default/backpropagation_best2019_superdef_ver2_alumnos-1.o
                0x0000000004018bbc                outPred
                0x0000000004018bc0                ponderacion3
                0x0000000004018bc4                der_outPred
 .sbss.__sfp_lock
                0x0000000004018bc8        0x4 ../tecnica2_bsp//newlib/nios2-elf/lib\libc.a(lib_a-findfp.o)
 .sbss.__sinit_lock
                0x0000000004018bcc        0x4 ../tecnica2_bsp//newlib/nios2-elf/lib\libc.a(lib_a-findfp.o)
 .sbss          0x0000000004018bd0        0x4 ../tecnica2_bsp//newlib/nios2-elf/lib\libc.a(lib_a-int_errno.o)
                0x0000000004018bd0                errno
 .sbss.__nlocale_changed
                0x0000000004018bd4        0x4 ../tecnica2_bsp//newlib/nios2-elf/lib\libc.a(lib_a-locale.o)
                0x0000000004018bd4                __nlocale_changed
 .sbss.__mlocale_changed
                0x0000000004018bd8        0x4 ../tecnica2_bsp//newlib/nios2-elf/lib\libc.a(lib_a-locale.o)
                0x0000000004018bd8                __mlocale_changed
 .sbss._PathLocale
                0x0000000004018bdc        0x4 ../tecnica2_bsp//newlib/nios2-elf/lib\libc.a(lib_a-locale.o)
                0x0000000004018bdc                _PathLocale
 .sbss.lc_ctype_cjk_lang
                0x0000000004018be0        0x4 ../tecnica2_bsp//newlib/nios2-elf/lib\libc.a(lib_a-locale.o)
 .sbss.__malloc_top_pad
                0x0000000004018be4        0x4 ../tecnica2_bsp//newlib/nios2-elf/lib\libc.a(lib_a-mallocr.o)
                0x0000000004018be4                __malloc_top_pad
 .sbss.__malloc_max_sbrked_mem
                0x0000000004018be8        0x4 ../tecnica2_bsp//newlib/nios2-elf/lib\libc.a(lib_a-mallocr.o)
                0x0000000004018be8                __malloc_max_sbrked_mem
 .sbss.__malloc_max_total_mem
                0x0000000004018bec        0x4 ../tecnica2_bsp//newlib/nios2-elf/lib\libc.a(lib_a-mallocr.o)
                0x0000000004018bec                __malloc_max_total_mem
 .sbss          0x0000000004018bf0       0x10 ../tecnica2_bsp/\libhal_bsp.a(alt_gettod.o)
                0x0000000004018bf0                alt_timezone
                0x0000000004018bf8                alt_resettime
 .sbss          0x0000000004018c00        0xc ../tecnica2_bsp/\libhal_bsp.a(alt_main.o)
                0x0000000004018c00                alt_argc
                0x0000000004018c04                alt_argv
                0x0000000004018c08                alt_envp
 .sbss          0x0000000004018c0c        0x8 ../tecnica2_bsp/\libhal_bsp.a(alt_tick.o)
                0x0000000004018c0c                _alt_tick_rate
                0x0000000004018c10                _alt_nticks
 .sbss          0x0000000004018c14        0x4 ../tecnica2_bsp/\libhal_bsp.a(alt_irq_vars.o)
                0x0000000004018c14                alt_irq_active
 .sbss          0x0000000004018c18        0x4 ../tecnica2_bsp/\libhal_bsp.a(alt_instruction_exception_entry.o)
                0x0000000004018c18                alt_instruction_exception_handler
 .sbss.__atexit_lock
                0x0000000004018c1c        0x4 ../tecnica2_bsp//newlib/nios2-elf/lib\libc.a(lib_a-__call_atexit.o)
 *(.sbss2 .sbss2.* .gnu.linkonce.sb2.*)
 *(.scommon)
                [!provide]                        PROVIDE (__sbss_end, ABSOLUTE (.))
                [!provide]                        PROVIDE (___sbss_end, ABSOLUTE (.))
 *(.dynbss)
 *(.bss .bss.* .gnu.linkonce.b.*)
 .bss           0x0000000004018c20        0x0 ../tecnica2_bsp//obj/HAL/src/crt0.o
 .bss           0x0000000004018c20        0x0 obj/default/backpropagation_best2019_superdef_ver2_alumnos-1.o
 .bss           0x0000000004018c20        0x0 ../tecnica2_bsp//newlib/nios2-elf/lib\libm.a(lib_a-w_sqrt.o)
 .bss           0x0000000004018c20        0x0 ../tecnica2_bsp//newlib/nios2-elf/lib\libm.a(lib_a-e_sqrt.o)
 .bss           0x0000000004018c20        0x0 ../tecnica2_bsp//newlib/nios2-elf/lib\libm.a(lib_a-s_fpclassify.o)
 .bss           0x0000000004018c20        0x0 ../tecnica2_bsp//newlib/nios2-elf/lib\libm.a(lib_a-s_lib_ver.o)
 .bss           0x0000000004018c20        0x0 ../tecnica2_bsp//newlib/nios2-elf/lib\libm.a(lib_a-s_matherr.o)
 .bss           0x0000000004018c20        0x0 c:/intelfpga/17.1/nios2eds/bin/gnu/h-x86_64-mingw32/bin/../lib/gcc/nios2-elf/5.3.0\libgcc.a(adddf3.o)
 .bss           0x0000000004018c20        0x0 c:/intelfpga/17.1/nios2eds/bin/gnu/h-x86_64-mingw32/bin/../lib/gcc/nios2-elf/5.3.0\libgcc.a(divdf3.o)
 .bss           0x0000000004018c20        0x0 c:/intelfpga/17.1/nios2eds/bin/gnu/h-x86_64-mingw32/bin/../lib/gcc/nios2-elf/5.3.0\libgcc.a(eqdf2.o)
 .bss           0x0000000004018c20        0x0 c:/intelfpga/17.1/nios2eds/bin/gnu/h-x86_64-mingw32/bin/../lib/gcc/nios2-elf/5.3.0\libgcc.a(gedf2.o)
 .bss           0x0000000004018c20        0x0 c:/intelfpga/17.1/nios2eds/bin/gnu/h-x86_64-mingw32/bin/../lib/gcc/nios2-elf/5.3.0\libgcc.a(ledf2.o)
 .bss           0x0000000004018c20        0x0 c:/intelfpga/17.1/nios2eds/bin/gnu/h-x86_64-mingw32/bin/../lib/gcc/nios2-elf/5.3.0\libgcc.a(muldf3.o)
 .bss           0x0000000004018c20        0x0 c:/intelfpga/17.1/nios2eds/bin/gnu/h-x86_64-mingw32/bin/../lib/gcc/nios2-elf/5.3.0\libgcc.a(subdf3.o)
 .bss           0x0000000004018c20        0x0 c:/intelfpga/17.1/nios2eds/bin/gnu/h-x86_64-mingw32/bin/../lib/gcc/nios2-elf/5.3.0\libgcc.a(extendsfdf2.o)
 .bss           0x0000000004018c20        0x0 c:/intelfpga/17.1/nios2eds/bin/gnu/h-x86_64-mingw32/bin/../lib/gcc/nios2-elf/5.3.0\libgcc.a(truncdfsf2.o)
 .bss           0x0000000004018c20        0x0 c:/intelfpga/17.1/nios2eds/bin/gnu/h-x86_64-mingw32/bin/../lib/gcc/nios2-elf/5.3.0\libgcc.a(_clzsi2.o)
 .bss           0x0000000004018c20        0x0 c:/intelfpga/17.1/nios2eds/bin/gnu/h-x86_64-mingw32/bin/../lib/gcc/nios2-elf/5.3.0\libgcc.a(lib2-divmod.o)
 .bss           0x0000000004018c20        0x0 c:/intelfpga/17.1/nios2eds/bin/gnu/h-x86_64-mingw32/bin/../lib/gcc/nios2-elf/5.3.0\libgcc.a(_clz.o)
 .bss           0x0000000004018c20        0x0 ../tecnica2_bsp//newlib/nios2-elf/lib\libc.a(lib_a-errno.o)
 .bss           0x0000000004018c20        0x0 ../tecnica2_bsp//newlib/nios2-elf/lib\libc.a(lib_a-impure.o)
 .bss           0x0000000004018c20        0x0 ../tecnica2_bsp//newlib/nios2-elf/lib\libc.a(lib_a-printf.o)
 .bss           0x0000000004018c20        0x0 ../tecnica2_bsp//newlib/nios2-elf/lib\libc.a(lib_a-putchar.o)
 .bss           0x0000000004018c20        0x0 ../tecnica2_bsp//newlib/nios2-elf/lib\libc.a(lib_a-puts.o)
 .bss           0x0000000004018c20        0x0 ../tecnica2_bsp//newlib/nios2-elf/lib\libc.a(lib_a-rand.o)
 .bss           0x0000000004018c20        0x0 ../tecnica2_bsp//newlib/nios2-elf/lib\libc.a(lib_a-strlen.o)
 .bss           0x0000000004018c20        0x0 ../tecnica2_bsp//newlib/nios2-elf/lib\libc.a(lib_a-system.o)
 .bss           0x0000000004018c20        0x0 ../tecnica2_bsp//newlib/nios2-elf/lib\libc.a(lib_a-time.o)
 .bss           0x0000000004018c20        0x0 ../tecnica2_bsp//newlib/nios2-elf/lib\libc.a(lib_a-vfprintf.o)
 .bss           0x0000000004018c20        0x0 ../tecnica2_bsp//newlib/nios2-elf/lib\libc.a(lib_a-wsetup.o)
 .bss           0x0000000004018c20        0x0 ../tecnica2_bsp//newlib/nios2-elf/lib\libc.a(lib_a-dtoa.o)
 .bss           0x0000000004018c20        0x0 ../tecnica2_bsp//newlib/nios2-elf/lib\libc.a(lib_a-fflush.o)
 .bss           0x0000000004018c20        0x0 ../tecnica2_bsp//newlib/nios2-elf/lib\libc.a(lib_a-findfp.o)
 .bss           0x0000000004018c20        0x0 ../tecnica2_bsp//newlib/nios2-elf/lib\libc.a(lib_a-freer.o)
 .bss           0x0000000004018c20        0x0 ../tecnica2_bsp//newlib/nios2-elf/lib\libc.a(lib_a-fvwrite.o)
 .bss           0x0000000004018c20        0x0 ../tecnica2_bsp//newlib/nios2-elf/lib\libc.a(lib_a-fwalk.o)
 .bss           0x0000000004018c20        0x0 ../tecnica2_bsp//newlib/nios2-elf/lib\libc.a(lib_a-gettimeofdayr.o)
 .bss           0x0000000004018c20        0x0 ../tecnica2_bsp//newlib/nios2-elf/lib\libc.a(lib_a-int_errno.o)
 .bss           0x0000000004018c20        0x0 ../tecnica2_bsp//newlib/nios2-elf/lib\libc.a(lib_a-locale.o)
 .bss           0x0000000004018c20        0x0 ../tecnica2_bsp//newlib/nios2-elf/lib\libc.a(lib_a-makebuf.o)
 .bss           0x0000000004018c20        0x0 ../tecnica2_bsp//newlib/nios2-elf/lib\libc.a(lib_a-mallocr.o)
 .bss.__malloc_current_mallinfo
                0x0000000004018c20       0x28 ../tecnica2_bsp//newlib/nios2-elf/lib\libc.a(lib_a-mallocr.o)
                0x0000000004018c20                __malloc_current_mallinfo
 .bss           0x0000000004018c48        0x0 ../tecnica2_bsp//newlib/nios2-elf/lib\libc.a(lib_a-memchr.o)
 .bss           0x0000000004018c48        0x0 ../tecnica2_bsp//newlib/nios2-elf/lib\libc.a(lib_a-memcpy.o)
 .bss           0x0000000004018c48        0x0 ../tecnica2_bsp//newlib/nios2-elf/lib\libc.a(lib_a-memmove.o)
 .bss           0x0000000004018c48        0x0 ../tecnica2_bsp//newlib/nios2-elf/lib\libc.a(lib_a-memset.o)
 .bss           0x0000000004018c48        0x0 ../tecnica2_bsp//newlib/nios2-elf/lib\libc.a(lib_a-mprec.o)
 .bss           0x0000000004018c48        0x0 ../tecnica2_bsp//newlib/nios2-elf/lib\libc.a(lib_a-putc.o)
 .bss           0x0000000004018c48        0x0 ../tecnica2_bsp//newlib/nios2-elf/lib\libc.a(lib_a-reallocr.o)
 .bss           0x0000000004018c48        0x0 ../tecnica2_bsp//newlib/nios2-elf/lib\libc.a(lib_a-sbrkr.o)
 .bss           0x0000000004018c48        0x0 ../tecnica2_bsp//newlib/nios2-elf/lib\libc.a(lib_a-stdio.o)
 .bss           0x0000000004018c48        0x0 ../tecnica2_bsp//newlib/nios2-elf/lib\libc.a(lib_a-strcmp.o)
 .bss           0x0000000004018c48        0x0 ../tecnica2_bsp//newlib/nios2-elf/lib\libc.a(lib_a-vfiprintf.o)
 .bss           0x0000000004018c48        0x0 ../tecnica2_bsp//newlib/nios2-elf/lib\libc.a(lib_a-wbuf.o)
 .bss           0x0000000004018c48        0x0 ../tecnica2_bsp//newlib/nios2-elf/lib\libc.a(lib_a-writer.o)
 .bss           0x0000000004018c48        0x0 ../tecnica2_bsp//newlib/nios2-elf/lib\libc.a(closer.o)
 .bss           0x0000000004018c48        0x0 ../tecnica2_bsp//newlib/nios2-elf/lib\libc.a(lib_a-callocr.o)
 .bss           0x0000000004018c48        0x0 ../tecnica2_bsp//newlib/nios2-elf/lib\libc.a(lib_a-fclose.o)
 .bss           0x0000000004018c48        0x0 ../tecnica2_bsp//newlib/nios2-elf/lib\libc.a(lib_a-fputwc.o)
 .bss           0x0000000004018c48        0x0 ../tecnica2_bsp//newlib/nios2-elf/lib\libc.a(lib_a-fstatr.o)
 .bss           0x0000000004018c48        0x0 ../tecnica2_bsp//newlib/nios2-elf/lib\libc.a(lib_a-isattyr.o)
 .bss           0x0000000004018c48        0x0 ../tecnica2_bsp//newlib/nios2-elf/lib\libc.a(lib_a-lseekr.o)
 .bss           0x0000000004018c48        0x0 ../tecnica2_bsp//newlib/nios2-elf/lib\libc.a(lib_a-readr.o)
 .bss           0x0000000004018c48        0x0 ../tecnica2_bsp//newlib/nios2-elf/lib\libc.a(lib_a-wcrtomb.o)
 .bss           0x0000000004018c48        0x0 ../tecnica2_bsp//newlib/nios2-elf/lib\libc.a(lib_a-wctomb_r.o)
 .bss           0x0000000004018c48        0x0 c:/intelfpga/17.1/nios2eds/bin/gnu/h-x86_64-mingw32/bin/../lib/gcc/nios2-elf/5.3.0\libgcc.a(_muldi3.o)
 .bss           0x0000000004018c48        0x0 c:/intelfpga/17.1/nios2eds/bin/gnu/h-x86_64-mingw32/bin/../lib/gcc/nios2-elf/5.3.0\libgcc.a(_udivdi3.o)
 .bss           0x0000000004018c48        0x0 c:/intelfpga/17.1/nios2eds/bin/gnu/h-x86_64-mingw32/bin/../lib/gcc/nios2-elf/5.3.0\libgcc.a(_umoddi3.o)
 .bss           0x0000000004018c48        0x0 c:/intelfpga/17.1/nios2eds/bin/gnu/h-x86_64-mingw32/bin/../lib/gcc/nios2-elf/5.3.0\libgcc.a(fixdfsi.o)
 .bss           0x0000000004018c48        0x0 c:/intelfpga/17.1/nios2eds/bin/gnu/h-x86_64-mingw32/bin/../lib/gcc/nios2-elf/5.3.0\libgcc.a(floatsidf.o)
 .bss           0x0000000004018c48        0x0 c:/intelfpga/17.1/nios2eds/bin/gnu/h-x86_64-mingw32/bin/../lib/gcc/nios2-elf/5.3.0\libgcc.a(floatunsidf.o)
 .bss           0x0000000004018c48        0x0 ../tecnica2_bsp/\libhal_bsp.a(alt_close.o)
 .bss           0x0000000004018c48        0x0 ../tecnica2_bsp/\libhal_bsp.a(alt_dev.o)
 .bss           0x0000000004018c48        0x0 ../tecnica2_bsp/\libhal_bsp.a(alt_errno.o)
 .bss           0x0000000004018c48        0x0 ../tecnica2_bsp/\libhal_bsp.a(alt_fstat.o)
 .bss           0x0000000004018c48        0x0 ../tecnica2_bsp/\libhal_bsp.a(alt_gettod.o)
 .bss           0x0000000004018c48        0x0 ../tecnica2_bsp/\libhal_bsp.a(alt_isatty.o)
 .bss           0x0000000004018c48        0x0 ../tecnica2_bsp/\libhal_bsp.a(alt_load.o)
 .bss           0x0000000004018c48        0x0 ../tecnica2_bsp/\libhal_bsp.a(alt_lseek.o)
 .bss           0x0000000004018c48        0x0 ../tecnica2_bsp/\libhal_bsp.a(alt_main.o)
 .bss           0x0000000004018c48        0x0 ../tecnica2_bsp/\libhal_bsp.a(alt_malloc_lock.o)
 .bss           0x0000000004018c48        0x0 ../tecnica2_bsp/\libhal_bsp.a(alt_read.o)
 .bss           0x0000000004018c48        0x0 ../tecnica2_bsp/\libhal_bsp.a(alt_release_fd.o)
 .bss           0x0000000004018c48        0x0 ../tecnica2_bsp/\libhal_bsp.a(alt_sbrk.o)
 .bss           0x0000000004018c48        0x0 ../tecnica2_bsp/\libhal_bsp.a(alt_tick.o)
 .bss           0x0000000004018c48        0x0 ../tecnica2_bsp/\libhal_bsp.a(alt_write.o)
 .bss           0x0000000004018c48        0x0 ../tecnica2_bsp/\libhal_bsp.a(alt_sys_init.o)
 .bss           0x0000000004018c48        0x0 ../tecnica2_bsp/\libhal_bsp.a(altera_avalon_jtag_uart_fd.o)
 .bss           0x0000000004018c48        0x0 ../tecnica2_bsp/\libhal_bsp.a(altera_avalon_jtag_uart_init.o)
 .bss           0x0000000004018c48        0x0 ../tecnica2_bsp/\libhal_bsp.a(altera_avalon_jtag_uart_ioctl.o)
 .bss           0x0000000004018c48        0x0 ../tecnica2_bsp/\libhal_bsp.a(altera_avalon_jtag_uart_read.o)
 .bss           0x0000000004018c48        0x0 ../tecnica2_bsp/\libhal_bsp.a(altera_avalon_jtag_uart_write.o)
 .bss           0x0000000004018c48        0x0 ../tecnica2_bsp/\libhal_bsp.a(altera_avalon_timer_sc.o)
 .bss           0x0000000004018c48        0x0 ../tecnica2_bsp/\libhal_bsp.a(perf_print_formatted_report.o)
 .bss           0x0000000004018c48        0x0 ../tecnica2_bsp/\libhal_bsp.a(alt_alarm_start.o)
 .bss           0x0000000004018c48        0x0 ../tecnica2_bsp/\libhal_bsp.a(alt_dcache_flush_all.o)
 .bss           0x0000000004018c48        0x0 ../tecnica2_bsp/\libhal_bsp.a(alt_dev_llist_insert.o)
 .bss           0x0000000004018c48        0x0 ../tecnica2_bsp/\libhal_bsp.a(alt_do_ctors.o)
 .bss           0x0000000004018c48        0x0 ../tecnica2_bsp/\libhal_bsp.a(alt_do_dtors.o)
 .bss           0x0000000004018c48        0x0 ../tecnica2_bsp/\libhal_bsp.a(alt_icache_flush_all.o)
 .bss           0x0000000004018c48        0x0 ../tecnica2_bsp/\libhal_bsp.a(alt_iic.o)
 .bss           0x0000000004018c48        0x0 ../tecnica2_bsp/\libhal_bsp.a(alt_iic_isr_register.o)
 .bss           0x0000000004018c48        0x0 ../tecnica2_bsp/\libhal_bsp.a(alt_io_redirect.o)
 .bss           0x0000000004018c48        0x0 ../tecnica2_bsp/\libhal_bsp.a(alt_irq_entry.o)
 .bss           0x0000000004018c48        0x0 ../tecnica2_bsp/\libhal_bsp.a(alt_irq_handler.o)
 .bss           0x0000000004018c48        0x0 ../tecnica2_bsp/\libhal_bsp.a(alt_irq_vars.o)
 .bss           0x0000000004018c48        0x0 ../tecnica2_bsp/\libhal_bsp.a(alt_open.o)
 .bss           0x0000000004018c48        0x0 ../tecnica2_bsp/\libhal_bsp.a(altera_nios2_gen2_irq.o)
 .bss           0x0000000004018c48        0x0 ../tecnica2_bsp/\libhal_bsp.a(altera_avalon_performance_counter.o)
 .bss           0x0000000004018c48        0x0 ../tecnica2_bsp/\libhal_bsp.a(alt_exception_entry.o)
 .bss           0x0000000004018c48        0x0 ../tecnica2_bsp/\libhal_bsp.a(alt_find_dev.o)
 .bss           0x0000000004018c48        0x0 ../tecnica2_bsp/\libhal_bsp.a(alt_find_file.o)
 .bss           0x0000000004018c48        0x0 ../tecnica2_bsp/\libhal_bsp.a(alt_get_fd.o)
 .bss           0x0000000004018c48        0x0 ../tecnica2_bsp/\libhal_bsp.a(alt_icache_flush.o)
 .bss           0x0000000004018c48        0x0 ../tecnica2_bsp/\libhal_bsp.a(alt_instruction_exception_entry.o)
 .bss           0x0000000004018c48        0x0 ../tecnica2_bsp//newlib/nios2-elf/lib\libc.a(lib_a-atexit.o)
 .bss           0x0000000004018c48        0x0 ../tecnica2_bsp//newlib/nios2-elf/lib\libc.a(lib_a-exit.o)
 .bss           0x0000000004018c48        0x0 ../tecnica2_bsp//newlib/nios2-elf/lib\libc.a(lib_a-memcmp.o)
 .bss           0x0000000004018c48        0x0 ../tecnica2_bsp//newlib/nios2-elf/lib\libc.a(lib_a-__atexit.o)
 .bss           0x0000000004018c48        0x0 ../tecnica2_bsp//newlib/nios2-elf/lib\libc.a(lib_a-__call_atexit.o)
 .bss           0x0000000004018c48        0x0 c:/intelfpga/17.1/nios2eds/bin/gnu/h-x86_64-mingw32/bin/../lib/gcc/nios2-elf/5.3.0\libgcc.a(_floatundidf.o)
 .bss           0x0000000004018c48        0x0 ../tecnica2_bsp/\libhal_bsp.a(alt_exit.o)
 *(COMMON)
 COMMON         0x0000000004018c48     0x2780 obj/default/backpropagation_best2019_superdef_ver2_alumnos-1.o
                0x0000000004018c48                hiddenVal2
                0x0000000004018c98                delta_h2
                0x0000000004018ce8                weightsH2O
                0x0000000004018d3c                ponderacion1
                0x0000000004018e04                der_hiddenVal1
                0x0000000004018ecc                weightsH1H2_old
                0x0000000004019ebc                hiddenVal1
                0x0000000004019f84                weightsIH1
                0x000000000401a1dc                weightsH2O_old
                0x000000000401a230                trainInputs
                0x000000000401a260                trainOutput
                0x000000000401a270                ponderacion2
                0x000000000401a2c0                weightsH1H2
                0x000000000401b2b0                der_hiddenVal2
                0x000000000401b300                delta_h1
 COMMON         0x000000000401b3c8      0x100 ../tecnica2_bsp/\libhal_bsp.a(alt_irq_handler.o)
                0x000000000401b3c8                alt_irq
                0x000000000401b4c8                . = ALIGN (0x4)
                0x000000000401b4c8                __bss_end = ABSOLUTE (.)

.sdram          0x000000000401b4c8        0x0
                [!provide]                        PROVIDE (_alt_partition_sdram_start, ABSOLUTE (.))
 *(.sdram .sdram. sdram.*)
                0x000000000401b4c8                . = ALIGN (0x4)
                [!provide]                        PROVIDE (_alt_partition_sdram_end, ABSOLUTE (.))
                0x000000000401b4c8                _end = ABSOLUTE (.)
                0x000000000401b4c8                end = ABSOLUTE (.)
                0x000000000401b4c8                __alt_stack_base = ABSOLUTE (.)
                [!provide]                        PROVIDE (_alt_partition_sdram_load_addr, LOADADDR (.sdram))

.stab
 *(.stab)

.stabstr
 *(.stabstr)

.stab.excl
 *(.stab.excl)

.stab.exclstr
 *(.stab.exclstr)

.stab.index
 *(.stab.index)

.stab.indexstr
 *(.stab.indexstr)

.comment        0x0000000000000000       0x23
 *(.comment)
 .comment       0x0000000000000000       0x23 obj/default/backpropagation_best2019_superdef_ver2_alumnos-1.o
                                         0x24 (size before relaxing)
 .comment       0x0000000000000023       0x24 ../tecnica2_bsp//newlib/nios2-elf/lib\libm.a(lib_a-w_sqrt.o)
 .comment       0x0000000000000023       0x24 ../tecnica2_bsp//newlib/nios2-elf/lib\libm.a(lib_a-e_sqrt.o)
 .comment       0x0000000000000023       0x24 ../tecnica2_bsp//newlib/nios2-elf/lib\libm.a(lib_a-s_fpclassify.o)
 .comment       0x0000000000000023       0x24 ../tecnica2_bsp//newlib/nios2-elf/lib\libm.a(lib_a-s_lib_ver.o)
 .comment       0x0000000000000023       0x24 ../tecnica2_bsp//newlib/nios2-elf/lib\libm.a(lib_a-s_matherr.o)
 .comment       0x0000000000000023       0x24 c:/intelfpga/17.1/nios2eds/bin/gnu/h-x86_64-mingw32/bin/../lib/gcc/nios2-elf/5.3.0\libgcc.a(adddf3.o)
 .comment       0x0000000000000023       0x24 c:/intelfpga/17.1/nios2eds/bin/gnu/h-x86_64-mingw32/bin/../lib/gcc/nios2-elf/5.3.0\libgcc.a(divdf3.o)
 .comment       0x0000000000000023       0x24 c:/intelfpga/17.1/nios2eds/bin/gnu/h-x86_64-mingw32/bin/../lib/gcc/nios2-elf/5.3.0\libgcc.a(eqdf2.o)
 .comment       0x0000000000000023       0x24 c:/intelfpga/17.1/nios2eds/bin/gnu/h-x86_64-mingw32/bin/../lib/gcc/nios2-elf/5.3.0\libgcc.a(gedf2.o)
 .comment       0x0000000000000023       0x24 c:/intelfpga/17.1/nios2eds/bin/gnu/h-x86_64-mingw32/bin/../lib/gcc/nios2-elf/5.3.0\libgcc.a(ledf2.o)
 .comment       0x0000000000000023       0x24 c:/intelfpga/17.1/nios2eds/bin/gnu/h-x86_64-mingw32/bin/../lib/gcc/nios2-elf/5.3.0\libgcc.a(muldf3.o)
 .comment       0x0000000000000023       0x24 c:/intelfpga/17.1/nios2eds/bin/gnu/h-x86_64-mingw32/bin/../lib/gcc/nios2-elf/5.3.0\libgcc.a(subdf3.o)
 .comment       0x0000000000000023       0x24 c:/intelfpga/17.1/nios2eds/bin/gnu/h-x86_64-mingw32/bin/../lib/gcc/nios2-elf/5.3.0\libgcc.a(extendsfdf2.o)
 .comment       0x0000000000000023       0x24 c:/intelfpga/17.1/nios2eds/bin/gnu/h-x86_64-mingw32/bin/../lib/gcc/nios2-elf/5.3.0\libgcc.a(truncdfsf2.o)
 .comment       0x0000000000000023       0x24 c:/intelfpga/17.1/nios2eds/bin/gnu/h-x86_64-mingw32/bin/../lib/gcc/nios2-elf/5.3.0\libgcc.a(_clzsi2.o)
 .comment       0x0000000000000023       0x24 c:/intelfpga/17.1/nios2eds/bin/gnu/h-x86_64-mingw32/bin/../lib/gcc/nios2-elf/5.3.0\libgcc.a(lib2-divmod.o)
 .comment       0x0000000000000023       0x24 c:/intelfpga/17.1/nios2eds/bin/gnu/h-x86_64-mingw32/bin/../lib/gcc/nios2-elf/5.3.0\libgcc.a(_clz.o)
 .comment       0x0000000000000023       0x24 ../tecnica2_bsp//newlib/nios2-elf/lib\libc.a(lib_a-errno.o)
 .comment       0x0000000000000023       0x24 ../tecnica2_bsp//newlib/nios2-elf/lib\libc.a(lib_a-impure.o)
 .comment       0x0000000000000023       0x24 ../tecnica2_bsp//newlib/nios2-elf/lib\libc.a(lib_a-printf.o)
 .comment       0x0000000000000023       0x24 ../tecnica2_bsp//newlib/nios2-elf/lib\libc.a(lib_a-putchar.o)
 .comment       0x0000000000000023       0x24 ../tecnica2_bsp//newlib/nios2-elf/lib\libc.a(lib_a-puts.o)
 .comment       0x0000000000000023       0x24 ../tecnica2_bsp//newlib/nios2-elf/lib\libc.a(lib_a-rand.o)
 .comment       0x0000000000000023       0x24 ../tecnica2_bsp//newlib/nios2-elf/lib\libc.a(lib_a-strlen.o)
 .comment       0x0000000000000023       0x24 ../tecnica2_bsp//newlib/nios2-elf/lib\libc.a(lib_a-system.o)
 .comment       0x0000000000000023       0x24 ../tecnica2_bsp//newlib/nios2-elf/lib\libc.a(lib_a-time.o)
 .comment       0x0000000000000023       0x24 ../tecnica2_bsp//newlib/nios2-elf/lib\libc.a(lib_a-vfprintf.o)
 .comment       0x0000000000000023       0x24 ../tecnica2_bsp//newlib/nios2-elf/lib\libc.a(lib_a-wsetup.o)
 .comment       0x0000000000000023       0x24 ../tecnica2_bsp//newlib/nios2-elf/lib\libc.a(lib_a-dtoa.o)
 .comment       0x0000000000000023       0x24 ../tecnica2_bsp//newlib/nios2-elf/lib\libc.a(lib_a-fflush.o)
 .comment       0x0000000000000023       0x24 ../tecnica2_bsp//newlib/nios2-elf/lib\libc.a(lib_a-findfp.o)
 .comment       0x0000000000000023       0x24 ../tecnica2_bsp//newlib/nios2-elf/lib\libc.a(lib_a-freer.o)
 .comment       0x0000000000000023       0x24 ../tecnica2_bsp//newlib/nios2-elf/lib\libc.a(lib_a-fvwrite.o)
 .comment       0x0000000000000023       0x24 ../tecnica2_bsp//newlib/nios2-elf/lib\libc.a(lib_a-fwalk.o)
 .comment       0x0000000000000023       0x24 ../tecnica2_bsp//newlib/nios2-elf/lib\libc.a(lib_a-gettimeofdayr.o)
 .comment       0x0000000000000023       0x24 ../tecnica2_bsp//newlib/nios2-elf/lib\libc.a(lib_a-int_errno.o)
 .comment       0x0000000000000023       0x24 ../tecnica2_bsp//newlib/nios2-elf/lib\libc.a(lib_a-locale.o)
 .comment       0x0000000000000023       0x24 ../tecnica2_bsp//newlib/nios2-elf/lib\libc.a(lib_a-makebuf.o)
 .comment       0x0000000000000023       0x24 ../tecnica2_bsp//newlib/nios2-elf/lib\libc.a(lib_a-mallocr.o)
 .comment       0x0000000000000023       0x24 ../tecnica2_bsp//newlib/nios2-elf/lib\libc.a(lib_a-memchr.o)
 .comment       0x0000000000000023       0x24 ../tecnica2_bsp//newlib/nios2-elf/lib\libc.a(lib_a-memcpy.o)
 .comment       0x0000000000000023       0x24 ../tecnica2_bsp//newlib/nios2-elf/lib\libc.a(lib_a-memmove.o)
 .comment       0x0000000000000023       0x24 ../tecnica2_bsp//newlib/nios2-elf/lib\libc.a(lib_a-memset.o)
 .comment       0x0000000000000023       0x24 ../tecnica2_bsp//newlib/nios2-elf/lib\libc.a(lib_a-mprec.o)
 .comment       0x0000000000000023       0x24 ../tecnica2_bsp//newlib/nios2-elf/lib\libc.a(lib_a-putc.o)
 .comment       0x0000000000000023       0x24 ../tecnica2_bsp//newlib/nios2-elf/lib\libc.a(lib_a-reallocr.o)
 .comment       0x0000000000000023       0x24 ../tecnica2_bsp//newlib/nios2-elf/lib\libc.a(lib_a-sbrkr.o)
 .comment       0x0000000000000023       0x24 ../tecnica2_bsp//newlib/nios2-elf/lib\libc.a(lib_a-stdio.o)
 .comment       0x0000000000000023       0x24 ../tecnica2_bsp//newlib/nios2-elf/lib\libc.a(lib_a-strcmp.o)
 .comment       0x0000000000000023       0x24 ../tecnica2_bsp//newlib/nios2-elf/lib\libc.a(lib_a-vfiprintf.o)
 .comment       0x0000000000000023       0x24 ../tecnica2_bsp//newlib/nios2-elf/lib\libc.a(lib_a-wbuf.o)
 .comment       0x0000000000000023       0x24 ../tecnica2_bsp//newlib/nios2-elf/lib\libc.a(lib_a-writer.o)
 .comment       0x0000000000000023       0x24 ../tecnica2_bsp//newlib/nios2-elf/lib\libc.a(closer.o)
 .comment       0x0000000000000023       0x24 ../tecnica2_bsp//newlib/nios2-elf/lib\libc.a(lib_a-callocr.o)
 .comment       0x0000000000000023       0x24 ../tecnica2_bsp//newlib/nios2-elf/lib\libc.a(lib_a-fclose.o)
 .comment       0x0000000000000023       0x24 ../tecnica2_bsp//newlib/nios2-elf/lib\libc.a(lib_a-fputwc.o)
 .comment       0x0000000000000023       0x24 ../tecnica2_bsp//newlib/nios2-elf/lib\libc.a(lib_a-fstatr.o)
 .comment       0x0000000000000023       0x24 ../tecnica2_bsp//newlib/nios2-elf/lib\libc.a(lib_a-isattyr.o)
 .comment       0x0000000000000023       0x24 ../tecnica2_bsp//newlib/nios2-elf/lib\libc.a(lib_a-lseekr.o)
 .comment       0x0000000000000023       0x24 ../tecnica2_bsp//newlib/nios2-elf/lib\libc.a(lib_a-readr.o)
 .comment       0x0000000000000023       0x24 ../tecnica2_bsp//newlib/nios2-elf/lib\libc.a(lib_a-wcrtomb.o)
 .comment       0x0000000000000023       0x24 ../tecnica2_bsp//newlib/nios2-elf/lib\libc.a(lib_a-wctomb_r.o)
 .comment       0x0000000000000023       0x24 c:/intelfpga/17.1/nios2eds/bin/gnu/h-x86_64-mingw32/bin/../lib/gcc/nios2-elf/5.3.0\libgcc.a(_muldi3.o)
 .comment       0x0000000000000023       0x24 c:/intelfpga/17.1/nios2eds/bin/gnu/h-x86_64-mingw32/bin/../lib/gcc/nios2-elf/5.3.0\libgcc.a(_udivdi3.o)
 .comment       0x0000000000000023       0x24 c:/intelfpga/17.1/nios2eds/bin/gnu/h-x86_64-mingw32/bin/../lib/gcc/nios2-elf/5.3.0\libgcc.a(_umoddi3.o)
 .comment       0x0000000000000023       0x24 c:/intelfpga/17.1/nios2eds/bin/gnu/h-x86_64-mingw32/bin/../lib/gcc/nios2-elf/5.3.0\libgcc.a(fixdfsi.o)
 .comment       0x0000000000000023       0x24 c:/intelfpga/17.1/nios2eds/bin/gnu/h-x86_64-mingw32/bin/../lib/gcc/nios2-elf/5.3.0\libgcc.a(floatsidf.o)
 .comment       0x0000000000000023       0x24 c:/intelfpga/17.1/nios2eds/bin/gnu/h-x86_64-mingw32/bin/../lib/gcc/nios2-elf/5.3.0\libgcc.a(floatunsidf.o)
 .comment       0x0000000000000023       0x24 ../tecnica2_bsp/\libhal_bsp.a(alt_close.o)
 .comment       0x0000000000000023       0x24 ../tecnica2_bsp/\libhal_bsp.a(alt_dev.o)
 .comment       0x0000000000000023       0x24 ../tecnica2_bsp/\libhal_bsp.a(alt_errno.o)
 .comment       0x0000000000000023       0x24 ../tecnica2_bsp/\libhal_bsp.a(alt_fstat.o)
 .comment       0x0000000000000023       0x24 ../tecnica2_bsp/\libhal_bsp.a(alt_gettod.o)
 .comment       0x0000000000000023       0x24 ../tecnica2_bsp/\libhal_bsp.a(alt_isatty.o)
 .comment       0x0000000000000023       0x24 ../tecnica2_bsp/\libhal_bsp.a(alt_load.o)
 .comment       0x0000000000000023       0x24 ../tecnica2_bsp/\libhal_bsp.a(alt_lseek.o)
 .comment       0x0000000000000023       0x24 ../tecnica2_bsp/\libhal_bsp.a(alt_main.o)
 .comment       0x0000000000000023       0x24 ../tecnica2_bsp/\libhal_bsp.a(alt_malloc_lock.o)
 .comment       0x0000000000000023       0x24 ../tecnica2_bsp/\libhal_bsp.a(alt_read.o)
 .comment       0x0000000000000023       0x24 ../tecnica2_bsp/\libhal_bsp.a(alt_release_fd.o)
 .comment       0x0000000000000023       0x24 ../tecnica2_bsp/\libhal_bsp.a(alt_sbrk.o)
 .comment       0x0000000000000023       0x24 ../tecnica2_bsp/\libhal_bsp.a(alt_tick.o)
 .comment       0x0000000000000023       0x24 ../tecnica2_bsp/\libhal_bsp.a(alt_write.o)
 .comment       0x0000000000000023       0x24 ../tecnica2_bsp/\libhal_bsp.a(alt_sys_init.o)
 .comment       0x0000000000000023       0x24 ../tecnica2_bsp/\libhal_bsp.a(altera_avalon_jtag_uart_fd.o)
 .comment       0x0000000000000023       0x24 ../tecnica2_bsp/\libhal_bsp.a(altera_avalon_jtag_uart_init.o)
 .comment       0x0000000000000023       0x24 ../tecnica2_bsp/\libhal_bsp.a(altera_avalon_jtag_uart_ioctl.o)
 .comment       0x0000000000000023       0x24 ../tecnica2_bsp/\libhal_bsp.a(altera_avalon_jtag_uart_read.o)
 .comment       0x0000000000000023       0x24 ../tecnica2_bsp/\libhal_bsp.a(altera_avalon_jtag_uart_write.o)
 .comment       0x0000000000000023       0x24 ../tecnica2_bsp/\libhal_bsp.a(altera_avalon_timer_sc.o)
 .comment       0x0000000000000023       0x24 ../tecnica2_bsp/\libhal_bsp.a(perf_print_formatted_report.o)
 .comment       0x0000000000000023       0x24 ../tecnica2_bsp/\libhal_bsp.a(alt_alarm_start.o)
 .comment       0x0000000000000023       0x24 ../tecnica2_bsp/\libhal_bsp.a(alt_dcache_flush_all.o)
 .comment       0x0000000000000023       0x24 ../tecnica2_bsp/\libhal_bsp.a(alt_dev_llist_insert.o)
 .comment       0x0000000000000023       0x24 ../tecnica2_bsp/\libhal_bsp.a(alt_do_ctors.o)
 .comment       0x0000000000000023       0x24 ../tecnica2_bsp/\libhal_bsp.a(alt_do_dtors.o)
 .comment       0x0000000000000023       0x24 ../tecnica2_bsp/\libhal_bsp.a(alt_icache_flush_all.o)
 .comment       0x0000000000000023       0x24 ../tecnica2_bsp/\libhal_bsp.a(alt_iic.o)
 .comment       0x0000000000000023       0x24 ../tecnica2_bsp/\libhal_bsp.a(alt_iic_isr_register.o)
 .comment       0x0000000000000023       0x24 ../tecnica2_bsp/\libhal_bsp.a(alt_io_redirect.o)
 .comment       0x0000000000000023       0x24 ../tecnica2_bsp/\libhal_bsp.a(alt_irq_handler.o)
 .comment       0x0000000000000023       0x24 ../tecnica2_bsp/\libhal_bsp.a(alt_irq_vars.o)
 .comment       0x0000000000000023       0x24 ../tecnica2_bsp/\libhal_bsp.a(alt_open.o)
 .comment       0x0000000000000023       0x24 ../tecnica2_bsp/\libhal_bsp.a(altera_nios2_gen2_irq.o)
 .comment       0x0000000000000023       0x24 ../tecnica2_bsp/\libhal_bsp.a(altera_avalon_performance_counter.o)
 .comment       0x0000000000000023       0x24 ../tecnica2_bsp/\libhal_bsp.a(alt_find_dev.o)
 .comment       0x0000000000000023       0x24 ../tecnica2_bsp/\libhal_bsp.a(alt_find_file.o)
 .comment       0x0000000000000023       0x24 ../tecnica2_bsp/\libhal_bsp.a(alt_get_fd.o)
 .comment       0x0000000000000023       0x24 ../tecnica2_bsp/\libhal_bsp.a(alt_icache_flush.o)
 .comment       0x0000000000000023       0x24 ../tecnica2_bsp/\libhal_bsp.a(alt_instruction_exception_entry.o)
 .comment       0x0000000000000023       0x24 ../tecnica2_bsp//newlib/nios2-elf/lib\libc.a(lib_a-atexit.o)
 .comment       0x0000000000000023       0x24 ../tecnica2_bsp//newlib/nios2-elf/lib\libc.a(lib_a-exit.o)
 .comment       0x0000000000000023       0x24 ../tecnica2_bsp//newlib/nios2-elf/lib\libc.a(lib_a-memcmp.o)
 .comment       0x0000000000000023       0x24 ../tecnica2_bsp//newlib/nios2-elf/lib\libc.a(lib_a-__atexit.o)
 .comment       0x0000000000000023       0x24 ../tecnica2_bsp//newlib/nios2-elf/lib\libc.a(lib_a-__call_atexit.o)
 .comment       0x0000000000000023       0x24 c:/intelfpga/17.1/nios2eds/bin/gnu/h-x86_64-mingw32/bin/../lib/gcc/nios2-elf/5.3.0\libgcc.a(_floatundidf.o)
 .comment       0x0000000000000023       0x24 ../tecnica2_bsp/\libhal_bsp.a(alt_exit.o)

.debug
 *(.debug)

.line
 *(.line)

.debug_srcinfo
 *(.debug_srcinfo)

.debug_sfnames
 *(.debug_sfnames)

.debug_aranges  0x0000000000000000     0x1140
 *(.debug_aranges)
 .debug_aranges
                0x0000000000000000       0x28 ../tecnica2_bsp//obj/HAL/src/crt0.o
 .debug_aranges
                0x0000000000000028       0x20 obj/default/backpropagation_best2019_superdef_ver2_alumnos-1.o
 .debug_aranges
                0x0000000000000048       0x20 ../tecnica2_bsp//newlib/nios2-elf/lib\libm.a(lib_a-w_sqrt.o)
 .debug_aranges
                0x0000000000000068       0x20 ../tecnica2_bsp//newlib/nios2-elf/lib\libm.a(lib_a-e_sqrt.o)
 .debug_aranges
                0x0000000000000088       0x20 ../tecnica2_bsp//newlib/nios2-elf/lib\libm.a(lib_a-s_fpclassify.o)
 .debug_aranges
                0x00000000000000a8       0x18 ../tecnica2_bsp//newlib/nios2-elf/lib\libm.a(lib_a-s_lib_ver.o)
 .debug_aranges
                0x00000000000000c0       0x20 ../tecnica2_bsp//newlib/nios2-elf/lib\libm.a(lib_a-s_matherr.o)
 .debug_aranges
                0x00000000000000e0       0x20 c:/intelfpga/17.1/nios2eds/bin/gnu/h-x86_64-mingw32/bin/../lib/gcc/nios2-elf/5.3.0\libgcc.a(adddf3.o)
 .debug_aranges
                0x0000000000000100       0x20 c:/intelfpga/17.1/nios2eds/bin/gnu/h-x86_64-mingw32/bin/../lib/gcc/nios2-elf/5.3.0\libgcc.a(divdf3.o)
 .debug_aranges
                0x0000000000000120       0x20 c:/intelfpga/17.1/nios2eds/bin/gnu/h-x86_64-mingw32/bin/../lib/gcc/nios2-elf/5.3.0\libgcc.a(eqdf2.o)
 .debug_aranges
                0x0000000000000140       0x20 c:/intelfpga/17.1/nios2eds/bin/gnu/h-x86_64-mingw32/bin/../lib/gcc/nios2-elf/5.3.0\libgcc.a(gedf2.o)
 .debug_aranges
                0x0000000000000160       0x20 c:/intelfpga/17.1/nios2eds/bin/gnu/h-x86_64-mingw32/bin/../lib/gcc/nios2-elf/5.3.0\libgcc.a(ledf2.o)
 .debug_aranges
                0x0000000000000180       0x20 c:/intelfpga/17.1/nios2eds/bin/gnu/h-x86_64-mingw32/bin/../lib/gcc/nios2-elf/5.3.0\libgcc.a(muldf3.o)
 .debug_aranges
                0x00000000000001a0       0x20 c:/intelfpga/17.1/nios2eds/bin/gnu/h-x86_64-mingw32/bin/../lib/gcc/nios2-elf/5.3.0\libgcc.a(subdf3.o)
 .debug_aranges
                0x00000000000001c0       0x20 c:/intelfpga/17.1/nios2eds/bin/gnu/h-x86_64-mingw32/bin/../lib/gcc/nios2-elf/5.3.0\libgcc.a(extendsfdf2.o)
 .debug_aranges
                0x00000000000001e0       0x20 c:/intelfpga/17.1/nios2eds/bin/gnu/h-x86_64-mingw32/bin/../lib/gcc/nios2-elf/5.3.0\libgcc.a(truncdfsf2.o)
 .debug_aranges
                0x0000000000000200       0x20 c:/intelfpga/17.1/nios2eds/bin/gnu/h-x86_64-mingw32/bin/../lib/gcc/nios2-elf/5.3.0\libgcc.a(_clzsi2.o)
 .debug_aranges
                0x0000000000000220       0x20 c:/intelfpga/17.1/nios2eds/bin/gnu/h-x86_64-mingw32/bin/../lib/gcc/nios2-elf/5.3.0\libgcc.a(lib2-divmod.o)
 .debug_aranges
                0x0000000000000240       0x18 c:/intelfpga/17.1/nios2eds/bin/gnu/h-x86_64-mingw32/bin/../lib/gcc/nios2-elf/5.3.0\libgcc.a(_clz.o)
 .debug_aranges
                0x0000000000000258       0x20 ../tecnica2_bsp//newlib/nios2-elf/lib\libc.a(lib_a-errno.o)
 .debug_aranges
                0x0000000000000278       0x18 ../tecnica2_bsp//newlib/nios2-elf/lib\libc.a(lib_a-impure.o)
 .debug_aranges
                0x0000000000000290       0x28 ../tecnica2_bsp//newlib/nios2-elf/lib\libc.a(lib_a-printf.o)
 .debug_aranges
                0x00000000000002b8       0x28 ../tecnica2_bsp//newlib/nios2-elf/lib\libc.a(lib_a-putchar.o)
 .debug_aranges
                0x00000000000002e0       0x28 ../tecnica2_bsp//newlib/nios2-elf/lib\libc.a(lib_a-puts.o)
 .debug_aranges
                0x0000000000000308       0x28 ../tecnica2_bsp//newlib/nios2-elf/lib\libc.a(lib_a-rand.o)
 .debug_aranges
                0x0000000000000330       0x20 ../tecnica2_bsp//newlib/nios2-elf/lib\libc.a(lib_a-strlen.o)
 .debug_aranges
                0x0000000000000350       0x28 ../tecnica2_bsp//newlib/nios2-elf/lib\libc.a(lib_a-system.o)
 .debug_aranges
                0x0000000000000378       0x20 ../tecnica2_bsp//newlib/nios2-elf/lib\libc.a(lib_a-time.o)
 .debug_aranges
                0x0000000000000398       0x40 ../tecnica2_bsp//newlib/nios2-elf/lib\libc.a(lib_a-vfprintf.o)
 .debug_aranges
                0x00000000000003d8       0x20 ../tecnica2_bsp//newlib/nios2-elf/lib\libc.a(lib_a-wsetup.o)
 .debug_aranges
                0x00000000000003f8       0x28 ../tecnica2_bsp//newlib/nios2-elf/lib\libc.a(lib_a-dtoa.o)
 .debug_aranges
                0x0000000000000420       0x30 ../tecnica2_bsp//newlib/nios2-elf/lib\libc.a(lib_a-fflush.o)
 .debug_aranges
                0x0000000000000450       0x88 ../tecnica2_bsp//newlib/nios2-elf/lib\libc.a(lib_a-findfp.o)
 .debug_aranges
                0x00000000000004d8       0x28 ../tecnica2_bsp//newlib/nios2-elf/lib\libc.a(lib_a-freer.o)
 .debug_aranges
                0x0000000000000500       0x20 ../tecnica2_bsp//newlib/nios2-elf/lib\libc.a(lib_a-fvwrite.o)
 .debug_aranges
                0x0000000000000520       0x28 ../tecnica2_bsp//newlib/nios2-elf/lib\libc.a(lib_a-fwalk.o)
 .debug_aranges
                0x0000000000000548       0x20 ../tecnica2_bsp//newlib/nios2-elf/lib\libc.a(lib_a-gettimeofdayr.o)
 .debug_aranges
                0x0000000000000568       0x18 ../tecnica2_bsp//newlib/nios2-elf/lib\libc.a(lib_a-int_errno.o)
 .debug_aranges
                0x0000000000000580       0x58 ../tecnica2_bsp//newlib/nios2-elf/lib\libc.a(lib_a-locale.o)
 .debug_aranges
                0x00000000000005d8       0x20 ../tecnica2_bsp//newlib/nios2-elf/lib\libc.a(lib_a-makebuf.o)
 .debug_aranges
                0x00000000000005f8       0x28 ../tecnica2_bsp//newlib/nios2-elf/lib\libc.a(lib_a-mallocr.o)
 .debug_aranges
                0x0000000000000620       0x20 ../tecnica2_bsp//newlib/nios2-elf/lib\libc.a(lib_a-memchr.o)
 .debug_aranges
                0x0000000000000640       0x20 ../tecnica2_bsp//newlib/nios2-elf/lib\libc.a(lib_a-memcpy.o)
 .debug_aranges
                0x0000000000000660       0x20 ../tecnica2_bsp//newlib/nios2-elf/lib\libc.a(lib_a-memmove.o)
 .debug_aranges
                0x0000000000000680       0x20 ../tecnica2_bsp//newlib/nios2-elf/lib\libc.a(lib_a-memset.o)
 .debug_aranges
                0x00000000000006a0       0xb0 ../tecnica2_bsp//newlib/nios2-elf/lib\libc.a(lib_a-mprec.o)
 .debug_aranges
                0x0000000000000750       0x28 ../tecnica2_bsp//newlib/nios2-elf/lib\libc.a(lib_a-putc.o)
 .debug_aranges
                0x0000000000000778       0x20 ../tecnica2_bsp//newlib/nios2-elf/lib\libc.a(lib_a-reallocr.o)
 .debug_aranges
                0x0000000000000798       0x20 ../tecnica2_bsp//newlib/nios2-elf/lib\libc.a(lib_a-sbrkr.o)
 .debug_aranges
                0x00000000000007b8       0x40 ../tecnica2_bsp//newlib/nios2-elf/lib\libc.a(lib_a-stdio.o)
 .debug_aranges
                0x00000000000007f8       0x20 ../tecnica2_bsp//newlib/nios2-elf/lib\libc.a(lib_a-strcmp.o)
 .debug_aranges
                0x0000000000000818       0x38 ../tecnica2_bsp//newlib/nios2-elf/lib\libc.a(lib_a-vfiprintf.o)
 .debug_aranges
                0x0000000000000850       0x28 ../tecnica2_bsp//newlib/nios2-elf/lib\libc.a(lib_a-wbuf.o)
 .debug_aranges
                0x0000000000000878       0x20 ../tecnica2_bsp//newlib/nios2-elf/lib\libc.a(lib_a-writer.o)
 .debug_aranges
                0x0000000000000898       0x20 ../tecnica2_bsp//newlib/nios2-elf/lib\libc.a(closer.o)
 .debug_aranges
                0x00000000000008b8       0x20 ../tecnica2_bsp//newlib/nios2-elf/lib\libc.a(lib_a-callocr.o)
 .debug_aranges
                0x00000000000008d8       0x28 ../tecnica2_bsp//newlib/nios2-elf/lib\libc.a(lib_a-fclose.o)
 .debug_aranges
                0x0000000000000900       0x30 ../tecnica2_bsp//newlib/nios2-elf/lib\libc.a(lib_a-fputwc.o)
 .debug_aranges
                0x0000000000000930       0x20 ../tecnica2_bsp//newlib/nios2-elf/lib\libc.a(lib_a-fstatr.o)
 .debug_aranges
                0x0000000000000950       0x20 ../tecnica2_bsp//newlib/nios2-elf/lib\libc.a(lib_a-isattyr.o)
 .debug_aranges
                0x0000000000000970       0x20 ../tecnica2_bsp//newlib/nios2-elf/lib\libc.a(lib_a-lseekr.o)
 .debug_aranges
                0x0000000000000990       0x20 ../tecnica2_bsp//newlib/nios2-elf/lib\libc.a(lib_a-readr.o)
 .debug_aranges
                0x00000000000009b0       0x28 ../tecnica2_bsp//newlib/nios2-elf/lib\libc.a(lib_a-wcrtomb.o)
 .debug_aranges
                0x00000000000009d8       0x28 ../tecnica2_bsp//newlib/nios2-elf/lib\libc.a(lib_a-wctomb_r.o)
 .debug_aranges
                0x0000000000000a00       0x20 c:/intelfpga/17.1/nios2eds/bin/gnu/h-x86_64-mingw32/bin/../lib/gcc/nios2-elf/5.3.0\libgcc.a(_muldi3.o)
 .debug_aranges
                0x0000000000000a20       0x20 c:/intelfpga/17.1/nios2eds/bin/gnu/h-x86_64-mingw32/bin/../lib/gcc/nios2-elf/5.3.0\libgcc.a(_udivdi3.o)
 .debug_aranges
                0x0000000000000a40       0x20 c:/intelfpga/17.1/nios2eds/bin/gnu/h-x86_64-mingw32/bin/../lib/gcc/nios2-elf/5.3.0\libgcc.a(_umoddi3.o)
 .debug_aranges
                0x0000000000000a60       0x20 c:/intelfpga/17.1/nios2eds/bin/gnu/h-x86_64-mingw32/bin/../lib/gcc/nios2-elf/5.3.0\libgcc.a(fixdfsi.o)
 .debug_aranges
                0x0000000000000a80       0x20 c:/intelfpga/17.1/nios2eds/bin/gnu/h-x86_64-mingw32/bin/../lib/gcc/nios2-elf/5.3.0\libgcc.a(floatsidf.o)
 .debug_aranges
                0x0000000000000aa0       0x20 c:/intelfpga/17.1/nios2eds/bin/gnu/h-x86_64-mingw32/bin/../lib/gcc/nios2-elf/5.3.0\libgcc.a(floatunsidf.o)
 .debug_aranges
                0x0000000000000ac0       0x20 ../tecnica2_bsp/\libhal_bsp.a(alt_close.o)
 .debug_aranges
                0x0000000000000ae0       0x20 ../tecnica2_bsp/\libhal_bsp.a(alt_dev.o)
 .debug_aranges
                0x0000000000000b00       0x18 ../tecnica2_bsp/\libhal_bsp.a(alt_errno.o)
 .debug_aranges
                0x0000000000000b18       0x20 ../tecnica2_bsp/\libhal_bsp.a(alt_fstat.o)
 .debug_aranges
                0x0000000000000b38       0x20 ../tecnica2_bsp/\libhal_bsp.a(alt_gettod.o)
 .debug_aranges
                0x0000000000000b58       0x20 ../tecnica2_bsp/\libhal_bsp.a(alt_isatty.o)
 .debug_aranges
                0x0000000000000b78       0x20 ../tecnica2_bsp/\libhal_bsp.a(alt_load.o)
 .debug_aranges
                0x0000000000000b98       0x20 ../tecnica2_bsp/\libhal_bsp.a(alt_lseek.o)
 .debug_aranges
                0x0000000000000bb8       0x20 ../tecnica2_bsp/\libhal_bsp.a(alt_main.o)
 .debug_aranges
                0x0000000000000bd8       0x20 ../tecnica2_bsp/\libhal_bsp.a(alt_malloc_lock.o)
 .debug_aranges
                0x0000000000000bf8       0x20 ../tecnica2_bsp/\libhal_bsp.a(alt_read.o)
 .debug_aranges
                0x0000000000000c18       0x20 ../tecnica2_bsp/\libhal_bsp.a(alt_release_fd.o)
 .debug_aranges
                0x0000000000000c38       0x20 ../tecnica2_bsp/\libhal_bsp.a(alt_sbrk.o)
 .debug_aranges
                0x0000000000000c58       0x20 ../tecnica2_bsp/\libhal_bsp.a(alt_tick.o)
 .debug_aranges
                0x0000000000000c78       0x20 ../tecnica2_bsp/\libhal_bsp.a(alt_write.o)
 .debug_aranges
                0x0000000000000c98       0x20 ../tecnica2_bsp/\libhal_bsp.a(alt_sys_init.o)
 .debug_aranges
                0x0000000000000cb8       0x20 ../tecnica2_bsp/\libhal_bsp.a(altera_avalon_jtag_uart_fd.o)
 .debug_aranges
                0x0000000000000cd8       0x20 ../tecnica2_bsp/\libhal_bsp.a(altera_avalon_jtag_uart_init.o)
 .debug_aranges
                0x0000000000000cf8       0x20 ../tecnica2_bsp/\libhal_bsp.a(altera_avalon_jtag_uart_ioctl.o)
 .debug_aranges
                0x0000000000000d18       0x20 ../tecnica2_bsp/\libhal_bsp.a(altera_avalon_jtag_uart_read.o)
 .debug_aranges
                0x0000000000000d38       0x20 ../tecnica2_bsp/\libhal_bsp.a(altera_avalon_jtag_uart_write.o)
 .debug_aranges
                0x0000000000000d58       0x20 ../tecnica2_bsp/\libhal_bsp.a(altera_avalon_timer_sc.o)
 .debug_aranges
                0x0000000000000d78       0x20 ../tecnica2_bsp/\libhal_bsp.a(perf_print_formatted_report.o)
 .debug_aranges
                0x0000000000000d98       0x20 ../tecnica2_bsp/\libhal_bsp.a(alt_alarm_start.o)
 .debug_aranges
                0x0000000000000db8       0x20 ../tecnica2_bsp/\libhal_bsp.a(alt_dcache_flush_all.o)
 .debug_aranges
                0x0000000000000dd8       0x20 ../tecnica2_bsp/\libhal_bsp.a(alt_dev_llist_insert.o)
 .debug_aranges
                0x0000000000000df8       0x20 ../tecnica2_bsp/\libhal_bsp.a(alt_do_ctors.o)
 .debug_aranges
                0x0000000000000e18       0x20 ../tecnica2_bsp/\libhal_bsp.a(alt_do_dtors.o)
 .debug_aranges
                0x0000000000000e38       0x20 ../tecnica2_bsp/\libhal_bsp.a(alt_icache_flush_all.o)
 .debug_aranges
                0x0000000000000e58       0x20 ../tecnica2_bsp/\libhal_bsp.a(alt_iic.o)
 .debug_aranges
                0x0000000000000e78       0x20 ../tecnica2_bsp/\libhal_bsp.a(alt_iic_isr_register.o)
 .debug_aranges
                0x0000000000000e98       0x20 ../tecnica2_bsp/\libhal_bsp.a(alt_io_redirect.o)
 .debug_aranges
                0x0000000000000eb8       0x30 ../tecnica2_bsp/\libhal_bsp.a(alt_irq_entry.o)
 .debug_aranges
                0x0000000000000ee8       0x20 ../tecnica2_bsp/\libhal_bsp.a(alt_irq_handler.o)
 .debug_aranges
                0x0000000000000f08       0x18 ../tecnica2_bsp/\libhal_bsp.a(alt_irq_vars.o)
 .debug_aranges
                0x0000000000000f20       0x20 ../tecnica2_bsp/\libhal_bsp.a(alt_open.o)
 .debug_aranges
                0x0000000000000f40       0x20 ../tecnica2_bsp/\libhal_bsp.a(altera_nios2_gen2_irq.o)
 .debug_aranges
                0x0000000000000f60       0x20 ../tecnica2_bsp/\libhal_bsp.a(altera_avalon_performance_counter.o)
 .debug_aranges
                0x0000000000000f80       0x38 ../tecnica2_bsp/\libhal_bsp.a(alt_exception_entry.o)
 .debug_aranges
                0x0000000000000fb8       0x20 ../tecnica2_bsp/\libhal_bsp.a(alt_find_dev.o)
 .debug_aranges
                0x0000000000000fd8       0x20 ../tecnica2_bsp/\libhal_bsp.a(alt_find_file.o)
 .debug_aranges
                0x0000000000000ff8       0x20 ../tecnica2_bsp/\libhal_bsp.a(alt_get_fd.o)
 .debug_aranges
                0x0000000000001018       0x20 ../tecnica2_bsp/\libhal_bsp.a(alt_icache_flush.o)
 .debug_aranges
                0x0000000000001038       0x28 ../tecnica2_bsp/\libhal_bsp.a(alt_instruction_exception_entry.o)
 .debug_aranges
                0x0000000000001060       0x20 ../tecnica2_bsp//newlib/nios2-elf/lib\libc.a(lib_a-atexit.o)
 .debug_aranges
                0x0000000000001080       0x20 ../tecnica2_bsp//newlib/nios2-elf/lib\libc.a(lib_a-exit.o)
 .debug_aranges
                0x00000000000010a0       0x20 ../tecnica2_bsp//newlib/nios2-elf/lib\libc.a(lib_a-memcmp.o)
 .debug_aranges
                0x00000000000010c0       0x20 ../tecnica2_bsp//newlib/nios2-elf/lib\libc.a(lib_a-__atexit.o)
 .debug_aranges
                0x00000000000010e0       0x20 ../tecnica2_bsp//newlib/nios2-elf/lib\libc.a(lib_a-__call_atexit.o)
 .debug_aranges
                0x0000000000001100       0x20 c:/intelfpga/17.1/nios2eds/bin/gnu/h-x86_64-mingw32/bin/../lib/gcc/nios2-elf/5.3.0\libgcc.a(_floatundidf.o)
 .debug_aranges
                0x0000000000001120       0x20 ../tecnica2_bsp/\libhal_bsp.a(alt_exit.o)

.debug_pubnames
 *(.debug_pubnames)

.debug_info     0x0000000000000000    0x26091
 *(.debug_info .gnu.linkonce.wi.*)
 .debug_info    0x0000000000000000       0x88 ../tecnica2_bsp//obj/HAL/src/crt0.o
 .debug_info    0x0000000000000088      0x5c2 obj/default/backpropagation_best2019_superdef_ver2_alumnos-1.o
 .debug_info    0x000000000000064a      0x163 ../tecnica2_bsp//newlib/nios2-elf/lib\libm.a(lib_a-w_sqrt.o)
 .debug_info    0x00000000000007ad      0x222 ../tecnica2_bsp//newlib/nios2-elf/lib\libm.a(lib_a-e_sqrt.o)
 .debug_info    0x00000000000009cf      0x13e ../tecnica2_bsp//newlib/nios2-elf/lib\libm.a(lib_a-s_fpclassify.o)
 .debug_info    0x0000000000000b0d       0xbe ../tecnica2_bsp//newlib/nios2-elf/lib\libm.a(lib_a-s_lib_ver.o)
 .debug_info    0x0000000000000bcb      0x126 ../tecnica2_bsp//newlib/nios2-elf/lib\libm.a(lib_a-s_matherr.o)
 .debug_info    0x0000000000000cf1      0x4a2 c:/intelfpga/17.1/nios2eds/bin/gnu/h-x86_64-mingw32/bin/../lib/gcc/nios2-elf/5.3.0\libgcc.a(adddf3.o)
 .debug_info    0x0000000000001193      0x5c7 c:/intelfpga/17.1/nios2eds/bin/gnu/h-x86_64-mingw32/bin/../lib/gcc/nios2-elf/5.3.0\libgcc.a(divdf3.o)
 .debug_info    0x000000000000175a      0x1e2 c:/intelfpga/17.1/nios2eds/bin/gnu/h-x86_64-mingw32/bin/../lib/gcc/nios2-elf/5.3.0\libgcc.a(eqdf2.o)
 .debug_info    0x000000000000193c      0x202 c:/intelfpga/17.1/nios2eds/bin/gnu/h-x86_64-mingw32/bin/../lib/gcc/nios2-elf/5.3.0\libgcc.a(gedf2.o)
 .debug_info    0x0000000000001b3e      0x204 c:/intelfpga/17.1/nios2eds/bin/gnu/h-x86_64-mingw32/bin/../lib/gcc/nios2-elf/5.3.0\libgcc.a(ledf2.o)
 .debug_info    0x0000000000001d42      0x5f5 c:/intelfpga/17.1/nios2eds/bin/gnu/h-x86_64-mingw32/bin/../lib/gcc/nios2-elf/5.3.0\libgcc.a(muldf3.o)
 .debug_info    0x0000000000002337      0x4a2 c:/intelfpga/17.1/nios2eds/bin/gnu/h-x86_64-mingw32/bin/../lib/gcc/nios2-elf/5.3.0\libgcc.a(subdf3.o)
 .debug_info    0x00000000000027d9      0x248 c:/intelfpga/17.1/nios2eds/bin/gnu/h-x86_64-mingw32/bin/../lib/gcc/nios2-elf/5.3.0\libgcc.a(extendsfdf2.o)
 .debug_info    0x0000000000002a21      0x248 c:/intelfpga/17.1/nios2eds/bin/gnu/h-x86_64-mingw32/bin/../lib/gcc/nios2-elf/5.3.0\libgcc.a(truncdfsf2.o)
 .debug_info    0x0000000000002c69      0x124 c:/intelfpga/17.1/nios2eds/bin/gnu/h-x86_64-mingw32/bin/../lib/gcc/nios2-elf/5.3.0\libgcc.a(_clzsi2.o)
 .debug_info    0x0000000000002d8d      0x2c6 c:/intelfpga/17.1/nios2eds/bin/gnu/h-x86_64-mingw32/bin/../lib/gcc/nios2-elf/5.3.0\libgcc.a(lib2-divmod.o)
 .debug_info    0x0000000000003053       0xb2 c:/intelfpga/17.1/nios2eds/bin/gnu/h-x86_64-mingw32/bin/../lib/gcc/nios2-elf/5.3.0\libgcc.a(_clz.o)
 .debug_info    0x0000000000003105      0x897 ../tecnica2_bsp//newlib/nios2-elf/lib\libc.a(lib_a-errno.o)
 .debug_info    0x000000000000399c      0x89d ../tecnica2_bsp//newlib/nios2-elf/lib\libc.a(lib_a-impure.o)
 .debug_info    0x0000000000004239      0x942 ../tecnica2_bsp//newlib/nios2-elf/lib\libc.a(lib_a-printf.o)
 .debug_info    0x0000000000004b7b      0x8e5 ../tecnica2_bsp//newlib/nios2-elf/lib\libc.a(lib_a-putchar.o)
 .debug_info    0x0000000000005460      0x9c1 ../tecnica2_bsp//newlib/nios2-elf/lib\libc.a(lib_a-puts.o)
 .debug_info    0x0000000000005e21      0x8d6 ../tecnica2_bsp//newlib/nios2-elf/lib\libc.a(lib_a-rand.o)
 .debug_info    0x00000000000066f7       0xdd ../tecnica2_bsp//newlib/nios2-elf/lib\libc.a(lib_a-strlen.o)
 .debug_info    0x00000000000067d4      0x8d7 ../tecnica2_bsp//newlib/nios2-elf/lib\libc.a(lib_a-system.o)
 .debug_info    0x00000000000070ab      0x8f2 ../tecnica2_bsp//newlib/nios2-elf/lib\libc.a(lib_a-time.o)
 .debug_info    0x000000000000799d      0xfab ../tecnica2_bsp//newlib/nios2-elf/lib\libc.a(lib_a-vfprintf.o)
 .debug_info    0x0000000000008948      0x8d9 ../tecnica2_bsp//newlib/nios2-elf/lib\libc.a(lib_a-wsetup.o)
 .debug_info    0x0000000000009221      0xcca ../tecnica2_bsp//newlib/nios2-elf/lib\libc.a(lib_a-dtoa.o)
 .debug_info    0x0000000000009eeb      0x9c0 ../tecnica2_bsp//newlib/nios2-elf/lib\libc.a(lib_a-fflush.o)
 .debug_info    0x000000000000a8ab      0xbae ../tecnica2_bsp//newlib/nios2-elf/lib\libc.a(lib_a-findfp.o)
 .debug_info    0x000000000000b459      0xb01 ../tecnica2_bsp//newlib/nios2-elf/lib\libc.a(lib_a-freer.o)
 .debug_info    0x000000000000bf5a      0x9da ../tecnica2_bsp//newlib/nios2-elf/lib\libc.a(lib_a-fvwrite.o)
 .debug_info    0x000000000000c934      0x978 ../tecnica2_bsp//newlib/nios2-elf/lib\libc.a(lib_a-fwalk.o)
 .debug_info    0x000000000000d2ac      0x90f ../tecnica2_bsp//newlib/nios2-elf/lib\libc.a(lib_a-gettimeofdayr.o)
 .debug_info    0x000000000000dbbb       0x86 ../tecnica2_bsp//newlib/nios2-elf/lib\libc.a(lib_a-int_errno.o)
 .debug_info    0x000000000000dc41      0xb5c ../tecnica2_bsp//newlib/nios2-elf/lib\libc.a(lib_a-locale.o)
 .debug_info    0x000000000000e79d      0xa51 ../tecnica2_bsp//newlib/nios2-elf/lib\libc.a(lib_a-makebuf.o)
 .debug_info    0x000000000000f1ee      0xbcb ../tecnica2_bsp//newlib/nios2-elf/lib\libc.a(lib_a-mallocr.o)
 .debug_info    0x000000000000fdb9      0x126 ../tecnica2_bsp//newlib/nios2-elf/lib\libc.a(lib_a-memchr.o)
 .debug_info    0x000000000000fedf      0x139 ../tecnica2_bsp//newlib/nios2-elf/lib\libc.a(lib_a-memcpy.o)
 .debug_info    0x0000000000010018      0x12f ../tecnica2_bsp//newlib/nios2-elf/lib\libc.a(lib_a-memmove.o)
 .debug_info    0x0000000000010147      0x114 ../tecnica2_bsp//newlib/nios2-elf/lib\libc.a(lib_a-memset.o)
 .debug_info    0x000000000001025b     0x12f1 ../tecnica2_bsp//newlib/nios2-elf/lib\libc.a(lib_a-mprec.o)
 .debug_info    0x000000000001154c      0x95a ../tecnica2_bsp//newlib/nios2-elf/lib\libc.a(lib_a-putc.o)
 .debug_info    0x0000000000011ea6      0xb38 ../tecnica2_bsp//newlib/nios2-elf/lib\libc.a(lib_a-reallocr.o)
 .debug_info    0x00000000000129de      0x8db ../tecnica2_bsp//newlib/nios2-elf/lib\libc.a(lib_a-sbrkr.o)
 .debug_info    0x00000000000132b9      0xa64 ../tecnica2_bsp//newlib/nios2-elf/lib\libc.a(lib_a-stdio.o)
 .debug_info    0x0000000000013d1d       0xdc ../tecnica2_bsp//newlib/nios2-elf/lib\libc.a(lib_a-strcmp.o)
 .debug_info    0x0000000000013df9      0xdc6 ../tecnica2_bsp//newlib/nios2-elf/lib\libc.a(lib_a-vfiprintf.o)
 .debug_info    0x0000000000014bbf      0x921 ../tecnica2_bsp//newlib/nios2-elf/lib\libc.a(lib_a-wbuf.o)
 .debug_info    0x00000000000154e0      0x8f7 ../tecnica2_bsp//newlib/nios2-elf/lib\libc.a(lib_a-writer.o)
 .debug_info    0x0000000000015dd7      0x8be ../tecnica2_bsp//newlib/nios2-elf/lib\libc.a(closer.o)
 .debug_info    0x0000000000016695      0x983 ../tecnica2_bsp//newlib/nios2-elf/lib\libc.a(lib_a-callocr.o)
 .debug_info    0x0000000000017018      0x90c ../tecnica2_bsp//newlib/nios2-elf/lib\libc.a(lib_a-fclose.o)
 .debug_info    0x0000000000017924      0x9b5 ../tecnica2_bsp//newlib/nios2-elf/lib\libc.a(lib_a-fputwc.o)
 .debug_info    0x00000000000182d9      0xa34 ../tecnica2_bsp//newlib/nios2-elf/lib\libc.a(lib_a-fstatr.o)
 .debug_info    0x0000000000018d0d      0x8be ../tecnica2_bsp//newlib/nios2-elf/lib\libc.a(lib_a-isattyr.o)
 .debug_info    0x00000000000195cb      0x8da ../tecnica2_bsp//newlib/nios2-elf/lib\libc.a(lib_a-lseekr.o)
 .debug_info    0x0000000000019ea5      0x8f0 ../tecnica2_bsp//newlib/nios2-elf/lib\libc.a(lib_a-readr.o)
 .debug_info    0x000000000001a795      0x9c6 ../tecnica2_bsp//newlib/nios2-elf/lib\libc.a(lib_a-wcrtomb.o)
 .debug_info    0x000000000001b15b      0x98a ../tecnica2_bsp//newlib/nios2-elf/lib\libc.a(lib_a-wctomb_r.o)
 .debug_info    0x000000000001bae5      0x1eb c:/intelfpga/17.1/nios2eds/bin/gnu/h-x86_64-mingw32/bin/../lib/gcc/nios2-elf/5.3.0\libgcc.a(_muldi3.o)
 .debug_info    0x000000000001bcd0      0x70e c:/intelfpga/17.1/nios2eds/bin/gnu/h-x86_64-mingw32/bin/../lib/gcc/nios2-elf/5.3.0\libgcc.a(_udivdi3.o)
 .debug_info    0x000000000001c3de      0x765 c:/intelfpga/17.1/nios2eds/bin/gnu/h-x86_64-mingw32/bin/../lib/gcc/nios2-elf/5.3.0\libgcc.a(_umoddi3.o)
 .debug_info    0x000000000001cb43      0x1ae c:/intelfpga/17.1/nios2eds/bin/gnu/h-x86_64-mingw32/bin/../lib/gcc/nios2-elf/5.3.0\libgcc.a(fixdfsi.o)
 .debug_info    0x000000000001ccf1      0x1bc c:/intelfpga/17.1/nios2eds/bin/gnu/h-x86_64-mingw32/bin/../lib/gcc/nios2-elf/5.3.0\libgcc.a(floatsidf.o)
 .debug_info    0x000000000001cead      0x1b0 c:/intelfpga/17.1/nios2eds/bin/gnu/h-x86_64-mingw32/bin/../lib/gcc/nios2-elf/5.3.0\libgcc.a(floatunsidf.o)
 .debug_info    0x000000000001d05d      0x321 ../tecnica2_bsp/\libhal_bsp.a(alt_close.o)
 .debug_info    0x000000000001d37e      0x49c ../tecnica2_bsp/\libhal_bsp.a(alt_dev.o)
 .debug_info    0x000000000001d81a       0xa6 ../tecnica2_bsp/\libhal_bsp.a(alt_errno.o)
 .debug_info    0x000000000001d8c0      0x488 ../tecnica2_bsp/\libhal_bsp.a(alt_fstat.o)
 .debug_info    0x000000000001dd48      0x1d9 ../tecnica2_bsp/\libhal_bsp.a(alt_gettod.o)
 .debug_info    0x000000000001df21      0x48b ../tecnica2_bsp/\libhal_bsp.a(alt_isatty.o)
 .debug_info    0x000000000001e3ac      0x145 ../tecnica2_bsp/\libhal_bsp.a(alt_load.o)
 .debug_info    0x000000000001e4f1      0x352 ../tecnica2_bsp/\libhal_bsp.a(alt_lseek.o)
 .debug_info    0x000000000001e843      0x131 ../tecnica2_bsp/\libhal_bsp.a(alt_main.o)
 .debug_info    0x000000000001e974      0x8b6 ../tecnica2_bsp/\libhal_bsp.a(alt_malloc_lock.o)
 .debug_info    0x000000000001f22a      0x4b0 ../tecnica2_bsp/\libhal_bsp.a(alt_read.o)
 .debug_info    0x000000000001f6da      0x2b0 ../tecnica2_bsp/\libhal_bsp.a(alt_release_fd.o)
 .debug_info    0x000000000001f98a      0x1ac ../tecnica2_bsp/\libhal_bsp.a(alt_sbrk.o)
 .debug_info    0x000000000001fb36      0x299 ../tecnica2_bsp/\libhal_bsp.a(alt_tick.o)
 .debug_info    0x000000000001fdcf      0x4b7 ../tecnica2_bsp/\libhal_bsp.a(alt_write.o)
 .debug_info    0x0000000000020286      0x4d9 ../tecnica2_bsp/\libhal_bsp.a(alt_sys_init.o)
 .debug_info    0x000000000002075f      0x52e ../tecnica2_bsp/\libhal_bsp.a(altera_avalon_jtag_uart_fd.o)
 .debug_info    0x0000000000020c8d      0x3a0 ../tecnica2_bsp/\libhal_bsp.a(altera_avalon_jtag_uart_init.o)
 .debug_info    0x000000000002102d      0x280 ../tecnica2_bsp/\libhal_bsp.a(altera_avalon_jtag_uart_ioctl.o)
 .debug_info    0x00000000000212ad      0x345 ../tecnica2_bsp/\libhal_bsp.a(altera_avalon_jtag_uart_read.o)
 .debug_info    0x00000000000215f2      0x340 ../tecnica2_bsp/\libhal_bsp.a(altera_avalon_jtag_uart_write.o)
 .debug_info    0x0000000000021932      0x226 ../tecnica2_bsp/\libhal_bsp.a(altera_avalon_timer_sc.o)
 .debug_info    0x0000000000021b58      0x192 ../tecnica2_bsp/\libhal_bsp.a(perf_print_formatted_report.o)
 .debug_info    0x0000000000021cea      0x2cc ../tecnica2_bsp/\libhal_bsp.a(alt_alarm_start.o)
 .debug_info    0x0000000000021fb6       0xa5 ../tecnica2_bsp/\libhal_bsp.a(alt_dcache_flush_all.o)
 .debug_info    0x000000000002205b      0x1a9 ../tecnica2_bsp/\libhal_bsp.a(alt_dev_llist_insert.o)
 .debug_info    0x0000000000022204       0x83 ../tecnica2_bsp/\libhal_bsp.a(alt_do_ctors.o)
 .debug_info    0x0000000000022287       0x83 ../tecnica2_bsp/\libhal_bsp.a(alt_do_dtors.o)
 .debug_info    0x000000000002230a       0x92 ../tecnica2_bsp/\libhal_bsp.a(alt_icache_flush_all.o)
 .debug_info    0x000000000002239c      0x350 ../tecnica2_bsp/\libhal_bsp.a(alt_iic.o)
 .debug_info    0x00000000000226ec      0x1ef ../tecnica2_bsp/\libhal_bsp.a(alt_iic_isr_register.o)
 .debug_info    0x00000000000228db      0x4a5 ../tecnica2_bsp/\libhal_bsp.a(alt_io_redirect.o)
 .debug_info    0x0000000000022d80       0x91 ../tecnica2_bsp/\libhal_bsp.a(alt_irq_entry.o)
 .debug_info    0x0000000000022e11      0x187 ../tecnica2_bsp/\libhal_bsp.a(alt_irq_handler.o)
 .debug_info    0x0000000000022f98       0x88 ../tecnica2_bsp/\libhal_bsp.a(alt_irq_vars.o)
 .debug_info    0x0000000000023020      0x3bb ../tecnica2_bsp/\libhal_bsp.a(alt_open.o)
 .debug_info    0x00000000000233db       0x92 ../tecnica2_bsp/\libhal_bsp.a(altera_nios2_gen2_irq.o)
 .debug_info    0x000000000002346d      0x16e ../tecnica2_bsp/\libhal_bsp.a(altera_avalon_performance_counter.o)
 .debug_info    0x00000000000235db       0x97 ../tecnica2_bsp/\libhal_bsp.a(alt_exception_entry.o)
 .debug_info    0x0000000000023672      0x2e9 ../tecnica2_bsp/\libhal_bsp.a(alt_find_dev.o)
 .debug_info    0x000000000002395b      0x2e6 ../tecnica2_bsp/\libhal_bsp.a(alt_find_file.o)
 .debug_info    0x0000000000023c41      0x310 ../tecnica2_bsp/\libhal_bsp.a(alt_get_fd.o)
 .debug_info    0x0000000000023f51       0xdc ../tecnica2_bsp/\libhal_bsp.a(alt_icache_flush.o)
 .debug_info    0x000000000002402d      0x1e7 ../tecnica2_bsp/\libhal_bsp.a(alt_instruction_exception_entry.o)
 .debug_info    0x0000000000024214       0xca ../tecnica2_bsp//newlib/nios2-elf/lib\libc.a(lib_a-atexit.o)
 .debug_info    0x00000000000242de      0x8a0 ../tecnica2_bsp//newlib/nios2-elf/lib\libc.a(lib_a-exit.o)
 .debug_info    0x0000000000024b7e      0x10f ../tecnica2_bsp//newlib/nios2-elf/lib\libc.a(lib_a-memcmp.o)
 .debug_info    0x0000000000024c8d      0x90d ../tecnica2_bsp//newlib/nios2-elf/lib\libc.a(lib_a-__atexit.o)
 .debug_info    0x000000000002559a      0x936 ../tecnica2_bsp//newlib/nios2-elf/lib\libc.a(lib_a-__call_atexit.o)
 .debug_info    0x0000000000025ed0       0xd5 c:/intelfpga/17.1/nios2eds/bin/gnu/h-x86_64-mingw32/bin/../lib/gcc/nios2-elf/5.3.0\libgcc.a(_floatundidf.o)
 .debug_info    0x0000000000025fa5       0xec ../tecnica2_bsp/\libhal_bsp.a(alt_exit.o)

.debug_abbrev   0x0000000000000000     0x9842
 *(.debug_abbrev)
 .debug_abbrev  0x0000000000000000       0x12 ../tecnica2_bsp//obj/HAL/src/crt0.o
 .debug_abbrev  0x0000000000000012      0x1b7 obj/default/backpropagation_best2019_superdef_ver2_alumnos-1.o
 .debug_abbrev  0x00000000000001c9       0xcc ../tecnica2_bsp//newlib/nios2-elf/lib\libm.a(lib_a-w_sqrt.o)
 .debug_abbrev  0x0000000000000295       0xdc ../tecnica2_bsp//newlib/nios2-elf/lib\libm.a(lib_a-e_sqrt.o)
 .debug_abbrev  0x0000000000000371       0xc8 ../tecnica2_bsp//newlib/nios2-elf/lib\libm.a(lib_a-s_fpclassify.o)
 .debug_abbrev  0x0000000000000439       0x58 ../tecnica2_bsp//newlib/nios2-elf/lib\libm.a(lib_a-s_lib_ver.o)
 .debug_abbrev  0x0000000000000491       0x98 ../tecnica2_bsp//newlib/nios2-elf/lib\libm.a(lib_a-s_matherr.o)
 .debug_abbrev  0x0000000000000529      0x13a c:/intelfpga/17.1/nios2eds/bin/gnu/h-x86_64-mingw32/bin/../lib/gcc/nios2-elf/5.3.0\libgcc.a(adddf3.o)
 .debug_abbrev  0x0000000000000663      0x12d c:/intelfpga/17.1/nios2eds/bin/gnu/h-x86_64-mingw32/bin/../lib/gcc/nios2-elf/5.3.0\libgcc.a(divdf3.o)
 .debug_abbrev  0x0000000000000790      0x128 c:/intelfpga/17.1/nios2eds/bin/gnu/h-x86_64-mingw32/bin/../lib/gcc/nios2-elf/5.3.0\libgcc.a(eqdf2.o)
 .debug_abbrev  0x00000000000008b8      0x137 c:/intelfpga/17.1/nios2eds/bin/gnu/h-x86_64-mingw32/bin/../lib/gcc/nios2-elf/5.3.0\libgcc.a(gedf2.o)
 .debug_abbrev  0x00000000000009ef      0x137 c:/intelfpga/17.1/nios2eds/bin/gnu/h-x86_64-mingw32/bin/../lib/gcc/nios2-elf/5.3.0\libgcc.a(ledf2.o)
 .debug_abbrev  0x0000000000000b26      0x13f c:/intelfpga/17.1/nios2eds/bin/gnu/h-x86_64-mingw32/bin/../lib/gcc/nios2-elf/5.3.0\libgcc.a(muldf3.o)
 .debug_abbrev  0x0000000000000c65      0x133 c:/intelfpga/17.1/nios2eds/bin/gnu/h-x86_64-mingw32/bin/../lib/gcc/nios2-elf/5.3.0\libgcc.a(subdf3.o)
 .debug_abbrev  0x0000000000000d98      0x124 c:/intelfpga/17.1/nios2eds/bin/gnu/h-x86_64-mingw32/bin/../lib/gcc/nios2-elf/5.3.0\libgcc.a(extendsfdf2.o)
 .debug_abbrev  0x0000000000000ebc      0x11b c:/intelfpga/17.1/nios2eds/bin/gnu/h-x86_64-mingw32/bin/../lib/gcc/nios2-elf/5.3.0\libgcc.a(truncdfsf2.o)
 .debug_abbrev  0x0000000000000fd7       0xbe c:/intelfpga/17.1/nios2eds/bin/gnu/h-x86_64-mingw32/bin/../lib/gcc/nios2-elf/5.3.0\libgcc.a(_clzsi2.o)
 .debug_abbrev  0x0000000000001095      0x10e c:/intelfpga/17.1/nios2eds/bin/gnu/h-x86_64-mingw32/bin/../lib/gcc/nios2-elf/5.3.0\libgcc.a(lib2-divmod.o)
 .debug_abbrev  0x00000000000011a3       0x5d c:/intelfpga/17.1/nios2eds/bin/gnu/h-x86_64-mingw32/bin/../lib/gcc/nios2-elf/5.3.0\libgcc.a(_clz.o)
 .debug_abbrev  0x0000000000001200      0x19c ../tecnica2_bsp//newlib/nios2-elf/lib\libc.a(lib_a-errno.o)
 .debug_abbrev  0x000000000000139c      0x18d ../tecnica2_bsp//newlib/nios2-elf/lib\libc.a(lib_a-impure.o)
 .debug_abbrev  0x0000000000001529      0x1ed ../tecnica2_bsp//newlib/nios2-elf/lib\libc.a(lib_a-printf.o)
 .debug_abbrev  0x0000000000001716      0x1d8 ../tecnica2_bsp//newlib/nios2-elf/lib\libc.a(lib_a-putchar.o)
 .debug_abbrev  0x00000000000018ee      0x1f5 ../tecnica2_bsp//newlib/nios2-elf/lib\libc.a(lib_a-puts.o)
 .debug_abbrev  0x0000000000001ae3      0x1d6 ../tecnica2_bsp//newlib/nios2-elf/lib\libc.a(lib_a-rand.o)
 .debug_abbrev  0x0000000000001cb9       0x7f ../tecnica2_bsp//newlib/nios2-elf/lib\libc.a(lib_a-strlen.o)
 .debug_abbrev  0x0000000000001d38      0x1c9 ../tecnica2_bsp//newlib/nios2-elf/lib\libc.a(lib_a-system.o)
 .debug_abbrev  0x0000000000001f01      0x1bc ../tecnica2_bsp//newlib/nios2-elf/lib\libc.a(lib_a-time.o)
 .debug_abbrev  0x00000000000020bd      0x29b ../tecnica2_bsp//newlib/nios2-elf/lib\libc.a(lib_a-vfprintf.o)
 .debug_abbrev  0x0000000000002358      0x1c5 ../tecnica2_bsp//newlib/nios2-elf/lib\libc.a(lib_a-wsetup.o)
 .debug_abbrev  0x000000000000251d      0x22f ../tecnica2_bsp//newlib/nios2-elf/lib\libc.a(lib_a-dtoa.o)
 .debug_abbrev  0x000000000000274c      0x21d ../tecnica2_bsp//newlib/nios2-elf/lib\libc.a(lib_a-fflush.o)
 .debug_abbrev  0x0000000000002969      0x2ba ../tecnica2_bsp//newlib/nios2-elf/lib\libc.a(lib_a-findfp.o)
 .debug_abbrev  0x0000000000002c23      0x1fd ../tecnica2_bsp//newlib/nios2-elf/lib\libc.a(lib_a-freer.o)
 .debug_abbrev  0x0000000000002e20      0x1d5 ../tecnica2_bsp//newlib/nios2-elf/lib\libc.a(lib_a-fvwrite.o)
 .debug_abbrev  0x0000000000002ff5      0x1ba ../tecnica2_bsp//newlib/nios2-elf/lib\libc.a(lib_a-fwalk.o)
 .debug_abbrev  0x00000000000031af      0x1cb ../tecnica2_bsp//newlib/nios2-elf/lib\libc.a(lib_a-gettimeofdayr.o)
 .debug_abbrev  0x000000000000337a       0x35 ../tecnica2_bsp//newlib/nios2-elf/lib\libc.a(lib_a-int_errno.o)
 .debug_abbrev  0x00000000000033af      0x255 ../tecnica2_bsp//newlib/nios2-elf/lib\libc.a(lib_a-locale.o)
 .debug_abbrev  0x0000000000003604      0x1b8 ../tecnica2_bsp//newlib/nios2-elf/lib\libc.a(lib_a-makebuf.o)
 .debug_abbrev  0x00000000000037bc      0x1fb ../tecnica2_bsp//newlib/nios2-elf/lib\libc.a(lib_a-mallocr.o)
 .debug_abbrev  0x00000000000039b7       0xa9 ../tecnica2_bsp//newlib/nios2-elf/lib\libc.a(lib_a-memchr.o)
 .debug_abbrev  0x0000000000003a60       0xa1 ../tecnica2_bsp//newlib/nios2-elf/lib\libc.a(lib_a-memcpy.o)
 .debug_abbrev  0x0000000000003b01       0x9a ../tecnica2_bsp//newlib/nios2-elf/lib\libc.a(lib_a-memmove.o)
 .debug_abbrev  0x0000000000003b9b       0x8e ../tecnica2_bsp//newlib/nios2-elf/lib\libc.a(lib_a-memset.o)
 .debug_abbrev  0x0000000000003c29      0x2a9 ../tecnica2_bsp//newlib/nios2-elf/lib\libc.a(lib_a-mprec.o)
 .debug_abbrev  0x0000000000003ed2      0x1e1 ../tecnica2_bsp//newlib/nios2-elf/lib\libc.a(lib_a-putc.o)
 .debug_abbrev  0x00000000000040b3      0x1fe ../tecnica2_bsp//newlib/nios2-elf/lib\libc.a(lib_a-reallocr.o)
 .debug_abbrev  0x00000000000042b1      0x1de ../tecnica2_bsp//newlib/nios2-elf/lib\libc.a(lib_a-sbrkr.o)
 .debug_abbrev  0x000000000000448f      0x1f0 ../tecnica2_bsp//newlib/nios2-elf/lib\libc.a(lib_a-stdio.o)
 .debug_abbrev  0x000000000000467f       0x72 ../tecnica2_bsp//newlib/nios2-elf/lib\libc.a(lib_a-strcmp.o)
 .debug_abbrev  0x00000000000046f1      0x26e ../tecnica2_bsp//newlib/nios2-elf/lib\libc.a(lib_a-vfiprintf.o)
 .debug_abbrev  0x000000000000495f      0x1f0 ../tecnica2_bsp//newlib/nios2-elf/lib\libc.a(lib_a-wbuf.o)
 .debug_abbrev  0x0000000000004b4f      0x1c1 ../tecnica2_bsp//newlib/nios2-elf/lib\libc.a(lib_a-writer.o)
 .debug_abbrev  0x0000000000004d10      0x1bc ../tecnica2_bsp//newlib/nios2-elf/lib\libc.a(closer.o)
 .debug_abbrev  0x0000000000004ecc      0x1d2 ../tecnica2_bsp//newlib/nios2-elf/lib\libc.a(lib_a-callocr.o)
 .debug_abbrev  0x000000000000509e      0x1ff ../tecnica2_bsp//newlib/nios2-elf/lib\libc.a(lib_a-fclose.o)
 .debug_abbrev  0x000000000000529d      0x1d4 ../tecnica2_bsp//newlib/nios2-elf/lib\libc.a(lib_a-fputwc.o)
 .debug_abbrev  0x0000000000005471      0x1cb ../tecnica2_bsp//newlib/nios2-elf/lib\libc.a(lib_a-fstatr.o)
 .debug_abbrev  0x000000000000563c      0x1bc ../tecnica2_bsp//newlib/nios2-elf/lib\libc.a(lib_a-isattyr.o)
 .debug_abbrev  0x00000000000057f8      0x1cb ../tecnica2_bsp//newlib/nios2-elf/lib\libc.a(lib_a-lseekr.o)
 .debug_abbrev  0x00000000000059c3      0x1bc ../tecnica2_bsp//newlib/nios2-elf/lib\libc.a(lib_a-readr.o)
 .debug_abbrev  0x0000000000005b7f      0x1e3 ../tecnica2_bsp//newlib/nios2-elf/lib\libc.a(lib_a-wcrtomb.o)
 .debug_abbrev  0x0000000000005d62      0x1e7 ../tecnica2_bsp//newlib/nios2-elf/lib\libc.a(lib_a-wctomb_r.o)
 .debug_abbrev  0x0000000000005f49       0xef c:/intelfpga/17.1/nios2eds/bin/gnu/h-x86_64-mingw32/bin/../lib/gcc/nios2-elf/5.3.0\libgcc.a(_muldi3.o)
 .debug_abbrev  0x0000000000006038      0x167 c:/intelfpga/17.1/nios2eds/bin/gnu/h-x86_64-mingw32/bin/../lib/gcc/nios2-elf/5.3.0\libgcc.a(_udivdi3.o)
 .debug_abbrev  0x000000000000619f      0x18a c:/intelfpga/17.1/nios2eds/bin/gnu/h-x86_64-mingw32/bin/../lib/gcc/nios2-elf/5.3.0\libgcc.a(_umoddi3.o)
 .debug_abbrev  0x0000000000006329      0x135 c:/intelfpga/17.1/nios2eds/bin/gnu/h-x86_64-mingw32/bin/../lib/gcc/nios2-elf/5.3.0\libgcc.a(fixdfsi.o)
 .debug_abbrev  0x000000000000645e      0x124 c:/intelfpga/17.1/nios2eds/bin/gnu/h-x86_64-mingw32/bin/../lib/gcc/nios2-elf/5.3.0\libgcc.a(floatsidf.o)
 .debug_abbrev  0x0000000000006582      0x124 c:/intelfpga/17.1/nios2eds/bin/gnu/h-x86_64-mingw32/bin/../lib/gcc/nios2-elf/5.3.0\libgcc.a(floatunsidf.o)
 .debug_abbrev  0x00000000000066a6      0x11f ../tecnica2_bsp/\libhal_bsp.a(alt_close.o)
 .debug_abbrev  0x00000000000067c5       0xd9 ../tecnica2_bsp/\libhal_bsp.a(alt_dev.o)
 .debug_abbrev  0x000000000000689e       0x5a ../tecnica2_bsp/\libhal_bsp.a(alt_errno.o)
 .debug_abbrev  0x00000000000068f8      0x11f ../tecnica2_bsp/\libhal_bsp.a(alt_fstat.o)
 .debug_abbrev  0x0000000000006a17       0xf5 ../tecnica2_bsp/\libhal_bsp.a(alt_gettod.o)
 .debug_abbrev  0x0000000000006b0c      0x11f ../tecnica2_bsp/\libhal_bsp.a(alt_isatty.o)
 .debug_abbrev  0x0000000000006c2b       0x9f ../tecnica2_bsp/\libhal_bsp.a(alt_load.o)
 .debug_abbrev  0x0000000000006cca      0x11f ../tecnica2_bsp/\libhal_bsp.a(alt_lseek.o)
 .debug_abbrev  0x0000000000006de9       0xba ../tecnica2_bsp/\libhal_bsp.a(alt_main.o)
 .debug_abbrev  0x0000000000006ea3      0x1b4 ../tecnica2_bsp/\libhal_bsp.a(alt_malloc_lock.o)
 .debug_abbrev  0x0000000000007057      0x12e ../tecnica2_bsp/\libhal_bsp.a(alt_read.o)
 .debug_abbrev  0x0000000000007185       0xde ../tecnica2_bsp/\libhal_bsp.a(alt_release_fd.o)
 .debug_abbrev  0x0000000000007263      0x112 ../tecnica2_bsp/\libhal_bsp.a(alt_sbrk.o)
 .debug_abbrev  0x0000000000007375      0x15a ../tecnica2_bsp/\libhal_bsp.a(alt_tick.o)
 .debug_abbrev  0x00000000000074cf      0x133 ../tecnica2_bsp/\libhal_bsp.a(alt_write.o)
 .debug_abbrev  0x0000000000007602      0x187 ../tecnica2_bsp/\libhal_bsp.a(alt_sys_init.o)
 .debug_abbrev  0x0000000000007789      0x127 ../tecnica2_bsp/\libhal_bsp.a(altera_avalon_jtag_uart_fd.o)
 .debug_abbrev  0x00000000000078b0      0x19e ../tecnica2_bsp/\libhal_bsp.a(altera_avalon_jtag_uart_init.o)
 .debug_abbrev  0x0000000000007a4e      0x111 ../tecnica2_bsp/\libhal_bsp.a(altera_avalon_jtag_uart_ioctl.o)
 .debug_abbrev  0x0000000000007b5f      0x1aa ../tecnica2_bsp/\libhal_bsp.a(altera_avalon_jtag_uart_read.o)
 .debug_abbrev  0x0000000000007d09      0x1a8 ../tecnica2_bsp/\libhal_bsp.a(altera_avalon_jtag_uart_write.o)
 .debug_abbrev  0x0000000000007eb1      0x155 ../tecnica2_bsp/\libhal_bsp.a(altera_avalon_timer_sc.o)
 .debug_abbrev  0x0000000000008006       0x96 ../tecnica2_bsp/\libhal_bsp.a(perf_print_formatted_report.o)
 .debug_abbrev  0x000000000000809c      0x162 ../tecnica2_bsp/\libhal_bsp.a(alt_alarm_start.o)
 .debug_abbrev  0x00000000000081fe       0x5a ../tecnica2_bsp/\libhal_bsp.a(alt_dcache_flush_all.o)
 .debug_abbrev  0x0000000000008258      0x114 ../tecnica2_bsp/\libhal_bsp.a(alt_dev_llist_insert.o)
 .debug_abbrev  0x000000000000836c       0x79 ../tecnica2_bsp/\libhal_bsp.a(alt_do_ctors.o)
 .debug_abbrev  0x00000000000083e5       0x79 ../tecnica2_bsp/\libhal_bsp.a(alt_do_dtors.o)
 .debug_abbrev  0x000000000000845e       0x42 ../tecnica2_bsp/\libhal_bsp.a(alt_icache_flush_all.o)
 .debug_abbrev  0x00000000000084a0      0x163 ../tecnica2_bsp/\libhal_bsp.a(alt_iic.o)
 .debug_abbrev  0x0000000000008603      0x169 ../tecnica2_bsp/\libhal_bsp.a(alt_iic_isr_register.o)
 .debug_abbrev  0x000000000000876c      0x114 ../tecnica2_bsp/\libhal_bsp.a(alt_io_redirect.o)
 .debug_abbrev  0x0000000000008880       0x12 ../tecnica2_bsp/\libhal_bsp.a(alt_irq_entry.o)
 .debug_abbrev  0x0000000000008892      0x122 ../tecnica2_bsp/\libhal_bsp.a(alt_irq_handler.o)
 .debug_abbrev  0x00000000000089b4       0x40 ../tecnica2_bsp/\libhal_bsp.a(alt_irq_vars.o)
 .debug_abbrev  0x00000000000089f4      0x148 ../tecnica2_bsp/\libhal_bsp.a(alt_open.o)
 .debug_abbrev  0x0000000000008b3c       0x42 ../tecnica2_bsp/\libhal_bsp.a(altera_nios2_gen2_irq.o)
 .debug_abbrev  0x0000000000008b7e       0xbd ../tecnica2_bsp/\libhal_bsp.a(altera_avalon_performance_counter.o)
 .debug_abbrev  0x0000000000008c3b       0x12 ../tecnica2_bsp/\libhal_bsp.a(alt_exception_entry.o)
 .debug_abbrev  0x0000000000008c4d       0xf0 ../tecnica2_bsp/\libhal_bsp.a(alt_find_dev.o)
 .debug_abbrev  0x0000000000008d3d       0xf0 ../tecnica2_bsp/\libhal_bsp.a(alt_find_file.o)
 .debug_abbrev  0x0000000000008e2d      0x10d ../tecnica2_bsp/\libhal_bsp.a(alt_get_fd.o)
 .debug_abbrev  0x0000000000008f3a       0x8c ../tecnica2_bsp/\libhal_bsp.a(alt_icache_flush.o)
 .debug_abbrev  0x0000000000008fc6       0xdc ../tecnica2_bsp/\libhal_bsp.a(alt_instruction_exception_entry.o)
 .debug_abbrev  0x00000000000090a2       0x7b ../tecnica2_bsp//newlib/nios2-elf/lib\libc.a(lib_a-atexit.o)
 .debug_abbrev  0x000000000000911d      0x1ae ../tecnica2_bsp//newlib/nios2-elf/lib\libc.a(lib_a-exit.o)
 .debug_abbrev  0x00000000000092cb       0x7d ../tecnica2_bsp//newlib/nios2-elf/lib\libc.a(lib_a-memcmp.o)
 .debug_abbrev  0x0000000000009348      0x1f4 ../tecnica2_bsp//newlib/nios2-elf/lib\libc.a(lib_a-__atexit.o)
 .debug_abbrev  0x000000000000953c      0x1ee ../tecnica2_bsp//newlib/nios2-elf/lib\libc.a(lib_a-__call_atexit.o)
 .debug_abbrev  0x000000000000972a       0x6f c:/intelfpga/17.1/nios2eds/bin/gnu/h-x86_64-mingw32/bin/../lib/gcc/nios2-elf/5.3.0\libgcc.a(_floatundidf.o)
 .debug_abbrev  0x0000000000009799       0xa9 ../tecnica2_bsp/\libhal_bsp.a(alt_exit.o)

.debug_line     0x0000000000000000     0xb813
 *(.debug_line)
 .debug_line    0x0000000000000000       0x72 ../tecnica2_bsp//obj/HAL/src/crt0.o
 .debug_line    0x0000000000000072      0x371 obj/default/backpropagation_best2019_superdef_ver2_alumnos-1.o
 .debug_line    0x00000000000003e3       0xf5 ../tecnica2_bsp//newlib/nios2-elf/lib\libm.a(lib_a-w_sqrt.o)
 .debug_line    0x00000000000004d8      0x1e4 ../tecnica2_bsp//newlib/nios2-elf/lib\libm.a(lib_a-e_sqrt.o)
 .debug_line    0x00000000000006bc      0x180 ../tecnica2_bsp//newlib/nios2-elf/lib\libm.a(lib_a-s_fpclassify.o)
 .debug_line    0x000000000000083c       0xc1 ../tecnica2_bsp//newlib/nios2-elf/lib\libm.a(lib_a-s_lib_ver.o)
 .debug_line    0x00000000000008fd       0xdf ../tecnica2_bsp//newlib/nios2-elf/lib\libm.a(lib_a-s_matherr.o)
 .debug_line    0x00000000000009dc      0x37b c:/intelfpga/17.1/nios2eds/bin/gnu/h-x86_64-mingw32/bin/../lib/gcc/nios2-elf/5.3.0\libgcc.a(adddf3.o)
 .debug_line    0x0000000000000d57      0x2ad c:/intelfpga/17.1/nios2eds/bin/gnu/h-x86_64-mingw32/bin/../lib/gcc/nios2-elf/5.3.0\libgcc.a(divdf3.o)
 .debug_line    0x0000000000001004       0xaa c:/intelfpga/17.1/nios2eds/bin/gnu/h-x86_64-mingw32/bin/../lib/gcc/nios2-elf/5.3.0\libgcc.a(eqdf2.o)
 .debug_line    0x00000000000010ae       0xcb c:/intelfpga/17.1/nios2eds/bin/gnu/h-x86_64-mingw32/bin/../lib/gcc/nios2-elf/5.3.0\libgcc.a(gedf2.o)
 .debug_line    0x0000000000001179       0xe3 c:/intelfpga/17.1/nios2eds/bin/gnu/h-x86_64-mingw32/bin/../lib/gcc/nios2-elf/5.3.0\libgcc.a(ledf2.o)
 .debug_line    0x000000000000125c      0x1e3 c:/intelfpga/17.1/nios2eds/bin/gnu/h-x86_64-mingw32/bin/../lib/gcc/nios2-elf/5.3.0\libgcc.a(muldf3.o)
 .debug_line    0x000000000000143f      0x3a8 c:/intelfpga/17.1/nios2eds/bin/gnu/h-x86_64-mingw32/bin/../lib/gcc/nios2-elf/5.3.0\libgcc.a(subdf3.o)
 .debug_line    0x00000000000017e7       0xc1 c:/intelfpga/17.1/nios2eds/bin/gnu/h-x86_64-mingw32/bin/../lib/gcc/nios2-elf/5.3.0\libgcc.a(extendsfdf2.o)
 .debug_line    0x00000000000018a8       0xf7 c:/intelfpga/17.1/nios2eds/bin/gnu/h-x86_64-mingw32/bin/../lib/gcc/nios2-elf/5.3.0\libgcc.a(truncdfsf2.o)
 .debug_line    0x000000000000199f       0xb7 c:/intelfpga/17.1/nios2eds/bin/gnu/h-x86_64-mingw32/bin/../lib/gcc/nios2-elf/5.3.0\libgcc.a(_clzsi2.o)
 .debug_line    0x0000000000001a56      0x102 c:/intelfpga/17.1/nios2eds/bin/gnu/h-x86_64-mingw32/bin/../lib/gcc/nios2-elf/5.3.0\libgcc.a(lib2-divmod.o)
 .debug_line    0x0000000000001b58       0x53 c:/intelfpga/17.1/nios2eds/bin/gnu/h-x86_64-mingw32/bin/../lib/gcc/nios2-elf/5.3.0\libgcc.a(_clz.o)
 .debug_line    0x0000000000001bab      0x153 ../tecnica2_bsp//newlib/nios2-elf/lib\libc.a(lib_a-errno.o)
 .debug_line    0x0000000000001cfe      0x138 ../tecnica2_bsp//newlib/nios2-elf/lib\libc.a(lib_a-impure.o)
 .debug_line    0x0000000000001e36      0x1c1 ../tecnica2_bsp//newlib/nios2-elf/lib\libc.a(lib_a-printf.o)
 .debug_line    0x0000000000001ff7      0x1b3 ../tecnica2_bsp//newlib/nios2-elf/lib\libc.a(lib_a-putchar.o)
 .debug_line    0x00000000000021aa      0x1f8 ../tecnica2_bsp//newlib/nios2-elf/lib\libc.a(lib_a-puts.o)
 .debug_line    0x00000000000023a2      0x1b7 ../tecnica2_bsp//newlib/nios2-elf/lib\libc.a(lib_a-rand.o)
 .debug_line    0x0000000000002559      0x145 ../tecnica2_bsp//newlib/nios2-elf/lib\libc.a(lib_a-strlen.o)
 .debug_line    0x000000000000269e      0x1b6 ../tecnica2_bsp//newlib/nios2-elf/lib\libc.a(lib_a-system.o)
 .debug_line    0x0000000000002854      0x165 ../tecnica2_bsp//newlib/nios2-elf/lib\libc.a(lib_a-time.o)
 .debug_line    0x00000000000029b9      0x9b7 ../tecnica2_bsp//newlib/nios2-elf/lib\libc.a(lib_a-vfprintf.o)
 .debug_line    0x0000000000003370      0x1e9 ../tecnica2_bsp//newlib/nios2-elf/lib\libc.a(lib_a-wsetup.o)
 .debug_line    0x0000000000003559      0x62c ../tecnica2_bsp//newlib/nios2-elf/lib\libc.a(lib_a-dtoa.o)
 .debug_line    0x0000000000003b85      0x26f ../tecnica2_bsp//newlib/nios2-elf/lib\libc.a(lib_a-fflush.o)
 .debug_line    0x0000000000003df4      0x300 ../tecnica2_bsp//newlib/nios2-elf/lib\libc.a(lib_a-findfp.o)
 .debug_line    0x00000000000040f4      0x23f ../tecnica2_bsp//newlib/nios2-elf/lib\libc.a(lib_a-freer.o)
 .debug_line    0x0000000000004333      0x296 ../tecnica2_bsp//newlib/nios2-elf/lib\libc.a(lib_a-fvwrite.o)
 .debug_line    0x00000000000045c9      0x20b ../tecnica2_bsp//newlib/nios2-elf/lib\libc.a(lib_a-fwalk.o)
 .debug_line    0x00000000000047d4      0x1c3 ../tecnica2_bsp//newlib/nios2-elf/lib\libc.a(lib_a-gettimeofdayr.o)
 .debug_line    0x0000000000004997       0x70 ../tecnica2_bsp//newlib/nios2-elf/lib\libc.a(lib_a-int_errno.o)
 .debug_line    0x0000000000004a07      0x23d ../tecnica2_bsp//newlib/nios2-elf/lib\libc.a(lib_a-locale.o)
 .debug_line    0x0000000000004c44      0x1f3 ../tecnica2_bsp//newlib/nios2-elf/lib\libc.a(lib_a-makebuf.o)
 .debug_line    0x0000000000004e37      0x370 ../tecnica2_bsp//newlib/nios2-elf/lib\libc.a(lib_a-mallocr.o)
 .debug_line    0x00000000000051a7      0x16b ../tecnica2_bsp//newlib/nios2-elf/lib\libc.a(lib_a-memchr.o)
 .debug_line    0x0000000000005312      0x15b ../tecnica2_bsp//newlib/nios2-elf/lib\libc.a(lib_a-memcpy.o)
 .debug_line    0x000000000000546d      0x16f ../tecnica2_bsp//newlib/nios2-elf/lib\libc.a(lib_a-memmove.o)
 .debug_line    0x00000000000055dc      0x16c ../tecnica2_bsp//newlib/nios2-elf/lib\libc.a(lib_a-memset.o)
 .debug_line    0x0000000000005748      0x65b ../tecnica2_bsp//newlib/nios2-elf/lib\libc.a(lib_a-mprec.o)
 .debug_line    0x0000000000005da3      0x230 ../tecnica2_bsp//newlib/nios2-elf/lib\libc.a(lib_a-putc.o)
 .debug_line    0x0000000000005fd3      0x2bd ../tecnica2_bsp//newlib/nios2-elf/lib\libc.a(lib_a-reallocr.o)
 .debug_line    0x0000000000006290      0x1a5 ../tecnica2_bsp//newlib/nios2-elf/lib\libc.a(lib_a-sbrkr.o)
 .debug_line    0x0000000000006435      0x213 ../tecnica2_bsp//newlib/nios2-elf/lib\libc.a(lib_a-stdio.o)
 .debug_line    0x0000000000006648       0xf6 ../tecnica2_bsp//newlib/nios2-elf/lib\libc.a(lib_a-strcmp.o)
 .debug_line    0x000000000000673e      0x679 ../tecnica2_bsp//newlib/nios2-elf/lib\libc.a(lib_a-vfiprintf.o)
 .debug_line    0x0000000000006db7      0x1ef ../tecnica2_bsp//newlib/nios2-elf/lib\libc.a(lib_a-wbuf.o)
 .debug_line    0x0000000000006fa6      0x1a6 ../tecnica2_bsp//newlib/nios2-elf/lib\libc.a(lib_a-writer.o)
 .debug_line    0x000000000000714c      0x1a6 ../tecnica2_bsp//newlib/nios2-elf/lib\libc.a(closer.o)
 .debug_line    0x00000000000072f2      0x184 ../tecnica2_bsp//newlib/nios2-elf/lib\libc.a(lib_a-callocr.o)
 .debug_line    0x0000000000007476      0x1e6 ../tecnica2_bsp//newlib/nios2-elf/lib\libc.a(lib_a-fclose.o)
 .debug_line    0x000000000000765c      0x235 ../tecnica2_bsp//newlib/nios2-elf/lib\libc.a(lib_a-fputwc.o)
 .debug_line    0x0000000000007891      0x1bb ../tecnica2_bsp//newlib/nios2-elf/lib\libc.a(lib_a-fstatr.o)
 .debug_line    0x0000000000007a4c      0x1a7 ../tecnica2_bsp//newlib/nios2-elf/lib\libc.a(lib_a-isattyr.o)
 .debug_line    0x0000000000007bf3      0x1a6 ../tecnica2_bsp//newlib/nios2-elf/lib\libc.a(lib_a-lseekr.o)
 .debug_line    0x0000000000007d99      0x1a5 ../tecnica2_bsp//newlib/nios2-elf/lib\libc.a(lib_a-readr.o)
 .debug_line    0x0000000000007f3e      0x1e0 ../tecnica2_bsp//newlib/nios2-elf/lib\libc.a(lib_a-wcrtomb.o)
 .debug_line    0x000000000000811e      0x1c6 ../tecnica2_bsp//newlib/nios2-elf/lib\libc.a(lib_a-wctomb_r.o)
 .debug_line    0x00000000000082e4       0x86 c:/intelfpga/17.1/nios2eds/bin/gnu/h-x86_64-mingw32/bin/../lib/gcc/nios2-elf/5.3.0\libgcc.a(_muldi3.o)
 .debug_line    0x000000000000836a      0x12a c:/intelfpga/17.1/nios2eds/bin/gnu/h-x86_64-mingw32/bin/../lib/gcc/nios2-elf/5.3.0\libgcc.a(_udivdi3.o)
 .debug_line    0x0000000000008494      0x13a c:/intelfpga/17.1/nios2eds/bin/gnu/h-x86_64-mingw32/bin/../lib/gcc/nios2-elf/5.3.0\libgcc.a(_umoddi3.o)
 .debug_line    0x00000000000085ce       0x98 c:/intelfpga/17.1/nios2eds/bin/gnu/h-x86_64-mingw32/bin/../lib/gcc/nios2-elf/5.3.0\libgcc.a(fixdfsi.o)
 .debug_line    0x0000000000008666       0x9f c:/intelfpga/17.1/nios2eds/bin/gnu/h-x86_64-mingw32/bin/../lib/gcc/nios2-elf/5.3.0\libgcc.a(floatsidf.o)
 .debug_line    0x0000000000008705       0x92 c:/intelfpga/17.1/nios2eds/bin/gnu/h-x86_64-mingw32/bin/../lib/gcc/nios2-elf/5.3.0\libgcc.a(floatunsidf.o)
 .debug_line    0x0000000000008797      0x160 ../tecnica2_bsp/\libhal_bsp.a(alt_close.o)
 .debug_line    0x00000000000088f7       0xf3 ../tecnica2_bsp/\libhal_bsp.a(alt_dev.o)
 .debug_line    0x00000000000089ea       0x51 ../tecnica2_bsp/\libhal_bsp.a(alt_errno.o)
 .debug_line    0x0000000000008a3b      0x159 ../tecnica2_bsp/\libhal_bsp.a(alt_fstat.o)
 .debug_line    0x0000000000008b94      0x131 ../tecnica2_bsp/\libhal_bsp.a(alt_gettod.o)
 .debug_line    0x0000000000008cc5      0x15d ../tecnica2_bsp/\libhal_bsp.a(alt_isatty.o)
 .debug_line    0x0000000000008e22       0x8e ../tecnica2_bsp/\libhal_bsp.a(alt_load.o)
 .debug_line    0x0000000000008eb0      0x15e ../tecnica2_bsp/\libhal_bsp.a(alt_lseek.o)
 .debug_line    0x000000000000900e       0xa4 ../tecnica2_bsp/\libhal_bsp.a(alt_main.o)
 .debug_line    0x00000000000090b2      0x118 ../tecnica2_bsp/\libhal_bsp.a(alt_malloc_lock.o)
 .debug_line    0x00000000000091ca      0x1d2 ../tecnica2_bsp/\libhal_bsp.a(alt_read.o)
 .debug_line    0x000000000000939c       0xae ../tecnica2_bsp/\libhal_bsp.a(alt_release_fd.o)
 .debug_line    0x000000000000944a       0xee ../tecnica2_bsp/\libhal_bsp.a(alt_sbrk.o)
 .debug_line    0x0000000000009538       0xff ../tecnica2_bsp/\libhal_bsp.a(alt_tick.o)
 .debug_line    0x0000000000009637      0x1d1 ../tecnica2_bsp/\libhal_bsp.a(alt_write.o)
 .debug_line    0x0000000000009808      0x153 ../tecnica2_bsp/\libhal_bsp.a(alt_sys_init.o)
 .debug_line    0x000000000000995b      0x12f ../tecnica2_bsp/\libhal_bsp.a(altera_avalon_jtag_uart_fd.o)
 .debug_line    0x0000000000009a8a      0x18b ../tecnica2_bsp/\libhal_bsp.a(altera_avalon_jtag_uart_init.o)
 .debug_line    0x0000000000009c15      0x131 ../tecnica2_bsp/\libhal_bsp.a(altera_avalon_jtag_uart_ioctl.o)
 .debug_line    0x0000000000009d46      0x171 ../tecnica2_bsp/\libhal_bsp.a(altera_avalon_jtag_uart_read.o)
 .debug_line    0x0000000000009eb7      0x170 ../tecnica2_bsp/\libhal_bsp.a(altera_avalon_jtag_uart_write.o)
 .debug_line    0x000000000000a027       0xfd ../tecnica2_bsp/\libhal_bsp.a(altera_avalon_timer_sc.o)
 .debug_line    0x000000000000a124      0x12a ../tecnica2_bsp/\libhal_bsp.a(perf_print_formatted_report.o)
 .debug_line    0x000000000000a24e       0xf9 ../tecnica2_bsp/\libhal_bsp.a(alt_alarm_start.o)
 .debug_line    0x000000000000a347       0x61 ../tecnica2_bsp/\libhal_bsp.a(alt_dcache_flush_all.o)
 .debug_line    0x000000000000a3a8       0xcf ../tecnica2_bsp/\libhal_bsp.a(alt_dev_llist_insert.o)
 .debug_line    0x000000000000a477       0x59 ../tecnica2_bsp/\libhal_bsp.a(alt_do_ctors.o)
 .debug_line    0x000000000000a4d0       0x59 ../tecnica2_bsp/\libhal_bsp.a(alt_do_dtors.o)
 .debug_line    0x000000000000a529       0x50 ../tecnica2_bsp/\libhal_bsp.a(alt_icache_flush_all.o)
 .debug_line    0x000000000000a579       0xeb ../tecnica2_bsp/\libhal_bsp.a(alt_iic.o)
 .debug_line    0x000000000000a664       0xdb ../tecnica2_bsp/\libhal_bsp.a(alt_iic_isr_register.o)
 .debug_line    0x000000000000a73f      0x12e ../tecnica2_bsp/\libhal_bsp.a(alt_io_redirect.o)
 .debug_line    0x000000000000a86d       0x6b ../tecnica2_bsp/\libhal_bsp.a(alt_irq_entry.o)
 .debug_line    0x000000000000a8d8       0xaa ../tecnica2_bsp/\libhal_bsp.a(alt_irq_handler.o)
 .debug_line    0x000000000000a982       0x50 ../tecnica2_bsp/\libhal_bsp.a(alt_irq_vars.o)
 .debug_line    0x000000000000a9d2      0x128 ../tecnica2_bsp/\libhal_bsp.a(alt_open.o)
 .debug_line    0x000000000000aafa       0x51 ../tecnica2_bsp/\libhal_bsp.a(altera_nios2_gen2_irq.o)
 .debug_line    0x000000000000ab4b       0x9b ../tecnica2_bsp/\libhal_bsp.a(altera_avalon_performance_counter.o)
 .debug_line    0x000000000000abe6       0xb3 ../tecnica2_bsp/\libhal_bsp.a(alt_exception_entry.o)
 .debug_line    0x000000000000ac99       0xb5 ../tecnica2_bsp/\libhal_bsp.a(alt_find_dev.o)
 .debug_line    0x000000000000ad4e       0xd1 ../tecnica2_bsp/\libhal_bsp.a(alt_find_file.o)
 .debug_line    0x000000000000ae1f       0xd4 ../tecnica2_bsp/\libhal_bsp.a(alt_get_fd.o)
 .debug_line    0x000000000000aef3       0x81 ../tecnica2_bsp/\libhal_bsp.a(alt_icache_flush.o)
 .debug_line    0x000000000000af74       0xba ../tecnica2_bsp/\libhal_bsp.a(alt_instruction_exception_entry.o)
 .debug_line    0x000000000000b02e       0xdf ../tecnica2_bsp//newlib/nios2-elf/lib\libc.a(lib_a-atexit.o)
 .debug_line    0x000000000000b10d      0x19e ../tecnica2_bsp//newlib/nios2-elf/lib\libc.a(lib_a-exit.o)
 .debug_line    0x000000000000b2ab      0x155 ../tecnica2_bsp//newlib/nios2-elf/lib\libc.a(lib_a-memcmp.o)
 .debug_line    0x000000000000b400      0x179 ../tecnica2_bsp//newlib/nios2-elf/lib\libc.a(lib_a-__atexit.o)
 .debug_line    0x000000000000b579      0x1b9 ../tecnica2_bsp//newlib/nios2-elf/lib\libc.a(lib_a-__call_atexit.o)
 .debug_line    0x000000000000b732       0x70 c:/intelfpga/17.1/nios2eds/bin/gnu/h-x86_64-mingw32/bin/../lib/gcc/nios2-elf/5.3.0\libgcc.a(_floatundidf.o)
 .debug_line    0x000000000000b7a2       0x71 ../tecnica2_bsp/\libhal_bsp.a(alt_exit.o)

.debug_frame    0x0000000000000000     0x2a78
 *(.debug_frame)
 .debug_frame   0x0000000000000000      0x258 obj/default/backpropagation_best2019_superdef_ver2_alumnos-1.o
 .debug_frame   0x0000000000000258       0x38 ../tecnica2_bsp//newlib/nios2-elf/lib\libm.a(lib_a-w_sqrt.o)
 .debug_frame   0x0000000000000290       0x44 ../tecnica2_bsp//newlib/nios2-elf/lib\libm.a(lib_a-e_sqrt.o)
 .debug_frame   0x00000000000002d4       0x34 ../tecnica2_bsp//newlib/nios2-elf/lib\libm.a(lib_a-s_fpclassify.o)
 .debug_frame   0x0000000000000308       0x38 ../tecnica2_bsp//newlib/nios2-elf/lib\libm.a(lib_a-s_matherr.o)
 .debug_frame   0x0000000000000340       0x40 c:/intelfpga/17.1/nios2eds/bin/gnu/h-x86_64-mingw32/bin/../lib/gcc/nios2-elf/5.3.0\libgcc.a(adddf3.o)
 .debug_frame   0x0000000000000380       0x58 c:/intelfpga/17.1/nios2eds/bin/gnu/h-x86_64-mingw32/bin/../lib/gcc/nios2-elf/5.3.0\libgcc.a(divdf3.o)
 .debug_frame   0x00000000000003d8       0x20 c:/intelfpga/17.1/nios2eds/bin/gnu/h-x86_64-mingw32/bin/../lib/gcc/nios2-elf/5.3.0\libgcc.a(eqdf2.o)
 .debug_frame   0x00000000000003f8       0x20 c:/intelfpga/17.1/nios2eds/bin/gnu/h-x86_64-mingw32/bin/../lib/gcc/nios2-elf/5.3.0\libgcc.a(gedf2.o)
 .debug_frame   0x0000000000000418       0x20 c:/intelfpga/17.1/nios2eds/bin/gnu/h-x86_64-mingw32/bin/../lib/gcc/nios2-elf/5.3.0\libgcc.a(ledf2.o)
 .debug_frame   0x0000000000000438       0x58 c:/intelfpga/17.1/nios2eds/bin/gnu/h-x86_64-mingw32/bin/../lib/gcc/nios2-elf/5.3.0\libgcc.a(muldf3.o)
 .debug_frame   0x0000000000000490       0x44 c:/intelfpga/17.1/nios2eds/bin/gnu/h-x86_64-mingw32/bin/../lib/gcc/nios2-elf/5.3.0\libgcc.a(subdf3.o)
 .debug_frame   0x00000000000004d4       0x38 c:/intelfpga/17.1/nios2eds/bin/gnu/h-x86_64-mingw32/bin/../lib/gcc/nios2-elf/5.3.0\libgcc.a(extendsfdf2.o)
 .debug_frame   0x000000000000050c       0x20 c:/intelfpga/17.1/nios2eds/bin/gnu/h-x86_64-mingw32/bin/../lib/gcc/nios2-elf/5.3.0\libgcc.a(truncdfsf2.o)
 .debug_frame   0x000000000000052c       0x20 c:/intelfpga/17.1/nios2eds/bin/gnu/h-x86_64-mingw32/bin/../lib/gcc/nios2-elf/5.3.0\libgcc.a(_clzsi2.o)
 .debug_frame   0x000000000000054c       0x50 c:/intelfpga/17.1/nios2eds/bin/gnu/h-x86_64-mingw32/bin/../lib/gcc/nios2-elf/5.3.0\libgcc.a(lib2-divmod.o)
 .debug_frame   0x000000000000059c       0x34 ../tecnica2_bsp//newlib/nios2-elf/lib\libc.a(lib_a-errno.o)
 .debug_frame   0x00000000000005d0       0x60 ../tecnica2_bsp//newlib/nios2-elf/lib\libc.a(lib_a-printf.o)
 .debug_frame   0x0000000000000630       0x60 ../tecnica2_bsp//newlib/nios2-elf/lib\libc.a(lib_a-putchar.o)
 .debug_frame   0x0000000000000690       0x60 ../tecnica2_bsp//newlib/nios2-elf/lib\libc.a(lib_a-puts.o)
 .debug_frame   0x00000000000006f0       0x64 ../tecnica2_bsp//newlib/nios2-elf/lib\libc.a(lib_a-rand.o)
 .debug_frame   0x0000000000000754       0x34 ../tecnica2_bsp//newlib/nios2-elf/lib\libc.a(lib_a-strlen.o)
 .debug_frame   0x0000000000000788       0x60 ../tecnica2_bsp//newlib/nios2-elf/lib\libc.a(lib_a-system.o)
 .debug_frame   0x00000000000007e8       0x38 ../tecnica2_bsp//newlib/nios2-elf/lib\libc.a(lib_a-time.o)
 .debug_frame   0x0000000000000820      0x110 ../tecnica2_bsp//newlib/nios2-elf/lib\libc.a(lib_a-vfprintf.o)
 .debug_frame   0x0000000000000930       0x40 ../tecnica2_bsp//newlib/nios2-elf/lib\libc.a(lib_a-wsetup.o)
 .debug_frame   0x0000000000000970       0x74 ../tecnica2_bsp//newlib/nios2-elf/lib\libc.a(lib_a-dtoa.o)
 .debug_frame   0x00000000000009e4       0xa0 ../tecnica2_bsp//newlib/nios2-elf/lib\libc.a(lib_a-fflush.o)
 .debug_frame   0x0000000000000a84      0x22c ../tecnica2_bsp//newlib/nios2-elf/lib\libc.a(lib_a-findfp.o)
 .debug_frame   0x0000000000000cb0       0x60 ../tecnica2_bsp//newlib/nios2-elf/lib\libc.a(lib_a-freer.o)
 .debug_frame   0x0000000000000d10       0x58 ../tecnica2_bsp//newlib/nios2-elf/lib\libc.a(lib_a-fvwrite.o)
 .debug_frame   0x0000000000000d68       0x88 ../tecnica2_bsp//newlib/nios2-elf/lib\libc.a(lib_a-fwalk.o)
 .debug_frame   0x0000000000000df0       0x38 ../tecnica2_bsp//newlib/nios2-elf/lib\libc.a(lib_a-gettimeofdayr.o)
 .debug_frame   0x0000000000000e28      0x13c ../tecnica2_bsp//newlib/nios2-elf/lib\libc.a(lib_a-locale.o)
 .debug_frame   0x0000000000000f64       0x4c ../tecnica2_bsp//newlib/nios2-elf/lib\libc.a(lib_a-makebuf.o)
 .debug_frame   0x0000000000000fb0       0x60 ../tecnica2_bsp//newlib/nios2-elf/lib\libc.a(lib_a-mallocr.o)
 .debug_frame   0x0000000000001010       0x34 ../tecnica2_bsp//newlib/nios2-elf/lib\libc.a(lib_a-memchr.o)
 .debug_frame   0x0000000000001044       0x34 ../tecnica2_bsp//newlib/nios2-elf/lib\libc.a(lib_a-memcpy.o)
 .debug_frame   0x0000000000001078       0x34 ../tecnica2_bsp//newlib/nios2-elf/lib\libc.a(lib_a-memmove.o)
 .debug_frame   0x00000000000010ac       0x34 ../tecnica2_bsp//newlib/nios2-elf/lib\libc.a(lib_a-memset.o)
 .debug_frame   0x00000000000010e0      0x304 ../tecnica2_bsp//newlib/nios2-elf/lib\libc.a(lib_a-mprec.o)
 .debug_frame   0x00000000000013e4       0x68 ../tecnica2_bsp//newlib/nios2-elf/lib\libc.a(lib_a-putc.o)
 .debug_frame   0x000000000000144c       0x38 ../tecnica2_bsp//newlib/nios2-elf/lib\libc.a(lib_a-reallocr.o)
 .debug_frame   0x0000000000001484       0x38 ../tecnica2_bsp//newlib/nios2-elf/lib\libc.a(lib_a-sbrkr.o)
 .debug_frame   0x00000000000014bc       0xe8 ../tecnica2_bsp//newlib/nios2-elf/lib\libc.a(lib_a-stdio.o)
 .debug_frame   0x00000000000015a4       0x34 ../tecnica2_bsp//newlib/nios2-elf/lib\libc.a(lib_a-strcmp.o)
 .debug_frame   0x00000000000015d8       0xe8 ../tecnica2_bsp//newlib/nios2-elf/lib\libc.a(lib_a-vfiprintf.o)
 .debug_frame   0x00000000000016c0       0x70 ../tecnica2_bsp//newlib/nios2-elf/lib\libc.a(lib_a-wbuf.o)
 .debug_frame   0x0000000000001730       0x38 ../tecnica2_bsp//newlib/nios2-elf/lib\libc.a(lib_a-writer.o)
 .debug_frame   0x0000000000001768       0x38 ../tecnica2_bsp//newlib/nios2-elf/lib\libc.a(closer.o)
 .debug_frame   0x00000000000017a0       0x38 ../tecnica2_bsp//newlib/nios2-elf/lib\libc.a(lib_a-callocr.o)
 .debug_frame   0x00000000000017d8       0x68 ../tecnica2_bsp//newlib/nios2-elf/lib\libc.a(lib_a-fclose.o)
 .debug_frame   0x0000000000001840       0x88 ../tecnica2_bsp//newlib/nios2-elf/lib\libc.a(lib_a-fputwc.o)
 .debug_frame   0x00000000000018c8       0x38 ../tecnica2_bsp//newlib/nios2-elf/lib\libc.a(lib_a-fstatr.o)
 .debug_frame   0x0000000000001900       0x38 ../tecnica2_bsp//newlib/nios2-elf/lib\libc.a(lib_a-isattyr.o)
 .debug_frame   0x0000000000001938       0x38 ../tecnica2_bsp//newlib/nios2-elf/lib\libc.a(lib_a-lseekr.o)
 .debug_frame   0x0000000000001970       0x38 ../tecnica2_bsp//newlib/nios2-elf/lib\libc.a(lib_a-readr.o)
 .debug_frame   0x00000000000019a8       0x68 ../tecnica2_bsp//newlib/nios2-elf/lib\libc.a(lib_a-wcrtomb.o)
 .debug_frame   0x0000000000001a10       0x60 ../tecnica2_bsp//newlib/nios2-elf/lib\libc.a(lib_a-wctomb_r.o)
 .debug_frame   0x0000000000001a70       0x20 c:/intelfpga/17.1/nios2eds/bin/gnu/h-x86_64-mingw32/bin/../lib/gcc/nios2-elf/5.3.0\libgcc.a(_muldi3.o)
 .debug_frame   0x0000000000001a90       0x54 c:/intelfpga/17.1/nios2eds/bin/gnu/h-x86_64-mingw32/bin/../lib/gcc/nios2-elf/5.3.0\libgcc.a(_udivdi3.o)
 .debug_frame   0x0000000000001ae4       0x54 c:/intelfpga/17.1/nios2eds/bin/gnu/h-x86_64-mingw32/bin/../lib/gcc/nios2-elf/5.3.0\libgcc.a(_umoddi3.o)
 .debug_frame   0x0000000000001b38       0x20 c:/intelfpga/17.1/nios2eds/bin/gnu/h-x86_64-mingw32/bin/../lib/gcc/nios2-elf/5.3.0\libgcc.a(fixdfsi.o)
 .debug_frame   0x0000000000001b58       0x38 c:/intelfpga/17.1/nios2eds/bin/gnu/h-x86_64-mingw32/bin/../lib/gcc/nios2-elf/5.3.0\libgcc.a(floatsidf.o)
 .debug_frame   0x0000000000001b90       0x34 c:/intelfpga/17.1/nios2eds/bin/gnu/h-x86_64-mingw32/bin/../lib/gcc/nios2-elf/5.3.0\libgcc.a(floatunsidf.o)
 .debug_frame   0x0000000000001bc4       0x60 ../tecnica2_bsp/\libhal_bsp.a(alt_close.o)
 .debug_frame   0x0000000000001c24       0x34 ../tecnica2_bsp/\libhal_bsp.a(alt_dev.o)
 .debug_frame   0x0000000000001c58       0x60 ../tecnica2_bsp/\libhal_bsp.a(alt_fstat.o)
 .debug_frame   0x0000000000001cb8       0x50 ../tecnica2_bsp/\libhal_bsp.a(alt_gettod.o)
 .debug_frame   0x0000000000001d08       0x60 ../tecnica2_bsp/\libhal_bsp.a(alt_isatty.o)
 .debug_frame   0x0000000000001d68       0x5c ../tecnica2_bsp/\libhal_bsp.a(alt_load.o)
 .debug_frame   0x0000000000001dc4       0x60 ../tecnica2_bsp/\libhal_bsp.a(alt_lseek.o)
 .debug_frame   0x0000000000001e24       0x2c ../tecnica2_bsp/\libhal_bsp.a(alt_main.o)
 .debug_frame   0x0000000000001e50       0x58 ../tecnica2_bsp/\libhal_bsp.a(alt_malloc_lock.o)
 .debug_frame   0x0000000000001ea8       0x60 ../tecnica2_bsp/\libhal_bsp.a(alt_read.o)
 .debug_frame   0x0000000000001f08       0x34 ../tecnica2_bsp/\libhal_bsp.a(alt_release_fd.o)
 .debug_frame   0x0000000000001f3c       0x34 ../tecnica2_bsp/\libhal_bsp.a(alt_sbrk.o)
 .debug_frame   0x0000000000001f70       0x5c ../tecnica2_bsp/\libhal_bsp.a(alt_tick.o)
 .debug_frame   0x0000000000001fcc       0x60 ../tecnica2_bsp/\libhal_bsp.a(alt_write.o)
 .debug_frame   0x000000000000202c       0x88 ../tecnica2_bsp/\libhal_bsp.a(alt_sys_init.o)
 .debug_frame   0x00000000000020b4       0xb0 ../tecnica2_bsp/\libhal_bsp.a(altera_avalon_jtag_uart_fd.o)
 .debug_frame   0x0000000000002164       0xa4 ../tecnica2_bsp/\libhal_bsp.a(altera_avalon_jtag_uart_init.o)
 .debug_frame   0x0000000000002208       0x34 ../tecnica2_bsp/\libhal_bsp.a(altera_avalon_jtag_uart_ioctl.o)
 .debug_frame   0x000000000000223c       0x38 ../tecnica2_bsp/\libhal_bsp.a(altera_avalon_jtag_uart_read.o)
 .debug_frame   0x0000000000002274       0x38 ../tecnica2_bsp/\libhal_bsp.a(altera_avalon_jtag_uart_write.o)
 .debug_frame   0x00000000000022ac       0x60 ../tecnica2_bsp/\libhal_bsp.a(altera_avalon_timer_sc.o)
 .debug_frame   0x000000000000230c       0x4c ../tecnica2_bsp/\libhal_bsp.a(perf_print_formatted_report.o)
 .debug_frame   0x0000000000002358       0x34 ../tecnica2_bsp/\libhal_bsp.a(alt_alarm_start.o)
 .debug_frame   0x000000000000238c       0x34 ../tecnica2_bsp/\libhal_bsp.a(alt_dcache_flush_all.o)
 .debug_frame   0x00000000000023c0       0x60 ../tecnica2_bsp/\libhal_bsp.a(alt_dev_llist_insert.o)
 .debug_frame   0x0000000000002420       0x38 ../tecnica2_bsp/\libhal_bsp.a(alt_do_ctors.o)
 .debug_frame   0x0000000000002458       0x38 ../tecnica2_bsp/\libhal_bsp.a(alt_do_dtors.o)
 .debug_frame   0x0000000000002490       0x38 ../tecnica2_bsp/\libhal_bsp.a(alt_icache_flush_all.o)
 .debug_frame   0x00000000000024c8       0xa4 ../tecnica2_bsp/\libhal_bsp.a(alt_iic.o)
 .debug_frame   0x000000000000256c       0x38 ../tecnica2_bsp/\libhal_bsp.a(alt_iic_isr_register.o)
 .debug_frame   0x00000000000025a4       0x60 ../tecnica2_bsp/\libhal_bsp.a(alt_io_redirect.o)
 .debug_frame   0x0000000000002604       0x38 ../tecnica2_bsp/\libhal_bsp.a(alt_irq_handler.o)
 .debug_frame   0x000000000000263c       0x84 ../tecnica2_bsp/\libhal_bsp.a(alt_open.o)
 .debug_frame   0x00000000000026c0       0x34 ../tecnica2_bsp/\libhal_bsp.a(altera_nios2_gen2_irq.o)
 .debug_frame   0x00000000000026f4       0xc8 ../tecnica2_bsp/\libhal_bsp.a(altera_avalon_performance_counter.o)
 .debug_frame   0x00000000000027bc       0x38 ../tecnica2_bsp/\libhal_bsp.a(alt_find_dev.o)
 .debug_frame   0x00000000000027f4       0x38 ../tecnica2_bsp/\libhal_bsp.a(alt_find_file.o)
 .debug_frame   0x000000000000282c       0x34 ../tecnica2_bsp/\libhal_bsp.a(alt_get_fd.o)
 .debug_frame   0x0000000000002860       0x34 ../tecnica2_bsp/\libhal_bsp.a(alt_icache_flush.o)
 .debug_frame   0x0000000000002894       0x5c ../tecnica2_bsp/\libhal_bsp.a(alt_instruction_exception_entry.o)
 .debug_frame   0x00000000000028f0       0x38 ../tecnica2_bsp//newlib/nios2-elf/lib\libc.a(lib_a-atexit.o)
 .debug_frame   0x0000000000002928       0x2c ../tecnica2_bsp//newlib/nios2-elf/lib\libc.a(lib_a-exit.o)
 .debug_frame   0x0000000000002954       0x34 ../tecnica2_bsp//newlib/nios2-elf/lib\libc.a(lib_a-memcmp.o)
 .debug_frame   0x0000000000002988       0x40 ../tecnica2_bsp//newlib/nios2-elf/lib\libc.a(lib_a-__atexit.o)
 .debug_frame   0x00000000000029c8       0x48 ../tecnica2_bsp//newlib/nios2-elf/lib\libc.a(lib_a-__call_atexit.o)
 .debug_frame   0x0000000000002a10       0x3c c:/intelfpga/17.1/nios2eds/bin/gnu/h-x86_64-mingw32/bin/../lib/gcc/nios2-elf/5.3.0\libgcc.a(_floatundidf.o)
 .debug_frame   0x0000000000002a4c       0x2c ../tecnica2_bsp/\libhal_bsp.a(alt_exit.o)

.debug_str      0x0000000000000000     0x4599
 *(.debug_str)
 .debug_str     0x0000000000000000      0x446 obj/default/backpropagation_best2019_superdef_ver2_alumnos-1.o
                                        0x4b4 (size before relaxing)
 .debug_str     0x0000000000000446      0x282 ../tecnica2_bsp//newlib/nios2-elf/lib\libm.a(lib_a-w_sqrt.o)
                                        0x33c (size before relaxing)
 .debug_str     0x00000000000006c8       0x97 ../tecnica2_bsp//newlib/nios2-elf/lib\libm.a(lib_a-e_sqrt.o)
                                        0x312 (size before relaxing)
 .debug_str     0x000000000000075f       0x62 ../tecnica2_bsp//newlib/nios2-elf/lib\libm.a(lib_a-s_fpclassify.o)
                                        0x300 (size before relaxing)
 .debug_str     0x00000000000007c1       0x51 ../tecnica2_bsp//newlib/nios2-elf/lib\libm.a(lib_a-s_lib_ver.o)
                                        0x317 (size before relaxing)
 .debug_str     0x0000000000000812       0x59 ../tecnica2_bsp//newlib/nios2-elf/lib\libm.a(lib_a-s_matherr.o)
                                        0x2e9 (size before relaxing)
 .debug_str     0x000000000000086b      0x1ff c:/intelfpga/17.1/nios2eds/bin/gnu/h-x86_64-mingw32/bin/../lib/gcc/nios2-elf/5.3.0\libgcc.a(adddf3.o)
                                        0x28f (size before relaxing)
 .debug_str     0x0000000000000a6a      0x169 c:/intelfpga/17.1/nios2eds/bin/gnu/h-x86_64-mingw32/bin/../lib/gcc/nios2-elf/5.3.0\libgcc.a(divdf3.o)
                                        0x347 (size before relaxing)
 .debug_str     0x0000000000000bd3       0x34 c:/intelfpga/17.1/nios2eds/bin/gnu/h-x86_64-mingw32/bin/../lib/gcc/nios2-elf/5.3.0\libgcc.a(eqdf2.o)
                                        0x1f5 (size before relaxing)
 .debug_str     0x0000000000000c07       0x58 c:/intelfpga/17.1/nios2eds/bin/gnu/h-x86_64-mingw32/bin/../lib/gcc/nios2-elf/5.3.0\libgcc.a(gedf2.o)
                                        0x219 (size before relaxing)
 .debug_str     0x0000000000000c5f       0x34 c:/intelfpga/17.1/nios2eds/bin/gnu/h-x86_64-mingw32/bin/../lib/gcc/nios2-elf/5.3.0\libgcc.a(ledf2.o)
                                        0x219 (size before relaxing)
 .debug_str     0x0000000000000c93      0x15b c:/intelfpga/17.1/nios2eds/bin/gnu/h-x86_64-mingw32/bin/../lib/gcc/nios2-elf/5.3.0\libgcc.a(muldf3.o)
                                        0x3a8 (size before relaxing)
 .debug_str     0x0000000000000dee       0x36 c:/intelfpga/17.1/nios2eds/bin/gnu/h-x86_64-mingw32/bin/../lib/gcc/nios2-elf/5.3.0\libgcc.a(subdf3.o)
                                        0x28f (size before relaxing)
 .debug_str     0x0000000000000e24       0x7a c:/intelfpga/17.1/nios2eds/bin/gnu/h-x86_64-mingw32/bin/../lib/gcc/nios2-elf/5.3.0\libgcc.a(extendsfdf2.o)
                                        0x235 (size before relaxing)
 .debug_str     0x0000000000000e9e       0x51 c:/intelfpga/17.1/nios2eds/bin/gnu/h-x86_64-mingw32/bin/../lib/gcc/nios2-elf/5.3.0\libgcc.a(truncdfsf2.o)
                                        0x23f (size before relaxing)
 .debug_str     0x0000000000000eef       0x6b c:/intelfpga/17.1/nios2eds/bin/gnu/h-x86_64-mingw32/bin/../lib/gcc/nios2-elf/5.3.0\libgcc.a(_clzsi2.o)
                                        0x1e6 (size before relaxing)
 .debug_str     0x0000000000000f5a       0x7c c:/intelfpga/17.1/nios2eds/bin/gnu/h-x86_64-mingw32/bin/../lib/gcc/nios2-elf/5.3.0\libgcc.a(lib2-divmod.o)
                                        0x1b8 (size before relaxing)
 .debug_str     0x0000000000000fd6      0x1c9 c:/intelfpga/17.1/nios2eds/bin/gnu/h-x86_64-mingw32/bin/../lib/gcc/nios2-elf/5.3.0\libgcc.a(_clz.o)
 .debug_str     0x0000000000000fd6      0x39e ../tecnica2_bsp//newlib/nios2-elf/lib\libc.a(lib_a-errno.o)
                                        0x674 (size before relaxing)
 .debug_str     0x0000000000001374       0x6c ../tecnica2_bsp//newlib/nios2-elf/lib\libc.a(lib_a-impure.o)
                                        0x68c (size before relaxing)
 .debug_str     0x00000000000013e0       0x78 ../tecnica2_bsp//newlib/nios2-elf/lib\libc.a(lib_a-printf.o)
                                        0x6a7 (size before relaxing)
 .debug_str     0x0000000000001458       0x61 ../tecnica2_bsp//newlib/nios2-elf/lib\libc.a(lib_a-putchar.o)
                                        0x687 (size before relaxing)
 .debug_str     0x00000000000014b9       0x9f ../tecnica2_bsp//newlib/nios2-elf/lib\libc.a(lib_a-puts.o)
                                        0x6d7 (size before relaxing)
 .debug_str     0x0000000000001558       0x52 ../tecnica2_bsp//newlib/nios2-elf/lib\libc.a(lib_a-rand.o)
                                        0x682 (size before relaxing)
 .debug_str     0x00000000000015aa       0x62 ../tecnica2_bsp//newlib/nios2-elf/lib\libc.a(lib_a-strlen.o)
                                        0x2cd (size before relaxing)
 .debug_str     0x000000000000160c       0x5f ../tecnica2_bsp//newlib/nios2-elf/lib\libc.a(lib_a-system.o)
                                        0x67f (size before relaxing)
 .debug_str     0x000000000000166b       0x6c ../tecnica2_bsp//newlib/nios2-elf/lib\libc.a(lib_a-time.o)
                                        0x699 (size before relaxing)
 .debug_str     0x00000000000016d7      0x36a ../tecnica2_bsp//newlib/nios2-elf/lib\libc.a(lib_a-vfprintf.o)
                                        0x8b9 (size before relaxing)
 .debug_str     0x0000000000001a41       0x59 ../tecnica2_bsp//newlib/nios2-elf/lib\libc.a(lib_a-wsetup.o)
                                        0x68e (size before relaxing)
 .debug_str     0x0000000000001a9a      0x10f ../tecnica2_bsp//newlib/nios2-elf/lib\libc.a(lib_a-dtoa.o)
                                        0x766 (size before relaxing)
 .debug_str     0x0000000000001ba9       0x7a ../tecnica2_bsp//newlib/nios2-elf/lib\libc.a(lib_a-fflush.o)
                                        0x6cf (size before relaxing)
 .debug_str     0x0000000000001c23      0x1ac ../tecnica2_bsp//newlib/nios2-elf/lib\libc.a(lib_a-findfp.o)
                                        0x80c (size before relaxing)
 .debug_str     0x0000000000001dcf      0x16e ../tecnica2_bsp//newlib/nios2-elf/lib\libc.a(lib_a-freer.o)
                                        0x7b4 (size before relaxing)
 .debug_str     0x0000000000001f3d       0x79 ../tecnica2_bsp//newlib/nios2-elf/lib\libc.a(lib_a-fvwrite.o)
                                        0x6d5 (size before relaxing)
 .debug_str     0x0000000000001fb6       0x6f ../tecnica2_bsp//newlib/nios2-elf/lib\libc.a(lib_a-fwalk.o)
                                        0x691 (size before relaxing)
 .debug_str     0x0000000000002025       0x77 ../tecnica2_bsp//newlib/nios2-elf/lib\libc.a(lib_a-gettimeofdayr.o)
                                        0x6bb (size before relaxing)
 .debug_str     0x000000000000209c       0x50 ../tecnica2_bsp//newlib/nios2-elf/lib\libc.a(lib_a-int_errno.o)
                                        0x2b4 (size before relaxing)
 .debug_str     0x00000000000020ec      0x229 ../tecnica2_bsp//newlib/nios2-elf/lib\libc.a(lib_a-locale.o)
                                        0x8e1 (size before relaxing)
 .debug_str     0x0000000000002315      0x128 ../tecnica2_bsp//newlib/nios2-elf/lib\libc.a(lib_a-makebuf.o)
                                        0x771 (size before relaxing)
 .debug_str     0x000000000000243d       0xef ../tecnica2_bsp//newlib/nios2-elf/lib\libc.a(lib_a-mallocr.o)
                                        0x862 (size before relaxing)
 .debug_str     0x000000000000252c       0x63 ../tecnica2_bsp//newlib/nios2-elf/lib\libc.a(lib_a-memchr.o)
                                        0x2d4 (size before relaxing)
 .debug_str     0x000000000000258f       0x7c ../tecnica2_bsp//newlib/nios2-elf/lib\libc.a(lib_a-memcpy.o)
                                        0x2e1 (size before relaxing)
 .debug_str     0x000000000000260b       0x60 ../tecnica2_bsp//newlib/nios2-elf/lib\libc.a(lib_a-memmove.o)
                                        0x2ed (size before relaxing)
 .debug_str     0x000000000000266b       0x5c ../tecnica2_bsp//newlib/nios2-elf/lib\libc.a(lib_a-memset.o)
                                        0x2ce (size before relaxing)
 .debug_str     0x00000000000026c7      0x10b ../tecnica2_bsp//newlib/nios2-elf/lib\libc.a(lib_a-mprec.o)
                                        0x773 (size before relaxing)
 .debug_str     0x00000000000027d2       0x58 ../tecnica2_bsp//newlib/nios2-elf/lib\libc.a(lib_a-putc.o)
                                        0x69a (size before relaxing)
 .debug_str     0x000000000000282a       0x59 ../tecnica2_bsp//newlib/nios2-elf/lib\libc.a(lib_a-reallocr.o)
                                        0x734 (size before relaxing)
 .debug_str     0x0000000000002883       0x68 ../tecnica2_bsp//newlib/nios2-elf/lib\libc.a(lib_a-sbrkr.o)
                                        0x682 (size before relaxing)
 .debug_str     0x00000000000028eb       0x89 ../tecnica2_bsp//newlib/nios2-elf/lib\libc.a(lib_a-stdio.o)
                                        0x6bd (size before relaxing)
 .debug_str     0x0000000000002974       0x55 ../tecnica2_bsp//newlib/nios2-elf/lib\libc.a(lib_a-strcmp.o)
                                        0x2b3 (size before relaxing)
 .debug_str     0x00000000000029c9       0x40 ../tecnica2_bsp//newlib/nios2-elf/lib\libc.a(lib_a-vfiprintf.o)
                                        0x825 (size before relaxing)
 .debug_str     0x0000000000002a09       0x5d ../tecnica2_bsp//newlib/nios2-elf/lib\libc.a(lib_a-wbuf.o)
                                        0x692 (size before relaxing)
 .debug_str     0x0000000000002a66       0x56 ../tecnica2_bsp//newlib/nios2-elf/lib\libc.a(lib_a-writer.o)
                                        0x680 (size before relaxing)
 .debug_str     0x0000000000002abc       0x56 ../tecnica2_bsp//newlib/nios2-elf/lib\libc.a(closer.o)
                                        0x670 (size before relaxing)
 .debug_str     0x0000000000002b12       0x19 ../tecnica2_bsp//newlib/nios2-elf/lib\libc.a(lib_a-callocr.o)
                                        0x6b3 (size before relaxing)
 .debug_str     0x0000000000002b2b       0x5e ../tecnica2_bsp//newlib/nios2-elf/lib\libc.a(lib_a-fclose.o)
                                        0x698 (size before relaxing)
 .debug_str     0x0000000000002b89       0x60 ../tecnica2_bsp//newlib/nios2-elf/lib\libc.a(lib_a-fputwc.o)
                                        0x6ac (size before relaxing)
 .debug_str     0x0000000000002be9       0x5c ../tecnica2_bsp//newlib/nios2-elf/lib\libc.a(lib_a-fstatr.o)
                                        0x75c (size before relaxing)
 .debug_str     0x0000000000002c45       0x58 ../tecnica2_bsp//newlib/nios2-elf/lib\libc.a(lib_a-isattyr.o)
                                        0x672 (size before relaxing)
 .debug_str     0x0000000000002c9d       0x56 ../tecnica2_bsp//newlib/nios2-elf/lib\libc.a(lib_a-lseekr.o)
                                        0x677 (size before relaxing)
 .debug_str     0x0000000000002cf3       0x54 ../tecnica2_bsp//newlib/nios2-elf/lib\libc.a(lib_a-readr.o)
                                        0x67e (size before relaxing)
 .debug_str     0x0000000000002d47       0x6b ../tecnica2_bsp//newlib/nios2-elf/lib\libc.a(lib_a-wcrtomb.o)
                                        0x6b1 (size before relaxing)
 .debug_str     0x0000000000002db2       0x70 ../tecnica2_bsp//newlib/nios2-elf/lib\libc.a(lib_a-wctomb_r.o)
                                        0x6ba (size before relaxing)
 .debug_str     0x0000000000002e22       0x1f c:/intelfpga/17.1/nios2eds/bin/gnu/h-x86_64-mingw32/bin/../lib/gcc/nios2-elf/5.3.0\libgcc.a(_muldi3.o)
                                        0x20b (size before relaxing)
 .debug_str     0x0000000000002e41       0xb6 c:/intelfpga/17.1/nios2eds/bin/gnu/h-x86_64-mingw32/bin/../lib/gcc/nios2-elf/5.3.0\libgcc.a(_udivdi3.o)
                                        0x282 (size before relaxing)
 .debug_str     0x0000000000002ef7        0xa c:/intelfpga/17.1/nios2eds/bin/gnu/h-x86_64-mingw32/bin/../lib/gcc/nios2-elf/5.3.0\libgcc.a(_umoddi3.o)
                                        0x282 (size before relaxing)
 .debug_str     0x0000000000002f01       0x4b c:/intelfpga/17.1/nios2eds/bin/gnu/h-x86_64-mingw32/bin/../lib/gcc/nios2-elf/5.3.0\libgcc.a(fixdfsi.o)
                                        0x211 (size before relaxing)
 .debug_str     0x0000000000002f4c       0x69 c:/intelfpga/17.1/nios2eds/bin/gnu/h-x86_64-mingw32/bin/../lib/gcc/nios2-elf/5.3.0\libgcc.a(floatsidf.o)
                                        0x228 (size before relaxing)
 .debug_str     0x0000000000002fb5       0x40 c:/intelfpga/17.1/nios2eds/bin/gnu/h-x86_64-mingw32/bin/../lib/gcc/nios2-elf/5.3.0\libgcc.a(floatunsidf.o)
                                        0x225 (size before relaxing)
 .debug_str     0x0000000000002ff5      0x100 ../tecnica2_bsp/\libhal_bsp.a(alt_close.o)
                                        0x34a (size before relaxing)
 .debug_str     0x00000000000030f5       0x50 ../tecnica2_bsp/\libhal_bsp.a(alt_dev.o)
                                        0x444 (size before relaxing)
 .debug_str     0x0000000000003145       0x14 ../tecnica2_bsp/\libhal_bsp.a(alt_errno.o)
                                        0x284 (size before relaxing)
 .debug_str     0x0000000000003159       0x14 ../tecnica2_bsp/\libhal_bsp.a(alt_fstat.o)
                                        0x42b (size before relaxing)
 .debug_str     0x000000000000316d       0xa6 ../tecnica2_bsp/\libhal_bsp.a(alt_gettod.o)
                                        0x368 (size before relaxing)
 .debug_str     0x0000000000003213       0x1c ../tecnica2_bsp/\libhal_bsp.a(alt_isatty.o)
                                        0x433 (size before relaxing)
 .debug_str     0x000000000000322f       0xe9 ../tecnica2_bsp/\libhal_bsp.a(alt_load.o)
                                        0x351 (size before relaxing)
 .debug_str     0x0000000000003318       0x14 ../tecnica2_bsp/\libhal_bsp.a(alt_lseek.o)
                                        0x350 (size before relaxing)
 .debug_str     0x000000000000332c       0x44 ../tecnica2_bsp/\libhal_bsp.a(alt_main.o)
                                        0x2dc (size before relaxing)
 .debug_str     0x0000000000003370       0x38 ../tecnica2_bsp/\libhal_bsp.a(alt_malloc_lock.o)
                                        0x64e (size before relaxing)
 .debug_str     0x00000000000033a8       0x13 ../tecnica2_bsp/\libhal_bsp.a(alt_read.o)
                                        0x436 (size before relaxing)
 .debug_str     0x00000000000033bb       0x28 ../tecnica2_bsp/\libhal_bsp.a(alt_release_fd.o)
                                        0x312 (size before relaxing)
 .debug_str     0x00000000000033e3       0x98 ../tecnica2_bsp/\libhal_bsp.a(alt_sbrk.o)
                                        0x313 (size before relaxing)
 .debug_str     0x000000000000347b       0x78 ../tecnica2_bsp/\libhal_bsp.a(alt_tick.o)
                                        0x391 (size before relaxing)
 .debug_str     0x00000000000034f3       0x14 ../tecnica2_bsp/\libhal_bsp.a(alt_write.o)
                                        0x437 (size before relaxing)
 .debug_str     0x0000000000003507      0x151 ../tecnica2_bsp/\libhal_bsp.a(alt_sys_init.o)
                                        0x4cd (size before relaxing)
 .debug_str     0x0000000000003658       0xac ../tecnica2_bsp/\libhal_bsp.a(altera_avalon_jtag_uart_fd.o)
                                        0x4e3 (size before relaxing)
 .debug_str     0x0000000000003704       0xbc ../tecnica2_bsp/\libhal_bsp.a(altera_avalon_jtag_uart_init.o)
                                        0x477 (size before relaxing)
 .debug_str     0x00000000000037c0       0x4a ../tecnica2_bsp/\libhal_bsp.a(altera_avalon_jtag_uart_ioctl.o)
                                        0x3d2 (size before relaxing)
 .debug_str     0x000000000000380a       0x48 ../tecnica2_bsp/\libhal_bsp.a(altera_avalon_jtag_uart_read.o)
                                        0x427 (size before relaxing)
 .debug_str     0x0000000000003852       0x4a ../tecnica2_bsp/\libhal_bsp.a(altera_avalon_jtag_uart_write.o)
                                        0x428 (size before relaxing)
 .debug_str     0x000000000000389c       0x6d ../tecnica2_bsp/\libhal_bsp.a(altera_avalon_timer_sc.o)
                                        0x38a (size before relaxing)
 .debug_str     0x0000000000003909       0xcf ../tecnica2_bsp/\libhal_bsp.a(perf_print_formatted_report.o)
                                        0x376 (size before relaxing)
 .debug_str     0x00000000000039d8       0x4a ../tecnica2_bsp/\libhal_bsp.a(alt_alarm_start.o)
                                        0x3bd (size before relaxing)
 .debug_str     0x0000000000003a22       0x34 ../tecnica2_bsp/\libhal_bsp.a(alt_dcache_flush_all.o)
                                        0x294 (size before relaxing)
 .debug_str     0x0000000000003a56       0x34 ../tecnica2_bsp/\libhal_bsp.a(alt_dev_llist_insert.o)
                                        0x30b (size before relaxing)
 .debug_str     0x0000000000003a8a       0x48 ../tecnica2_bsp/\libhal_bsp.a(alt_do_ctors.o)
                                        0x20f (size before relaxing)
 .debug_str     0x0000000000003ad2       0x4c ../tecnica2_bsp/\libhal_bsp.a(alt_do_dtors.o)
                                        0x20e (size before relaxing)
 .debug_str     0x0000000000003b1e       0x34 ../tecnica2_bsp/\libhal_bsp.a(alt_icache_flush_all.o)
                                        0x294 (size before relaxing)
 .debug_str     0x0000000000003b52       0xc4 ../tecnica2_bsp/\libhal_bsp.a(alt_iic.o)
                                        0x37d (size before relaxing)
 .debug_str     0x0000000000003c16       0x4c ../tecnica2_bsp/\libhal_bsp.a(alt_iic_isr_register.o)
                                        0x327 (size before relaxing)
 .debug_str     0x0000000000003c62       0x56 ../tecnica2_bsp/\libhal_bsp.a(alt_io_redirect.o)
                                        0x455 (size before relaxing)
 .debug_str     0x0000000000003cb8       0x3a ../tecnica2_bsp/\libhal_bsp.a(alt_irq_handler.o)
                                        0x2d6 (size before relaxing)
 .debug_str     0x0000000000003cf2       0x17 ../tecnica2_bsp/\libhal_bsp.a(alt_irq_vars.o)
                                        0x279 (size before relaxing)
 .debug_str     0x0000000000003d09       0x29 ../tecnica2_bsp/\libhal_bsp.a(alt_open.o)
                                        0x38a (size before relaxing)
 .debug_str     0x0000000000003d32       0x3b ../tecnica2_bsp/\libhal_bsp.a(altera_nios2_gen2_irq.o)
                                        0x29b (size before relaxing)
 .debug_str     0x0000000000003d6d       0xbe ../tecnica2_bsp/\libhal_bsp.a(altera_avalon_performance_counter.o)
                                        0x315 (size before relaxing)
 .debug_str     0x0000000000003e2b       0x24 ../tecnica2_bsp/\libhal_bsp.a(alt_find_dev.o)
                                        0x32b (size before relaxing)
 .debug_str     0x0000000000003e4f       0x26 ../tecnica2_bsp/\libhal_bsp.a(alt_find_file.o)
                                        0x339 (size before relaxing)
 .debug_str     0x0000000000003e75       0x30 ../tecnica2_bsp/\libhal_bsp.a(alt_get_fd.o)
                                        0x35b (size before relaxing)
 .debug_str     0x0000000000003ea5       0x2c ../tecnica2_bsp/\libhal_bsp.a(alt_icache_flush.o)
                                        0x29a (size before relaxing)
 .debug_str     0x0000000000003ed1      0x48b ../tecnica2_bsp/\libhal_bsp.a(alt_instruction_exception_entry.o)
                                        0x6df (size before relaxing)
 .debug_str     0x000000000000435c       0x7e ../tecnica2_bsp//newlib/nios2-elf/lib\libc.a(lib_a-atexit.o)
                                        0x2e3 (size before relaxing)
 .debug_str     0x00000000000043da       0x4c ../tecnica2_bsp//newlib/nios2-elf/lib\libc.a(lib_a-exit.o)
                                        0x67d (size before relaxing)
 .debug_str     0x0000000000004426       0x55 ../tecnica2_bsp//newlib/nios2-elf/lib\libc.a(lib_a-memcmp.o)
                                        0x2ba (size before relaxing)
 .debug_str     0x000000000000447b       0x64 ../tecnica2_bsp//newlib/nios2-elf/lib\libc.a(lib_a-__atexit.o)
                                        0x6c5 (size before relaxing)
 .debug_str     0x00000000000044df       0x82 ../tecnica2_bsp//newlib/nios2-elf/lib\libc.a(lib_a-__call_atexit.o)
                                        0x6b3 (size before relaxing)
 .debug_str     0x0000000000004561        0xe c:/intelfpga/17.1/nios2eds/bin/gnu/h-x86_64-mingw32/bin/../lib/gcc/nios2-elf/5.3.0\libgcc.a(_floatundidf.o)
                                        0x1d3 (size before relaxing)
 .debug_str     0x000000000000456f       0x2a ../tecnica2_bsp/\libhal_bsp.a(alt_exit.o)
                                        0x290 (size before relaxing)

.debug_loc      0x0000000000000000     0x91ce
 *(.debug_loc)
 .debug_loc     0x0000000000000000     0x16f9 c:/intelfpga/17.1/nios2eds/bin/gnu/h-x86_64-mingw32/bin/../lib/gcc/nios2-elf/5.3.0\libgcc.a(adddf3.o)
 .debug_loc     0x00000000000016f9     0x1fc6 c:/intelfpga/17.1/nios2eds/bin/gnu/h-x86_64-mingw32/bin/../lib/gcc/nios2-elf/5.3.0\libgcc.a(divdf3.o)
 .debug_loc     0x00000000000036bf       0x68 c:/intelfpga/17.1/nios2eds/bin/gnu/h-x86_64-mingw32/bin/../lib/gcc/nios2-elf/5.3.0\libgcc.a(eqdf2.o)
 .debug_loc     0x0000000000003727       0xf9 c:/intelfpga/17.1/nios2eds/bin/gnu/h-x86_64-mingw32/bin/../lib/gcc/nios2-elf/5.3.0\libgcc.a(gedf2.o)
 .debug_loc     0x0000000000003820      0x163 c:/intelfpga/17.1/nios2eds/bin/gnu/h-x86_64-mingw32/bin/../lib/gcc/nios2-elf/5.3.0\libgcc.a(ledf2.o)
 .debug_loc     0x0000000000003983     0x100d c:/intelfpga/17.1/nios2eds/bin/gnu/h-x86_64-mingw32/bin/../lib/gcc/nios2-elf/5.3.0\libgcc.a(muldf3.o)
 .debug_loc     0x0000000000004990     0x1627 c:/intelfpga/17.1/nios2eds/bin/gnu/h-x86_64-mingw32/bin/../lib/gcc/nios2-elf/5.3.0\libgcc.a(subdf3.o)
 .debug_loc     0x0000000000005fb7      0x26d c:/intelfpga/17.1/nios2eds/bin/gnu/h-x86_64-mingw32/bin/../lib/gcc/nios2-elf/5.3.0\libgcc.a(extendsfdf2.o)
 .debug_loc     0x0000000000006224      0x359 c:/intelfpga/17.1/nios2eds/bin/gnu/h-x86_64-mingw32/bin/../lib/gcc/nios2-elf/5.3.0\libgcc.a(truncdfsf2.o)
 .debug_loc     0x000000000000657d       0x6b c:/intelfpga/17.1/nios2eds/bin/gnu/h-x86_64-mingw32/bin/../lib/gcc/nios2-elf/5.3.0\libgcc.a(_clzsi2.o)
 .debug_loc     0x00000000000065e8      0x4ce c:/intelfpga/17.1/nios2eds/bin/gnu/h-x86_64-mingw32/bin/../lib/gcc/nios2-elf/5.3.0\libgcc.a(lib2-divmod.o)
 .debug_loc     0x0000000000006ab6      0x12d c:/intelfpga/17.1/nios2eds/bin/gnu/h-x86_64-mingw32/bin/../lib/gcc/nios2-elf/5.3.0\libgcc.a(_muldi3.o)
 .debug_loc     0x0000000000006be3     0x10ca c:/intelfpga/17.1/nios2eds/bin/gnu/h-x86_64-mingw32/bin/../lib/gcc/nios2-elf/5.3.0\libgcc.a(_udivdi3.o)
 .debug_loc     0x0000000000007cad     0x10ad c:/intelfpga/17.1/nios2eds/bin/gnu/h-x86_64-mingw32/bin/../lib/gcc/nios2-elf/5.3.0\libgcc.a(_umoddi3.o)
 .debug_loc     0x0000000000008d5a      0x121 c:/intelfpga/17.1/nios2eds/bin/gnu/h-x86_64-mingw32/bin/../lib/gcc/nios2-elf/5.3.0\libgcc.a(fixdfsi.o)
 .debug_loc     0x0000000000008e7b      0x175 c:/intelfpga/17.1/nios2eds/bin/gnu/h-x86_64-mingw32/bin/../lib/gcc/nios2-elf/5.3.0\libgcc.a(floatsidf.o)
 .debug_loc     0x0000000000008ff0      0x19e c:/intelfpga/17.1/nios2eds/bin/gnu/h-x86_64-mingw32/bin/../lib/gcc/nios2-elf/5.3.0\libgcc.a(floatunsidf.o)
 .debug_loc     0x000000000000918e       0x40 c:/intelfpga/17.1/nios2eds/bin/gnu/h-x86_64-mingw32/bin/../lib/gcc/nios2-elf/5.3.0\libgcc.a(_floatundidf.o)

.debug_macinfo
 *(.debug_macinfo)

.debug_weaknames
 *(.debug_weaknames)

.debug_funcnames
 *(.debug_funcnames)

.debug_typenames
 *(.debug_typenames)

.debug_varnames
 *(.debug_varnames)

.debug_alt_sim_info
                0x0000000000000000       0x30
 *(.debug_alt_sim_info)
 .debug_alt_sim_info
                0x0000000000000000       0x30 ../tecnica2_bsp//obj/HAL/src/crt0.o
                0x0000000008000000                __alt_data_end = 0x8000000
                0x0000000008000000                PROVIDE (__alt_stack_pointer, __alt_data_end)
                [!provide]                        PROVIDE (__alt_stack_limit, __alt_stack_base)
                0x000000000401b4c8                PROVIDE (__alt_heap_start, end)
                0x0000000008000000                PROVIDE (__alt_heap_limit, 0x8000000)
OUTPUT(tecnica2.elf elf32-littlenios2)

.debug_ranges   0x0000000000000000     0x1460
 .debug_ranges  0x0000000000000000       0x20 ../tecnica2_bsp//obj/HAL/src/crt0.o
 .debug_ranges  0x0000000000000020       0x10 ../tecnica2_bsp//newlib/nios2-elf/lib\libm.a(lib_a-w_sqrt.o)
 .debug_ranges  0x0000000000000030       0x10 ../tecnica2_bsp//newlib/nios2-elf/lib\libm.a(lib_a-e_sqrt.o)
 .debug_ranges  0x0000000000000040       0x10 ../tecnica2_bsp//newlib/nios2-elf/lib\libm.a(lib_a-s_fpclassify.o)
 .debug_ranges  0x0000000000000050       0x10 ../tecnica2_bsp//newlib/nios2-elf/lib\libm.a(lib_a-s_matherr.o)
 .debug_ranges  0x0000000000000060      0x240 c:/intelfpga/17.1/nios2eds/bin/gnu/h-x86_64-mingw32/bin/../lib/gcc/nios2-elf/5.3.0\libgcc.a(adddf3.o)
 .debug_ranges  0x00000000000002a0      0x138 c:/intelfpga/17.1/nios2eds/bin/gnu/h-x86_64-mingw32/bin/../lib/gcc/nios2-elf/5.3.0\libgcc.a(divdf3.o)
 .debug_ranges  0x00000000000003d8       0x48 c:/intelfpga/17.1/nios2eds/bin/gnu/h-x86_64-mingw32/bin/../lib/gcc/nios2-elf/5.3.0\libgcc.a(eqdf2.o)
 .debug_ranges  0x0000000000000420       0x88 c:/intelfpga/17.1/nios2eds/bin/gnu/h-x86_64-mingw32/bin/../lib/gcc/nios2-elf/5.3.0\libgcc.a(gedf2.o)
 .debug_ranges  0x00000000000004a8       0xa8 c:/intelfpga/17.1/nios2eds/bin/gnu/h-x86_64-mingw32/bin/../lib/gcc/nios2-elf/5.3.0\libgcc.a(ledf2.o)
 .debug_ranges  0x0000000000000550      0x1f0 c:/intelfpga/17.1/nios2eds/bin/gnu/h-x86_64-mingw32/bin/../lib/gcc/nios2-elf/5.3.0\libgcc.a(muldf3.o)
 .debug_ranges  0x0000000000000740      0x268 c:/intelfpga/17.1/nios2eds/bin/gnu/h-x86_64-mingw32/bin/../lib/gcc/nios2-elf/5.3.0\libgcc.a(subdf3.o)
 .debug_ranges  0x00000000000009a8       0x48 c:/intelfpga/17.1/nios2eds/bin/gnu/h-x86_64-mingw32/bin/../lib/gcc/nios2-elf/5.3.0\libgcc.a(extendsfdf2.o)
 .debug_ranges  0x00000000000009f0       0x38 c:/intelfpga/17.1/nios2eds/bin/gnu/h-x86_64-mingw32/bin/../lib/gcc/nios2-elf/5.3.0\libgcc.a(truncdfsf2.o)
 .debug_ranges  0x0000000000000a28       0x18 c:/intelfpga/17.1/nios2eds/bin/gnu/h-x86_64-mingw32/bin/../lib/gcc/nios2-elf/5.3.0\libgcc.a(_clzsi2.o)
 .debug_ranges  0x0000000000000a40       0x60 c:/intelfpga/17.1/nios2eds/bin/gnu/h-x86_64-mingw32/bin/../lib/gcc/nios2-elf/5.3.0\libgcc.a(lib2-divmod.o)
 .debug_ranges  0x0000000000000aa0       0x10 ../tecnica2_bsp//newlib/nios2-elf/lib\libc.a(lib_a-errno.o)
 .debug_ranges  0x0000000000000ab0       0x18 ../tecnica2_bsp//newlib/nios2-elf/lib\libc.a(lib_a-printf.o)
 .debug_ranges  0x0000000000000ac8       0x18 ../tecnica2_bsp//newlib/nios2-elf/lib\libc.a(lib_a-putchar.o)
 .debug_ranges  0x0000000000000ae0       0x18 ../tecnica2_bsp//newlib/nios2-elf/lib\libc.a(lib_a-puts.o)
 .debug_ranges  0x0000000000000af8       0x18 ../tecnica2_bsp//newlib/nios2-elf/lib\libc.a(lib_a-rand.o)
 .debug_ranges  0x0000000000000b10       0x10 ../tecnica2_bsp//newlib/nios2-elf/lib\libc.a(lib_a-strlen.o)
 .debug_ranges  0x0000000000000b20       0x18 ../tecnica2_bsp//newlib/nios2-elf/lib\libc.a(lib_a-system.o)
 .debug_ranges  0x0000000000000b38       0x10 ../tecnica2_bsp//newlib/nios2-elf/lib\libc.a(lib_a-time.o)
 .debug_ranges  0x0000000000000b48       0x90 ../tecnica2_bsp//newlib/nios2-elf/lib\libc.a(lib_a-vfprintf.o)
 .debug_ranges  0x0000000000000bd8       0x10 ../tecnica2_bsp//newlib/nios2-elf/lib\libc.a(lib_a-wsetup.o)
 .debug_ranges  0x0000000000000be8       0x18 ../tecnica2_bsp//newlib/nios2-elf/lib\libc.a(lib_a-dtoa.o)
 .debug_ranges  0x0000000000000c00       0x20 ../tecnica2_bsp//newlib/nios2-elf/lib\libc.a(lib_a-fflush.o)
 .debug_ranges  0x0000000000000c20       0x78 ../tecnica2_bsp//newlib/nios2-elf/lib\libc.a(lib_a-findfp.o)
 .debug_ranges  0x0000000000000c98       0x18 ../tecnica2_bsp//newlib/nios2-elf/lib\libc.a(lib_a-freer.o)
 .debug_ranges  0x0000000000000cb0       0x10 ../tecnica2_bsp//newlib/nios2-elf/lib\libc.a(lib_a-fvwrite.o)
 .debug_ranges  0x0000000000000cc0       0x18 ../tecnica2_bsp//newlib/nios2-elf/lib\libc.a(lib_a-fwalk.o)
 .debug_ranges  0x0000000000000cd8       0x10 ../tecnica2_bsp//newlib/nios2-elf/lib\libc.a(lib_a-gettimeofdayr.o)
 .debug_ranges  0x0000000000000ce8       0x48 ../tecnica2_bsp//newlib/nios2-elf/lib\libc.a(lib_a-locale.o)
 .debug_ranges  0x0000000000000d30       0x10 ../tecnica2_bsp//newlib/nios2-elf/lib\libc.a(lib_a-makebuf.o)
 .debug_ranges  0x0000000000000d40       0x18 ../tecnica2_bsp//newlib/nios2-elf/lib\libc.a(lib_a-mallocr.o)
 .debug_ranges  0x0000000000000d58       0x10 ../tecnica2_bsp//newlib/nios2-elf/lib\libc.a(lib_a-memchr.o)
 .debug_ranges  0x0000000000000d68       0x10 ../tecnica2_bsp//newlib/nios2-elf/lib\libc.a(lib_a-memcpy.o)
 .debug_ranges  0x0000000000000d78       0x10 ../tecnica2_bsp//newlib/nios2-elf/lib\libc.a(lib_a-memmove.o)
 .debug_ranges  0x0000000000000d88       0x10 ../tecnica2_bsp//newlib/nios2-elf/lib\libc.a(lib_a-memset.o)
 .debug_ranges  0x0000000000000d98       0xa0 ../tecnica2_bsp//newlib/nios2-elf/lib\libc.a(lib_a-mprec.o)
 .debug_ranges  0x0000000000000e38       0x18 ../tecnica2_bsp//newlib/nios2-elf/lib\libc.a(lib_a-putc.o)
 .debug_ranges  0x0000000000000e50       0x40 ../tecnica2_bsp//newlib/nios2-elf/lib\libc.a(lib_a-reallocr.o)
 .debug_ranges  0x0000000000000e90       0x10 ../tecnica2_bsp//newlib/nios2-elf/lib\libc.a(lib_a-sbrkr.o)
 .debug_ranges  0x0000000000000ea0       0x30 ../tecnica2_bsp//newlib/nios2-elf/lib\libc.a(lib_a-stdio.o)
 .debug_ranges  0x0000000000000ed0       0x10 ../tecnica2_bsp//newlib/nios2-elf/lib\libc.a(lib_a-strcmp.o)
 .debug_ranges  0x0000000000000ee0       0x40 ../tecnica2_bsp//newlib/nios2-elf/lib\libc.a(lib_a-vfiprintf.o)
 .debug_ranges  0x0000000000000f20       0x18 ../tecnica2_bsp//newlib/nios2-elf/lib\libc.a(lib_a-wbuf.o)
 .debug_ranges  0x0000000000000f38       0x10 ../tecnica2_bsp//newlib/nios2-elf/lib\libc.a(lib_a-writer.o)
 .debug_ranges  0x0000000000000f48       0x10 ../tecnica2_bsp//newlib/nios2-elf/lib\libc.a(closer.o)
 .debug_ranges  0x0000000000000f58       0x10 ../tecnica2_bsp//newlib/nios2-elf/lib\libc.a(lib_a-callocr.o)
 .debug_ranges  0x0000000000000f68       0x18 ../tecnica2_bsp//newlib/nios2-elf/lib\libc.a(lib_a-fclose.o)
 .debug_ranges  0x0000000000000f80       0x20 ../tecnica2_bsp//newlib/nios2-elf/lib\libc.a(lib_a-fputwc.o)
 .debug_ranges  0x0000000000000fa0       0x10 ../tecnica2_bsp//newlib/nios2-elf/lib\libc.a(lib_a-fstatr.o)
 .debug_ranges  0x0000000000000fb0       0x10 ../tecnica2_bsp//newlib/nios2-elf/lib\libc.a(lib_a-isattyr.o)
 .debug_ranges  0x0000000000000fc0       0x10 ../tecnica2_bsp//newlib/nios2-elf/lib\libc.a(lib_a-lseekr.o)
 .debug_ranges  0x0000000000000fd0       0x10 ../tecnica2_bsp//newlib/nios2-elf/lib\libc.a(lib_a-readr.o)
 .debug_ranges  0x0000000000000fe0       0x18 ../tecnica2_bsp//newlib/nios2-elf/lib\libc.a(lib_a-wcrtomb.o)
 .debug_ranges  0x0000000000000ff8       0x18 ../tecnica2_bsp//newlib/nios2-elf/lib\libc.a(lib_a-wctomb_r.o)
 .debug_ranges  0x0000000000001010       0x18 c:/intelfpga/17.1/nios2eds/bin/gnu/h-x86_64-mingw32/bin/../lib/gcc/nios2-elf/5.3.0\libgcc.a(_muldi3.o)
 .debug_ranges  0x0000000000001028      0x158 c:/intelfpga/17.1/nios2eds/bin/gnu/h-x86_64-mingw32/bin/../lib/gcc/nios2-elf/5.3.0\libgcc.a(_udivdi3.o)
 .debug_ranges  0x0000000000001180      0x160 c:/intelfpga/17.1/nios2eds/bin/gnu/h-x86_64-mingw32/bin/../lib/gcc/nios2-elf/5.3.0\libgcc.a(_umoddi3.o)
 .debug_ranges  0x00000000000012e0       0x30 c:/intelfpga/17.1/nios2eds/bin/gnu/h-x86_64-mingw32/bin/../lib/gcc/nios2-elf/5.3.0\libgcc.a(fixdfsi.o)
 .debug_ranges  0x0000000000001310       0x20 c:/intelfpga/17.1/nios2eds/bin/gnu/h-x86_64-mingw32/bin/../lib/gcc/nios2-elf/5.3.0\libgcc.a(floatsidf.o)
 .debug_ranges  0x0000000000001330       0x18 c:/intelfpga/17.1/nios2eds/bin/gnu/h-x86_64-mingw32/bin/../lib/gcc/nios2-elf/5.3.0\libgcc.a(floatunsidf.o)
 .debug_ranges  0x0000000000001348       0x30 ../tecnica2_bsp/\libhal_bsp.a(altera_avalon_jtag_uart_init.o)
 .debug_ranges  0x0000000000001378       0x18 ../tecnica2_bsp/\libhal_bsp.a(altera_avalon_jtag_uart_read.o)
 .debug_ranges  0x0000000000001390       0x28 ../tecnica2_bsp/\libhal_bsp.a(alt_irq_entry.o)
 .debug_ranges  0x00000000000013b8       0x10 ../tecnica2_bsp/\libhal_bsp.a(alt_irq_handler.o)
 .debug_ranges  0x00000000000013c8       0x30 ../tecnica2_bsp/\libhal_bsp.a(alt_exception_entry.o)
 .debug_ranges  0x00000000000013f8       0x18 ../tecnica2_bsp/\libhal_bsp.a(alt_instruction_exception_entry.o)
 .debug_ranges  0x0000000000001410       0x10 ../tecnica2_bsp//newlib/nios2-elf/lib\libc.a(lib_a-atexit.o)
 .debug_ranges  0x0000000000001420       0x10 ../tecnica2_bsp//newlib/nios2-elf/lib\libc.a(lib_a-exit.o)
 .debug_ranges  0x0000000000001430       0x10 ../tecnica2_bsp//newlib/nios2-elf/lib\libc.a(lib_a-memcmp.o)
 .debug_ranges  0x0000000000001440       0x10 ../tecnica2_bsp//newlib/nios2-elf/lib\libc.a(lib_a-__atexit.o)
 .debug_ranges  0x0000000000001450       0x10 ../tecnica2_bsp//newlib/nios2-elf/lib\libc.a(lib_a-__call_atexit.o)
