
RTOS_Embedded.elf:     file format elf32-littlenios2
RTOS_Embedded.elf
architecture: nios2:r1, flags 0x00000112:
EXEC_P, HAS_SYMS, D_PAGED
start address 0x00000248

Program Header:
    LOAD off    0x00001000 vaddr 0x00000000 paddr 0x00000000 align 2**12
         filesz 0x00000020 memsz 0x00000020 flags r-x
    LOAD off    0x00001020 vaddr 0x00000020 paddr 0x00000020 align 2**12
         filesz 0x0001fbb4 memsz 0x0001fbb4 flags r-x
    LOAD off    0x00020bd4 vaddr 0x0001fbd4 paddr 0x00021be4 align 2**12
         filesz 0x00002010 memsz 0x00002010 flags rw-
    LOAD off    0x00022bf4 vaddr 0x00023bf4 paddr 0x00023bf4 align 2**12
         filesz 0x00000000 memsz 0x0000d3ec flags rw-

Sections:
Idx Name          Size      VMA       LMA       File off  Algn
  0 .entry        00000020  00000000  00000000  00001000  2**5
                  CONTENTS, ALLOC, LOAD, READONLY, CODE
  1 .exceptions   00000228  00000020  00000020  00001020  2**2
                  CONTENTS, ALLOC, LOAD, READONLY, CODE
  2 .text         0001f354  00000248  00000248  00001248  2**2
                  CONTENTS, ALLOC, LOAD, READONLY, CODE
  3 .rodata       00000638  0001f59c  0001f59c  0002059c  2**2
                  CONTENTS, ALLOC, LOAD, READONLY, DATA
  4 .rwdata       00002010  0001fbd4  00021be4  00020bd4  2**2
                  CONTENTS, ALLOC, LOAD, DATA, SMALL_DATA
  5 .bss          0000d3ec  00023bf4  00023bf4  00022bf4  2**2
                  ALLOC, SMALL_DATA
  6 .sdram        00000000  00030fe0  00030fe0  00022be4  2**0
                  CONTENTS
  7 .flash_controller 00000000  08000000  08000000  00022be4  2**0
                  CONTENTS
  8 .onchip_memory 00000000  08800000  08800000  00022be4  2**0
                  CONTENTS
  9 .comment      00000023  00000000  00000000  00022be4  2**0
                  CONTENTS, READONLY
 10 .debug_aranges 000012a8  00000000  00000000  00022c08  2**3
                  CONTENTS, READONLY, DEBUGGING
 11 .debug_info   00034f86  00000000  00000000  00023eb0  2**0
                  CONTENTS, READONLY, DEBUGGING
 12 .debug_abbrev 0000c40c  00000000  00000000  00058e36  2**0
                  CONTENTS, READONLY, DEBUGGING
 13 .debug_line   00010f01  00000000  00000000  00065242  2**0
                  CONTENTS, READONLY, DEBUGGING
 14 .debug_frame  000041c8  00000000  00000000  00076144  2**2
                  CONTENTS, READONLY, DEBUGGING
 15 .debug_str    00005c87  00000000  00000000  0007a30c  2**0
                  CONTENTS, READONLY, DEBUGGING
 16 .debug_loc    0001c53f  00000000  00000000  0007ff93  2**0
                  CONTENTS, READONLY, DEBUGGING
 17 .debug_alt_sim_info 00000060  00000000  00000000  0009c4d4  2**2
                  CONTENTS, READONLY, DEBUGGING
 18 .debug_ranges 00001a88  00000000  00000000  0009c538  2**3
                  CONTENTS, READONLY, DEBUGGING
 19 .thread_model 00000006  00000000  00000000  000a40ee  2**0
                  CONTENTS, READONLY
 20 .cpu          00000003  00000000  00000000  000a40f4  2**0
                  CONTENTS, READONLY
 21 .qsys         00000001  00000000  00000000  000a40f7  2**0
                  CONTENTS, READONLY
 22 .simulation_enabled 00000001  00000000  00000000  000a40f8  2**0
                  CONTENTS, READONLY
 23 .sysid_hash   00000004  00000000  00000000  000a40f9  2**0
                  CONTENTS, READONLY
 24 .sysid_base   00000004  00000000  00000000  000a40fd  2**0
                  CONTENTS, READONLY
 25 .sysid_time   00000004  00000000  00000000  000a4101  2**0
                  CONTENTS, READONLY
 26 .stderr_dev   00000009  00000000  00000000  000a4105  2**0
                  CONTENTS, READONLY
 27 .stdin_dev    00000009  00000000  00000000  000a410e  2**0
                  CONTENTS, READONLY
 28 .stdout_dev   00000009  00000000  00000000  000a4117  2**0
                  CONTENTS, READONLY
 29 .sopc_system_name 00000014  00000000  00000000  000a4120  2**0
                  CONTENTS, READONLY
 30 .quartus_project_dir 0000003b  00000000  00000000  000a4134  2**0
                  CONTENTS, READONLY
 31 .jdi          000040b5  00000000  00000000  000a416f  2**0
                  CONTENTS, READONLY
 32 .sopcinfo     000ed2af  00000000  00000000  000a8224  2**0
                  CONTENTS, READONLY
SYMBOL TABLE:
00000000 l    d  .entry	00000000 .entry
00000020 l    d  .exceptions	00000000 .exceptions
00000248 l    d  .text	00000000 .text
0001f59c l    d  .rodata	00000000 .rodata
0001fbd4 l    d  .rwdata	00000000 .rwdata
00023bf4 l    d  .bss	00000000 .bss
00030fe0 l    d  .sdram	00000000 .sdram
08000000 l    d  .flash_controller	00000000 .flash_controller
08800000 l    d  .onchip_memory	00000000 .onchip_memory
00000000 l    d  .comment	00000000 .comment
00000000 l    d  .debug_aranges	00000000 .debug_aranges
00000000 l    d  .debug_info	00000000 .debug_info
00000000 l    d  .debug_abbrev	00000000 .debug_abbrev
00000000 l    d  .debug_line	00000000 .debug_line
00000000 l    d  .debug_frame	00000000 .debug_frame
00000000 l    d  .debug_str	00000000 .debug_str
00000000 l    d  .debug_loc	00000000 .debug_loc
00000000 l    d  .debug_alt_sim_info	00000000 .debug_alt_sim_info
00000000 l    d  .debug_ranges	00000000 .debug_ranges
00000000 l    df *ABS*	00000000 ../RTOS_Embedded_bsp//obj/HAL/src/crt0.o
00000290 l       .text	00000000 alt_after_alt_main
00000000 l    df *ABS*	00000000 alt_irq_handler.c
00000000 l    df *ABS*	00000000 alt_instruction_exception_entry.c
00000000 l    df *ABS*	00000000 Chs_UcosII.c
00000000 l    df *ABS*	00000000 MTL.c
00000000 l    df *ABS*	00000000 app_config.c
00000000 l    df *ABS*	00000000 isr.c
00023bf4 l     O .bss	00000004 num_int.3230
00000000 l    df *ABS*	00000000 lcd.c
00000000 l    df *ABS*	00000000 ledg.c
00000000 l    df *ABS*	00000000 task_config.c
00000000 l    df *ABS*	00000000 printf.c
00000000 l    df *ABS*	00000000 puts.c
00000000 l    df *ABS*	00000000 sprintf.c
00000000 l    df *ABS*	00000000 strlen.c
00000000 l    df *ABS*	00000000 vfprintf.c
0001f666 l     O .rodata	00000010 zeroes.4389
0001f676 l     O .rodata	00000010 blanks.4388
00000000 l    df *ABS*	00000000 vfprintf.c
0001f686 l     O .rodata	00000010 zeroes.4404
000055f8 l     F .text	000000bc __sbprintf
0001f696 l     O .rodata	00000010 blanks.4403
00000000 l    df *ABS*	00000000 wsetup.c
00000000 l    df *ABS*	00000000 dtoa.c
00005808 l     F .text	00000200 quorem
00000000 l    df *ABS*	00000000 fflush.c
00000000 l    df *ABS*	00000000 findfp.c
00007338 l     F .text	00000008 __fp_unlock
0000734c l     F .text	0000019c __sinit.part.1
000074e8 l     F .text	00000008 __fp_lock
00000000 l    df *ABS*	00000000 mallocr.c
00000000 l    df *ABS*	00000000 fvwrite.c
00000000 l    df *ABS*	00000000 fwalk.c
00000000 l    df *ABS*	00000000 impure.c
0001fc64 l     O .rwdata	00000424 impure_data
00000000 l    df *ABS*	00000000 locale.c
000200a8 l     O .rwdata	00000020 lc_ctype_charset
00020088 l     O .rwdata	00000020 lc_message_charset
000200c8 l     O .rwdata	00000038 lconv
00000000 l    df *ABS*	00000000 makebuf.c
00000000 l    df *ABS*	00000000 mallocr.c
00000000 l    df *ABS*	00000000 memchr.c
00000000 l    df *ABS*	00000000 memcpy.c
00000000 l    df *ABS*	00000000 memmove.c
00000000 l    df *ABS*	00000000 memset.c
00000000 l    df *ABS*	00000000 mprec.c
0001f6c8 l     O .rodata	0000000c p05.2768
00000000 l    df *ABS*	00000000 mallocr.c
00000000 l    df *ABS*	00000000 s_fpclassify.c
00000000 l    df *ABS*	00000000 sbrkr.c
00000000 l    df *ABS*	00000000 stdio.c
00000000 l    df *ABS*	00000000 strcmp.c
00000000 l    df *ABS*	00000000 vfprintf.c
0001f7fc l     O .rodata	00000010 blanks.4332
0001f7ec l     O .rodata	00000010 zeroes.4333
00000000 l    df *ABS*	00000000 vfprintf.c
0000bcf0 l     F .text	000000fc __sprint_r.part.0
0001f81c l     O .rodata	00000010 blanks.4348
0001f80c l     O .rodata	00000010 zeroes.4349
0000d27c l     F .text	000000bc __sbprintf
00000000 l    df *ABS*	00000000 writer.c
00000000 l    df *ABS*	00000000 closer.c
00000000 l    df *ABS*	00000000 mallocr.c
00000000 l    df *ABS*	00000000 fclose.c
00000000 l    df *ABS*	00000000 fputwc.c
00000000 l    df *ABS*	00000000 fstatr.c
00000000 l    df *ABS*	00000000 int_errno.c
00000000 l    df *ABS*	00000000 isattyr.c
00000000 l    df *ABS*	00000000 lseekr.c
00000000 l    df *ABS*	00000000 readr.c
00000000 l    df *ABS*	00000000 wbuf.c
00000000 l    df *ABS*	00000000 wcrtomb.c
00000000 l    df *ABS*	00000000 wctomb_r.c
00000000 l    df *ABS*	00000000 libgcc2.c
00000000 l    df *ABS*	00000000 libgcc2.c
00000000 l    df *ABS*	00000000 lib2-divmod.c
00000000 l    df *ABS*	00000000 adddf3.c
00000000 l    df *ABS*	00000000 divdf3.c
00000000 l    df *ABS*	00000000 eqdf2.c
00000000 l    df *ABS*	00000000 gedf2.c
00000000 l    df *ABS*	00000000 ledf2.c
00000000 l    df *ABS*	00000000 muldf3.c
00000000 l    df *ABS*	00000000 subdf3.c
00000000 l    df *ABS*	00000000 fixdfsi.c
00000000 l    df *ABS*	00000000 floatsidf.c
00000000 l    df *ABS*	00000000 floatunsidf.c
00000000 l    df *ABS*	00000000 libgcc2.c
00000000 l    df *ABS*	00000000 libgcc2.c
00000000 l    df *ABS*	00000000 alt_close.c
00010f38 l     F .text	0000003c alt_get_errno
00000000 l    df *ABS*	00000000 alt_dev.c
00011044 l     F .text	0000002c alt_dev_null_write
00000000 l    df *ABS*	00000000 alt_errno.c
00000000 l    df *ABS*	00000000 alt_fstat.c
00011070 l     F .text	0000003c alt_get_errno
00000000 l    df *ABS*	00000000 alt_irq_register.c
00000000 l    df *ABS*	00000000 alt_irq_vars.c
00000000 l    df *ABS*	00000000 alt_isatty.c
000112dc l     F .text	0000003c alt_get_errno
00000000 l    df *ABS*	00000000 alt_load.c
000113bc l     F .text	00000068 alt_load_section
00000000 l    df *ABS*	00000000 alt_lseek.c
000114a8 l     F .text	0000003c alt_get_errno
00000000 l    df *ABS*	00000000 alt_main.c
00000000 l    df *ABS*	00000000 alt_read.c
00011674 l     F .text	0000003c alt_get_errno
00000000 l    df *ABS*	00000000 alt_release_fd.c
00000000 l    df *ABS*	00000000 alt_sbrk.c
00021b54 l     O .rwdata	00000004 heap_end
00000000 l    df *ABS*	00000000 alt_write.c
000118c0 l     F .text	0000003c alt_get_errno
00000000 l    df *ABS*	00000000 alt_env_lock.c
00021b58 l     O .rwdata	00000004 lockid
00023c28 l     O .bss	00000004 locks
00000000 l    df *ABS*	00000000 alt_malloc_lock.c
00021b5c l     O .rwdata	00000004 lockid
00023c30 l     O .bss	00000004 locks
00000000 l    df *ABS*	00000000 os_core.c
000132f0 l     F .text	00000048 OS_InitMisc
00013338 l     F .text	0000006c OS_InitRdyList
000134a4 l     F .text	000000e4 OS_InitTCBList
00013210 l     F .text	000000e0 OS_InitEventList
000133a4 l     F .text	00000080 OS_InitTaskIdle
00013424 l     F .text	00000080 OS_InitTaskStat
00013714 l     F .text	00000074 OS_SchedNew
00000000 l    df *ABS*	00000000 os_dbg.c
00000000 l    df *ABS*	00000000 os_flag.c
00015424 l     F .text	000000f4 OS_FlagTaskRdy
000151e4 l     F .text	00000160 OS_FlagBlock
00000000 l    df *ABS*	00000000 os_mem.c
00000000 l    df *ABS*	00000000 os_q.c
00000000 l    df *ABS*	00000000 os_sem.c
00000000 l    df *ABS*	00000000 os_task.c
00000000 l    df *ABS*	00000000 os_time.c
00000000 l    df *ABS*	00000000 alt_sys_init.c
000194c8 l     F .text	00000034 alt_dev_reg
000206b0 l     O .rwdata	000000dc flash_controller
0002078c l     O .rwdata	0000106c jtag_uart
000217f8 l     O .rwdata	00000030 audio_config
00021828 l     O .rwdata	00000030 audio
00021858 l     O .rwdata	0000002c char_lcd
00021884 l     O .rwdata	0000002c green_leds
000218b0 l     O .rwdata	0000002c HEX3_HEX0
000218dc l     O .rwdata	0000002c HEX7_HEX4
00021908 l     O .rwdata	0000002c pushbuttons
00021934 l     O .rwdata	0000002c red_leds
00021960 l     O .rwdata	0000002c switches
0002198c l     O .rwdata	00000038 ps2_key
000219c4 l     O .rwdata	00000038 ps2_mouse
000219fc l     O .rwdata	0000002c serial_port
00021a28 l     O .rwdata	00000048 mtl_char_buffer
00021a70 l     O .rwdata	00000054 mtl_pixel_buffer_dma
00021ac4 l     O .rwdata	0000002c SD_Card
00000000 l    df *ABS*	00000000 altera_avalon_cfi_flash.c
00019908 l     F .text	00000034 alt_flash_device_register
00000000 l    df *ABS*	00000000 altera_avalon_cfi_flash_table.c
0001a758 l     F .text	00000080 alt_read_16bit_query_entry
00000000 l    df *ABS*	00000000 altera_avalon_jtag_uart_fd.c
00000000 l    df *ABS*	00000000 altera_avalon_jtag_uart_init.c
0001b888 l     F .text	000002a8 altera_avalon_jtag_uart_irq
0001bb30 l     F .text	00000104 altera_avalon_jtag_uart_timeout
00000000 l    df *ABS*	00000000 altera_avalon_jtag_uart_ioctl.c
00000000 l    df *ABS*	00000000 altera_avalon_jtag_uart_read.c
00000000 l    df *ABS*	00000000 altera_avalon_jtag_uart_write.c
00000000 l    df *ABS*	00000000 altera_avalon_timer_sc.c
0001c30c l     F .text	0000007c alt_avalon_timer_sc_irq
00000000 l    df *ABS*	00000000 altera_up_avalon_character_lcd.c
00000000 l    df *ABS*	00000000 altera_up_avalon_ps2.c
00000000 l    df *ABS*	00000000 altera_up_avalon_rs232.c
00000000 l    df *ABS*	00000000 altera_up_avalon_video_character_buffer_with_dma.c
00000000 l    df *ABS*	00000000 alt_alarm_start.c
00000000 l    df *ABS*	00000000 alt_dcache_flush.c
00000000 l    df *ABS*	00000000 alt_dcache_flush_all.c
00000000 l    df *ABS*	00000000 alt_dev_llist_insert.c
0001d7fc l     F .text	0000003c alt_get_errno
00000000 l    df *ABS*	00000000 alt_do_ctors.c
00000000 l    df *ABS*	00000000 alt_do_dtors.c
00000000 l    df *ABS*	00000000 alt_find_dev.c
00000000 l    df *ABS*	00000000 alt_flash_dev.c
00000000 l    df *ABS*	00000000 alt_icache_flush_all.c
00000000 l    df *ABS*	00000000 alt_io_redirect.c
0001db1c l     F .text	000000c4 alt_open_fd
00000000 l    df *ABS*	00000000 alt_open.c
0001dc5c l     F .text	0000003c alt_get_errno
0001dc98 l     F .text	000000c4 alt_file_locked
00000000 l    df *ABS*	00000000 alt_tick.c
00000000 l    df *ABS*	00000000 altera_nios2_gen2_irq.c
00000000 l    df *ABS*	00000000 os_cpu_a.o
00000040 l       *ABS*	00000000 OSCtxSw_SWITCH_PC
00000000 l    df *ABS*	00000000 os_cpu_c.c
00000014 l       *ABS*	00000000 OSTCBNext_OFFSET
00000032 l       *ABS*	00000000 OSTCBPrio_OFFSET
00000000 l       *ABS*	00000000 OSTCBStkPtr_OFFSET
00000000 l    df *ABS*	00000000 altera_avalon_cfi_flash_amd.c
0001e764 l     F .text	000000cc alt_write_word_amd
0001e648 l     F .text	0000011c alt_wait_for_command_to_complete_amd
00000000 l    df *ABS*	00000000 altera_avalon_cfi_flash_intel.c
0001ea3c l     F .text	0000017c alt_unlock_block_intel
0001ebb8 l     F .text	000000d4 alt_write_word_intel
00000000 l    df *ABS*	00000000 alt_find_file.c
00000000 l    df *ABS*	00000000 alt_get_fd.c
00000000 l    df *ABS*	00000000 alt_icache_flush.c
00000000 l    df *ABS*	00000000 alt_usleep.c
00000000 l    df *ABS*	00000000 alt_busy_sleep.c
00000000 l    df *ABS*	00000000 atexit.c
00000000 l    df *ABS*	00000000 exit.c
00000000 l    df *ABS*	00000000 memcmp.c
00000000 l    df *ABS*	00000000 __atexit.c
00000000 l    df *ABS*	00000000 __call_atexit.c
00000000 l    df *ABS*	00000000 alt_exit.c
00023c90 g     O .bss	00000004 alt_instruction_exception_handler
00021b10 g     O .rwdata	00000004 SW_switch_ptr
00009f28 g     F .text	00000074 _mprec_log10
00021baa g     O .rwdata	00000002 OSTaskNameSize
0000a014 g     F .text	0000008c __any_on
0000d818 g     F .text	00000054 _isatty_r
0001f6d4 g     O .rodata	00000028 __mprec_tinytens
000115b8 g     F .text	000000bc alt_main
00000fdc g     F .text	000000c0 _puts_r
0001a21c g     F .text	00000040 alt_read_query_entry_32bit
0001cb3c g     F .text	00000060 alt_up_ps2_disable_read_interrupt
00030ee0 g     O .bss	00000100 alt_irq
0000d86c g     F .text	00000060 _lseek_r
00015c44 g     F .text	000000cc OS_MemInit
000199cc g     F .text	000002a8 alt_flash_cfi_write
00021be4 g       *ABS*	00000000 __flash_rwdata_start
00019468 g     F .text	00000060 OSTimeSet
0001c470 g     F .text	00000040 alt_up_character_lcd_send_cmd
0000fa64 g     F .text	00000088 .hidden __eqdf2
00011f64 g     F .text	00000610 OSEventPendMulti
00030fe0 g       *ABS*	00000000 __alt_heap_start
0001e2a4 g     F .text	00000024 OSTaskCreateHook
00023cbc g     O .bss	00002000 task1_stk
00000fa0 g     F .text	0000003c printf
00021b82 g     O .rwdata	00000002 OSMboxEn
000125cc g     F .text	0000004c OSIntEnter
0000da84 g     F .text	0000009c _wcrtomb_r
0000a7a4 g     F .text	0000005c __sseek
00007688 g     F .text	00000010 __sinit
0001d4b8 g     F .text	000000fc alt_up_char_buffer_string
0000d92c g     F .text	00000140 __swbuf_r
0001c954 g     F .text	00000034 read_CE_bit
00021b92 g     O .rwdata	00000002 OSQEn
00008150 g     F .text	0000007c _setlocale_r
000074f0 g     F .text	00000068 __sfmoreglue
00011c38 g     F .text	000000cc __malloc_unlock
0001e30c g     F .text	00000020 OSTaskStatHook
0001ccdc g     F .text	0000009c alt_up_ps2_read_data_byte_timeout
0001d1d0 g     F .text	00000090 alt_up_rs232_read_fd
00000894 g     F .text	00000074 ledg_OFF
00023c38 g     O .bss	00000001 OSLockNesting
00000738 g     F .text	00000060 LCD_cursor
00021bd0 g     O .rwdata	00000002 OSDataSize
00023c39 g     O .bss	00000001 OSRunning
0001d3ec g     F .text	000000cc alt_up_char_buffer_draw
00008e20 g     F .text	0000015c memmove
0001e34c g     F .text	00000020 OSInitHookBegin
00021bc8 g     O .rwdata	00000002 OSTmrSize
00007670 g     F .text	00000018 _cleanup
000090a4 g     F .text	000000a8 _Balloc
00023c3c g     O .bss	00000004 OSIdleCtr
0000faec g     F .text	000000dc .hidden __gtdf2
0001e054 g     F .text	00000024 altera_nios2_gen2_irq_init
0001e124 g       .text	00000000 OSStartTsk
0001c3fc g     F .text	00000074 get_DDRAM_addr
00013a44 g     F .text	000002d4 OS_TCBInit
0001a3b4 g     F .text	00000050 alt_write_flash_command_32bit_device_16bit_mode
00000000 g     F .entry	0000001c __reset
00021bce g     O .rwdata	00000002 OSTmrWheelTblSize
00000020 g       *ABS*	00000000 __flash_exceptions_start
00021b6e g     O .rwdata	00000002 OSEventSize
00023c40 g     O .bss	00000001 OSPrioHighRdy
0000d7bc g     F .text	0000005c _fstat_r
0001e2c8 g     F .text	00000024 OSTaskDelHook
00019ec0 g     F .text	000002e0 alt_flash_program_block
00023c10 g     O .bss	00000004 errno
0000a720 g     F .text	00000008 __seofread
0001e104 g       .text	00000000 OSStartHighRdy
00017f10 g     F .text	000001e4 OSTaskCreateExt
0000aab4 g     F .text	0000123c ___svfiprintf_internal_r
00014d2c g     F .text	00000060 OSFlagPendGetFlagsRdy
00021bae g     O .rwdata	00000002 OSTaskStatStkSize
00013ea8 g     F .text	00000308 OSFlagAccept
0001627c g     F .text	000000b8 OSQFlush
00015d10 g     F .text	00000140 OSQAccept
00023c20 g     O .bss	00000004 alt_argv
00029af0 g       *ABS*	00000000 _gp
0001ef9c g     F .text	00000114 usleep
00021b14 g     O .rwdata	00000004 LCD_display_ptr
00017d64 g     F .text	000001ac OSTaskCreate
00017874 g     F .text	000004f0 OSTaskChangePrio
00023c34 g     O .bss	00000004 alt_heapsem
00000c9c g     F .text	000000a8 task4
00013d18 g     F .text	00000190 OSDebugInit
000180f4 g     F .text	00000344 OSTaskDel
0001fbd4 g     O .rwdata	00000032 texto_up
00020530 g     O .rwdata	00000180 alt_fd_list
0002dcbc g     O .bss	00000370 OSFlagTbl
00000500 g     F .text	00000104 Init_App
00012ff0 g     F .text	000000b8 OS_EventTaskRemove
0001d99c g     F .text	00000090 alt_find_dev
00008cd8 g     F .text	00000148 memcpy
00021b98 g     O .rwdata	00000002 OSRdyTblSize
0001c618 g     F .text	00000050 alt_up_character_lcd_write_fd
0001d5b4 g     F .text	0000005c alt_up_char_buffer_clear
00007340 g     F .text	0000000c _cleanup_r
00010d50 g     F .text	000000dc .hidden __floatsidf
0001dbe0 g     F .text	0000007c alt_io_redirect
0000fbc8 g     F .text	000000f4 .hidden __ltdf2
0001f59c g       *ABS*	00000000 __DTOR_END__
0001d15c g     F .text	00000074 alt_up_rs232_read_data
0000109c g     F .text	00000014 puts
0001ef00 g     F .text	0000009c alt_exception_cause_generated_bad_addr
00011d04 g     F .text	00000120 OSEventNameGet
00021b7c g     O .rwdata	00000002 OSFlagMax
0000a604 g     F .text	00000074 __fpclassifyd
00021afc g     O .rwdata	00000004 red_LED_ptr
00009e84 g     F .text	000000a4 __ratio
00012618 g     F .text	000000f8 OSIntExit
00021b08 g     O .rwdata	00000004 HEX7_HEX4_ptr
08000000 g       *ABS*	00000000 __alt_mem_flash_controller
0000d260 g     F .text	0000001c __vfiprintf_internal
00021bb6 g     O .rwdata	00000002 OSTCBSize
00023c41 g     O .bss	00000001 OSPrioCur
0001bd8c g     F .text	000002bc altera_avalon_jtag_uart_read
00000f70 g     F .text	00000030 _printf_r
00000798 g     F .text	00000060 LCD_text
0000e814 g     F .text	00000064 .hidden __udivsi3
00011318 g     F .text	000000a4 isatty
00021b9c g     O .rwdata	00000002 OSStkWidth
0001f724 g     O .rodata	000000c8 __mprec_tens
00021b90 g     O .rwdata	00000002 OSPtrSize
000081cc g     F .text	0000000c __locale_charset
00021b70 g     O .rwdata	00000002 OSEventTblSize
0001e078 g       .text	00000000 OSCtxSw
0001ee70 g     F .text	00000090 alt_icache_flush
00000400 g     F .text	00000100 borra_lineas_pantalla
00023c0c g     O .bss	00000004 __malloc_top_pad
00023c44 g     O .bss	00000004 OSTCBList
00023c14 g     O .bss	00000004 alt_fd_list_lock
00021b28 g     O .rwdata	00000004 __mb_cur_max
000081fc g     F .text	0000000c _localeconv_r
000094b0 g     F .text	0000003c __i2b
00007b0c g     F .text	000004bc __sfvwrite_r
0002e02c g     O .bss	00000c30 OSMemTbl
00023c48 g     O .bss	00000001 OSTickStepState
0000a678 g     F .text	00000054 _sbrk_r
0001e830 g     F .text	00000080 alt_program_intel
00021b94 g     O .rwdata	00000002 OSQMax
0002ec5c g     O .bss	00000800 OSTaskStatStk
00015880 g     F .text	000000f0 OSMemNameGet
00025cbc g     O .bss	00002000 task4_stk
00021b74 g     O .rwdata	00000002 OSFlagEn
0000d8cc g     F .text	00000060 _read_r
00021bba g     O .rwdata	00000002 OSTimeTickHookEn
0001d73c g     F .text	00000078 alt_dcache_flush
0001672c g     F .text	00000168 OSQPost
00015518 g     F .text	000000a4 OS_FlagUnlink
00021b48 g     O .rwdata	00000004 alt_max_fd
0001d0d8 g     F .text	00000044 alt_up_rs232_check_parity
0001a1a0 g     F .text	0000003c alt_read_query_entry_8bit
000135dc g     F .text	00000068 OS_MemCopy
00013644 g     F .text	000000d0 OS_Sched
0000d4b0 g     F .text	000000f0 _fclose_r
00015790 g     F .text	000000f0 OSMemGet
00018720 g     F .text	000001b4 OSTaskNameSet
0001c988 g     F .text	00000030 read_num_bytes_available
0001e8b0 g     F .text	0000018c alt_erase_block_intel
00007308 g     F .text	00000030 fflush
00023c08 g     O .bss	00000004 __malloc_max_sbrked_mem
00023c4c g     O .bss	00000004 OSCtxSwCtr
0001e32c g     F .text	00000020 OSTimeTickHook
0001115c g     F .text	00000180 alt_irq_register
00021b7e g     O .rwdata	00000002 OSFlagNameSize
0001c8f0 g     F .text	00000034 read_RI_bit
000130a8 g     F .text	00000100 OS_EventTaskRemoveMulti
0000e8d0 g     F .text	000008ac .hidden __adddf3
00012ea0 g     F .text	00000150 OS_EventTaskWaitMulti
00009c2c g     F .text	0000010c __b2d
00021b96 g     O .rwdata	00000002 OSQSize
0000e1e4 g     F .text	00000538 .hidden __umoddi3
000114e4 g     F .text	000000d4 lseek
000171dc g     F .text	0000020c OSSemPend
00021b20 g     O .rwdata	00000004 _global_impure_ptr
0000a0a0 g     F .text	00000564 _realloc_r
00021b80 g     O .rwdata	00000002 OSLowestPrio
00030fe0 g       *ABS*	00000000 __bss_end
0001e3ac g     F .text	00000024 OSTCBInitHook
00021bc6 g     O .rwdata	00000002 OSTmrCfgTicksPerSec
0001df4c g     F .text	00000108 alt_tick
0000dc6c g     F .text	00000578 .hidden __udivdi3
0000d718 g     F .text	00000024 _fputwc_r
00021b68 g     O .rwdata	00000002 OSEventEn
0001f6fc g     O .rodata	00000028 __mprec_bigtens
00009294 g     F .text	00000104 __s2b
00021bc2 g     O .rwdata	00000002 OSTmrCfgNameSize
00010e2c g     F .text	000000a8 .hidden __floatunsidf
0000996c g     F .text	00000060 __mcmp
0001c9ec g     F .text	0000002c read_data_byte
00021af4 g     O .rwdata	00000004 primera_linea
000076a8 g     F .text	00000018 __fp_lock_all
00015344 g     F .text	000000e0 OS_FlagInit
0001deb0 g     F .text	0000009c alt_alarm_stop
00021b0c g     O .rwdata	00000004 KEY_ptr
0001c924 g     F .text	00000030 read_RE_bit
00021ba4 g     O .rwdata	00000002 OSTaskIdleStkSize
0001fc08 g     O .rwdata	00000032 texto_down
00023c18 g     O .bss	00000004 alt_irq_active
00016e14 g     F .text	000000b0 OSSemAccept
00015a84 g     F .text	000000d8 OSMemPut
000155bc g     F .text	000001d4 OSMemCreate
00023c50 g     O .bss	00000004 OSIdleCtrMax
000000fc g     F .exceptions	000000d8 alt_irq_handler
00020508 g     O .rwdata	00000028 alt_dev_null
00021bb8 g     O .rwdata	00000002 OSTicksPerSec
00021b1c g     O .rwdata	00000004 character_buffer
0001c8b8 g     F .text	00000038 alt_up_character_lcd_cursor_blink_on
0001a6bc g     F .text	0000009c alt_set_flash_algorithm_func
0001e078 g       .text	00000000 OSIntCtxSw
0001cb9c g     F .text	00000074 alt_up_ps2_write_data_byte
0001d7b4 g     F .text	00000048 alt_dcache_flush_all
00009398 g     F .text	00000068 __hi0bits
00021b04 g     O .rwdata	00000004 HEX3_HEX0_ptr
00010cd0 g     F .text	00000080 .hidden __fixdfsi
0001a25c g     F .text	00000044 alt_write_flash_command_8bit_device_8bit_mode
00023c54 g     O .bss	00000004 OSTCBFreeList
00021be4 g       *ABS*	00000000 __ram_rwdata_end
000173e8 g     F .text	0000016c OSSemPendAbort
08800000 g       *ABS*	00000000 __alt_mem_onchip_memory
00021b40 g     O .rwdata	00000008 alt_dev_list
000118fc g     F .text	000000f8 write
00021bbc g     O .rwdata	00000002 OSVersionNbr
00000d44 g     F .text	0000009c TaskInit
0001fbd4 g       *ABS*	00000000 __ram_rodata_end
000110ac g     F .text	000000b0 fstat
0001d260 g     F .text	00000094 alt_up_rs232_write_fd
0000fbc8 g     F .text	000000f4 .hidden __ledf2
0001b510 g     F .text	000000d8 alt_check_primary_table
00021b64 g     O .rwdata	00000004 OSEndiannessTest
000096e4 g     F .text	00000140 __pow5mult
0000be04 g     F .text	0000145c ___vfiprintf_internal_r
00023c00 g     O .bss	00000004 __nlocale_changed
00021af8 g     O .rwdata	00000004 ultima_linea
0000e878 g     F .text	00000058 .hidden __umodsi3
00019d00 g     F .text	00000064 alt_flash_cfi_read
0001a454 g     F .text	00000038 alt_write_native_8bit
00000374 g     F .text	0000008c MTL_text
00021b76 g     O .rwdata	00000002 OSFlagGrpSize
00030fe0 g       *ABS*	00000000 end
0001cecc g     F .text	00000098 alt_up_ps2_write_fd
0001a2a0 g     F .text	00000078 alt_write_flash_command_16bit_device_8bit_mode
0001d330 g     F .text	00000080 alt_up_char_buffer_init
0001a7d8 g     F .text	000005c8 alt_read_cfi_table
00000908 g     F .text	00000070 blinky_ledg
0001b74c g     F .text	0000013c altera_avalon_jtag_uart_init
000138ac g     F .text	000000cc OS_TaskStat
000001d4 g     F .exceptions	00000074 alt_instruction_exception_entry
0001f59c g       *ABS*	00000000 __CTOR_LIST__
08000000 g       *ABS*	00000000 __alt_stack_pointer
0001c388 g     F .text	00000074 alt_avalon_timer_sc_init
00010ed4 g     F .text	00000064 .hidden __clzsi2
0001c048 g     F .text	000002c4 altera_avalon_jtag_uart_write
0001993c g     F .text	00000090 alt_flash_cfi_init
00007698 g     F .text	00000004 __sfp_lock_acquire
00008bf4 g     F .text	000000e4 memchr
00013588 g     F .text	00000054 OS_MemClr
0001c524 g     F .text	0000007c alt_up_character_lcd_write
000033e4 g     F .text	000021f8 ___vfprintf_internal_r
0001e148 g     F .text	0000015c OSTaskStkInit
00000ac4 g     F .text	00000098 task1
000010b0 g     F .text	00000058 _sprintf_r
000077fc g     F .text	00000310 _free_r
000081d8 g     F .text	00000010 __locale_mb_cur_max
00012bf8 g     F .text	00000198 OS_EventTaskRdy
0001f3e8 g     F .text	00000180 __call_exitprocs
00023c58 g     O .bss	00000001 OSCPUUsage
00023bfc g     O .bss	00000004 __mlocale_changed
0001fc50 g     O .rwdata	00000014 text_bottom_row
00000604 g     F .text	00000134 pushbutton_isr
00021b2c g     O .rwdata	00000004 __malloc_sbrk_base
00000248 g     F .text	0000004c _start
00000b5c g     F .text	000000a8 task2
00023c88 g     O .bss	00000004 _alt_tick_rate
00016334 g     F .text	0000028c OSQPend
00018fe0 g     F .text	00000104 OSTimeDly
00009824 g     F .text	00000148 __lshift
00023c8c g     O .bss	00000004 _alt_nticks
000116b0 g     F .text	000000fc read
00019534 g     F .text	000003d4 alt_sys_init
0001c768 g     F .text	0000008c alt_up_character_lcd_shift_display
0000a8e4 g     F .text	000001d0 __ssprint_r
0001f2d0 g     F .text	00000118 __register_exitproc
00023c59 g     O .bss	00000001 OSTaskCtr
0001cde8 g     F .text	00000058 alt_up_ps2_clear_fifo
0001d09c g     F .text	0000003c alt_up_rs232_get_available_space_in_write_FIFO
0001a1dc g     F .text	00000040 alt_read_query_entry_16bit
000190e4 g     F .text	00000154 OSTimeDlyHMSM
000094ec g     F .text	000001f8 __multiply
0001c7f4 g     F .text	0000008c alt_up_character_lcd_erase_pos
0001bc34 g     F .text	00000068 altera_avalon_jtag_uart_close
0001fbd4 g       *ABS*	00000000 __ram_rwdata_start
0001f59c g       *ABS*	00000000 __ram_rodata_start
00023c94 g     O .bss	00000028 __malloc_current_mallinfo
00021b6a g     O .rwdata	00000002 OSEventMax
0001a4f8 g     F .text	000001c4 alt_set_flash_width_func
00009d38 g     F .text	0000014c __d2b
00017554 g     F .text	00000110 OSSemPost
0001279c g     F .text	000000dc OSSchedUnlock
0001b5e8 g     F .text	00000060 altera_avalon_jtag_uart_read_fd
0001ed94 g     F .text	000000dc alt_get_fd
00023c5c g     O .bss	00000004 OSMemFreeList
000128e8 g     F .text	000000b0 OSStatInit
0001f0b0 g     F .text	00000158 alt_busy_sleep
00015120 g     F .text	000000c4 OSFlagQuery
00021ba0 g     O .rwdata	00000002 OSTaskCreateExtEn
0000d398 g     F .text	00000054 _close_r
0001e438 g     F .text	00000210 alt_erase_block_amd
00000de0 g     F .text	00000068 CreateTasks
0001f254 g     F .text	0000007c memcmp
00012bd8 g     F .text	00000020 OS_Dummy
0001b6a8 g     F .text	00000050 altera_avalon_jtag_uart_close_fd
00030fe0 g       *ABS*	00000000 __alt_stack_base
0001b6f8 g     F .text	00000054 altera_avalon_jtag_uart_ioctl_fd
000056b4 g     F .text	00000154 __swsetup_r
0001ada0 g     F .text	00000770 alt_read_cfi_width
0002f45c g     O .bss	000001e0 OSQTbl
0000f17c g     F .text	000008e8 .hidden __divdf3
00007558 g     F .text	00000118 __sfp
00009f9c g     F .text	00000078 __copybits
00021af0 g     O .rwdata	00000004 linea
00020100 g     O .rwdata	00000408 __malloc_av_
000076a4 g     F .text	00000004 __sinit_lock_release
00023c60 g     O .bss	00000004 OSTCBHighRdy
0000fcbc g     F .text	00000718 .hidden __muldf3
0000a6cc g     F .text	00000054 __sread
00023c64 g     O .bss	00000004 OSQFreeList
0001cffc g     F .text	00000060 alt_up_rs232_disable_read_interrupt
0001ec8c g     F .text	00000108 alt_find_file
0001d838 g     F .text	000000a4 alt_dev_llist_insert
00011b18 g     F .text	00000120 __malloc_lock
00011810 g     F .text	000000b0 sbrk
0000120c g     F .text	000021d8 ___svfprintf_internal_r
00011e24 g     F .text	00000140 OSEventNameSet
000072ac g     F .text	0000005c _fflush_r
0000d3ec g     F .text	000000c4 _calloc_r
00023c68 g     O .bss	00000001 OSRdyGrp
00021bd4 g     O .rwdata	00000008 alt_flash_dev_list
0001a368 g     F .text	0000004c alt_write_flash_command_16bit_device_16bit_mode
00000e48 g     F .text	00000128 ListTask
00023bf4 g       *ABS*	00000000 __bss_start
00008f7c g     F .text	00000128 memset
00000294 g     F .text	00000034 main
00023c24 g     O .bss	00000004 alt_envp
00023c04 g     O .bss	00000004 __malloc_max_total_mem
0001d3b0 g     F .text	0000003c alt_up_char_buffer_open_dev
0001b648 g     F .text	00000060 altera_avalon_jtag_uart_write_fd
0000da6c g     F .text	00000018 __swbuf
0001f948 g     O .rodata	00000100 OSUnMapTbl
00021b9a g     O .rwdata	00000002 OSSemEn
000007f8 g     F .text	0000002c LCD_cursor_off
0001c6dc g     F .text	0000008c alt_up_character_lcd_shift_cursor
00014d8c g     F .text	00000394 OSFlagPost
0000a800 g     F .text	00000008 __sclose
08000000 g       *ABS*	00000000 __alt_heap_limit
0000d5a0 g     F .text	00000014 fclose
00012d90 g     F .text	00000110 OS_EventTaskWait
00027cbc g     O .bss	00002000 task2_stk
0001cd78 g     F .text	00000070 alt_up_ps2_read_data_byte
00013978 g     F .text	000000cc OS_TaskStatStkChk
00018438 g     F .text	00000150 OSTaskDelReq
00005a08 g     F .text	00001688 _dtoa_r
000083e8 g     F .text	0000080c _malloc_r
0000dbe0 g     F .text	00000030 __ascii_wctomb
00000978 g     F .text	00000058 ledg_OFF_All
00021b4c g     O .rwdata	00000004 alt_errno
00012878 g     F .text	00000070 OSStart
00029cbc g     O .bss	00002000 task3_stk
0001a404 g     F .text	00000050 alt_write_flash_command_32bit_device_32bit_mode
00011ab8 g     F .text	00000060 __env_unlock
00007fc8 g     F .text	000000c4 _fwalk
000188d4 g     F .text	000001d4 OSTaskResume
00015b5c g     F .text	000000e8 OSMemQuery
00021bac g     O .rwdata	00000002 OSTaskStatEn
00019d64 g     F .text	0000015c alt_write_value_to_flash
00021b86 g     O .rwdata	00000002 OSMemMax
00016894 g     F .text	00000170 OSQPostFront
0001cf64 g     F .text	0000003c alt_up_ps2_open_dev
0001a48c g     F .text	00000038 alt_write_native_16bit
0000e71c g     F .text	00000084 .hidden __divsi3
00023c69 g     O .bss	00000003 OSRdyTbl
00021b60 g     O .rwdata	00000002 OSDebugEn
0001c4e8 g     F .text	0000003c alt_up_character_lcd_open_dev
000076d8 g     F .text	00000124 _malloc_trim_r
0001cae0 g     F .text	0000005c alt_up_ps2_enable_read_interrupt
0001f59c g       *ABS*	00000000 __CTOR_END__
00021b78 g     O .rwdata	00000002 OSFlagNodeSize
00021bc0 g     O .rwdata	00000002 OSTmrCfgMax
0001c4b0 g     F .text	00000038 alt_up_character_lcd_init
0000a808 g     F .text	000000dc strcmp
00015e50 g     F .text	000001ac OSQCreate
00018588 g     F .text	00000198 OSTaskNameGet
0001f59c g       *ABS*	00000000 __flash_rodata_start
00016a04 g     F .text	0000020c OSQPostOpt
00012998 g     F .text	00000220 OSTimeTick
00021ba8 g     O .rwdata	00000002 OSTaskMax
0001f59c g       *ABS*	00000000 __DTOR_LIST__
00016ec4 g     F .text	000000d8 OSSemCreate
00021bcc g     O .rwdata	00000002 OSTmrWheelSize
0001d2f4 g     F .text	0000003c alt_up_rs232_open_dev
0000fa64 g     F .text	00000088 .hidden __nedf2
00021ba2 g     O .rwdata	00000002 OSTaskDelEn
00017664 g     F .text	00000110 OSSemQuery
00015ffc g     F .text	00000280 OSQDel
000165c0 g     F .text	0000016c OSQPendAbort
000194fc g     F .text	00000038 alt_irq_init
000117ac g     F .text	00000064 alt_release_fd
0001c9b8 g     F .text	00000034 read_data_valid
00001108 g     F .text	0000006c sprintf
0001c880 g     F .text	00000038 alt_up_character_lcd_cursor_off
0001f82c g     O .rodata	00000100 .hidden __clz_tab
00023bf8 g     O .bss	00000004 _PathLocale
00021b18 g     O .rwdata	00000004 pixel_buffer
0001cc78 g     F .text	00000064 alt_up_ps2_write_data_byte_with_ack
0001f208 g     F .text	00000014 atexit
0000d338 g     F .text	00000060 _write_r
00000a28 g     F .text	0000009c Mensaje_TaskMtl
00012710 g     F .text	0000008c OSSchedLock
00008208 g     F .text	00000018 setlocale
000141b0 g     F .text	00000108 OSFlagCreate
00021b24 g     O .rwdata	00000004 _impure_ptr
00023c1c g     O .bss	00000004 alt_argc
00007090 g     F .text	0000021c __sflush_r
0001d93c g     F .text	00000060 _do_dtors
000081f4 g     F .text	00000008 __locale_cjk_lang
00021b72 g     O .rwdata	00000002 OSEventMultiEn
000142b8 g     F .text	00000248 OSFlagDel
00023c6c g     O .bss	00000004 OSEventFreeList
00000020 g       .exceptions	00000000 alt_irq_entry
00009bc8 g     F .text	00000064 __ulp
00014774 g     F .text	000005b8 OSFlagPend
00021bbe g     O .rwdata	00000002 OSTmrEn
000076c0 g     F .text	00000018 __fp_unlock_all
00021b38 g     O .rwdata	00000008 alt_fs_list
00013788 g     F .text	00000074 OS_StrCopy
0001cfa0 g     F .text	0000005c alt_up_rs232_enable_read_interrupt
0001a318 g     F .text	00000050 alt_write_flash_command_32bit_device_8bit_mode
0001d11c g     F .text	00000040 alt_up_rs232_write_data
00021b88 g     O .rwdata	00000002 OSMemNameSize
0002bcbc g     O .bss	00002000 taskinit_stk
0001e36c g     F .text	00000020 OSInitHookEnd
00000020 g       *ABS*	00000000 __ram_exceptions_start
00021bb4 g     O .rwdata	00000002 OSTCBPrioTblMax
00008220 g     F .text	0000000c localeconv
00021bb0 g     O .rwdata	00000002 OSTaskStatStkChkEn
00021b84 g     O .rwdata	00000002 OSMemEn
00021b8e g     O .rwdata	00000002 OSMutexEn
00021be4 g       *ABS*	00000000 _edata
00030fe0 g       *ABS*	00000000 _end
0001da2c g     F .text	00000068 alt_flash_open_dev
00023c70 g     O .bss	00000001 OSIntNesting
0000d5b4 g     F .text	00000164 __fputwc
00000248 g       *ABS*	00000000 __ram_exceptions_end
0001bc9c g     F .text	000000f0 altera_avalon_jtag_uart_ioctl
00019238 g     F .text	000001d4 OSTimeDlyResume
00014628 g     F .text	0000014c OSFlagNameSet
00018aa8 g     F .text	000001c0 OSTaskStkChk
00021b8a g     O .rwdata	00000002 OSMemSize
0000a728 g     F .text	0000007c __swrite
00021b30 g     O .rwdata	00000004 __malloc_trim_threshold
0001fc3c g     O .rwdata	00000014 text_top_row
000081e8 g     F .text	0000000c __locale_msgcharset
00023c74 g     O .bss	00000004 OSTCBCur
0001f21c g     F .text	00000038 exit
00021b8c g     O .rwdata	00000002 OSMemTblSize
0000808c g     F .text	000000c4 _fwalk_reent
0001ca18 g     F .text	000000c8 alt_up_ps2_init
000099cc g     F .text	000001fc __mdiff
0001da94 g     F .text	00000054 alt_flash_close_dev
0000e7a0 g     F .text	00000074 .hidden __modsi3
08000000 g       *ABS*	00000000 __alt_data_end
00000020 g     F .exceptions	00000000 alt_exception
0000769c g     F .text	00000004 __sfp_lock_release
00012574 g     F .text	00000058 OSInit
00000000 g       *ABS*	00000000 __alt_mem_sdram
00018e4c g     F .text	00000124 OSTaskQuery
0001c5a0 g     F .text	00000078 alt_up_character_lcd_string
00016d6c g     F .text	000000a8 OS_QInit
000137fc g     F .text	00000054 OS_StrLen
000002c8 g     F .text	000000ac MTL_box
00015970 g     F .text	00000114 OSMemNameSet
00021ba6 g     O .rwdata	00000002 OSTaskProfileEn
00023c78 g     O .bss	00000004 OSTime
0002f63c g     O .bss	00000800 OSTaskIdleStk
0001f568 g     F .text	00000034 _exit
0001d610 g     F .text	0000012c alt_alarm_start
00014500 g     F .text	00000128 OSFlagNameGet
000009d0 g     F .text	00000058 ledg_ON_All
0001940c g     F .text	0000005c OSTimeGet
0000822c g     F .text	000001bc __smakebuf_r
0001a4c4 g     F .text	00000034 alt_write_native_32bit
0001cc10 g     F .text	00000068 alt_up_ps2_wait_for_ack
00001174 g     F .text	00000098 strlen
0001e2ec g     F .text	00000020 OSTaskSwHook
0001dd5c g     F .text	00000154 open
0002fe3c g     O .bss	00000b40 OSEventTbl
0000faec g     F .text	000000dc .hidden __gedf2
0003097c g     O .bss	00000510 OSTCBTbl
00017774 g     F .text	00000100 OSSemSet
00019c74 g     F .text	0000008c alt_flash_cfi_get_info
00021b34 g     O .rwdata	00000004 __wctomb
0000bdec g     F .text	00000018 __sprint_r
0001dae8 g     F .text	00000034 alt_icache_flush_all
00021b00 g     O .rwdata	00000004 green_LED_ptr
0001c668 g     F .text	00000074 alt_up_character_lcd_set_cursor_pos
00021b50 g     O .rwdata	00000004 alt_priority_mask
00016f9c g     F .text	00000240 OSSemDel
00023c7c g     O .bss	00000004 OSFlagFreeList
00000c04 g     F .text	00000098 task3
00021b6c g     O .rwdata	00000002 OSEventNameSize
000055dc g     F .text	0000001c __vfprintf_internal
00023c80 g     O .bss	00000001 OSStatRdy
00030e8c g     O .bss	00000054 OSTCBPrioTbl
0000dc10 g     F .text	0000005c _wctomb_r
000119f4 g     F .text	000000c4 __env_lock
0001ce40 g     F .text	0000008c alt_up_ps2_read_fd
00021bb2 g     O .rwdata	00000002 OSTaskSwHookEn
000103d4 g     F .text	000008fc .hidden __subdf3
00000824 g     F .text	00000070 ledg_ON
00009400 g     F .text	000000b0 __lo0bits
00021bdc g     O .rwdata	00000008 alt_alarm_list
00021b7a g     O .rwdata	00000002 OSFlagWidth
0001d8dc g     F .text	00000060 _do_ctors
0001d05c g     F .text	00000040 alt_up_rs232_get_used_space_in_read_FIFO
0000db20 g     F .text	000000c0 wcrtomb
00010f74 g     F .text	000000d0 close
0001e3d0 g     F .text	00000068 alt_program_amd
00023c2c g     O .bss	00000004 alt_envsem
00023c84 g     O .bss	00000004 OSIdleCtrRun
00012bb8 g     F .text	00000020 OSVersion
00021bc4 g     O .rwdata	00000002 OSTmrCfgWheelSize
00011424 g     F .text	00000084 alt_load
00018f70 g     F .text	00000070 OS_TaskStkClr
00021b9e g     O .rwdata	00000002 OSTaskCreateEn
000131a8 g     F .text	00000068 OS_EventWaitListInit
0000d73c g     F .text	00000080 fputwc
0001e38c g     F .text	00000020 OSTaskIdleHook
000076a0 g     F .text	00000004 __sinit_lock_acquire
00009174 g     F .text	00000120 __multadd
00018c68 g     F .text	000001e4 OSTaskSuspend
0000914c g     F .text	00000028 _Bfree
00013850 g     F .text	0000005c OS_TaskIdle
00021bca g     O .rwdata	00000002 OSTmrTblSize
00016c10 g     F .text	0000015c OSQQuery



Disassembly of section .entry:

00000000 <__reset>:
#if NIOS2_ICACHE_SIZE > 0 && defined(ALT_ALLOW_CODE_AT_RESET) && (!defined(ALT_SIM_OPTIMIZE) || defined(NIOS2_ECC_PRESENT))
    /* Assume the instruction cache size is always a power of two. */
#if NIOS2_ICACHE_SIZE > 0x8000
    movhi r2, %hi(NIOS2_ICACHE_SIZE)
#else
    movui r2, NIOS2_ICACHE_SIZE
   0:	00840014 	movui	r2,4096
#endif

0:
    initi r2
   4:	1001483a 	initi	r2
    addi r2, r2, -NIOS2_ICACHE_LINE_SIZE
   8:	10bff804 	addi	r2,r2,-32
    bgt r2, zero, 0b
   c:	00bffd16 	blt	zero,r2,4 <__alt_mem_onchip_memory+0xf7800004>
 * Jump to the _start entry point in the .text section if reset code
 * is allowed or if optimizing for RTL simulation.
 */
#if defined(ALT_ALLOW_CODE_AT_RESET) || defined(ALT_SIM_OPTIMIZE)
    /* Jump to the _start entry point in the .text section. */
    movhi r1, %hi(_start)
  10:	00400034 	movhi	at,0
    ori r1, r1, %lo(_start)
  14:	08409214 	ori	at,at,584
    jmp r1
  18:	0800683a 	jmp	at
  1c:	00000000 	call	0 <__reset>

Disassembly of section .exceptions:

00000020 <alt_exception>:

#else /* ALT_EXCEPTION_STACK disabled */
        /* 
         * Reserve space on normal stack for registers about to be pushed.
         */
        addi  sp, sp, -76
  20:	deffed04 	addi	sp,sp,-76
         * documentation for details).
         *
         * Leave a gap in the stack frame at 4(sp) for the muldiv handler to
         * store zero into.
         */
        stw   ra,  0(sp)
  24:	dfc00015 	stw	ra,0(sp)
        stw   r1,   8(sp)
  28:	d8400215 	stw	at,8(sp)
        stw   r2,  12(sp)
  2c:	d8800315 	stw	r2,12(sp)
        stw   r3,  16(sp)
  30:	d8c00415 	stw	r3,16(sp)
        stw   r4,  20(sp)
  34:	d9000515 	stw	r4,20(sp)
        stw   r5,  24(sp)
  38:	d9400615 	stw	r5,24(sp)
        stw   r6,  28(sp)
  3c:	d9800715 	stw	r6,28(sp)
        stw   r7,  32(sp)
  40:	d9c00815 	stw	r7,32(sp)
        rdctl r5, estatus   /* Read early to avoid usage stall */
  44:	000b307a 	rdctl	r5,estatus
        stw   r8,  36(sp)
  48:	da000915 	stw	r8,36(sp)
        stw   r9,  40(sp)
  4c:	da400a15 	stw	r9,40(sp)
        stw   r10, 44(sp)
  50:	da800b15 	stw	r10,44(sp)
        stw   r11, 48(sp)
  54:	dac00c15 	stw	r11,48(sp)
        stw   r12, 52(sp)
  58:	db000d15 	stw	r12,52(sp)
        stw   r13, 56(sp)
  5c:	db400e15 	stw	r13,56(sp)
        stw   r14, 60(sp)
  60:	db800f15 	stw	r14,60(sp)
        stw   r15, 64(sp)
  64:	dbc01015 	stw	r15,64(sp)
        /*
         * ea-4 contains the address of the instruction being executed
         * when the exception occured. For interrupt exceptions, we will
         * will be re-issue the isntruction. Store it in 72(sp)
         */
        stw   r5,  68(sp)  /* estatus */
  68:	d9401115 	stw	r5,68(sp)
        addi  r15, ea, -4  /* instruction that caused exception */
  6c:	ebffff04 	addi	r15,ea,-4
        stw   r15,  72(sp)
  70:	dbc01215 	stw	r15,72(sp)
#else
        /*
         * Test to see if the exception was a software exception or caused 
         * by an external interrupt, and vector accordingly.
         */
        rdctl r4, ipending
  74:	0009313a 	rdctl	r4,ipending
        andi  r2, r5, 1
  78:	2880004c 	andi	r2,r5,1
        beq   r2, zero, .Lnot_irq
  7c:	10000326 	beq	r2,zero,8c <OSCtxSw_SWITCH_PC+0x4c>
        beq   r4, zero, .Lnot_irq
  80:	20000226 	beq	r4,zero,8c <OSCtxSw_SWITCH_PC+0x4c>
        /*
         * Now that all necessary registers have been preserved, call 
         * alt_irq_handler() to process the interrupts.
         */

        call alt_irq_handler
  84:	00000fc0 	call	fc <alt_irq_handler>

        .section .exceptions.irqreturn, "xa"

        br    .Lexception_exit
  88:	00000706 	br	a8 <OSCtxSw_SWITCH_PC+0x68>
         * upon completion, so we write ea (address of instruction *after*
         * the one where the exception occured) into 72(sp). The actual
         * instruction that caused the exception is written in r2, which these
         * handlers will utilize.
         */
        stw ea, 72(sp) /* EA is PC+4 so will skip over instruction causing exception */
  8c:	df401215 	stw	ea,72(sp)
.Lunknown_16bit:
        addi.n r4, r4, 2 /* Need PC+2 to skip over instruction causing exception */
        stw r4, 72(sp)

#else /* CDX is not Enabled and all instructions are 32bits */
        ldw r2, -4(ea) /* Instruction value that caused exception */
  90:	e8bfff17 	ldw	r2,-4(ea)
         * debugger is present) or go into an infinite loop since the
         * handling behavior is undefined; in that case we will not return here.
         */

        /* Load exception-causing address as first argument (r4) */
        addi   r4, ea, -4
  94:	e93fff04 	addi	r4,ea,-4

        /* Call the instruction-exception entry */
        call   alt_instruction_exception_entry
  98:	00001d40 	call	1d4 <alt_instruction_exception_entry>
         * instruction
         *
         * Return code was 0: Skip. The instruction after the exception is
         * already stored in 72(sp).
         */
        bne   r2, r0, .Lexception_exit
  9c:	1000021e 	bne	r2,zero,a8 <OSCtxSw_SWITCH_PC+0x68>

        /*
         * Otherwise, modify 72(sp) to re-issue the instruction that caused the
         * exception.
         */
        addi  r15, ea, -4  /* instruction that caused exception */
  a0:	ebffff04 	addi	r15,ea,-4
        stw   r15,  72(sp)
  a4:	dbc01215 	stw	r15,72(sp)
        /* 
         * Restore the saved registers, so that all general purpose registers 
         * have been restored to their state at the time the interrupt occured.
         */

        ldw   r5,  68(sp)
  a8:	d9401117 	ldw	r5,68(sp)
        ldw   ea,  72(sp)  /* This becomes the PC once eret is executed */
  ac:	df401217 	ldw	ea,72(sp)
        ldw   ra,   0(sp)
  b0:	dfc00017 	ldw	ra,0(sp)

        wrctl estatus, r5
  b4:	2801707a 	wrctl	estatus,r5

        ldw   r1,   8(sp)
  b8:	d8400217 	ldw	at,8(sp)
        ldw   r2,  12(sp)
  bc:	d8800317 	ldw	r2,12(sp)
        ldw   r3,  16(sp)
  c0:	d8c00417 	ldw	r3,16(sp)
        ldw   r4,  20(sp)
  c4:	d9000517 	ldw	r4,20(sp)
        ldw   r5,  24(sp)
  c8:	d9400617 	ldw	r5,24(sp)
        ldw   r6,  28(sp)
  cc:	d9800717 	ldw	r6,28(sp)
        ldw   r7,  32(sp)
  d0:	d9c00817 	ldw	r7,32(sp)

#if defined(ALT_EXCEPTION_STACK) && defined(ALT_STACK_CHECK)
        ldw   et, %gprel(alt_exception_old_stack_limit)(gp)
#endif

        ldw   r8,  36(sp)
  d4:	da000917 	ldw	r8,36(sp)
        ldw   r9,  40(sp)
  d8:	da400a17 	ldw	r9,40(sp)
        ldw   r10, 44(sp)
  dc:	da800b17 	ldw	r10,44(sp)
        ldw   r11, 48(sp)
  e0:	dac00c17 	ldw	r11,48(sp)
        ldw   r12, 52(sp)
  e4:	db000d17 	ldw	r12,52(sp)
        ldw   r13, 56(sp)
  e8:	db400e17 	ldw	r13,56(sp)
        ldw   r14, 60(sp)
  ec:	db800f17 	ldw	r14,60(sp)
        ldw   r15, 64(sp)
  f0:	dbc01017 	ldw	r15,64(sp)
        stw   et, %gprel(alt_stack_limit_value)(gp)
        stw   zero, %gprel(alt_exception_old_stack_limit)(gp)
#endif /* ALT_STACK_CHECK */
        ldw   sp,  76(sp)
#else /* ALT_EXCEPTION_STACK disabled */
        addi  sp, sp, 76
  f4:	dec01304 	addi	sp,sp,76

        /*
         * Return to the interrupted instruction.
         */

        eret
  f8:	ef80083a 	eret

000000fc <alt_irq_handler>:
 * instruction is present if the macro ALT_CI_INTERRUPT_VECTOR defined.
 */

void alt_irq_handler (void) __attribute__ ((section (".exceptions")));
void alt_irq_handler (void)
{
  fc:	defff904 	addi	sp,sp,-28
 100:	dfc00615 	stw	ra,24(sp)
 104:	df000515 	stw	fp,20(sp)
 108:	df000504 	addi	fp,sp,20
  
  /*
   * Notify the operating system that we are at interrupt level.
   */ 
  
  ALT_OS_INT_ENTER();
 10c:	00125cc0 	call	125cc <OSIntEnter>
#ifndef NIOS2_EIC_PRESENT
static ALT_INLINE alt_u32 ALT_ALWAYS_INLINE alt_irq_pending (void)
{
  alt_u32 active;

  NIOS2_READ_IPENDING (active);
 110:	0005313a 	rdctl	r2,ipending
 114:	e0bffe15 	stw	r2,-8(fp)

  return active;
 118:	e0bffe17 	ldw	r2,-8(fp)
   * Consider the case where the high priority interupt is asserted during
   * the interrupt entry sequence for a lower priority interrupt to see why
   * this is the case.
   */

  active = alt_irq_pending ();
 11c:	e0bffb15 	stw	r2,-20(fp)

  do
  {
    i = 0;
 120:	e03ffd15 	stw	zero,-12(fp)
    mask = 1;
 124:	00800044 	movi	r2,1
 128:	e0bffc15 	stw	r2,-16(fp)
     * called to clear the interrupt condition.
     */

    do
    {
      if (active & mask)
 12c:	e0fffb17 	ldw	r3,-20(fp)
 130:	e0bffc17 	ldw	r2,-16(fp)
 134:	1884703a 	and	r2,r3,r2
 138:	10001526 	beq	r2,zero,190 <alt_irq_handler+0x94>
      { 
#ifdef ALT_ENHANCED_INTERRUPT_API_PRESENT
        alt_irq[i].handler(alt_irq[i].context); 
#else
        alt_irq[i].handler(alt_irq[i].context, i); 
 13c:	008000f4 	movhi	r2,3
 140:	1083b804 	addi	r2,r2,3808
 144:	e0fffd17 	ldw	r3,-12(fp)
 148:	180690fa 	slli	r3,r3,3
 14c:	10c5883a 	add	r2,r2,r3
 150:	10c00017 	ldw	r3,0(r2)
 154:	008000f4 	movhi	r2,3
 158:	1083b804 	addi	r2,r2,3808
 15c:	e13ffd17 	ldw	r4,-12(fp)
 160:	200890fa 	slli	r4,r4,3
 164:	1105883a 	add	r2,r2,r4
 168:	10800104 	addi	r2,r2,4
 16c:	10800017 	ldw	r2,0(r2)
 170:	e17ffd17 	ldw	r5,-12(fp)
 174:	1009883a 	mov	r4,r2
 178:	183ee83a 	callr	r3
#endif
        break;
 17c:	0001883a 	nop
#ifndef NIOS2_EIC_PRESENT
static ALT_INLINE alt_u32 ALT_ALWAYS_INLINE alt_irq_pending (void)
{
  alt_u32 active;

  NIOS2_READ_IPENDING (active);
 180:	0005313a 	rdctl	r2,ipending
 184:	e0bfff15 	stw	r2,-4(fp)

  return active;
 188:	e0bfff17 	ldw	r2,-4(fp)
 18c:	00000706 	br	1ac <alt_irq_handler+0xb0>
      }
      mask <<= 1;
 190:	e0bffc17 	ldw	r2,-16(fp)
 194:	1085883a 	add	r2,r2,r2
 198:	e0bffc15 	stw	r2,-16(fp)
      i++;
 19c:	e0bffd17 	ldw	r2,-12(fp)
 1a0:	10800044 	addi	r2,r2,1
 1a4:	e0bffd15 	stw	r2,-12(fp)

    } while (1);
 1a8:	003fe006 	br	12c <__alt_mem_onchip_memory+0xf780012c>

    active = alt_irq_pending ();
 1ac:	e0bffb15 	stw	r2,-20(fp)
    
  } while (active);
 1b0:	e0bffb17 	ldw	r2,-20(fp)
 1b4:	103fda1e 	bne	r2,zero,120 <__alt_mem_onchip_memory+0xf7800120>

  /*
   * Notify the operating system that interrupt processing is complete.
   */ 

  ALT_OS_INT_EXIT();
 1b8:	00126180 	call	12618 <OSIntExit>
}
 1bc:	0001883a 	nop
 1c0:	e037883a 	mov	sp,fp
 1c4:	dfc00117 	ldw	ra,4(sp)
 1c8:	df000017 	ldw	fp,0(sp)
 1cc:	dec00204 	addi	sp,sp,8
 1d0:	f800283a 	ret

000001d4 <alt_instruction_exception_entry>:
 * that handler if it has been registered. Absent a handler, it will
 * break break or hang as discussed below.
 */
int 
alt_instruction_exception_entry (alt_u32 exception_pc)
{
 1d4:	defffb04 	addi	sp,sp,-20
 1d8:	dfc00415 	stw	ra,16(sp)
 1dc:	df000315 	stw	fp,12(sp)
 1e0:	df000304 	addi	fp,sp,12
 1e4:	e13fff15 	stw	r4,-4(fp)
 * NIOS2_EXCEPTION_CAUSE_NOT_PRESENT. Your handling routine should
 * check the validity of the cause argument before proceeding.
 */
#ifdef NIOS2_HAS_EXTRA_EXCEPTION_INFO
  /* Get exception cause & "badaddr" */
  NIOS2_READ_EXCEPTION(cause);
 1e8:	000531fa 	rdctl	r2,exception
 1ec:	e0bffd15 	stw	r2,-12(fp)
  cause = ( (cause & NIOS2_EXCEPTION_REG_CAUSE_MASK) >>
 1f0:	e0bffd17 	ldw	r2,-12(fp)
 1f4:	10801f0c 	andi	r2,r2,124
 1f8:	1004d0ba 	srli	r2,r2,2
 1fc:	e0bffd15 	stw	r2,-12(fp)
              NIOS2_EXCEPTION_REG_CAUSE_OFST );

  NIOS2_READ_BADADDR(badaddr);
 200:	0005333a 	rdctl	r2,badaddr
 204:	e0bffe15 	stw	r2,-8(fp)
#else
  cause = NIOS2_EXCEPTION_CAUSE_NOT_PRESENT;
  badaddr = 0;
#endif /* NIOS2_HAS_EXTRA_EXCEPTION_INFO */

  if(alt_instruction_exception_handler) {
 208:	d0a86817 	ldw	r2,-24160(gp)
 20c:	10000726 	beq	r2,zero,22c <alt_instruction_exception_entry+0x58>
     * Call handler. Its return value indicates whether the exception-causing
     * instruction should be re-issued. The code that called us,
     * alt_eceptions_entry.S, will look at this value and adjust the ea
     * register as necessary
     */
    return alt_instruction_exception_handler(cause, exception_pc, badaddr);
 210:	d0a86817 	ldw	r2,-24160(gp)
 214:	e0fffd17 	ldw	r3,-12(fp)
 218:	e1bffe17 	ldw	r6,-8(fp)
 21c:	e17fff17 	ldw	r5,-4(fp)
 220:	1809883a 	mov	r4,r3
 224:	103ee83a 	callr	r2
 228:	00000206 	br	234 <alt_instruction_exception_entry+0x60>
   *    (a peripheral which negates its interrupt output before its
   *    interrupt handler has been executed will cause spurious interrupts)
   */
  else {
#ifdef NIOS2_HAS_DEBUG_STUB
    NIOS2_BREAK();
 22c:	003da03a 	break	0
      ;
#endif /* NIOS2_HAS_DEBUG_STUB */
  }

  /* We should not get here. Remove compiler warning. */
  return NIOS2_EXCEPTION_RETURN_REISSUE_INST;
 230:	0005883a 	mov	r2,zero
}
 234:	e037883a 	mov	sp,fp
 238:	dfc00117 	ldw	ra,4(sp)
 23c:	df000017 	ldw	fp,0(sp)
 240:	dec00204 	addi	sp,sp,8
 244:	f800283a 	ret

Disassembly of section .text:

00000248 <_start>:

    /* Assume the data cache size is always a power of two. */
#if NIOS2_DCACHE_SIZE > 0x8000
    movhi r2, %hi(NIOS2_DCACHE_SIZE)
#else
    movui r2, NIOS2_DCACHE_SIZE
     248:	00820014 	movui	r2,2048
#endif

0:
    initd 0(r2)
     24c:	10000033 	initd	0(r2)
#ifdef NIOS2_ECC_PRESENT
    addi r2, r2, -4
#else
    addi r2, r2, -NIOS2_DCACHE_LINE_SIZE
     250:	10bff804 	addi	r2,r2,-32
#endif
    bgt r2, zero, 0b
     254:	00bffd16 	blt	zero,r2,24c <__alt_mem_onchip_memory+0xf780024c>

    /*
     * Now that the caches are initialized, set up the stack pointer and global pointer.
     * The values provided by the linker are assumed to be correctly aligned.
     */
    movhi sp, %hi(__alt_stack_pointer)
     258:	06c20034 	movhi	sp,2048
    ori sp, sp, %lo(__alt_stack_pointer)
     25c:	dec00014 	ori	sp,sp,0
    movhi gp, %hi(_gp)
     260:	068000b4 	movhi	gp,2
    ori gp, gp, %lo(_gp)
     264:	d6a6bc14 	ori	gp,gp,39664
 */
#ifndef ALT_SIM_OPTIMIZE
    /* Log that the BSS is about to be cleared. */
    ALT_LOG_PUTS(alt_log_msg_bss)

    movhi r2, %hi(__bss_start)
     268:	008000b4 	movhi	r2,2
    ori r2, r2, %lo(__bss_start)
     26c:	108efd14 	ori	r2,r2,15348

    movhi r3, %hi(__bss_end)
     270:	00c000f4 	movhi	r3,3
    ori r3, r3, %lo(__bss_end)
     274:	18c3f814 	ori	r3,r3,4064

    beq r2, r3, 1f
     278:	10c00326 	beq	r2,r3,288 <_start+0x40>

0:
    stw zero, (r2)
     27c:	10000015 	stw	zero,0(r2)
    addi r2, r2, 4
     280:	10800104 	addi	r2,r2,4
    bltu r2, r3, 0b
     284:	10fffd36 	bltu	r2,r3,27c <__alt_mem_onchip_memory+0xf780027c>
     * section aren't defined until alt_load() has been called).
     */
    mov   et, zero
#endif

    call alt_load
     288:	00114240 	call	11424 <alt_load>

    /* Log that alt_main is about to be called. */
    ALT_LOG_PUTS(alt_log_msg_alt_main)

    /* Call the C entry point. It should never return. */
    call alt_main
     28c:	00115b80 	call	115b8 <alt_main>

00000290 <alt_after_alt_main>:

    /* Wait in infinite loop in case alt_main does return. */
alt_after_alt_main:
    br alt_after_alt_main
     290:	003fff06 	br	290 <__alt_mem_onchip_memory+0xf7800290>

00000294 <main>:



/* The main function creates the tasks and starts multi-tasking */
int main(void)
{
     294:	defffe04 	addi	sp,sp,-8
     298:	dfc00115 	stw	ra,4(sp)
     29c:	df000015 	stw	fp,0(sp)
     2a0:	d839883a 	mov	fp,sp
	Init_App();
     2a4:	00005000 	call	500 <Init_App>

	CreateTasks();
     2a8:	0000de00 	call	de0 <CreateTasks>

	OSStart();
     2ac:	00128780 	call	12878 <OSStart>

	return 0;
     2b0:	0005883a 	mov	r2,zero
}
     2b4:	e037883a 	mov	sp,fp
     2b8:	dfc00117 	ldw	ra,4(sp)
     2bc:	df000017 	ldw	fp,0(sp)
     2c0:	dec00204 	addi	sp,sp,8
     2c4:	f800283a 	ret

000002c8 <MTL_box>:

/*
 * Funcion para crear recuadros en la pantalla MTL
 */
void MTL_box(int x1, int y1, int x2, int y2, short pixel_color)
{
     2c8:	defff704 	addi	sp,sp,-36
     2cc:	df000815 	stw	fp,32(sp)
     2d0:	df000804 	addi	fp,sp,32
     2d4:	e13ffb15 	stw	r4,-20(fp)
     2d8:	e17ffc15 	stw	r5,-16(fp)
     2dc:	e1bffd15 	stw	r6,-12(fp)
     2e0:	e1fffe15 	stw	r7,-8(fp)
     2e4:	e0800117 	ldw	r2,4(fp)
     2e8:	e0bfff0d 	sth	r2,-4(fp)
	int offset, row, col;


	for (row = y1; row <= y2; row++)
     2ec:	e0bffc17 	ldw	r2,-16(fp)
     2f0:	e0bff815 	stw	r2,-32(fp)
     2f4:	00001706 	br	354 <MTL_box+0x8c>
	{
		col = x1;
     2f8:	e0bffb17 	ldw	r2,-20(fp)
     2fc:	e0bff915 	stw	r2,-28(fp)
		while (col <= x2)
     300:	00000e06 	br	33c <MTL_box+0x74>
		{
			offset = (row << 9) + col;
     304:	e0bff817 	ldw	r2,-32(fp)
     308:	1006927a 	slli	r3,r2,9
     30c:	e0bff917 	ldw	r2,-28(fp)
     310:	1885883a 	add	r2,r3,r2
     314:	e0bffa15 	stw	r2,-24(fp)
		* (pixel_buffer + offset) = pixel_color;
     318:	d0e00a17 	ldw	r3,-32728(gp)
     31c:	e0bffa17 	ldw	r2,-24(fp)
     320:	1085883a 	add	r2,r2,r2
     324:	1885883a 	add	r2,r3,r2
     328:	e0ffff0b 	ldhu	r3,-4(fp)
     32c:	10c0000d 	sth	r3,0(r2)
			++col;
     330:	e0bff917 	ldw	r2,-28(fp)
     334:	10800044 	addi	r2,r2,1
     338:	e0bff915 	stw	r2,-28(fp)


	for (row = y1; row <= y2; row++)
	{
		col = x1;
		while (col <= x2)
     33c:	e0bff917 	ldw	r2,-28(fp)
     340:	e0fffd17 	ldw	r3,-12(fp)
     344:	18bfef0e 	bge	r3,r2,304 <__alt_mem_onchip_memory+0xf7800304>
void MTL_box(int x1, int y1, int x2, int y2, short pixel_color)
{
	int offset, row, col;


	for (row = y1; row <= y2; row++)
     348:	e0bff817 	ldw	r2,-32(fp)
     34c:	10800044 	addi	r2,r2,1
     350:	e0bff815 	stw	r2,-32(fp)
     354:	e0bff817 	ldw	r2,-32(fp)
     358:	e0fffe17 	ldw	r3,-8(fp)
     35c:	18bfe60e 	bge	r3,r2,2f8 <__alt_mem_onchip_memory+0xf78002f8>
			offset = (row << 9) + col;
		* (pixel_buffer + offset) = pixel_color;
			++col;
		}
	}
}
     360:	0001883a 	nop
     364:	e037883a 	mov	sp,fp
     368:	df000017 	ldw	fp,0(sp)
     36c:	dec00104 	addi	sp,sp,4
     370:	f800283a 	ret

00000374 <MTL_text>:

/**
 * Funcion para mostrar texto por la pantalla MTL
 */
void MTL_text(int x, int y, char * text_ptr)
{
     374:	defffb04 	addi	sp,sp,-20
     378:	df000415 	stw	fp,16(sp)
     37c:	df000404 	addi	fp,sp,16
     380:	e13ffd15 	stw	r4,-12(fp)
     384:	e17ffe15 	stw	r5,-8(fp)
     388:	e1bfff15 	stw	r6,-4(fp)
	int offset;

  	offset = (y << 6) + x;
     38c:	e0bffe17 	ldw	r2,-8(fp)
     390:	100691ba 	slli	r3,r2,6
     394:	e0bffd17 	ldw	r2,-12(fp)
     398:	1885883a 	add	r2,r3,r2
     39c:	e0bffc15 	stw	r2,-16(fp)
  	while ( *(text_ptr) )
     3a0:	00000c06 	br	3d4 <MTL_text+0x60>
  	{
  		*(character_buffer + offset) = *(text_ptr);
     3a4:	d0e00b17 	ldw	r3,-32724(gp)
     3a8:	e0bffc17 	ldw	r2,-16(fp)
     3ac:	1885883a 	add	r2,r3,r2
     3b0:	e0ffff17 	ldw	r3,-4(fp)
     3b4:	18c00003 	ldbu	r3,0(r3)
     3b8:	10c00005 	stb	r3,0(r2)
  		++text_ptr;
     3bc:	e0bfff17 	ldw	r2,-4(fp)
     3c0:	10800044 	addi	r2,r2,1
     3c4:	e0bfff15 	stw	r2,-4(fp)
  		++offset;
     3c8:	e0bffc17 	ldw	r2,-16(fp)
     3cc:	10800044 	addi	r2,r2,1
     3d0:	e0bffc15 	stw	r2,-16(fp)
void MTL_text(int x, int y, char * text_ptr)
{
	int offset;

  	offset = (y << 6) + x;
  	while ( *(text_ptr) )
     3d4:	e0bfff17 	ldw	r2,-4(fp)
     3d8:	10800003 	ldbu	r2,0(r2)
     3dc:	10803fcc 	andi	r2,r2,255
     3e0:	1080201c 	xori	r2,r2,128
     3e4:	10bfe004 	addi	r2,r2,-128
     3e8:	103fee1e 	bne	r2,zero,3a4 <__alt_mem_onchip_memory+0xf78003a4>
  		*(character_buffer + offset) = *(text_ptr);
  		++text_ptr;
  		++offset;
  	}

}
     3ec:	0001883a 	nop
     3f0:	e037883a 	mov	sp,fp
     3f4:	df000017 	ldw	fp,0(sp)
     3f8:	dec00104 	addi	sp,sp,4
     3fc:	f800283a 	ret

00000400 <borra_lineas_pantalla>:

/**
 *  Funcion para borrar lineas de MTL
 */
void borra_lineas_pantalla(int inicio, int lineas)
{
     400:	deffee04 	addi	sp,sp,-72
     404:	dfc01115 	stw	ra,68(sp)
     408:	df001015 	stw	fp,64(sp)
     40c:	df001004 	addi	fp,sp,64
     410:	e13ffe15 	stw	r4,-8(fp)
     414:	e17fff15 	stw	r5,-4(fp)
	int i;
	char blank[50]="                                                  ";
     418:	00880834 	movhi	r2,8224
     41c:	10880804 	addi	r2,r2,8224
     420:	e0bff115 	stw	r2,-60(fp)
     424:	00880834 	movhi	r2,8224
     428:	10880804 	addi	r2,r2,8224
     42c:	e0bff215 	stw	r2,-56(fp)
     430:	00880834 	movhi	r2,8224
     434:	10880804 	addi	r2,r2,8224
     438:	e0bff315 	stw	r2,-52(fp)
     43c:	00880834 	movhi	r2,8224
     440:	10880804 	addi	r2,r2,8224
     444:	e0bff415 	stw	r2,-48(fp)
     448:	00880834 	movhi	r2,8224
     44c:	10880804 	addi	r2,r2,8224
     450:	e0bff515 	stw	r2,-44(fp)
     454:	00880834 	movhi	r2,8224
     458:	10880804 	addi	r2,r2,8224
     45c:	e0bff615 	stw	r2,-40(fp)
     460:	00880834 	movhi	r2,8224
     464:	10880804 	addi	r2,r2,8224
     468:	e0bff715 	stw	r2,-36(fp)
     46c:	00880834 	movhi	r2,8224
     470:	10880804 	addi	r2,r2,8224
     474:	e0bff815 	stw	r2,-32(fp)
     478:	00880834 	movhi	r2,8224
     47c:	10880804 	addi	r2,r2,8224
     480:	e0bff915 	stw	r2,-28(fp)
     484:	00880834 	movhi	r2,8224
     488:	10880804 	addi	r2,r2,8224
     48c:	e0bffa15 	stw	r2,-24(fp)
     490:	00880834 	movhi	r2,8224
     494:	10880804 	addi	r2,r2,8224
     498:	e0bffb15 	stw	r2,-20(fp)
     49c:	00880834 	movhi	r2,8224
     4a0:	10880804 	addi	r2,r2,8224
     4a4:	e0bffc15 	stw	r2,-16(fp)
     4a8:	00880804 	movi	r2,8224
     4ac:	e0bffd0d 	sth	r2,-12(fp)
	// borra pantalla desde inicio a lineas
		for (i=inicio;i<lineas;i++){
     4b0:	e0bffe17 	ldw	r2,-8(fp)
     4b4:	e0bff015 	stw	r2,-64(fp)
     4b8:	00000806 	br	4dc <borra_lineas_pantalla+0xdc>
			MTL_text(0,i,blank);
     4bc:	e0bff104 	addi	r2,fp,-60
     4c0:	100d883a 	mov	r6,r2
     4c4:	e17ff017 	ldw	r5,-64(fp)
     4c8:	0009883a 	mov	r4,zero
     4cc:	00003740 	call	374 <MTL_text>
void borra_lineas_pantalla(int inicio, int lineas)
{
	int i;
	char blank[50]="                                                  ";
	// borra pantalla desde inicio a lineas
		for (i=inicio;i<lineas;i++){
     4d0:	e0bff017 	ldw	r2,-64(fp)
     4d4:	10800044 	addi	r2,r2,1
     4d8:	e0bff015 	stw	r2,-64(fp)
     4dc:	e0fff017 	ldw	r3,-64(fp)
     4e0:	e0bfff17 	ldw	r2,-4(fp)
     4e4:	18bff516 	blt	r3,r2,4bc <__alt_mem_onchip_memory+0xf78004bc>
			MTL_text(0,i,blank);
		}

}
     4e8:	0001883a 	nop
     4ec:	e037883a 	mov	sp,fp
     4f0:	dfc00117 	ldw	ra,4(sp)
     4f4:	df000017 	ldw	fp,0(sp)
     4f8:	dec00204 	addi	sp,sp,8
     4fc:	f800283a 	ret

00000500 <Init_App>:



// inicializacion de la aplicacion
void Init_App(void)
{
     500:	defffd04 	addi	sp,sp,-12
     504:	dfc00215 	stw	ra,8(sp)
     508:	df000115 	stw	fp,4(sp)
     50c:	df000104 	addi	fp,sp,4
	borra_lineas_pantalla(1,32);
     510:	01400804 	movi	r5,32
     514:	01000044 	movi	r4,1
     518:	00004000 	call	400 <borra_lineas_pantalla>

//Crea el texto en la pantalla
	MTL_text (2, 0, texto_up);		// primera linea
     51c:	018000b4 	movhi	r6,2
     520:	31bef504 	addi	r6,r6,-1068
     524:	000b883a 	mov	r5,zero
     528:	01000084 	movi	r4,2
     52c:	00003740 	call	374 <MTL_text>

//Pintar en la pantalla cuadros
	MTL_box (0, 0, 400, 240, 0x1111);	 	//Pinta de azul toda la pantalla
     530:	00844444 	movi	r2,4369
     534:	d8800015 	stw	r2,0(sp)
     538:	01c03c04 	movi	r7,240
     53c:	01806404 	movi	r6,400
     540:	000b883a 	mov	r5,zero
     544:	0009883a 	mov	r4,zero
     548:	00002c80 	call	2c8 <MTL_box>
	MTL_box (0, 0, 400, 8, 0x01100);  		//Franja superior
     54c:	00844004 	movi	r2,4352
     550:	d8800015 	stw	r2,0(sp)
     554:	01c00204 	movi	r7,8
     558:	01806404 	movi	r6,400
     55c:	000b883a 	mov	r5,zero
     560:	0009883a 	mov	r4,zero
     564:	00002c80 	call	2c8 <MTL_box>
	MTL_box (155, 30, 395, 235, 0x0100);	//cuadro para mensajes
     568:	00804004 	movi	r2,256
     56c:	d8800015 	stw	r2,0(sp)
     570:	01c03ac4 	movi	r7,235
     574:	018062c4 	movi	r6,395
     578:	01400784 	movi	r5,30
     57c:	010026c4 	movi	r4,155
     580:	00002c80 	call	2c8 <MTL_box>

// Texto LCD
	LCD_cursor (0,0);
     584:	000b883a 	mov	r5,zero
     588:	0009883a 	mov	r4,zero
     58c:	00007380 	call	738 <LCD_cursor>
	LCD_text (text_top_row);
     590:	010000b4 	movhi	r4,2
     594:	213f0f04 	addi	r4,r4,-964
     598:	00007980 	call	798 <LCD_text>
	LCD_cursor (0,1);
     59c:	01400044 	movi	r5,1
     5a0:	0009883a 	mov	r4,zero
     5a4:	00007380 	call	738 <LCD_cursor>
	LCD_text (text_bottom_row);
     5a8:	010000b4 	movhi	r4,2
     5ac:	213f1404 	addi	r4,r4,-944
     5b0:	00007980 	call	798 <LCD_text>
	LCD_cursor_off();
     5b4:	00007f80 	call	7f8 <LCD_cursor_off>

// Interrupcion pulsador para los pulsadores
	*(KEY_ptr + 2) = 0xE;
     5b8:	d0a00717 	ldw	r2,-32740(gp)
     5bc:	10800204 	addi	r2,r2,8
     5c0:	00c00384 	movi	r3,14
     5c4:	10c00015 	stw	r3,0(r2)
	*(KEY_ptr + 3) = 0;
     5c8:	d0a00717 	ldw	r2,-32740(gp)
     5cc:	10800304 	addi	r2,r2,12
     5d0:	10000015 	stw	zero,0(r2)
	alt_irq_register(PUSHBUTTONS_IRQ, NULL, pushbutton_isr);
     5d4:	01800034 	movhi	r6,0
     5d8:	31818104 	addi	r6,r6,1540
     5dc:	000b883a 	mov	r5,zero
     5e0:	01000044 	movi	r4,1
     5e4:	001115c0 	call	1115c <alt_irq_register>

// LEDGs apagados
	ledg_OFF_All();
     5e8:	00009780 	call	978 <ledg_OFF_All>
}
     5ec:	0001883a 	nop
     5f0:	e037883a 	mov	sp,fp
     5f4:	dfc00117 	ldw	ra,4(sp)
     5f8:	df000017 	ldw	fp,0(sp)
     5fc:	dec00204 	addi	sp,sp,8
     600:	f800283a 	ret

00000604 <pushbutton_isr>:
#include "..\inc\isr.h"

/**
 * Subrutina de manejo de interrupcion por pulsador incrustada en uCOS
 */
void pushbutton_isr() {
     604:	defff504 	addi	sp,sp,-44
     608:	dfc00a15 	stw	ra,40(sp)
     60c:	df000915 	stw	fp,36(sp)
     610:	df000904 	addi	fp,sp,36
OSIntEnter();
     614:	00125cc0 	call	125cc <OSIntEnter>
	int KEY_value, SW_value;
	static int num_int=0; 			// static permite que el valor no se inicia a 0 cada vez que se entra en la int
	char vector[27];

	KEY_value = *(KEY_ptr + 3);		// Leemos registro de pulsadores
     618:	d0a00717 	ldw	r2,-32740(gp)
     61c:	10800317 	ldw	r2,12(r2)
     620:	e0bff715 	stw	r2,-36(fp)
	SW_value = *(SW_switch_ptr);	// Leemos registro de Switches
     624:	d0a00817 	ldw	r2,-32736(gp)
     628:	10800017 	ldw	r2,0(r2)
     62c:	e0bff815 	stw	r2,-32(fp)
	SW_value = SW_value & 1;
     630:	e0bff817 	ldw	r2,-32(fp)
     634:	1080004c 	andi	r2,r2,1
     638:	e0bff815 	stw	r2,-32(fp)

	*(KEY_ptr + 3) = 0;				// Borrar la interrupcion
     63c:	d0a00717 	ldw	r2,-32740(gp)
     640:	10800304 	addi	r2,r2,12
     644:	10000015 	stw	zero,0(r2)

	if (KEY_value == 0x2) {			// Texto de Atencion Interrupcion y contador de veces
     648:	e0bff717 	ldw	r2,-36(fp)
     64c:	10800098 	cmpnei	r2,r2,2
     650:	1000321e 	bne	r2,zero,71c <pushbutton_isr+0x118>
		borra_lineas_pantalla(1,30);
     654:	01400784 	movi	r5,30
     658:	01000044 	movi	r4,1
     65c:	00004000 	call	400 <borra_lineas_pantalla>
		if (num_int<100)
     660:	d0a84117 	ldw	r2,-24316(gp)
     664:	10801908 	cmpgei	r2,r2,100
     668:	1000171e 	bne	r2,zero,6c8 <pushbutton_isr+0xc4>
			{
			++num_int;
     66c:	d0a84117 	ldw	r2,-24316(gp)
     670:	10800044 	addi	r2,r2,1
     674:	d0a84115 	stw	r2,-24316(gp)
			sprintf(vector,"Interrupcion Activada= %02u",num_int);
     678:	d0e84117 	ldw	r3,-24316(gp)
     67c:	e0bff904 	addi	r2,fp,-28
     680:	180d883a 	mov	r6,r3
     684:	014000b4 	movhi	r5,2
     688:	297d6704 	addi	r5,r5,-2660
     68c:	1009883a 	mov	r4,r2
     690:	00011080 	call	1108 <sprintf>
			MTL_text (21,2, vector);
     694:	e0bff904 	addi	r2,fp,-28
     698:	100d883a 	mov	r6,r2
     69c:	01400084 	movi	r5,2
     6a0:	01000544 	movi	r4,21
     6a4:	00003740 	call	374 <MTL_text>
#ifdef PRINT
			printf("numero de interrupcion = %02u\n",num_int);
     6a8:	d0a84117 	ldw	r2,-24316(gp)
     6ac:	100b883a 	mov	r5,r2
     6b0:	010000b4 	movhi	r4,2
     6b4:	213d6e04 	addi	r4,r4,-2632
     6b8:	0000fa00 	call	fa0 <printf>
#endif
			linea=3;
     6bc:	008000c4 	movi	r2,3
     6c0:	d0a00015 	stw	r2,-32768(gp)
     6c4:	00001406 	br	718 <pushbutton_isr+0x114>
			}
		else
			{
			num_int=0;
     6c8:	d0284115 	stw	zero,-24316(gp)
			sprintf(vector,"Interrupcion LIMITE= %02u",num_int);
     6cc:	d0e84117 	ldw	r3,-24316(gp)
     6d0:	e0bff904 	addi	r2,fp,-28
     6d4:	180d883a 	mov	r6,r3
     6d8:	014000b4 	movhi	r5,2
     6dc:	297d7604 	addi	r5,r5,-2600
     6e0:	1009883a 	mov	r4,r2
     6e4:	00011080 	call	1108 <sprintf>
			MTL_text (21,2, vector);
     6e8:	e0bff904 	addi	r2,fp,-28
     6ec:	100d883a 	mov	r6,r2
     6f0:	01400084 	movi	r5,2
     6f4:	01000544 	movi	r4,21
     6f8:	00003740 	call	374 <MTL_text>
#ifdef PRINT
			printf("ALCANZADO LIMITE DE INTERRUPCIONES = %02u\n",num_int);
     6fc:	d0a84117 	ldw	r2,-24316(gp)
     700:	100b883a 	mov	r5,r2
     704:	010000b4 	movhi	r4,2
     708:	213d7d04 	addi	r4,r4,-2572
     70c:	0000fa00 	call	fa0 <printf>
#endif
			linea=3;
     710:	008000c4 	movi	r2,3
     714:	d0a00015 	stw	r2,-32768(gp)
			}

	KEY_value=0;
     718:	e03ff715 	stw	zero,-36(fp)
	}
OSIntExit();
     71c:	00126180 	call	12618 <OSIntExit>
}
     720:	0001883a 	nop
     724:	e037883a 	mov	sp,fp
     728:	dfc00117 	ldw	ra,4(sp)
     72c:	df000017 	ldw	fp,0(sp)
     730:	dec00204 	addi	sp,sp,8
     734:	f800283a 	ret

00000738 <LCD_cursor>:

/**
 * Subrutina para mover Cursor del LCD en DE2-115
 */
void LCD_cursor (int x, int y)
{
     738:	defffc04 	addi	sp,sp,-16
     73c:	df000315 	stw	fp,12(sp)
     740:	df000304 	addi	fp,sp,12
     744:	e13ffe15 	stw	r4,-8(fp)
     748:	e17fff15 	stw	r5,-4(fp)
//	volatile char * LCD_display_ptr = (char *) CHAR_LCD_BASE;
	char instruccion;
	instruccion =x;
     74c:	e0bffe17 	ldw	r2,-8(fp)
     750:	e0bffd05 	stb	r2,-12(fp)
	if (y!=0)instruccion |= 0x40;
     754:	e0bfff17 	ldw	r2,-4(fp)
     758:	10000326 	beq	r2,zero,768 <LCD_cursor+0x30>
     75c:	e0bffd03 	ldbu	r2,-12(fp)
     760:	10801014 	ori	r2,r2,64
     764:	e0bffd05 	stb	r2,-12(fp)
	instruccion |= 0x80;
     768:	e0fffd03 	ldbu	r3,-12(fp)
     76c:	00bfe004 	movi	r2,-128
     770:	1884b03a 	or	r2,r3,r2
     774:	e0bffd05 	stb	r2,-12(fp)
	*(LCD_display_ptr)=instruccion;
     778:	d0a00917 	ldw	r2,-32732(gp)
     77c:	e0fffd03 	ldbu	r3,-12(fp)
     780:	10c00005 	stb	r3,0(r2)
}
     784:	0001883a 	nop
     788:	e037883a 	mov	sp,fp
     78c:	df000017 	ldw	fp,0(sp)
     790:	dec00104 	addi	sp,sp,4
     794:	f800283a 	ret

00000798 <LCD_text>:
/**
 * Subrutina para enviar cadena texto a LCD
 */

void LCD_text (char *text_ptr)
{
     798:	defffe04 	addi	sp,sp,-8
     79c:	df000115 	stw	fp,4(sp)
     7a0:	df000104 	addi	fp,sp,4
     7a4:	e13fff15 	stw	r4,-4(fp)
//	volatile char *LCD_display_ptr =(char *)CHAR_LCD_BASE;
	while (*(text_ptr))
     7a8:	00000806 	br	7cc <LCD_text+0x34>
	{
		*(LCD_display_ptr+1)=*(text_ptr);
     7ac:	d0a00917 	ldw	r2,-32732(gp)
     7b0:	10800044 	addi	r2,r2,1
     7b4:	e0ffff17 	ldw	r3,-4(fp)
     7b8:	18c00003 	ldbu	r3,0(r3)
     7bc:	10c00005 	stb	r3,0(r2)
		++text_ptr;
     7c0:	e0bfff17 	ldw	r2,-4(fp)
     7c4:	10800044 	addi	r2,r2,1
     7c8:	e0bfff15 	stw	r2,-4(fp)
 */

void LCD_text (char *text_ptr)
{
//	volatile char *LCD_display_ptr =(char *)CHAR_LCD_BASE;
	while (*(text_ptr))
     7cc:	e0bfff17 	ldw	r2,-4(fp)
     7d0:	10800003 	ldbu	r2,0(r2)
     7d4:	10803fcc 	andi	r2,r2,255
     7d8:	1080201c 	xori	r2,r2,128
     7dc:	10bfe004 	addi	r2,r2,-128
     7e0:	103ff21e 	bne	r2,zero,7ac <__alt_mem_onchip_memory+0xf78007ac>
	{
		*(LCD_display_ptr+1)=*(text_ptr);
		++text_ptr;
	}
}
     7e4:	0001883a 	nop
     7e8:	e037883a 	mov	sp,fp
     7ec:	df000017 	ldw	fp,0(sp)
     7f0:	dec00104 	addi	sp,sp,4
     7f4:	f800283a 	ret

000007f8 <LCD_cursor_off>:
/**
 * Subrutina para apagar el cursor del LCD
 */

void LCD_cursor_off (void)
{
     7f8:	deffff04 	addi	sp,sp,-4
     7fc:	df000015 	stw	fp,0(sp)
     800:	d839883a 	mov	fp,sp
//	volatile char *LCD_display_ptr =(char *)CHAR_LCD_BASE;
	*(LCD_display_ptr)=0x0C;
     804:	d0a00917 	ldw	r2,-32732(gp)
     808:	00c00304 	movi	r3,12
     80c:	10c00005 	stb	r3,0(r2)
}
     810:	0001883a 	nop
     814:	e037883a 	mov	sp,fp
     818:	df000017 	ldw	fp,0(sp)
     81c:	dec00104 	addi	sp,sp,4
     820:	f800283a 	ret

00000824 <ledg_ON>:
/*****************************************************************
 *                   FUNCIONES DE MANEJO DE LEDS
 ****************************************************************/

int ledg_ON (volatile int * ptr_led, int i)
{
     824:	defffd04 	addi	sp,sp,-12
     828:	df000215 	stw	fp,8(sp)
     82c:	df000204 	addi	fp,sp,8
     830:	e13ffe15 	stw	r4,-8(fp)
     834:	e17fff15 	stw	r5,-4(fp)
	if ((i<0) & (i>8))
     838:	e0bfff17 	ldw	r2,-4(fp)
     83c:	1004d7fa 	srli	r2,r2,31
     840:	1007883a 	mov	r3,r2
     844:	e0bfff17 	ldw	r2,-4(fp)
     848:	10800248 	cmpgei	r2,r2,9
     84c:	1884703a 	and	r2,r3,r2
     850:	10803fcc 	andi	r2,r2,255
     854:	10000226 	beq	r2,zero,860 <ledg_ON+0x3c>
	{
		return 0;
     858:	0005883a 	mov	r2,zero
     85c:	00000906 	br	884 <ledg_ON+0x60>
	}
	else
	{
		*(ptr_led) |= (0x00 | (1 << i));	//switch on LED-i
     860:	e0bffe17 	ldw	r2,-8(fp)
     864:	10c00017 	ldw	r3,0(r2)
     868:	01000044 	movi	r4,1
     86c:	e0bfff17 	ldw	r2,-4(fp)
     870:	2084983a 	sll	r2,r4,r2
     874:	1886b03a 	or	r3,r3,r2
     878:	e0bffe17 	ldw	r2,-8(fp)
     87c:	10c00015 	stw	r3,0(r2)
		return 1;
     880:	00800044 	movi	r2,1
	}
}
     884:	e037883a 	mov	sp,fp
     888:	df000017 	ldw	fp,0(sp)
     88c:	dec00104 	addi	sp,sp,4
     890:	f800283a 	ret

00000894 <ledg_OFF>:

int ledg_OFF (volatile int * ptr_led, int i)
{
     894:	defffd04 	addi	sp,sp,-12
     898:	df000215 	stw	fp,8(sp)
     89c:	df000204 	addi	fp,sp,8
     8a0:	e13ffe15 	stw	r4,-8(fp)
     8a4:	e17fff15 	stw	r5,-4(fp)
	if (( i<0) & (i>8))
     8a8:	e0bfff17 	ldw	r2,-4(fp)
     8ac:	1004d7fa 	srli	r2,r2,31
     8b0:	1007883a 	mov	r3,r2
     8b4:	e0bfff17 	ldw	r2,-4(fp)
     8b8:	10800248 	cmpgei	r2,r2,9
     8bc:	1884703a 	and	r2,r3,r2
     8c0:	10803fcc 	andi	r2,r2,255
     8c4:	10000226 	beq	r2,zero,8d0 <ledg_OFF+0x3c>
	{
		return 0;
     8c8:	0005883a 	mov	r2,zero
     8cc:	00000a06 	br	8f8 <ledg_OFF+0x64>
	}
	else
	{
		*(ptr_led) &= (0xFF) ^ (1 << i);	//switch off LED-i
     8d0:	e0bffe17 	ldw	r2,-8(fp)
     8d4:	10c00017 	ldw	r3,0(r2)
     8d8:	01000044 	movi	r4,1
     8dc:	e0bfff17 	ldw	r2,-4(fp)
     8e0:	2084983a 	sll	r2,r4,r2
     8e4:	10803fdc 	xori	r2,r2,255
     8e8:	1886703a 	and	r3,r3,r2
     8ec:	e0bffe17 	ldw	r2,-8(fp)
     8f0:	10c00015 	stw	r3,0(r2)

		return 1;
     8f4:	00800044 	movi	r2,1
	}
}
     8f8:	e037883a 	mov	sp,fp
     8fc:	df000017 	ldw	fp,0(sp)
     900:	dec00104 	addi	sp,sp,4
     904:	f800283a 	ret

00000908 <blinky_ledg>:

int blinky_ledg (volatile int * ptr_led, int i)
{
     908:	defffd04 	addi	sp,sp,-12
     90c:	df000215 	stw	fp,8(sp)
     910:	df000204 	addi	fp,sp,8
     914:	e13ffe15 	stw	r4,-8(fp)
     918:	e17fff15 	stw	r5,-4(fp)

	if ((i<0) & (i>8))
     91c:	e0bfff17 	ldw	r2,-4(fp)
     920:	1004d7fa 	srli	r2,r2,31
     924:	1007883a 	mov	r3,r2
     928:	e0bfff17 	ldw	r2,-4(fp)
     92c:	10800248 	cmpgei	r2,r2,9
     930:	1884703a 	and	r2,r3,r2
     934:	10803fcc 	andi	r2,r2,255
     938:	10000226 	beq	r2,zero,944 <blinky_ledg+0x3c>
		{
			return 0;
     93c:	0005883a 	mov	r2,zero
     940:	00000906 	br	968 <blinky_ledg+0x60>
		}
		else
		{
			*(ptr_led) ^= (0x00 | (1 << i)); //switch LED-i
     944:	e0bffe17 	ldw	r2,-8(fp)
     948:	10c00017 	ldw	r3,0(r2)
     94c:	01000044 	movi	r4,1
     950:	e0bfff17 	ldw	r2,-4(fp)
     954:	2084983a 	sll	r2,r4,r2
     958:	1886f03a 	xor	r3,r3,r2
     95c:	e0bffe17 	ldw	r2,-8(fp)
     960:	10c00015 	stw	r3,0(r2)
			return 1;
     964:	00800044 	movi	r2,1
		}
}
     968:	e037883a 	mov	sp,fp
     96c:	df000017 	ldw	fp,0(sp)
     970:	dec00104 	addi	sp,sp,4
     974:	f800283a 	ret

00000978 <ledg_OFF_All>:

void ledg_OFF_All ()
{
     978:	defffd04 	addi	sp,sp,-12
     97c:	dfc00215 	stw	ra,8(sp)
     980:	df000115 	stw	fp,4(sp)
     984:	df000104 	addi	fp,sp,4
	int i;
	for (i=0; i<9; i++)
     988:	e03fff15 	stw	zero,-4(fp)
     98c:	00000706 	br	9ac <ledg_OFF_All+0x34>
	{
	ledg_OFF(green_LED_ptr,i);
     990:	d0a00417 	ldw	r2,-32752(gp)
     994:	e17fff17 	ldw	r5,-4(fp)
     998:	1009883a 	mov	r4,r2
     99c:	00008940 	call	894 <ledg_OFF>
}

void ledg_OFF_All ()
{
	int i;
	for (i=0; i<9; i++)
     9a0:	e0bfff17 	ldw	r2,-4(fp)
     9a4:	10800044 	addi	r2,r2,1
     9a8:	e0bfff15 	stw	r2,-4(fp)
     9ac:	e0bfff17 	ldw	r2,-4(fp)
     9b0:	10800250 	cmplti	r2,r2,9
     9b4:	103ff61e 	bne	r2,zero,990 <__alt_mem_onchip_memory+0xf7800990>
	{
	ledg_OFF(green_LED_ptr,i);
	}
}
     9b8:	0001883a 	nop
     9bc:	e037883a 	mov	sp,fp
     9c0:	dfc00117 	ldw	ra,4(sp)
     9c4:	df000017 	ldw	fp,0(sp)
     9c8:	dec00204 	addi	sp,sp,8
     9cc:	f800283a 	ret

000009d0 <ledg_ON_All>:


void ledg_ON_All ()
{
     9d0:	defffd04 	addi	sp,sp,-12
     9d4:	dfc00215 	stw	ra,8(sp)
     9d8:	df000115 	stw	fp,4(sp)
     9dc:	df000104 	addi	fp,sp,4
	int i;
	for (i=0; i<9; i++)
     9e0:	e03fff15 	stw	zero,-4(fp)
     9e4:	00000706 	br	a04 <ledg_ON_All+0x34>
	{
	ledg_ON(green_LED_ptr,i);
     9e8:	d0a00417 	ldw	r2,-32752(gp)
     9ec:	e17fff17 	ldw	r5,-4(fp)
     9f0:	1009883a 	mov	r4,r2
     9f4:	00008240 	call	824 <ledg_ON>


void ledg_ON_All ()
{
	int i;
	for (i=0; i<9; i++)
     9f8:	e0bfff17 	ldw	r2,-4(fp)
     9fc:	10800044 	addi	r2,r2,1
     a00:	e0bfff15 	stw	r2,-4(fp)
     a04:	e0bfff17 	ldw	r2,-4(fp)
     a08:	10800250 	cmplti	r2,r2,9
     a0c:	103ff61e 	bne	r2,zero,9e8 <__alt_mem_onchip_memory+0xf78009e8>
	{
	ledg_ON(green_LED_ptr,i);
	}
}
     a10:	0001883a 	nop
     a14:	e037883a 	mov	sp,fp
     a18:	dfc00117 	ldw	ra,4(sp)
     a1c:	df000017 	ldw	fp,0(sp)
     a20:	dec00204 	addi	sp,sp,8
     a24:	f800283a 	ret

00000a28 <Mensaje_TaskMtl>:

#include "..\inc\task_config.h"


void Mensaje_TaskMtl(char visualiza_string[4], int posicion)
	{
     a28:	defffc04 	addi	sp,sp,-16
     a2c:	dfc00315 	stw	ra,12(sp)
     a30:	df000215 	stw	fp,8(sp)
     a34:	df000204 	addi	fp,sp,8
     a38:	e13ffe15 	stw	r4,-8(fp)
     a3c:	e17fff15 	stw	r5,-4(fp)
#ifdef PRINT
    	printf("%s\n",visualiza_string);
     a40:	e13ffe17 	ldw	r4,-8(fp)
     a44:	000109c0 	call	109c <puts>
#endif
    posicion=(linea>ultima_linea)?primera_linea:linea++;
     a48:	d0a00017 	ldw	r2,-32768(gp)
     a4c:	d0e00217 	ldw	r3,-32760(gp)
     a50:	18800416 	blt	r3,r2,a64 <Mensaje_TaskMtl+0x3c>
     a54:	d0a00017 	ldw	r2,-32768(gp)
     a58:	10c00044 	addi	r3,r2,1
     a5c:	d0e00015 	stw	r3,-32768(gp)
     a60:	00000106 	br	a68 <Mensaje_TaskMtl+0x40>
     a64:	d0a00117 	ldw	r2,-32764(gp)
     a68:	e0bfff15 	stw	r2,-4(fp)
    if (linea>ultima_linea){linea=primera_linea;}
     a6c:	d0a00017 	ldw	r2,-32768(gp)
     a70:	d0e00217 	ldw	r3,-32760(gp)
     a74:	1880020e 	bge	r3,r2,a80 <Mensaje_TaskMtl+0x58>
     a78:	d0a00117 	ldw	r2,-32764(gp)
     a7c:	d0a00015 	stw	r2,-32768(gp)
    MTL_text (2, posicion, visualiza_string);
     a80:	e1bffe17 	ldw	r6,-8(fp)
     a84:	e17fff17 	ldw	r5,-4(fp)
     a88:	01000084 	movi	r4,2
     a8c:	00003740 	call	374 <MTL_text>
    borra_lineas_pantalla(posicion+1,posicion+2);
     a90:	e0bfff17 	ldw	r2,-4(fp)
     a94:	10c00044 	addi	r3,r2,1
     a98:	e0bfff17 	ldw	r2,-4(fp)
     a9c:	10800084 	addi	r2,r2,2
     aa0:	100b883a 	mov	r5,r2
     aa4:	1809883a 	mov	r4,r3
     aa8:	00004000 	call	400 <borra_lineas_pantalla>

    }
     aac:	0001883a 	nop
     ab0:	e037883a 	mov	sp,fp
     ab4:	dfc00117 	ldw	ra,4(sp)
     ab8:	df000017 	ldw	fp,0(sp)
     abc:	dec00204 	addi	sp,sp,8
     ac0:	f800283a 	ret

00000ac4 <task1>:



/* Prints "Hello World" and sleeps for x seconds */
void task1(void* pdata)
{
     ac4:	defff204 	addi	sp,sp,-56
     ac8:	dfc00d15 	stw	ra,52(sp)
     acc:	df000c15 	stw	fp,48(sp)
     ad0:	df000c04 	addi	fp,sp,48
     ad4:	e13fff15 	stw	r4,-4(fp)
	char visualiza_string[40] = "Hello from task1";
     ad8:	009b1b34 	movhi	r2,27756
     adc:	10995204 	addi	r2,r2,25928
     ae0:	e0bff515 	stw	r2,-44(fp)
     ae4:	009c99b4 	movhi	r2,29286
     ae8:	10881bc4 	addi	r2,r2,8303
     aec:	e0bff615 	stw	r2,-40(fp)
     af0:	009d0834 	movhi	r2,29728
     af4:	109b5bc4 	addi	r2,r2,28015
     af8:	e0bff715 	stw	r2,-36(fp)
     afc:	008c5af4 	movhi	r2,12651
     b00:	109cd844 	addi	r2,r2,29537
     b04:	e0bff815 	stw	r2,-32(fp)
     b08:	e03ff915 	stw	zero,-28(fp)
     b0c:	e03ffa15 	stw	zero,-24(fp)
     b10:	e03ffb15 	stw	zero,-20(fp)
     b14:	e03ffc15 	stw	zero,-16(fp)
     b18:	e03ffd15 	stw	zero,-12(fp)
     b1c:	e03ffe15 	stw	zero,-8(fp)
	int posicion=0;
     b20:	e03ff415 	stw	zero,-48(fp)
  while (1)
  {
	blinky_ledg(green_LED_ptr,1);
     b24:	d0a00417 	ldw	r2,-32752(gp)
     b28:	01400044 	movi	r5,1
     b2c:	1009883a 	mov	r4,r2
     b30:	00009080 	call	908 <blinky_ledg>
	Mensaje_TaskMtl(visualiza_string,posicion);
     b34:	e0bff504 	addi	r2,fp,-44
     b38:	e17ff417 	ldw	r5,-48(fp)
     b3c:	1009883a 	mov	r4,r2
     b40:	0000a280 	call	a28 <Mensaje_TaskMtl>

    OSTimeDlyHMSM(0, 0, 0, 100);
     b44:	01c01904 	movi	r7,100
     b48:	000d883a 	mov	r6,zero
     b4c:	000b883a 	mov	r5,zero
     b50:	0009883a 	mov	r4,zero
     b54:	00190e40 	call	190e4 <OSTimeDlyHMSM>
  }
     b58:	003ff206 	br	b24 <__alt_mem_onchip_memory+0xf7800b24>

00000b5c <task2>:
}
/* Prints "Hello World" and sleeps for x seconds */
void task2(void* pdata)
{
     b5c:	defff204 	addi	sp,sp,-56
     b60:	dfc00d15 	stw	ra,52(sp)
     b64:	df000c15 	stw	fp,48(sp)
     b68:	df000c04 	addi	fp,sp,48
     b6c:	e13fff15 	stw	r4,-4(fp)
	char visualiza_string[40] = "Hello from task2";
     b70:	009b1b34 	movhi	r2,27756
     b74:	10995204 	addi	r2,r2,25928
     b78:	e0bff515 	stw	r2,-44(fp)
     b7c:	009c99b4 	movhi	r2,29286
     b80:	10881bc4 	addi	r2,r2,8303
     b84:	e0bff615 	stw	r2,-40(fp)
     b88:	009d0834 	movhi	r2,29728
     b8c:	109b5bc4 	addi	r2,r2,28015
     b90:	e0bff715 	stw	r2,-36(fp)
     b94:	008c9af4 	movhi	r2,12907
     b98:	109cd844 	addi	r2,r2,29537
     b9c:	e0bff815 	stw	r2,-32(fp)
     ba0:	e03ff915 	stw	zero,-28(fp)
     ba4:	e03ffa15 	stw	zero,-24(fp)
     ba8:	e03ffb15 	stw	zero,-20(fp)
     bac:	e03ffc15 	stw	zero,-16(fp)
     bb0:	e03ffd15 	stw	zero,-12(fp)
     bb4:	e03ffe15 	stw	zero,-8(fp)
	int posicion=0;
     bb8:	e03ff415 	stw	zero,-48(fp)
  while (1)
  {
	blinky_ledg(green_LED_ptr,2);
     bbc:	d0a00417 	ldw	r2,-32752(gp)
     bc0:	01400084 	movi	r5,2
     bc4:	1009883a 	mov	r4,r2
     bc8:	00009080 	call	908 <blinky_ledg>
    Mensaje_TaskMtl(visualiza_string,posicion);
     bcc:	e0bff504 	addi	r2,fp,-44
     bd0:	e17ff417 	ldw	r5,-48(fp)
     bd4:	1009883a 	mov	r4,r2
     bd8:	0000a280 	call	a28 <Mensaje_TaskMtl>
    ledg_OFF(green_LED_ptr,1);
     bdc:	d0a00417 	ldw	r2,-32752(gp)
     be0:	01400044 	movi	r5,1
     be4:	1009883a 	mov	r4,r2
     be8:	00008940 	call	894 <ledg_OFF>

    OSTimeDlyHMSM(0, 0, 0, 200);
     bec:	01c03204 	movi	r7,200
     bf0:	000d883a 	mov	r6,zero
     bf4:	000b883a 	mov	r5,zero
     bf8:	0009883a 	mov	r4,zero
     bfc:	00190e40 	call	190e4 <OSTimeDlyHMSM>
  }
     c00:	003fee06 	br	bbc <__alt_mem_onchip_memory+0xf7800bbc>

00000c04 <task3>:
}

void task3(void* pdata)
{
     c04:	defff204 	addi	sp,sp,-56
     c08:	dfc00d15 	stw	ra,52(sp)
     c0c:	df000c15 	stw	fp,48(sp)
     c10:	df000c04 	addi	fp,sp,48
     c14:	e13fff15 	stw	r4,-4(fp)
	char visualiza_string[40] = "Hello from task3";
     c18:	009b1b34 	movhi	r2,27756
     c1c:	10995204 	addi	r2,r2,25928
     c20:	e0bff515 	stw	r2,-44(fp)
     c24:	009c99b4 	movhi	r2,29286
     c28:	10881bc4 	addi	r2,r2,8303
     c2c:	e0bff615 	stw	r2,-40(fp)
     c30:	009d0834 	movhi	r2,29728
     c34:	109b5bc4 	addi	r2,r2,28015
     c38:	e0bff715 	stw	r2,-36(fp)
     c3c:	008cdaf4 	movhi	r2,13163
     c40:	109cd844 	addi	r2,r2,29537
     c44:	e0bff815 	stw	r2,-32(fp)
     c48:	e03ff915 	stw	zero,-28(fp)
     c4c:	e03ffa15 	stw	zero,-24(fp)
     c50:	e03ffb15 	stw	zero,-20(fp)
     c54:	e03ffc15 	stw	zero,-16(fp)
     c58:	e03ffd15 	stw	zero,-12(fp)
     c5c:	e03ffe15 	stw	zero,-8(fp)
	int posicion=0;
     c60:	e03ff415 	stw	zero,-48(fp)
  while (1)
  {
	blinky_ledg(green_LED_ptr,3);
     c64:	d0a00417 	ldw	r2,-32752(gp)
     c68:	014000c4 	movi	r5,3
     c6c:	1009883a 	mov	r4,r2
     c70:	00009080 	call	908 <blinky_ledg>

	Mensaje_TaskMtl(visualiza_string,posicion);
     c74:	e0bff504 	addi	r2,fp,-44
     c78:	e17ff417 	ldw	r5,-48(fp)
     c7c:	1009883a 	mov	r4,r2
     c80:	0000a280 	call	a28 <Mensaje_TaskMtl>

    OSTimeDlyHMSM(0, 0, 0, 400);
     c84:	01c06404 	movi	r7,400
     c88:	000d883a 	mov	r6,zero
     c8c:	000b883a 	mov	r5,zero
     c90:	0009883a 	mov	r4,zero
     c94:	00190e40 	call	190e4 <OSTimeDlyHMSM>

  }
     c98:	003ff206 	br	c64 <__alt_mem_onchip_memory+0xf7800c64>

00000c9c <task4>:
}

void task4(void* pdata)
{
     c9c:	defff204 	addi	sp,sp,-56
     ca0:	dfc00d15 	stw	ra,52(sp)
     ca4:	df000c15 	stw	fp,48(sp)
     ca8:	df000c04 	addi	fp,sp,48
     cac:	e13fff15 	stw	r4,-4(fp)
	char visualiza_string[40] = "Hello from Recovery Task";
     cb0:	009b1b34 	movhi	r2,27756
     cb4:	10995204 	addi	r2,r2,25928
     cb8:	e0bff515 	stw	r2,-44(fp)
     cbc:	009c99b4 	movhi	r2,29286
     cc0:	10881bc4 	addi	r2,r2,8303
     cc4:	e0bff615 	stw	r2,-40(fp)
     cc8:	00948834 	movhi	r2,21024
     ccc:	109b5bc4 	addi	r2,r2,28015
     cd0:	e0bff715 	stw	r2,-36(fp)
     cd4:	009d9bf4 	movhi	r2,30319
     cd8:	1098d944 	addi	r2,r2,25445
     cdc:	e0bff815 	stw	r2,-32(fp)
     ce0:	00881e74 	movhi	r2,8313
     ce4:	109c9944 	addi	r2,r2,29285
     ce8:	e0bff915 	stw	r2,-28(fp)
     cec:	009adcf4 	movhi	r2,27507
     cf0:	10985504 	addi	r2,r2,24916
     cf4:	e0bffa15 	stw	r2,-24(fp)
     cf8:	e03ffb15 	stw	zero,-20(fp)
     cfc:	e03ffc15 	stw	zero,-16(fp)
     d00:	e03ffd15 	stw	zero,-12(fp)
     d04:	e03ffe15 	stw	zero,-8(fp)
	int posicion=0;
     d08:	e03ff415 	stw	zero,-48(fp)
  while (1)
  {
	blinky_ledg(green_LED_ptr,4);
     d0c:	d0a00417 	ldw	r2,-32752(gp)
     d10:	01400104 	movi	r5,4
     d14:	1009883a 	mov	r4,r2
     d18:	00009080 	call	908 <blinky_ledg>

	Mensaje_TaskMtl(visualiza_string, posicion);
     d1c:	e0bff504 	addi	r2,fp,-44
     d20:	e17ff417 	ldw	r5,-48(fp)
     d24:	1009883a 	mov	r4,r2
     d28:	0000a280 	call	a28 <Mensaje_TaskMtl>

	OSTimeDlyHMSM(0, 0, 0, 600);
     d2c:	01c09604 	movi	r7,600
     d30:	000d883a 	mov	r6,zero
     d34:	000b883a 	mov	r5,zero
     d38:	0009883a 	mov	r4,zero
     d3c:	00190e40 	call	190e4 <OSTimeDlyHMSM>

  }
     d40:	003ff206 	br	d0c <__alt_mem_onchip_memory+0xf7800d0c>

00000d44 <TaskInit>:
}

void TaskInit(void* pdata)
{
     d44:	defff204 	addi	sp,sp,-56
     d48:	dfc00d15 	stw	ra,52(sp)
     d4c:	df000c15 	stw	fp,48(sp)
     d50:	df000c04 	addi	fp,sp,48
     d54:	e13fff15 	stw	r4,-4(fp)
	char visualiza_string[40] = "Hello from Task Init";
     d58:	009b1b34 	movhi	r2,27756
     d5c:	10995204 	addi	r2,r2,25928
     d60:	e0bff515 	stw	r2,-44(fp)
     d64:	009c99b4 	movhi	r2,29286
     d68:	10881bc4 	addi	r2,r2,8303
     d6c:	e0bff615 	stw	r2,-40(fp)
     d70:	00950834 	movhi	r2,21536
     d74:	109b5bc4 	addi	r2,r2,28015
     d78:	e0bff715 	stw	r2,-36(fp)
     d7c:	00881af4 	movhi	r2,8299
     d80:	109cd844 	addi	r2,r2,29537
     d84:	e0bff815 	stw	r2,-32(fp)
     d88:	009d1a74 	movhi	r2,29801
     d8c:	109b9244 	addi	r2,r2,28233
     d90:	e0bff915 	stw	r2,-28(fp)
     d94:	e03ffa15 	stw	zero,-24(fp)
     d98:	e03ffb15 	stw	zero,-20(fp)
     d9c:	e03ffc15 	stw	zero,-16(fp)
     da0:	e03ffd15 	stw	zero,-12(fp)
     da4:	e03ffe15 	stw	zero,-8(fp)
	int posicion=0;
     da8:	e03ff415 	stw	zero,-48(fp)
  while (1)
  {
	ledg_OFF_All();
     dac:	00009780 	call	978 <ledg_OFF_All>
	blinky_ledg(green_LED_ptr,8);
     db0:	d0a00417 	ldw	r2,-32752(gp)
     db4:	01400204 	movi	r5,8
     db8:	1009883a 	mov	r4,r2
     dbc:	00009080 	call	908 <blinky_ledg>
	Mensaje_TaskMtl(visualiza_string, posicion);
     dc0:	e0bff504 	addi	r2,fp,-44
     dc4:	e17ff417 	ldw	r5,-48(fp)
     dc8:	1009883a 	mov	r4,r2
     dcc:	0000a280 	call	a28 <Mensaje_TaskMtl>
	ListTask();
     dd0:	0000e480 	call	e48 <ListTask>

  // Tras la creacion de las task esta tarea no tiene mas trabajo y se pasa a DORMANT
	OSTaskDel(OS_PRIO_SELF);
     dd4:	01003fc4 	movi	r4,255
     dd8:	00180f40 	call	180f4 <OSTaskDel>
  }
     ddc:	003ff306 	br	dac <__alt_mem_onchip_memory+0xf7800dac>

00000de0 <CreateTasks>:
}

void CreateTasks (void)
{
     de0:	defff904 	addi	sp,sp,-28
     de4:	dfc00615 	stw	ra,24(sp)
     de8:	df000515 	stw	fp,20(sp)
     dec:	df000504 	addi	fp,sp,20
	  OSTaskCreateExt(TaskInit,
     df0:	d8000415 	stw	zero,16(sp)
     df4:	d8000315 	stw	zero,12(sp)
     df8:	00820004 	movi	r2,2048
     dfc:	d8800215 	stw	r2,8(sp)
     e00:	008000f4 	movhi	r2,3
     e04:	10af2f04 	addi	r2,r2,-17220
     e08:	d8800115 	stw	r2,4(sp)
     e0c:	00800204 	movi	r2,8
     e10:	d8800015 	stw	r2,0(sp)
     e14:	01c00204 	movi	r7,8
     e18:	018000f4 	movhi	r6,3
     e1c:	31b72e04 	addi	r6,r6,-9032
     e20:	000b883a 	mov	r5,zero
     e24:	01000034 	movhi	r4,0
     e28:	21035104 	addi	r4,r4,3396
     e2c:	0017f100 	call	17f10 <OSTaskCreateExt>
	                  TASK_INIT_PRIORITY,
	                  taskinit_stk,
	                  TASK_STACKSIZE,
	                  NULL,
	                  0);
}
     e30:	0001883a 	nop
     e34:	e037883a 	mov	sp,fp
     e38:	dfc00117 	ldw	ra,4(sp)
     e3c:	df000017 	ldw	fp,0(sp)
     e40:	dec00204 	addi	sp,sp,8
     e44:	f800283a 	ret

00000e48 <ListTask>:

// Creacion de Tareas
void ListTask(void)
{
     e48:	defff904 	addi	sp,sp,-28
     e4c:	dfc00615 	stw	ra,24(sp)
     e50:	df000515 	stw	fp,20(sp)
     e54:	df000504 	addi	fp,sp,20
  OSTaskCreateExt(task1,
     e58:	d8000415 	stw	zero,16(sp)
     e5c:	d8000315 	stw	zero,12(sp)
     e60:	00820004 	movi	r2,2048
     e64:	d8800215 	stw	r2,8(sp)
     e68:	008000b4 	movhi	r2,2
     e6c:	108f2f04 	addi	r2,r2,15548
     e70:	d8800115 	stw	r2,4(sp)
     e74:	00800044 	movi	r2,1
     e78:	d8800015 	stw	r2,0(sp)
     e7c:	01c00044 	movi	r7,1
     e80:	018000b4 	movhi	r6,2
     e84:	31972e04 	addi	r6,r6,23736
     e88:	000b883a 	mov	r5,zero
     e8c:	01000034 	movhi	r4,0
     e90:	2102b104 	addi	r4,r4,2756
     e94:	0017f100 	call	17f10 <OSTaskCreateExt>
                  TASK_STACKSIZE,
                  NULL,
                  0);


  OSTaskCreateExt(task2,
     e98:	d8000415 	stw	zero,16(sp)
     e9c:	d8000315 	stw	zero,12(sp)
     ea0:	00820004 	movi	r2,2048
     ea4:	d8800215 	stw	r2,8(sp)
     ea8:	008000b4 	movhi	r2,2
     eac:	109f2f04 	addi	r2,r2,31932
     eb0:	d8800115 	stw	r2,4(sp)
     eb4:	00800084 	movi	r2,2
     eb8:	d8800015 	stw	r2,0(sp)
     ebc:	01c00084 	movi	r7,2
     ec0:	018000f4 	movhi	r6,3
     ec4:	31a72e04 	addi	r6,r6,-25416
     ec8:	000b883a 	mov	r5,zero
     ecc:	01000034 	movhi	r4,0
     ed0:	2102d704 	addi	r4,r4,2908
     ed4:	0017f100 	call	17f10 <OSTaskCreateExt>
                  task2_stk,
                  TASK_STACKSIZE,
                  NULL,
                  0);

  OSTaskCreateExt(task3,
     ed8:	d8000415 	stw	zero,16(sp)
     edc:	d8000315 	stw	zero,12(sp)
     ee0:	00820004 	movi	r2,2048
     ee4:	d8800215 	stw	r2,8(sp)
     ee8:	008000f4 	movhi	r2,3
     eec:	10a72f04 	addi	r2,r2,-25412
     ef0:	d8800115 	stw	r2,4(sp)
     ef4:	008000c4 	movi	r2,3
     ef8:	d8800015 	stw	r2,0(sp)
     efc:	01c000c4 	movi	r7,3
     f00:	018000f4 	movhi	r6,3
     f04:	31af2e04 	addi	r6,r6,-17224
     f08:	000b883a 	mov	r5,zero
     f0c:	01000034 	movhi	r4,0
     f10:	21030104 	addi	r4,r4,3076
     f14:	0017f100 	call	17f10 <OSTaskCreateExt>
                  TASK3_PRIORITY,
                  task3_stk,
                  TASK_STACKSIZE,
                  NULL,
                  0);
  OSTaskCreateExt(task4,
     f18:	d8000415 	stw	zero,16(sp)
     f1c:	d8000315 	stw	zero,12(sp)
     f20:	00820004 	movi	r2,2048
     f24:	d8800215 	stw	r2,8(sp)
     f28:	008000b4 	movhi	r2,2
     f2c:	10972f04 	addi	r2,r2,23740
     f30:	d8800115 	stw	r2,4(sp)
     f34:	00800104 	movi	r2,4
     f38:	d8800015 	stw	r2,0(sp)
     f3c:	01c00104 	movi	r7,4
     f40:	018000b4 	movhi	r6,2
     f44:	319f2e04 	addi	r6,r6,31928
     f48:	000b883a 	mov	r5,zero
     f4c:	01000034 	movhi	r4,0
     f50:	21032704 	addi	r4,r4,3228
     f54:	0017f100 	call	17f10 <OSTaskCreateExt>
                  NULL,
                  0);



}
     f58:	0001883a 	nop
     f5c:	e037883a 	mov	sp,fp
     f60:	dfc00117 	ldw	ra,4(sp)
     f64:	df000017 	ldw	fp,0(sp)
     f68:	dec00204 	addi	sp,sp,8
     f6c:	f800283a 	ret

00000f70 <_printf_r>:
     f70:	defffd04 	addi	sp,sp,-12
     f74:	2805883a 	mov	r2,r5
     f78:	dfc00015 	stw	ra,0(sp)
     f7c:	d9800115 	stw	r6,4(sp)
     f80:	d9c00215 	stw	r7,8(sp)
     f84:	21400217 	ldw	r5,8(r4)
     f88:	d9c00104 	addi	r7,sp,4
     f8c:	100d883a 	mov	r6,r2
     f90:	00033e40 	call	33e4 <___vfprintf_internal_r>
     f94:	dfc00017 	ldw	ra,0(sp)
     f98:	dec00304 	addi	sp,sp,12
     f9c:	f800283a 	ret

00000fa0 <printf>:
     fa0:	defffc04 	addi	sp,sp,-16
     fa4:	dfc00015 	stw	ra,0(sp)
     fa8:	d9400115 	stw	r5,4(sp)
     fac:	d9800215 	stw	r6,8(sp)
     fb0:	d9c00315 	stw	r7,12(sp)
     fb4:	008000b4 	movhi	r2,2
     fb8:	1086c904 	addi	r2,r2,6948
     fbc:	10800017 	ldw	r2,0(r2)
     fc0:	200b883a 	mov	r5,r4
     fc4:	d9800104 	addi	r6,sp,4
     fc8:	11000217 	ldw	r4,8(r2)
     fcc:	00055dc0 	call	55dc <__vfprintf_internal>
     fd0:	dfc00017 	ldw	ra,0(sp)
     fd4:	dec00404 	addi	sp,sp,16
     fd8:	f800283a 	ret

00000fdc <_puts_r>:
     fdc:	defff604 	addi	sp,sp,-40
     fe0:	dc000715 	stw	r16,28(sp)
     fe4:	2021883a 	mov	r16,r4
     fe8:	2809883a 	mov	r4,r5
     fec:	dc400815 	stw	r17,32(sp)
     ff0:	dfc00915 	stw	ra,36(sp)
     ff4:	2823883a 	mov	r17,r5
     ff8:	00011740 	call	1174 <strlen>
     ffc:	10c00044 	addi	r3,r2,1
    1000:	d8800115 	stw	r2,4(sp)
    1004:	008000b4 	movhi	r2,2
    1008:	10bd8804 	addi	r2,r2,-2528
    100c:	d8800215 	stw	r2,8(sp)
    1010:	00800044 	movi	r2,1
    1014:	d8800315 	stw	r2,12(sp)
    1018:	00800084 	movi	r2,2
    101c:	dc400015 	stw	r17,0(sp)
    1020:	d8c00615 	stw	r3,24(sp)
    1024:	dec00415 	stw	sp,16(sp)
    1028:	d8800515 	stw	r2,20(sp)
    102c:	80000226 	beq	r16,zero,1038 <_puts_r+0x5c>
    1030:	80800e17 	ldw	r2,56(r16)
    1034:	10001426 	beq	r2,zero,1088 <_puts_r+0xac>
    1038:	81400217 	ldw	r5,8(r16)
    103c:	2880030b 	ldhu	r2,12(r5)
    1040:	10c8000c 	andi	r3,r2,8192
    1044:	1800061e 	bne	r3,zero,1060 <_puts_r+0x84>
    1048:	29001917 	ldw	r4,100(r5)
    104c:	00f7ffc4 	movi	r3,-8193
    1050:	10880014 	ori	r2,r2,8192
    1054:	20c6703a 	and	r3,r4,r3
    1058:	2880030d 	sth	r2,12(r5)
    105c:	28c01915 	stw	r3,100(r5)
    1060:	d9800404 	addi	r6,sp,16
    1064:	8009883a 	mov	r4,r16
    1068:	0007b0c0 	call	7b0c <__sfvwrite_r>
    106c:	1000091e 	bne	r2,zero,1094 <_puts_r+0xb8>
    1070:	00800284 	movi	r2,10
    1074:	dfc00917 	ldw	ra,36(sp)
    1078:	dc400817 	ldw	r17,32(sp)
    107c:	dc000717 	ldw	r16,28(sp)
    1080:	dec00a04 	addi	sp,sp,40
    1084:	f800283a 	ret
    1088:	8009883a 	mov	r4,r16
    108c:	00076880 	call	7688 <__sinit>
    1090:	003fe906 	br	1038 <__alt_mem_onchip_memory+0xf7801038>
    1094:	00bfffc4 	movi	r2,-1
    1098:	003ff606 	br	1074 <__alt_mem_onchip_memory+0xf7801074>

0000109c <puts>:
    109c:	008000b4 	movhi	r2,2
    10a0:	1086c904 	addi	r2,r2,6948
    10a4:	200b883a 	mov	r5,r4
    10a8:	11000017 	ldw	r4,0(r2)
    10ac:	0000fdc1 	jmpi	fdc <_puts_r>

000010b0 <_sprintf_r>:
    10b0:	deffe404 	addi	sp,sp,-112
    10b4:	2807883a 	mov	r3,r5
    10b8:	dfc01a15 	stw	ra,104(sp)
    10bc:	d9c01b15 	stw	r7,108(sp)
    10c0:	00a00034 	movhi	r2,32768
    10c4:	10bfffc4 	addi	r2,r2,-1
    10c8:	02008204 	movi	r8,520
    10cc:	d8800215 	stw	r2,8(sp)
    10d0:	d8800515 	stw	r2,20(sp)
    10d4:	d9c01b04 	addi	r7,sp,108
    10d8:	d80b883a 	mov	r5,sp
    10dc:	00bfffc4 	movi	r2,-1
    10e0:	d8c00015 	stw	r3,0(sp)
    10e4:	d8c00415 	stw	r3,16(sp)
    10e8:	da00030d 	sth	r8,12(sp)
    10ec:	d880038d 	sth	r2,14(sp)
    10f0:	000120c0 	call	120c <___svfprintf_internal_r>
    10f4:	d8c00017 	ldw	r3,0(sp)
    10f8:	18000005 	stb	zero,0(r3)
    10fc:	dfc01a17 	ldw	ra,104(sp)
    1100:	dec01c04 	addi	sp,sp,112
    1104:	f800283a 	ret

00001108 <sprintf>:
    1108:	deffe304 	addi	sp,sp,-116
    110c:	2007883a 	mov	r3,r4
    1110:	dfc01a15 	stw	ra,104(sp)
    1114:	d9801b15 	stw	r6,108(sp)
    1118:	d9c01c15 	stw	r7,112(sp)
    111c:	010000b4 	movhi	r4,2
    1120:	2106c904 	addi	r4,r4,6948
    1124:	21000017 	ldw	r4,0(r4)
    1128:	00a00034 	movhi	r2,32768
    112c:	10bfffc4 	addi	r2,r2,-1
    1130:	280d883a 	mov	r6,r5
    1134:	02008204 	movi	r8,520
    1138:	d8800215 	stw	r2,8(sp)
    113c:	d8800515 	stw	r2,20(sp)
    1140:	d9c01b04 	addi	r7,sp,108
    1144:	d80b883a 	mov	r5,sp
    1148:	00bfffc4 	movi	r2,-1
    114c:	d8c00015 	stw	r3,0(sp)
    1150:	d8c00415 	stw	r3,16(sp)
    1154:	da00030d 	sth	r8,12(sp)
    1158:	d880038d 	sth	r2,14(sp)
    115c:	000120c0 	call	120c <___svfprintf_internal_r>
    1160:	d8c00017 	ldw	r3,0(sp)
    1164:	18000005 	stb	zero,0(r3)
    1168:	dfc01a17 	ldw	ra,104(sp)
    116c:	dec01d04 	addi	sp,sp,116
    1170:	f800283a 	ret

00001174 <strlen>:
    1174:	208000cc 	andi	r2,r4,3
    1178:	10002026 	beq	r2,zero,11fc <strlen+0x88>
    117c:	20800007 	ldb	r2,0(r4)
    1180:	10002026 	beq	r2,zero,1204 <strlen+0x90>
    1184:	2005883a 	mov	r2,r4
    1188:	00000206 	br	1194 <strlen+0x20>
    118c:	10c00007 	ldb	r3,0(r2)
    1190:	18001826 	beq	r3,zero,11f4 <strlen+0x80>
    1194:	10800044 	addi	r2,r2,1
    1198:	10c000cc 	andi	r3,r2,3
    119c:	183ffb1e 	bne	r3,zero,118c <__alt_mem_onchip_memory+0xf780118c>
    11a0:	10c00017 	ldw	r3,0(r2)
    11a4:	01ffbff4 	movhi	r7,65279
    11a8:	39ffbfc4 	addi	r7,r7,-257
    11ac:	00ca303a 	nor	r5,zero,r3
    11b0:	01a02074 	movhi	r6,32897
    11b4:	19c7883a 	add	r3,r3,r7
    11b8:	31a02004 	addi	r6,r6,-32640
    11bc:	1946703a 	and	r3,r3,r5
    11c0:	1986703a 	and	r3,r3,r6
    11c4:	1800091e 	bne	r3,zero,11ec <strlen+0x78>
    11c8:	10800104 	addi	r2,r2,4
    11cc:	10c00017 	ldw	r3,0(r2)
    11d0:	19cb883a 	add	r5,r3,r7
    11d4:	00c6303a 	nor	r3,zero,r3
    11d8:	28c6703a 	and	r3,r5,r3
    11dc:	1986703a 	and	r3,r3,r6
    11e0:	183ff926 	beq	r3,zero,11c8 <__alt_mem_onchip_memory+0xf78011c8>
    11e4:	00000106 	br	11ec <strlen+0x78>
    11e8:	10800044 	addi	r2,r2,1
    11ec:	10c00007 	ldb	r3,0(r2)
    11f0:	183ffd1e 	bne	r3,zero,11e8 <__alt_mem_onchip_memory+0xf78011e8>
    11f4:	1105c83a 	sub	r2,r2,r4
    11f8:	f800283a 	ret
    11fc:	2005883a 	mov	r2,r4
    1200:	003fe706 	br	11a0 <__alt_mem_onchip_memory+0xf78011a0>
    1204:	0005883a 	mov	r2,zero
    1208:	f800283a 	ret

0000120c <___svfprintf_internal_r>:
    120c:	deffb704 	addi	sp,sp,-292
    1210:	dfc04815 	stw	ra,288(sp)
    1214:	ddc04615 	stw	r23,280(sp)
    1218:	d9402c15 	stw	r5,176(sp)
    121c:	d9003915 	stw	r4,228(sp)
    1220:	302f883a 	mov	r23,r6
    1224:	d9c02d15 	stw	r7,180(sp)
    1228:	df004715 	stw	fp,284(sp)
    122c:	dd804515 	stw	r22,276(sp)
    1230:	dd404415 	stw	r21,272(sp)
    1234:	dd004315 	stw	r20,268(sp)
    1238:	dcc04215 	stw	r19,264(sp)
    123c:	dc804115 	stw	r18,260(sp)
    1240:	dc404015 	stw	r17,256(sp)
    1244:	dc003f15 	stw	r16,252(sp)
    1248:	00081fc0 	call	81fc <_localeconv_r>
    124c:	10800017 	ldw	r2,0(r2)
    1250:	1009883a 	mov	r4,r2
    1254:	d8803415 	stw	r2,208(sp)
    1258:	00011740 	call	1174 <strlen>
    125c:	d8c02c17 	ldw	r3,176(sp)
    1260:	d8803815 	stw	r2,224(sp)
    1264:	1880030b 	ldhu	r2,12(r3)
    1268:	1080200c 	andi	r2,r2,128
    126c:	10000226 	beq	r2,zero,1278 <___svfprintf_internal_r+0x6c>
    1270:	18800417 	ldw	r2,16(r3)
    1274:	10067f26 	beq	r2,zero,2c74 <___svfprintf_internal_r+0x1a68>
    1278:	dcc03917 	ldw	r19,228(sp)
    127c:	d8c00404 	addi	r3,sp,16
    1280:	054000b4 	movhi	r21,2
    1284:	d9001e04 	addi	r4,sp,120
    1288:	ad7d9984 	addi	r21,r21,-2458
    128c:	d8c01e15 	stw	r3,120(sp)
    1290:	d8002015 	stw	zero,128(sp)
    1294:	d8001f15 	stw	zero,124(sp)
    1298:	d8003315 	stw	zero,204(sp)
    129c:	d8003615 	stw	zero,216(sp)
    12a0:	d8003715 	stw	zero,220(sp)
    12a4:	1811883a 	mov	r8,r3
    12a8:	d8003a15 	stw	zero,232(sp)
    12ac:	d8003b15 	stw	zero,236(sp)
    12b0:	d8002f15 	stw	zero,188(sp)
    12b4:	d9002815 	stw	r4,160(sp)
    12b8:	b8800007 	ldb	r2,0(r23)
    12bc:	10026726 	beq	r2,zero,1c5c <___svfprintf_internal_r+0xa50>
    12c0:	00c00944 	movi	r3,37
    12c4:	b821883a 	mov	r16,r23
    12c8:	10c0021e 	bne	r2,r3,12d4 <___svfprintf_internal_r+0xc8>
    12cc:	00001406 	br	1320 <___svfprintf_internal_r+0x114>
    12d0:	10c00326 	beq	r2,r3,12e0 <___svfprintf_internal_r+0xd4>
    12d4:	84000044 	addi	r16,r16,1
    12d8:	80800007 	ldb	r2,0(r16)
    12dc:	103ffc1e 	bne	r2,zero,12d0 <__alt_mem_onchip_memory+0xf78012d0>
    12e0:	85e3c83a 	sub	r17,r16,r23
    12e4:	88000e26 	beq	r17,zero,1320 <___svfprintf_internal_r+0x114>
    12e8:	d8c02017 	ldw	r3,128(sp)
    12ec:	d8801f17 	ldw	r2,124(sp)
    12f0:	45c00015 	stw	r23,0(r8)
    12f4:	1c47883a 	add	r3,r3,r17
    12f8:	10800044 	addi	r2,r2,1
    12fc:	d8c02015 	stw	r3,128(sp)
    1300:	44400115 	stw	r17,4(r8)
    1304:	d8801f15 	stw	r2,124(sp)
    1308:	00c001c4 	movi	r3,7
    130c:	18809716 	blt	r3,r2,156c <___svfprintf_internal_r+0x360>
    1310:	42000204 	addi	r8,r8,8
    1314:	d9402f17 	ldw	r5,188(sp)
    1318:	2c4b883a 	add	r5,r5,r17
    131c:	d9402f15 	stw	r5,188(sp)
    1320:	80800007 	ldb	r2,0(r16)
    1324:	10009826 	beq	r2,zero,1588 <___svfprintf_internal_r+0x37c>
    1328:	84400047 	ldb	r17,1(r16)
    132c:	00bfffc4 	movi	r2,-1
    1330:	85c00044 	addi	r23,r16,1
    1334:	d8002785 	stb	zero,158(sp)
    1338:	0007883a 	mov	r3,zero
    133c:	000f883a 	mov	r7,zero
    1340:	d8802915 	stw	r2,164(sp)
    1344:	d8003115 	stw	zero,196(sp)
    1348:	0025883a 	mov	r18,zero
    134c:	01401604 	movi	r5,88
    1350:	01800244 	movi	r6,9
    1354:	02800a84 	movi	r10,42
    1358:	02401b04 	movi	r9,108
    135c:	bdc00044 	addi	r23,r23,1
    1360:	88bff804 	addi	r2,r17,-32
    1364:	2882f036 	bltu	r5,r2,1f28 <___svfprintf_internal_r+0xd1c>
    1368:	100490ba 	slli	r2,r2,2
    136c:	01000034 	movhi	r4,0
    1370:	2104e004 	addi	r4,r4,4992
    1374:	1105883a 	add	r2,r2,r4
    1378:	10800017 	ldw	r2,0(r2)
    137c:	1000683a 	jmp	r2
    1380:	00001e90 	cmplti	zero,zero,122
    1384:	00001f28 	cmpgeui	zero,zero,124
    1388:	00001f28 	cmpgeui	zero,zero,124
    138c:	00001e84 	movi	zero,122
    1390:	00001f28 	cmpgeui	zero,zero,124
    1394:	00001f28 	cmpgeui	zero,zero,124
    1398:	00001f28 	cmpgeui	zero,zero,124
    139c:	00001f28 	cmpgeui	zero,zero,124
    13a0:	00001f28 	cmpgeui	zero,zero,124
    13a4:	00001f28 	cmpgeui	zero,zero,124
    13a8:	000015e4 	muli	zero,zero,87
    13ac:	00001dc0 	call	1dc <alt_instruction_exception_entry+0x8>
    13b0:	00001f28 	cmpgeui	zero,zero,124
    13b4:	000014f4 	movhi	zero,83
    13b8:	0000160c 	andi	zero,zero,88
    13bc:	00001f28 	cmpgeui	zero,zero,124
    13c0:	00001680 	call	168 <alt_irq_handler+0x6c>
    13c4:	0000164c 	andi	zero,zero,89
    13c8:	0000164c 	andi	zero,zero,89
    13cc:	0000164c 	andi	zero,zero,89
    13d0:	0000164c 	andi	zero,zero,89
    13d4:	0000164c 	andi	zero,zero,89
    13d8:	0000164c 	andi	zero,zero,89
    13dc:	0000164c 	andi	zero,zero,89
    13e0:	0000164c 	andi	zero,zero,89
    13e4:	0000164c 	andi	zero,zero,89
    13e8:	00001f28 	cmpgeui	zero,zero,124
    13ec:	00001f28 	cmpgeui	zero,zero,124
    13f0:	00001f28 	cmpgeui	zero,zero,124
    13f4:	00001f28 	cmpgeui	zero,zero,124
    13f8:	00001f28 	cmpgeui	zero,zero,124
    13fc:	00001f28 	cmpgeui	zero,zero,124
    1400:	00001f28 	cmpgeui	zero,zero,124
    1404:	00001f28 	cmpgeui	zero,zero,124
    1408:	00001f28 	cmpgeui	zero,zero,124
    140c:	00001f28 	cmpgeui	zero,zero,124
    1410:	00001738 	rdprs	zero,zero,92
    1414:	0000168c 	andi	zero,zero,90
    1418:	00001f28 	cmpgeui	zero,zero,124
    141c:	0000168c 	andi	zero,zero,90
    1420:	00001f28 	cmpgeui	zero,zero,124
    1424:	00001f28 	cmpgeui	zero,zero,124
    1428:	00001f28 	cmpgeui	zero,zero,124
    142c:	00001f28 	cmpgeui	zero,zero,124
    1430:	0000172c 	andhi	zero,zero,92
    1434:	00001f28 	cmpgeui	zero,zero,124
    1438:	00001f28 	cmpgeui	zero,zero,124
    143c:	000017f4 	movhi	zero,95
    1440:	00001f28 	cmpgeui	zero,zero,124
    1444:	00001f28 	cmpgeui	zero,zero,124
    1448:	00001f28 	cmpgeui	zero,zero,124
    144c:	00001f28 	cmpgeui	zero,zero,124
    1450:	00001f28 	cmpgeui	zero,zero,124
    1454:	00001c64 	muli	zero,zero,113
    1458:	00001f28 	cmpgeui	zero,zero,124
    145c:	00001f28 	cmpgeui	zero,zero,124
    1460:	00001cc4 	movi	zero,115
    1464:	00001f28 	cmpgeui	zero,zero,124
    1468:	00001f28 	cmpgeui	zero,zero,124
    146c:	00001f28 	cmpgeui	zero,zero,124
    1470:	00001f28 	cmpgeui	zero,zero,124
    1474:	00001f28 	cmpgeui	zero,zero,124
    1478:	00001f28 	cmpgeui	zero,zero,124
    147c:	00001f28 	cmpgeui	zero,zero,124
    1480:	00001f28 	cmpgeui	zero,zero,124
    1484:	00001f28 	cmpgeui	zero,zero,124
    1488:	00001f28 	cmpgeui	zero,zero,124
    148c:	00001d74 	movhi	zero,117
    1490:	00001eb0 	cmpltui	zero,zero,122
    1494:	0000168c 	andi	zero,zero,90
    1498:	0000168c 	andi	zero,zero,90
    149c:	0000168c 	andi	zero,zero,90
    14a0:	00001f04 	movi	zero,124
    14a4:	00001eb0 	cmpltui	zero,zero,122
    14a8:	00001f28 	cmpgeui	zero,zero,124
    14ac:	00001f28 	cmpgeui	zero,zero,124
    14b0:	00001ec0 	call	1ec <alt_instruction_exception_entry+0x18>
    14b4:	00001f28 	cmpgeui	zero,zero,124
    14b8:	00001ed0 	cmplti	zero,zero,123
    14bc:	00001db0 	cmpltui	zero,zero,118
    14c0:	00001500 	call	150 <alt_irq_handler+0x54>
    14c4:	00001dd0 	cmplti	zero,zero,119
    14c8:	00001f28 	cmpgeui	zero,zero,124
    14cc:	00001ddc 	xori	zero,zero,119
    14d0:	00001f28 	cmpgeui	zero,zero,124
    14d4:	00001e38 	rdprs	zero,zero,120
    14d8:	00001f28 	cmpgeui	zero,zero,124
    14dc:	00001f28 	cmpgeui	zero,zero,124
    14e0:	00001e48 	cmpgei	zero,zero,121
    14e4:	d9003117 	ldw	r4,196(sp)
    14e8:	d8802d15 	stw	r2,180(sp)
    14ec:	0109c83a 	sub	r4,zero,r4
    14f0:	d9003115 	stw	r4,196(sp)
    14f4:	94800114 	ori	r18,r18,4
    14f8:	bc400007 	ldb	r17,0(r23)
    14fc:	003f9706 	br	135c <__alt_mem_onchip_memory+0xf780135c>
    1500:	00800c04 	movi	r2,48
    1504:	d9002d17 	ldw	r4,180(sp)
    1508:	d9402917 	ldw	r5,164(sp)
    150c:	d8802705 	stb	r2,156(sp)
    1510:	00801e04 	movi	r2,120
    1514:	d8802745 	stb	r2,157(sp)
    1518:	d8002785 	stb	zero,158(sp)
    151c:	20c00104 	addi	r3,r4,4
    1520:	25000017 	ldw	r20,0(r4)
    1524:	002d883a 	mov	r22,zero
    1528:	90800094 	ori	r2,r18,2
    152c:	28028616 	blt	r5,zero,1f48 <___svfprintf_internal_r+0xd3c>
    1530:	00bfdfc4 	movi	r2,-129
    1534:	90a4703a 	and	r18,r18,r2
    1538:	d8c02d15 	stw	r3,180(sp)
    153c:	94800094 	ori	r18,r18,2
    1540:	a002731e 	bne	r20,zero,1f10 <___svfprintf_internal_r+0xd04>
    1544:	008000b4 	movhi	r2,2
    1548:	10bd9204 	addi	r2,r2,-2488
    154c:	d8803a15 	stw	r2,232(sp)
    1550:	04401e04 	movi	r17,120
    1554:	d8c02917 	ldw	r3,164(sp)
    1558:	0039883a 	mov	fp,zero
    155c:	1801d526 	beq	r3,zero,1cb4 <___svfprintf_internal_r+0xaa8>
    1560:	0029883a 	mov	r20,zero
    1564:	002d883a 	mov	r22,zero
    1568:	0001f106 	br	1d30 <___svfprintf_internal_r+0xb24>
    156c:	d9402c17 	ldw	r5,176(sp)
    1570:	d9801e04 	addi	r6,sp,120
    1574:	9809883a 	mov	r4,r19
    1578:	000a8e40 	call	a8e4 <__ssprint_r>
    157c:	1000081e 	bne	r2,zero,15a0 <___svfprintf_internal_r+0x394>
    1580:	da000404 	addi	r8,sp,16
    1584:	003f6306 	br	1314 <__alt_mem_onchip_memory+0xf7801314>
    1588:	d8802017 	ldw	r2,128(sp)
    158c:	10000426 	beq	r2,zero,15a0 <___svfprintf_internal_r+0x394>
    1590:	d9402c17 	ldw	r5,176(sp)
    1594:	d9003917 	ldw	r4,228(sp)
    1598:	d9801e04 	addi	r6,sp,120
    159c:	000a8e40 	call	a8e4 <__ssprint_r>
    15a0:	d8802c17 	ldw	r2,176(sp)
    15a4:	10c0030b 	ldhu	r3,12(r2)
    15a8:	d8802f17 	ldw	r2,188(sp)
    15ac:	18c0100c 	andi	r3,r3,64
    15b0:	1805f51e 	bne	r3,zero,2d88 <___svfprintf_internal_r+0x1b7c>
    15b4:	dfc04817 	ldw	ra,288(sp)
    15b8:	df004717 	ldw	fp,284(sp)
    15bc:	ddc04617 	ldw	r23,280(sp)
    15c0:	dd804517 	ldw	r22,276(sp)
    15c4:	dd404417 	ldw	r21,272(sp)
    15c8:	dd004317 	ldw	r20,268(sp)
    15cc:	dcc04217 	ldw	r19,264(sp)
    15d0:	dc804117 	ldw	r18,260(sp)
    15d4:	dc404017 	ldw	r17,256(sp)
    15d8:	dc003f17 	ldw	r16,252(sp)
    15dc:	dec04904 	addi	sp,sp,292
    15e0:	f800283a 	ret
    15e4:	d8802d17 	ldw	r2,180(sp)
    15e8:	d9002d17 	ldw	r4,180(sp)
    15ec:	10800017 	ldw	r2,0(r2)
    15f0:	d8803115 	stw	r2,196(sp)
    15f4:	20800104 	addi	r2,r4,4
    15f8:	d9003117 	ldw	r4,196(sp)
    15fc:	203fb916 	blt	r4,zero,14e4 <__alt_mem_onchip_memory+0xf78014e4>
    1600:	d8802d15 	stw	r2,180(sp)
    1604:	bc400007 	ldb	r17,0(r23)
    1608:	003f5406 	br	135c <__alt_mem_onchip_memory+0xf780135c>
    160c:	bc400007 	ldb	r17,0(r23)
    1610:	bac00044 	addi	r11,r23,1
    1614:	8a873926 	beq	r17,r10,32fc <___svfprintf_internal_r+0x20f0>
    1618:	88bff404 	addi	r2,r17,-48
    161c:	0009883a 	mov	r4,zero
    1620:	30868836 	bltu	r6,r2,3044 <___svfprintf_internal_r+0x1e38>
    1624:	5c400007 	ldb	r17,0(r11)
    1628:	210002a4 	muli	r4,r4,10
    162c:	5dc00044 	addi	r23,r11,1
    1630:	b817883a 	mov	r11,r23
    1634:	2089883a 	add	r4,r4,r2
    1638:	88bff404 	addi	r2,r17,-48
    163c:	30bff92e 	bgeu	r6,r2,1624 <__alt_mem_onchip_memory+0xf7801624>
    1640:	2005d716 	blt	r4,zero,2da0 <___svfprintf_internal_r+0x1b94>
    1644:	d9002915 	stw	r4,164(sp)
    1648:	003f4506 	br	1360 <__alt_mem_onchip_memory+0xf7801360>
    164c:	b809883a 	mov	r4,r23
    1650:	d8003115 	stw	zero,196(sp)
    1654:	88bff404 	addi	r2,r17,-48
    1658:	0017883a 	mov	r11,zero
    165c:	24400007 	ldb	r17,0(r4)
    1660:	5ac002a4 	muli	r11,r11,10
    1664:	bdc00044 	addi	r23,r23,1
    1668:	b809883a 	mov	r4,r23
    166c:	12d7883a 	add	r11,r2,r11
    1670:	88bff404 	addi	r2,r17,-48
    1674:	30bff92e 	bgeu	r6,r2,165c <__alt_mem_onchip_memory+0xf780165c>
    1678:	dac03115 	stw	r11,196(sp)
    167c:	003f3806 	br	1360 <__alt_mem_onchip_memory+0xf7801360>
    1680:	94802014 	ori	r18,r18,128
    1684:	bc400007 	ldb	r17,0(r23)
    1688:	003f3406 	br	135c <__alt_mem_onchip_memory+0xf780135c>
    168c:	18c03fcc 	andi	r3,r3,255
    1690:	1807471e 	bne	r3,zero,33b0 <___svfprintf_internal_r+0x21a4>
    1694:	9080020c 	andi	r2,r18,8
    1698:	10047d26 	beq	r2,zero,2890 <___svfprintf_internal_r+0x1684>
    169c:	d8c02d17 	ldw	r3,180(sp)
    16a0:	d9002d17 	ldw	r4,180(sp)
    16a4:	d9402d17 	ldw	r5,180(sp)
    16a8:	18c00017 	ldw	r3,0(r3)
    16ac:	21000117 	ldw	r4,4(r4)
    16b0:	29400204 	addi	r5,r5,8
    16b4:	d8c03615 	stw	r3,216(sp)
    16b8:	d9003715 	stw	r4,220(sp)
    16bc:	d9402d15 	stw	r5,180(sp)
    16c0:	d9003617 	ldw	r4,216(sp)
    16c4:	d9403717 	ldw	r5,220(sp)
    16c8:	da003e15 	stw	r8,248(sp)
    16cc:	04000044 	movi	r16,1
    16d0:	000a6040 	call	a604 <__fpclassifyd>
    16d4:	da003e17 	ldw	r8,248(sp)
    16d8:	14044b1e 	bne	r2,r16,2808 <___svfprintf_internal_r+0x15fc>
    16dc:	d9003617 	ldw	r4,216(sp)
    16e0:	d9403717 	ldw	r5,220(sp)
    16e4:	000d883a 	mov	r6,zero
    16e8:	000f883a 	mov	r7,zero
    16ec:	000fbc80 	call	fbc8 <__ledf2>
    16f0:	da003e17 	ldw	r8,248(sp)
    16f4:	1005f316 	blt	r2,zero,2ec4 <___svfprintf_internal_r+0x1cb8>
    16f8:	df002783 	ldbu	fp,158(sp)
    16fc:	008011c4 	movi	r2,71
    1700:	1445590e 	bge	r2,r17,2c68 <___svfprintf_internal_r+0x1a5c>
    1704:	040000b4 	movhi	r16,2
    1708:	843d8a04 	addi	r16,r16,-2520
    170c:	00c000c4 	movi	r3,3
    1710:	00bfdfc4 	movi	r2,-129
    1714:	d8c02a15 	stw	r3,168(sp)
    1718:	90a4703a 	and	r18,r18,r2
    171c:	d8c02e15 	stw	r3,184(sp)
    1720:	d8002915 	stw	zero,164(sp)
    1724:	d8003215 	stw	zero,200(sp)
    1728:	00006606 	br	18c4 <___svfprintf_internal_r+0x6b8>
    172c:	94800214 	ori	r18,r18,8
    1730:	bc400007 	ldb	r17,0(r23)
    1734:	003f0906 	br	135c <__alt_mem_onchip_memory+0xf780135c>
    1738:	18c03fcc 	andi	r3,r3,255
    173c:	1807181e 	bne	r3,zero,33a0 <___svfprintf_internal_r+0x2194>
    1740:	94800414 	ori	r18,r18,16
    1744:	9080080c 	andi	r2,r18,32
    1748:	10039626 	beq	r2,zero,25a4 <___svfprintf_internal_r+0x1398>
    174c:	d9402d17 	ldw	r5,180(sp)
    1750:	28800117 	ldw	r2,4(r5)
    1754:	2d000017 	ldw	r20,0(r5)
    1758:	29400204 	addi	r5,r5,8
    175c:	d9402d15 	stw	r5,180(sp)
    1760:	102d883a 	mov	r22,r2
    1764:	10039816 	blt	r2,zero,25c8 <___svfprintf_internal_r+0x13bc>
    1768:	d9402917 	ldw	r5,164(sp)
    176c:	df002783 	ldbu	fp,158(sp)
    1770:	2803ab16 	blt	r5,zero,2620 <___svfprintf_internal_r+0x1414>
    1774:	00ffdfc4 	movi	r3,-129
    1778:	a584b03a 	or	r2,r20,r22
    177c:	90e4703a 	and	r18,r18,r3
    1780:	10014a26 	beq	r2,zero,1cac <___svfprintf_internal_r+0xaa0>
    1784:	b0034b26 	beq	r22,zero,24b4 <___svfprintf_internal_r+0x12a8>
    1788:	dc402a15 	stw	r17,168(sp)
    178c:	dc001e04 	addi	r16,sp,120
    1790:	b023883a 	mov	r17,r22
    1794:	402d883a 	mov	r22,r8
    1798:	a009883a 	mov	r4,r20
    179c:	880b883a 	mov	r5,r17
    17a0:	01800284 	movi	r6,10
    17a4:	000f883a 	mov	r7,zero
    17a8:	000e1e40 	call	e1e4 <__umoddi3>
    17ac:	10800c04 	addi	r2,r2,48
    17b0:	843fffc4 	addi	r16,r16,-1
    17b4:	a009883a 	mov	r4,r20
    17b8:	880b883a 	mov	r5,r17
    17bc:	80800005 	stb	r2,0(r16)
    17c0:	01800284 	movi	r6,10
    17c4:	000f883a 	mov	r7,zero
    17c8:	000dc6c0 	call	dc6c <__udivdi3>
    17cc:	1029883a 	mov	r20,r2
    17d0:	10c4b03a 	or	r2,r2,r3
    17d4:	1823883a 	mov	r17,r3
    17d8:	103fef1e 	bne	r2,zero,1798 <__alt_mem_onchip_memory+0xf7801798>
    17dc:	d8c02817 	ldw	r3,160(sp)
    17e0:	dc402a17 	ldw	r17,168(sp)
    17e4:	b011883a 	mov	r8,r22
    17e8:	1c07c83a 	sub	r3,r3,r16
    17ec:	d8c02e15 	stw	r3,184(sp)
    17f0:	00002e06 	br	18ac <___svfprintf_internal_r+0x6a0>
    17f4:	18c03fcc 	andi	r3,r3,255
    17f8:	1806e71e 	bne	r3,zero,3398 <___svfprintf_internal_r+0x218c>
    17fc:	94800414 	ori	r18,r18,16
    1800:	9080080c 	andi	r2,r18,32
    1804:	1002d426 	beq	r2,zero,2358 <___svfprintf_internal_r+0x114c>
    1808:	d9402d17 	ldw	r5,180(sp)
    180c:	d8c02917 	ldw	r3,164(sp)
    1810:	d8002785 	stb	zero,158(sp)
    1814:	28800204 	addi	r2,r5,8
    1818:	2d000017 	ldw	r20,0(r5)
    181c:	2d800117 	ldw	r22,4(r5)
    1820:	18041516 	blt	r3,zero,2878 <___svfprintf_internal_r+0x166c>
    1824:	013fdfc4 	movi	r4,-129
    1828:	a586b03a 	or	r3,r20,r22
    182c:	d8802d15 	stw	r2,180(sp)
    1830:	9124703a 	and	r18,r18,r4
    1834:	1802d51e 	bne	r3,zero,238c <___svfprintf_internal_r+0x1180>
    1838:	d9402917 	ldw	r5,164(sp)
    183c:	0039883a 	mov	fp,zero
    1840:	2806be26 	beq	r5,zero,333c <___svfprintf_internal_r+0x2130>
    1844:	0029883a 	mov	r20,zero
    1848:	002d883a 	mov	r22,zero
    184c:	dc001e04 	addi	r16,sp,120
    1850:	a006d0fa 	srli	r3,r20,3
    1854:	b008977a 	slli	r4,r22,29
    1858:	b02cd0fa 	srli	r22,r22,3
    185c:	a50001cc 	andi	r20,r20,7
    1860:	a0800c04 	addi	r2,r20,48
    1864:	843fffc4 	addi	r16,r16,-1
    1868:	20e8b03a 	or	r20,r4,r3
    186c:	80800005 	stb	r2,0(r16)
    1870:	a586b03a 	or	r3,r20,r22
    1874:	183ff61e 	bne	r3,zero,1850 <__alt_mem_onchip_memory+0xf7801850>
    1878:	90c0004c 	andi	r3,r18,1
    187c:	18013926 	beq	r3,zero,1d64 <___svfprintf_internal_r+0xb58>
    1880:	10803fcc 	andi	r2,r2,255
    1884:	1080201c 	xori	r2,r2,128
    1888:	10bfe004 	addi	r2,r2,-128
    188c:	00c00c04 	movi	r3,48
    1890:	10c13426 	beq	r2,r3,1d64 <___svfprintf_internal_r+0xb58>
    1894:	80ffffc5 	stb	r3,-1(r16)
    1898:	d8c02817 	ldw	r3,160(sp)
    189c:	80bfffc4 	addi	r2,r16,-1
    18a0:	1021883a 	mov	r16,r2
    18a4:	1887c83a 	sub	r3,r3,r2
    18a8:	d8c02e15 	stw	r3,184(sp)
    18ac:	d8802e17 	ldw	r2,184(sp)
    18b0:	d9002917 	ldw	r4,164(sp)
    18b4:	1100010e 	bge	r2,r4,18bc <___svfprintf_internal_r+0x6b0>
    18b8:	2005883a 	mov	r2,r4
    18bc:	d8802a15 	stw	r2,168(sp)
    18c0:	d8003215 	stw	zero,200(sp)
    18c4:	e7003fcc 	andi	fp,fp,255
    18c8:	e700201c 	xori	fp,fp,128
    18cc:	e73fe004 	addi	fp,fp,-128
    18d0:	e0000326 	beq	fp,zero,18e0 <___svfprintf_internal_r+0x6d4>
    18d4:	d8c02a17 	ldw	r3,168(sp)
    18d8:	18c00044 	addi	r3,r3,1
    18dc:	d8c02a15 	stw	r3,168(sp)
    18e0:	90c0008c 	andi	r3,r18,2
    18e4:	d8c02b15 	stw	r3,172(sp)
    18e8:	18000326 	beq	r3,zero,18f8 <___svfprintf_internal_r+0x6ec>
    18ec:	d8c02a17 	ldw	r3,168(sp)
    18f0:	18c00084 	addi	r3,r3,2
    18f4:	d8c02a15 	stw	r3,168(sp)
    18f8:	90c0210c 	andi	r3,r18,132
    18fc:	d8c03015 	stw	r3,192(sp)
    1900:	1801a11e 	bne	r3,zero,1f88 <___svfprintf_internal_r+0xd7c>
    1904:	d9003117 	ldw	r4,196(sp)
    1908:	d8c02a17 	ldw	r3,168(sp)
    190c:	20e9c83a 	sub	r20,r4,r3
    1910:	05019d0e 	bge	zero,r20,1f88 <___svfprintf_internal_r+0xd7c>
    1914:	02400404 	movi	r9,16
    1918:	d8c02017 	ldw	r3,128(sp)
    191c:	d8801f17 	ldw	r2,124(sp)
    1920:	4d051b0e 	bge	r9,r20,2d90 <___svfprintf_internal_r+0x1b84>
    1924:	014000b4 	movhi	r5,2
    1928:	297d9d84 	addi	r5,r5,-2442
    192c:	dc403c15 	stw	r17,240(sp)
    1930:	d9403515 	stw	r5,212(sp)
    1934:	a023883a 	mov	r17,r20
    1938:	482d883a 	mov	r22,r9
    193c:	9029883a 	mov	r20,r18
    1940:	070001c4 	movi	fp,7
    1944:	8025883a 	mov	r18,r16
    1948:	dc002c17 	ldw	r16,176(sp)
    194c:	00000306 	br	195c <___svfprintf_internal_r+0x750>
    1950:	8c7ffc04 	addi	r17,r17,-16
    1954:	42000204 	addi	r8,r8,8
    1958:	b440130e 	bge	r22,r17,19a8 <___svfprintf_internal_r+0x79c>
    195c:	010000b4 	movhi	r4,2
    1960:	18c00404 	addi	r3,r3,16
    1964:	10800044 	addi	r2,r2,1
    1968:	213d9d84 	addi	r4,r4,-2442
    196c:	41000015 	stw	r4,0(r8)
    1970:	45800115 	stw	r22,4(r8)
    1974:	d8c02015 	stw	r3,128(sp)
    1978:	d8801f15 	stw	r2,124(sp)
    197c:	e0bff40e 	bge	fp,r2,1950 <__alt_mem_onchip_memory+0xf7801950>
    1980:	d9801e04 	addi	r6,sp,120
    1984:	800b883a 	mov	r5,r16
    1988:	9809883a 	mov	r4,r19
    198c:	000a8e40 	call	a8e4 <__ssprint_r>
    1990:	103f031e 	bne	r2,zero,15a0 <__alt_mem_onchip_memory+0xf78015a0>
    1994:	8c7ffc04 	addi	r17,r17,-16
    1998:	d8c02017 	ldw	r3,128(sp)
    199c:	d8801f17 	ldw	r2,124(sp)
    19a0:	da000404 	addi	r8,sp,16
    19a4:	b47fed16 	blt	r22,r17,195c <__alt_mem_onchip_memory+0xf780195c>
    19a8:	9021883a 	mov	r16,r18
    19ac:	a025883a 	mov	r18,r20
    19b0:	8829883a 	mov	r20,r17
    19b4:	dc403c17 	ldw	r17,240(sp)
    19b8:	d9403517 	ldw	r5,212(sp)
    19bc:	a0c7883a 	add	r3,r20,r3
    19c0:	10800044 	addi	r2,r2,1
    19c4:	41400015 	stw	r5,0(r8)
    19c8:	45000115 	stw	r20,4(r8)
    19cc:	d8c02015 	stw	r3,128(sp)
    19d0:	d8801f15 	stw	r2,124(sp)
    19d4:	010001c4 	movi	r4,7
    19d8:	20829f16 	blt	r4,r2,2458 <___svfprintf_internal_r+0x124c>
    19dc:	df002787 	ldb	fp,158(sp)
    19e0:	42000204 	addi	r8,r8,8
    19e4:	e0000c26 	beq	fp,zero,1a18 <___svfprintf_internal_r+0x80c>
    19e8:	d8801f17 	ldw	r2,124(sp)
    19ec:	d9002784 	addi	r4,sp,158
    19f0:	18c00044 	addi	r3,r3,1
    19f4:	10800044 	addi	r2,r2,1
    19f8:	41000015 	stw	r4,0(r8)
    19fc:	01000044 	movi	r4,1
    1a00:	41000115 	stw	r4,4(r8)
    1a04:	d8c02015 	stw	r3,128(sp)
    1a08:	d8801f15 	stw	r2,124(sp)
    1a0c:	010001c4 	movi	r4,7
    1a10:	20823816 	blt	r4,r2,22f4 <___svfprintf_internal_r+0x10e8>
    1a14:	42000204 	addi	r8,r8,8
    1a18:	d8802b17 	ldw	r2,172(sp)
    1a1c:	10000c26 	beq	r2,zero,1a50 <___svfprintf_internal_r+0x844>
    1a20:	d8801f17 	ldw	r2,124(sp)
    1a24:	d9002704 	addi	r4,sp,156
    1a28:	18c00084 	addi	r3,r3,2
    1a2c:	10800044 	addi	r2,r2,1
    1a30:	41000015 	stw	r4,0(r8)
    1a34:	01000084 	movi	r4,2
    1a38:	41000115 	stw	r4,4(r8)
    1a3c:	d8c02015 	stw	r3,128(sp)
    1a40:	d8801f15 	stw	r2,124(sp)
    1a44:	010001c4 	movi	r4,7
    1a48:	20823216 	blt	r4,r2,2314 <___svfprintf_internal_r+0x1108>
    1a4c:	42000204 	addi	r8,r8,8
    1a50:	d9003017 	ldw	r4,192(sp)
    1a54:	00802004 	movi	r2,128
    1a58:	20819726 	beq	r4,r2,20b8 <___svfprintf_internal_r+0xeac>
    1a5c:	d9402917 	ldw	r5,164(sp)
    1a60:	d8802e17 	ldw	r2,184(sp)
    1a64:	28adc83a 	sub	r22,r5,r2
    1a68:	05802f0e 	bge	zero,r22,1b28 <___svfprintf_internal_r+0x91c>
    1a6c:	07000404 	movi	fp,16
    1a70:	d8801f17 	ldw	r2,124(sp)
    1a74:	e583c00e 	bge	fp,r22,2978 <___svfprintf_internal_r+0x176c>
    1a78:	014000b4 	movhi	r5,2
    1a7c:	297d9984 	addi	r5,r5,-2458
    1a80:	dc402915 	stw	r17,164(sp)
    1a84:	d9402b15 	stw	r5,172(sp)
    1a88:	b023883a 	mov	r17,r22
    1a8c:	050001c4 	movi	r20,7
    1a90:	902d883a 	mov	r22,r18
    1a94:	8025883a 	mov	r18,r16
    1a98:	dc002c17 	ldw	r16,176(sp)
    1a9c:	00000306 	br	1aac <___svfprintf_internal_r+0x8a0>
    1aa0:	8c7ffc04 	addi	r17,r17,-16
    1aa4:	42000204 	addi	r8,r8,8
    1aa8:	e440110e 	bge	fp,r17,1af0 <___svfprintf_internal_r+0x8e4>
    1aac:	18c00404 	addi	r3,r3,16
    1ab0:	10800044 	addi	r2,r2,1
    1ab4:	45400015 	stw	r21,0(r8)
    1ab8:	47000115 	stw	fp,4(r8)
    1abc:	d8c02015 	stw	r3,128(sp)
    1ac0:	d8801f15 	stw	r2,124(sp)
    1ac4:	a0bff60e 	bge	r20,r2,1aa0 <__alt_mem_onchip_memory+0xf7801aa0>
    1ac8:	d9801e04 	addi	r6,sp,120
    1acc:	800b883a 	mov	r5,r16
    1ad0:	9809883a 	mov	r4,r19
    1ad4:	000a8e40 	call	a8e4 <__ssprint_r>
    1ad8:	103eb11e 	bne	r2,zero,15a0 <__alt_mem_onchip_memory+0xf78015a0>
    1adc:	8c7ffc04 	addi	r17,r17,-16
    1ae0:	d8c02017 	ldw	r3,128(sp)
    1ae4:	d8801f17 	ldw	r2,124(sp)
    1ae8:	da000404 	addi	r8,sp,16
    1aec:	e47fef16 	blt	fp,r17,1aac <__alt_mem_onchip_memory+0xf7801aac>
    1af0:	9021883a 	mov	r16,r18
    1af4:	b025883a 	mov	r18,r22
    1af8:	882d883a 	mov	r22,r17
    1afc:	dc402917 	ldw	r17,164(sp)
    1b00:	d9002b17 	ldw	r4,172(sp)
    1b04:	1d87883a 	add	r3,r3,r22
    1b08:	10800044 	addi	r2,r2,1
    1b0c:	41000015 	stw	r4,0(r8)
    1b10:	45800115 	stw	r22,4(r8)
    1b14:	d8c02015 	stw	r3,128(sp)
    1b18:	d8801f15 	stw	r2,124(sp)
    1b1c:	010001c4 	movi	r4,7
    1b20:	2081ec16 	blt	r4,r2,22d4 <___svfprintf_internal_r+0x10c8>
    1b24:	42000204 	addi	r8,r8,8
    1b28:	9080400c 	andi	r2,r18,256
    1b2c:	1001181e 	bne	r2,zero,1f90 <___svfprintf_internal_r+0xd84>
    1b30:	d9402e17 	ldw	r5,184(sp)
    1b34:	d8801f17 	ldw	r2,124(sp)
    1b38:	44000015 	stw	r16,0(r8)
    1b3c:	1947883a 	add	r3,r3,r5
    1b40:	10800044 	addi	r2,r2,1
    1b44:	41400115 	stw	r5,4(r8)
    1b48:	d8c02015 	stw	r3,128(sp)
    1b4c:	d8801f15 	stw	r2,124(sp)
    1b50:	010001c4 	movi	r4,7
    1b54:	2081d116 	blt	r4,r2,229c <___svfprintf_internal_r+0x1090>
    1b58:	42000204 	addi	r8,r8,8
    1b5c:	9480010c 	andi	r18,r18,4
    1b60:	90003226 	beq	r18,zero,1c2c <___svfprintf_internal_r+0xa20>
    1b64:	d9403117 	ldw	r5,196(sp)
    1b68:	d8802a17 	ldw	r2,168(sp)
    1b6c:	28a1c83a 	sub	r16,r5,r2
    1b70:	04002e0e 	bge	zero,r16,1c2c <___svfprintf_internal_r+0xa20>
    1b74:	04400404 	movi	r17,16
    1b78:	d8801f17 	ldw	r2,124(sp)
    1b7c:	8c04b90e 	bge	r17,r16,2e64 <___svfprintf_internal_r+0x1c58>
    1b80:	014000b4 	movhi	r5,2
    1b84:	297d9d84 	addi	r5,r5,-2442
    1b88:	d9403515 	stw	r5,212(sp)
    1b8c:	048001c4 	movi	r18,7
    1b90:	dd002c17 	ldw	r20,176(sp)
    1b94:	00000306 	br	1ba4 <___svfprintf_internal_r+0x998>
    1b98:	843ffc04 	addi	r16,r16,-16
    1b9c:	42000204 	addi	r8,r8,8
    1ba0:	8c00130e 	bge	r17,r16,1bf0 <___svfprintf_internal_r+0x9e4>
    1ba4:	010000b4 	movhi	r4,2
    1ba8:	18c00404 	addi	r3,r3,16
    1bac:	10800044 	addi	r2,r2,1
    1bb0:	213d9d84 	addi	r4,r4,-2442
    1bb4:	41000015 	stw	r4,0(r8)
    1bb8:	44400115 	stw	r17,4(r8)
    1bbc:	d8c02015 	stw	r3,128(sp)
    1bc0:	d8801f15 	stw	r2,124(sp)
    1bc4:	90bff40e 	bge	r18,r2,1b98 <__alt_mem_onchip_memory+0xf7801b98>
    1bc8:	d9801e04 	addi	r6,sp,120
    1bcc:	a00b883a 	mov	r5,r20
    1bd0:	9809883a 	mov	r4,r19
    1bd4:	000a8e40 	call	a8e4 <__ssprint_r>
    1bd8:	103e711e 	bne	r2,zero,15a0 <__alt_mem_onchip_memory+0xf78015a0>
    1bdc:	843ffc04 	addi	r16,r16,-16
    1be0:	d8c02017 	ldw	r3,128(sp)
    1be4:	d8801f17 	ldw	r2,124(sp)
    1be8:	da000404 	addi	r8,sp,16
    1bec:	8c3fed16 	blt	r17,r16,1ba4 <__alt_mem_onchip_memory+0xf7801ba4>
    1bf0:	d9403517 	ldw	r5,212(sp)
    1bf4:	1c07883a 	add	r3,r3,r16
    1bf8:	10800044 	addi	r2,r2,1
    1bfc:	41400015 	stw	r5,0(r8)
    1c00:	44000115 	stw	r16,4(r8)
    1c04:	d8c02015 	stw	r3,128(sp)
    1c08:	d8801f15 	stw	r2,124(sp)
    1c0c:	010001c4 	movi	r4,7
    1c10:	2080060e 	bge	r4,r2,1c2c <___svfprintf_internal_r+0xa20>
    1c14:	d9402c17 	ldw	r5,176(sp)
    1c18:	d9801e04 	addi	r6,sp,120
    1c1c:	9809883a 	mov	r4,r19
    1c20:	000a8e40 	call	a8e4 <__ssprint_r>
    1c24:	103e5e1e 	bne	r2,zero,15a0 <__alt_mem_onchip_memory+0xf78015a0>
    1c28:	d8c02017 	ldw	r3,128(sp)
    1c2c:	d8803117 	ldw	r2,196(sp)
    1c30:	d9002a17 	ldw	r4,168(sp)
    1c34:	1100010e 	bge	r2,r4,1c3c <___svfprintf_internal_r+0xa30>
    1c38:	2005883a 	mov	r2,r4
    1c3c:	d9402f17 	ldw	r5,188(sp)
    1c40:	288b883a 	add	r5,r5,r2
    1c44:	d9402f15 	stw	r5,188(sp)
    1c48:	18019c1e 	bne	r3,zero,22bc <___svfprintf_internal_r+0x10b0>
    1c4c:	b8800007 	ldb	r2,0(r23)
    1c50:	d8001f15 	stw	zero,124(sp)
    1c54:	da000404 	addi	r8,sp,16
    1c58:	103d991e 	bne	r2,zero,12c0 <__alt_mem_onchip_memory+0xf78012c0>
    1c5c:	b821883a 	mov	r16,r23
    1c60:	003daf06 	br	1320 <__alt_mem_onchip_memory+0xf7801320>
    1c64:	18c03fcc 	andi	r3,r3,255
    1c68:	1805c71e 	bne	r3,zero,3388 <___svfprintf_internal_r+0x217c>
    1c6c:	94800414 	ori	r18,r18,16
    1c70:	9080080c 	andi	r2,r18,32
    1c74:	10020126 	beq	r2,zero,247c <___svfprintf_internal_r+0x1270>
    1c78:	d8802d17 	ldw	r2,180(sp)
    1c7c:	d9002917 	ldw	r4,164(sp)
    1c80:	d8002785 	stb	zero,158(sp)
    1c84:	10c00204 	addi	r3,r2,8
    1c88:	15000017 	ldw	r20,0(r2)
    1c8c:	15800117 	ldw	r22,4(r2)
    1c90:	20038e16 	blt	r4,zero,2acc <___svfprintf_internal_r+0x18c0>
    1c94:	013fdfc4 	movi	r4,-129
    1c98:	a584b03a 	or	r2,r20,r22
    1c9c:	d8c02d15 	stw	r3,180(sp)
    1ca0:	9124703a 	and	r18,r18,r4
    1ca4:	0039883a 	mov	fp,zero
    1ca8:	103eb61e 	bne	r2,zero,1784 <__alt_mem_onchip_memory+0xf7801784>
    1cac:	d8802917 	ldw	r2,164(sp)
    1cb0:	1002c81e 	bne	r2,zero,27d4 <___svfprintf_internal_r+0x15c8>
    1cb4:	d8002915 	stw	zero,164(sp)
    1cb8:	d8002e15 	stw	zero,184(sp)
    1cbc:	dc001e04 	addi	r16,sp,120
    1cc0:	003efa06 	br	18ac <__alt_mem_onchip_memory+0xf78018ac>
    1cc4:	18c03fcc 	andi	r3,r3,255
    1cc8:	1805ad1e 	bne	r3,zero,3380 <___svfprintf_internal_r+0x2174>
    1ccc:	014000b4 	movhi	r5,2
    1cd0:	297d8d04 	addi	r5,r5,-2508
    1cd4:	d9403a15 	stw	r5,232(sp)
    1cd8:	9080080c 	andi	r2,r18,32
    1cdc:	10006126 	beq	r2,zero,1e64 <___svfprintf_internal_r+0xc58>
    1ce0:	d8802d17 	ldw	r2,180(sp)
    1ce4:	15000017 	ldw	r20,0(r2)
    1ce8:	15800117 	ldw	r22,4(r2)
    1cec:	10800204 	addi	r2,r2,8
    1cf0:	d8802d15 	stw	r2,180(sp)
    1cf4:	9080004c 	andi	r2,r18,1
    1cf8:	10018e26 	beq	r2,zero,2334 <___svfprintf_internal_r+0x1128>
    1cfc:	a584b03a 	or	r2,r20,r22
    1d00:	10030926 	beq	r2,zero,2928 <___svfprintf_internal_r+0x171c>
    1d04:	d8c02917 	ldw	r3,164(sp)
    1d08:	00800c04 	movi	r2,48
    1d0c:	d8802705 	stb	r2,156(sp)
    1d10:	dc402745 	stb	r17,157(sp)
    1d14:	d8002785 	stb	zero,158(sp)
    1d18:	90800094 	ori	r2,r18,2
    1d1c:	18048716 	blt	r3,zero,2f3c <___svfprintf_internal_r+0x1d30>
    1d20:	00bfdfc4 	movi	r2,-129
    1d24:	90a4703a 	and	r18,r18,r2
    1d28:	94800094 	ori	r18,r18,2
    1d2c:	0039883a 	mov	fp,zero
    1d30:	d9003a17 	ldw	r4,232(sp)
    1d34:	dc001e04 	addi	r16,sp,120
    1d38:	a08003cc 	andi	r2,r20,15
    1d3c:	b006973a 	slli	r3,r22,28
    1d40:	2085883a 	add	r2,r4,r2
    1d44:	a028d13a 	srli	r20,r20,4
    1d48:	10800003 	ldbu	r2,0(r2)
    1d4c:	b02cd13a 	srli	r22,r22,4
    1d50:	843fffc4 	addi	r16,r16,-1
    1d54:	1d28b03a 	or	r20,r3,r20
    1d58:	80800005 	stb	r2,0(r16)
    1d5c:	a584b03a 	or	r2,r20,r22
    1d60:	103ff51e 	bne	r2,zero,1d38 <__alt_mem_onchip_memory+0xf7801d38>
    1d64:	d8c02817 	ldw	r3,160(sp)
    1d68:	1c07c83a 	sub	r3,r3,r16
    1d6c:	d8c02e15 	stw	r3,184(sp)
    1d70:	003ece06 	br	18ac <__alt_mem_onchip_memory+0xf78018ac>
    1d74:	d8c02d17 	ldw	r3,180(sp)
    1d78:	d9002d17 	ldw	r4,180(sp)
    1d7c:	d8002785 	stb	zero,158(sp)
    1d80:	18800017 	ldw	r2,0(r3)
    1d84:	21000104 	addi	r4,r4,4
    1d88:	00c00044 	movi	r3,1
    1d8c:	d8c02a15 	stw	r3,168(sp)
    1d90:	d8801405 	stb	r2,80(sp)
    1d94:	d9002d15 	stw	r4,180(sp)
    1d98:	d8c02e15 	stw	r3,184(sp)
    1d9c:	d8002915 	stw	zero,164(sp)
    1da0:	d8003215 	stw	zero,200(sp)
    1da4:	dc001404 	addi	r16,sp,80
    1da8:	0039883a 	mov	fp,zero
    1dac:	003ecc06 	br	18e0 <__alt_mem_onchip_memory+0xf78018e0>
    1db0:	18c03fcc 	andi	r3,r3,255
    1db4:	183e9226 	beq	r3,zero,1800 <__alt_mem_onchip_memory+0xf7801800>
    1db8:	d9c02785 	stb	r7,158(sp)
    1dbc:	003e9006 	br	1800 <__alt_mem_onchip_memory+0xf7801800>
    1dc0:	00c00044 	movi	r3,1
    1dc4:	01c00ac4 	movi	r7,43
    1dc8:	bc400007 	ldb	r17,0(r23)
    1dcc:	003d6306 	br	135c <__alt_mem_onchip_memory+0xf780135c>
    1dd0:	94800814 	ori	r18,r18,32
    1dd4:	bc400007 	ldb	r17,0(r23)
    1dd8:	003d6006 	br	135c <__alt_mem_onchip_memory+0xf780135c>
    1ddc:	d8c02d17 	ldw	r3,180(sp)
    1de0:	d8002785 	stb	zero,158(sp)
    1de4:	1c000017 	ldw	r16,0(r3)
    1de8:	1d000104 	addi	r20,r3,4
    1dec:	80040f26 	beq	r16,zero,2e2c <___svfprintf_internal_r+0x1c20>
    1df0:	d9002917 	ldw	r4,164(sp)
    1df4:	2003dc16 	blt	r4,zero,2d68 <___svfprintf_internal_r+0x1b5c>
    1df8:	200d883a 	mov	r6,r4
    1dfc:	000b883a 	mov	r5,zero
    1e00:	8009883a 	mov	r4,r16
    1e04:	da003e15 	stw	r8,248(sp)
    1e08:	0008bf40 	call	8bf4 <memchr>
    1e0c:	da003e17 	ldw	r8,248(sp)
    1e10:	10045826 	beq	r2,zero,2f74 <___svfprintf_internal_r+0x1d68>
    1e14:	1405c83a 	sub	r2,r2,r16
    1e18:	d8802e15 	stw	r2,184(sp)
    1e1c:	1003d816 	blt	r2,zero,2d80 <___svfprintf_internal_r+0x1b74>
    1e20:	df002783 	ldbu	fp,158(sp)
    1e24:	d8802a15 	stw	r2,168(sp)
    1e28:	dd002d15 	stw	r20,180(sp)
    1e2c:	d8002915 	stw	zero,164(sp)
    1e30:	d8003215 	stw	zero,200(sp)
    1e34:	003ea306 	br	18c4 <__alt_mem_onchip_memory+0xf78018c4>
    1e38:	18c03fcc 	andi	r3,r3,255
    1e3c:	183f8c26 	beq	r3,zero,1c70 <__alt_mem_onchip_memory+0xf7801c70>
    1e40:	d9c02785 	stb	r7,158(sp)
    1e44:	003f8a06 	br	1c70 <__alt_mem_onchip_memory+0xf7801c70>
    1e48:	18c03fcc 	andi	r3,r3,255
    1e4c:	1805631e 	bne	r3,zero,33dc <___svfprintf_internal_r+0x21d0>
    1e50:	014000b4 	movhi	r5,2
    1e54:	297d9204 	addi	r5,r5,-2488
    1e58:	d9403a15 	stw	r5,232(sp)
    1e5c:	9080080c 	andi	r2,r18,32
    1e60:	103f9f1e 	bne	r2,zero,1ce0 <__alt_mem_onchip_memory+0xf7801ce0>
    1e64:	9080040c 	andi	r2,r18,16
    1e68:	10029c26 	beq	r2,zero,28dc <___svfprintf_internal_r+0x16d0>
    1e6c:	d8c02d17 	ldw	r3,180(sp)
    1e70:	002d883a 	mov	r22,zero
    1e74:	1d000017 	ldw	r20,0(r3)
    1e78:	18c00104 	addi	r3,r3,4
    1e7c:	d8c02d15 	stw	r3,180(sp)
    1e80:	003f9c06 	br	1cf4 <__alt_mem_onchip_memory+0xf7801cf4>
    1e84:	94800054 	ori	r18,r18,1
    1e88:	bc400007 	ldb	r17,0(r23)
    1e8c:	003d3306 	br	135c <__alt_mem_onchip_memory+0xf780135c>
    1e90:	38803fcc 	andi	r2,r7,255
    1e94:	1080201c 	xori	r2,r2,128
    1e98:	10bfe004 	addi	r2,r2,-128
    1e9c:	1002971e 	bne	r2,zero,28fc <___svfprintf_internal_r+0x16f0>
    1ea0:	00c00044 	movi	r3,1
    1ea4:	01c00804 	movi	r7,32
    1ea8:	bc400007 	ldb	r17,0(r23)
    1eac:	003d2b06 	br	135c <__alt_mem_onchip_memory+0xf780135c>
    1eb0:	18c03fcc 	andi	r3,r3,255
    1eb4:	183e2326 	beq	r3,zero,1744 <__alt_mem_onchip_memory+0xf7801744>
    1eb8:	d9c02785 	stb	r7,158(sp)
    1ebc:	003e2106 	br	1744 <__alt_mem_onchip_memory+0xf7801744>
    1ec0:	bc400007 	ldb	r17,0(r23)
    1ec4:	8a430426 	beq	r17,r9,2ad8 <___svfprintf_internal_r+0x18cc>
    1ec8:	94800414 	ori	r18,r18,16
    1ecc:	003d2306 	br	135c <__alt_mem_onchip_memory+0xf780135c>
    1ed0:	18c03fcc 	andi	r3,r3,255
    1ed4:	18053f1e 	bne	r3,zero,33d4 <___svfprintf_internal_r+0x21c8>
    1ed8:	9080080c 	andi	r2,r18,32
    1edc:	10028926 	beq	r2,zero,2904 <___svfprintf_internal_r+0x16f8>
    1ee0:	d9402d17 	ldw	r5,180(sp)
    1ee4:	d9002f17 	ldw	r4,188(sp)
    1ee8:	28800017 	ldw	r2,0(r5)
    1eec:	2007d7fa 	srai	r3,r4,31
    1ef0:	29400104 	addi	r5,r5,4
    1ef4:	d9402d15 	stw	r5,180(sp)
    1ef8:	11000015 	stw	r4,0(r2)
    1efc:	10c00115 	stw	r3,4(r2)
    1f00:	003ced06 	br	12b8 <__alt_mem_onchip_memory+0xf78012b8>
    1f04:	94801014 	ori	r18,r18,64
    1f08:	bc400007 	ldb	r17,0(r23)
    1f0c:	003d1306 	br	135c <__alt_mem_onchip_memory+0xf780135c>
    1f10:	010000b4 	movhi	r4,2
    1f14:	213d9204 	addi	r4,r4,-2488
    1f18:	0039883a 	mov	fp,zero
    1f1c:	d9003a15 	stw	r4,232(sp)
    1f20:	04401e04 	movi	r17,120
    1f24:	003f8206 	br	1d30 <__alt_mem_onchip_memory+0xf7801d30>
    1f28:	18c03fcc 	andi	r3,r3,255
    1f2c:	1805221e 	bne	r3,zero,33b8 <___svfprintf_internal_r+0x21ac>
    1f30:	883d9526 	beq	r17,zero,1588 <__alt_mem_onchip_memory+0xf7801588>
    1f34:	00c00044 	movi	r3,1
    1f38:	d8c02a15 	stw	r3,168(sp)
    1f3c:	dc401405 	stb	r17,80(sp)
    1f40:	d8002785 	stb	zero,158(sp)
    1f44:	003f9406 	br	1d98 <__alt_mem_onchip_memory+0xf7801d98>
    1f48:	010000b4 	movhi	r4,2
    1f4c:	213d9204 	addi	r4,r4,-2488
    1f50:	d9003a15 	stw	r4,232(sp)
    1f54:	d8c02d15 	stw	r3,180(sp)
    1f58:	1025883a 	mov	r18,r2
    1f5c:	04401e04 	movi	r17,120
    1f60:	a584b03a 	or	r2,r20,r22
    1f64:	1000fa1e 	bne	r2,zero,2350 <___svfprintf_internal_r+0x1144>
    1f68:	0039883a 	mov	fp,zero
    1f6c:	00800084 	movi	r2,2
    1f70:	10803fcc 	andi	r2,r2,255
    1f74:	00c00044 	movi	r3,1
    1f78:	10c21626 	beq	r2,r3,27d4 <___svfprintf_internal_r+0x15c8>
    1f7c:	00c00084 	movi	r3,2
    1f80:	10fe301e 	bne	r2,r3,1844 <__alt_mem_onchip_memory+0xf7801844>
    1f84:	003d7606 	br	1560 <__alt_mem_onchip_memory+0xf7801560>
    1f88:	d8c02017 	ldw	r3,128(sp)
    1f8c:	003e9506 	br	19e4 <__alt_mem_onchip_memory+0xf78019e4>
    1f90:	00801944 	movi	r2,101
    1f94:	14407c0e 	bge	r2,r17,2188 <___svfprintf_internal_r+0xf7c>
    1f98:	d9003617 	ldw	r4,216(sp)
    1f9c:	d9403717 	ldw	r5,220(sp)
    1fa0:	000d883a 	mov	r6,zero
    1fa4:	000f883a 	mov	r7,zero
    1fa8:	d8c03d15 	stw	r3,244(sp)
    1fac:	da003e15 	stw	r8,248(sp)
    1fb0:	000fa640 	call	fa64 <__eqdf2>
    1fb4:	d8c03d17 	ldw	r3,244(sp)
    1fb8:	da003e17 	ldw	r8,248(sp)
    1fbc:	1000f51e 	bne	r2,zero,2394 <___svfprintf_internal_r+0x1188>
    1fc0:	d8801f17 	ldw	r2,124(sp)
    1fc4:	010000b4 	movhi	r4,2
    1fc8:	213d9904 	addi	r4,r4,-2460
    1fcc:	18c00044 	addi	r3,r3,1
    1fd0:	10800044 	addi	r2,r2,1
    1fd4:	41000015 	stw	r4,0(r8)
    1fd8:	01000044 	movi	r4,1
    1fdc:	41000115 	stw	r4,4(r8)
    1fe0:	d8c02015 	stw	r3,128(sp)
    1fe4:	d8801f15 	stw	r2,124(sp)
    1fe8:	010001c4 	movi	r4,7
    1fec:	20826616 	blt	r4,r2,2988 <___svfprintf_internal_r+0x177c>
    1ff0:	42000204 	addi	r8,r8,8
    1ff4:	d8802617 	ldw	r2,152(sp)
    1ff8:	d9403317 	ldw	r5,204(sp)
    1ffc:	11400216 	blt	r2,r5,2008 <___svfprintf_internal_r+0xdfc>
    2000:	9080004c 	andi	r2,r18,1
    2004:	103ed526 	beq	r2,zero,1b5c <__alt_mem_onchip_memory+0xf7801b5c>
    2008:	d8803817 	ldw	r2,224(sp)
    200c:	d9003417 	ldw	r4,208(sp)
    2010:	d9403817 	ldw	r5,224(sp)
    2014:	1887883a 	add	r3,r3,r2
    2018:	d8801f17 	ldw	r2,124(sp)
    201c:	41000015 	stw	r4,0(r8)
    2020:	41400115 	stw	r5,4(r8)
    2024:	10800044 	addi	r2,r2,1
    2028:	d8c02015 	stw	r3,128(sp)
    202c:	d8801f15 	stw	r2,124(sp)
    2030:	010001c4 	movi	r4,7
    2034:	2082af16 	blt	r4,r2,2af4 <___svfprintf_internal_r+0x18e8>
    2038:	42000204 	addi	r8,r8,8
    203c:	d8803317 	ldw	r2,204(sp)
    2040:	143fffc4 	addi	r16,r2,-1
    2044:	043ec50e 	bge	zero,r16,1b5c <__alt_mem_onchip_memory+0xf7801b5c>
    2048:	04400404 	movi	r17,16
    204c:	d8801f17 	ldw	r2,124(sp)
    2050:	8c00860e 	bge	r17,r16,226c <___svfprintf_internal_r+0x1060>
    2054:	014000b4 	movhi	r5,2
    2058:	297d9984 	addi	r5,r5,-2458
    205c:	d9402b15 	stw	r5,172(sp)
    2060:	058001c4 	movi	r22,7
    2064:	dd002c17 	ldw	r20,176(sp)
    2068:	00000306 	br	2078 <___svfprintf_internal_r+0xe6c>
    206c:	42000204 	addi	r8,r8,8
    2070:	843ffc04 	addi	r16,r16,-16
    2074:	8c00800e 	bge	r17,r16,2278 <___svfprintf_internal_r+0x106c>
    2078:	18c00404 	addi	r3,r3,16
    207c:	10800044 	addi	r2,r2,1
    2080:	45400015 	stw	r21,0(r8)
    2084:	44400115 	stw	r17,4(r8)
    2088:	d8c02015 	stw	r3,128(sp)
    208c:	d8801f15 	stw	r2,124(sp)
    2090:	b0bff60e 	bge	r22,r2,206c <__alt_mem_onchip_memory+0xf780206c>
    2094:	d9801e04 	addi	r6,sp,120
    2098:	a00b883a 	mov	r5,r20
    209c:	9809883a 	mov	r4,r19
    20a0:	000a8e40 	call	a8e4 <__ssprint_r>
    20a4:	103d3e1e 	bne	r2,zero,15a0 <__alt_mem_onchip_memory+0xf78015a0>
    20a8:	d8c02017 	ldw	r3,128(sp)
    20ac:	d8801f17 	ldw	r2,124(sp)
    20b0:	da000404 	addi	r8,sp,16
    20b4:	003fee06 	br	2070 <__alt_mem_onchip_memory+0xf7802070>
    20b8:	d9403117 	ldw	r5,196(sp)
    20bc:	d8802a17 	ldw	r2,168(sp)
    20c0:	28adc83a 	sub	r22,r5,r2
    20c4:	05be650e 	bge	zero,r22,1a5c <__alt_mem_onchip_memory+0xf7801a5c>
    20c8:	07000404 	movi	fp,16
    20cc:	d8801f17 	ldw	r2,124(sp)
    20d0:	e583a20e 	bge	fp,r22,2f5c <___svfprintf_internal_r+0x1d50>
    20d4:	014000b4 	movhi	r5,2
    20d8:	297d9984 	addi	r5,r5,-2458
    20dc:	dc403015 	stw	r17,192(sp)
    20e0:	d9402b15 	stw	r5,172(sp)
    20e4:	b023883a 	mov	r17,r22
    20e8:	050001c4 	movi	r20,7
    20ec:	902d883a 	mov	r22,r18
    20f0:	8025883a 	mov	r18,r16
    20f4:	dc002c17 	ldw	r16,176(sp)
    20f8:	00000306 	br	2108 <___svfprintf_internal_r+0xefc>
    20fc:	8c7ffc04 	addi	r17,r17,-16
    2100:	42000204 	addi	r8,r8,8
    2104:	e440110e 	bge	fp,r17,214c <___svfprintf_internal_r+0xf40>
    2108:	18c00404 	addi	r3,r3,16
    210c:	10800044 	addi	r2,r2,1
    2110:	45400015 	stw	r21,0(r8)
    2114:	47000115 	stw	fp,4(r8)
    2118:	d8c02015 	stw	r3,128(sp)
    211c:	d8801f15 	stw	r2,124(sp)
    2120:	a0bff60e 	bge	r20,r2,20fc <__alt_mem_onchip_memory+0xf78020fc>
    2124:	d9801e04 	addi	r6,sp,120
    2128:	800b883a 	mov	r5,r16
    212c:	9809883a 	mov	r4,r19
    2130:	000a8e40 	call	a8e4 <__ssprint_r>
    2134:	103d1a1e 	bne	r2,zero,15a0 <__alt_mem_onchip_memory+0xf78015a0>
    2138:	8c7ffc04 	addi	r17,r17,-16
    213c:	d8c02017 	ldw	r3,128(sp)
    2140:	d8801f17 	ldw	r2,124(sp)
    2144:	da000404 	addi	r8,sp,16
    2148:	e47fef16 	blt	fp,r17,2108 <__alt_mem_onchip_memory+0xf7802108>
    214c:	9021883a 	mov	r16,r18
    2150:	b025883a 	mov	r18,r22
    2154:	882d883a 	mov	r22,r17
    2158:	dc403017 	ldw	r17,192(sp)
    215c:	d9002b17 	ldw	r4,172(sp)
    2160:	1d87883a 	add	r3,r3,r22
    2164:	10800044 	addi	r2,r2,1
    2168:	41000015 	stw	r4,0(r8)
    216c:	45800115 	stw	r22,4(r8)
    2170:	d8c02015 	stw	r3,128(sp)
    2174:	d8801f15 	stw	r2,124(sp)
    2178:	010001c4 	movi	r4,7
    217c:	20819a16 	blt	r4,r2,27e8 <___svfprintf_internal_r+0x15dc>
    2180:	42000204 	addi	r8,r8,8
    2184:	003e3506 	br	1a5c <__alt_mem_onchip_memory+0xf7801a5c>
    2188:	d9403317 	ldw	r5,204(sp)
    218c:	00800044 	movi	r2,1
    2190:	18c00044 	addi	r3,r3,1
    2194:	1141710e 	bge	r2,r5,275c <___svfprintf_internal_r+0x1550>
    2198:	dc401f17 	ldw	r17,124(sp)
    219c:	00800044 	movi	r2,1
    21a0:	40800115 	stw	r2,4(r8)
    21a4:	8c400044 	addi	r17,r17,1
    21a8:	44000015 	stw	r16,0(r8)
    21ac:	d8c02015 	stw	r3,128(sp)
    21b0:	dc401f15 	stw	r17,124(sp)
    21b4:	008001c4 	movi	r2,7
    21b8:	14417416 	blt	r2,r17,278c <___svfprintf_internal_r+0x1580>
    21bc:	42000204 	addi	r8,r8,8
    21c0:	d8803817 	ldw	r2,224(sp)
    21c4:	d9003417 	ldw	r4,208(sp)
    21c8:	8c400044 	addi	r17,r17,1
    21cc:	10c7883a 	add	r3,r2,r3
    21d0:	40800115 	stw	r2,4(r8)
    21d4:	41000015 	stw	r4,0(r8)
    21d8:	d8c02015 	stw	r3,128(sp)
    21dc:	dc401f15 	stw	r17,124(sp)
    21e0:	008001c4 	movi	r2,7
    21e4:	14417216 	blt	r2,r17,27b0 <___svfprintf_internal_r+0x15a4>
    21e8:	45800204 	addi	r22,r8,8
    21ec:	d9003617 	ldw	r4,216(sp)
    21f0:	d9403717 	ldw	r5,220(sp)
    21f4:	000d883a 	mov	r6,zero
    21f8:	000f883a 	mov	r7,zero
    21fc:	d8c03d15 	stw	r3,244(sp)
    2200:	000fa640 	call	fa64 <__eqdf2>
    2204:	d8c03d17 	ldw	r3,244(sp)
    2208:	1000b326 	beq	r2,zero,24d8 <___svfprintf_internal_r+0x12cc>
    220c:	d9403317 	ldw	r5,204(sp)
    2210:	84000044 	addi	r16,r16,1
    2214:	8c400044 	addi	r17,r17,1
    2218:	28bfffc4 	addi	r2,r5,-1
    221c:	1887883a 	add	r3,r3,r2
    2220:	b0800115 	stw	r2,4(r22)
    2224:	b4000015 	stw	r16,0(r22)
    2228:	d8c02015 	stw	r3,128(sp)
    222c:	dc401f15 	stw	r17,124(sp)
    2230:	008001c4 	movi	r2,7
    2234:	1440d216 	blt	r2,r17,2580 <___svfprintf_internal_r+0x1374>
    2238:	b5800204 	addi	r22,r22,8
    223c:	d9003b17 	ldw	r4,236(sp)
    2240:	df0022c4 	addi	fp,sp,139
    2244:	8c400044 	addi	r17,r17,1
    2248:	20c7883a 	add	r3,r4,r3
    224c:	b7000015 	stw	fp,0(r22)
    2250:	b1000115 	stw	r4,4(r22)
    2254:	d8c02015 	stw	r3,128(sp)
    2258:	dc401f15 	stw	r17,124(sp)
    225c:	008001c4 	movi	r2,7
    2260:	14400e16 	blt	r2,r17,229c <___svfprintf_internal_r+0x1090>
    2264:	b2000204 	addi	r8,r22,8
    2268:	003e3c06 	br	1b5c <__alt_mem_onchip_memory+0xf7801b5c>
    226c:	010000b4 	movhi	r4,2
    2270:	213d9984 	addi	r4,r4,-2458
    2274:	d9002b15 	stw	r4,172(sp)
    2278:	d9002b17 	ldw	r4,172(sp)
    227c:	1c07883a 	add	r3,r3,r16
    2280:	44000115 	stw	r16,4(r8)
    2284:	41000015 	stw	r4,0(r8)
    2288:	10800044 	addi	r2,r2,1
    228c:	d8c02015 	stw	r3,128(sp)
    2290:	d8801f15 	stw	r2,124(sp)
    2294:	010001c4 	movi	r4,7
    2298:	20be2f0e 	bge	r4,r2,1b58 <__alt_mem_onchip_memory+0xf7801b58>
    229c:	d9402c17 	ldw	r5,176(sp)
    22a0:	d9801e04 	addi	r6,sp,120
    22a4:	9809883a 	mov	r4,r19
    22a8:	000a8e40 	call	a8e4 <__ssprint_r>
    22ac:	103cbc1e 	bne	r2,zero,15a0 <__alt_mem_onchip_memory+0xf78015a0>
    22b0:	d8c02017 	ldw	r3,128(sp)
    22b4:	da000404 	addi	r8,sp,16
    22b8:	003e2806 	br	1b5c <__alt_mem_onchip_memory+0xf7801b5c>
    22bc:	d9402c17 	ldw	r5,176(sp)
    22c0:	d9801e04 	addi	r6,sp,120
    22c4:	9809883a 	mov	r4,r19
    22c8:	000a8e40 	call	a8e4 <__ssprint_r>
    22cc:	103e5f26 	beq	r2,zero,1c4c <__alt_mem_onchip_memory+0xf7801c4c>
    22d0:	003cb306 	br	15a0 <__alt_mem_onchip_memory+0xf78015a0>
    22d4:	d9402c17 	ldw	r5,176(sp)
    22d8:	d9801e04 	addi	r6,sp,120
    22dc:	9809883a 	mov	r4,r19
    22e0:	000a8e40 	call	a8e4 <__ssprint_r>
    22e4:	103cae1e 	bne	r2,zero,15a0 <__alt_mem_onchip_memory+0xf78015a0>
    22e8:	d8c02017 	ldw	r3,128(sp)
    22ec:	da000404 	addi	r8,sp,16
    22f0:	003e0d06 	br	1b28 <__alt_mem_onchip_memory+0xf7801b28>
    22f4:	d9402c17 	ldw	r5,176(sp)
    22f8:	d9801e04 	addi	r6,sp,120
    22fc:	9809883a 	mov	r4,r19
    2300:	000a8e40 	call	a8e4 <__ssprint_r>
    2304:	103ca61e 	bne	r2,zero,15a0 <__alt_mem_onchip_memory+0xf78015a0>
    2308:	d8c02017 	ldw	r3,128(sp)
    230c:	da000404 	addi	r8,sp,16
    2310:	003dc106 	br	1a18 <__alt_mem_onchip_memory+0xf7801a18>
    2314:	d9402c17 	ldw	r5,176(sp)
    2318:	d9801e04 	addi	r6,sp,120
    231c:	9809883a 	mov	r4,r19
    2320:	000a8e40 	call	a8e4 <__ssprint_r>
    2324:	103c9e1e 	bne	r2,zero,15a0 <__alt_mem_onchip_memory+0xf78015a0>
    2328:	d8c02017 	ldw	r3,128(sp)
    232c:	da000404 	addi	r8,sp,16
    2330:	003dc706 	br	1a50 <__alt_mem_onchip_memory+0xf7801a50>
    2334:	d8802917 	ldw	r2,164(sp)
    2338:	d8002785 	stb	zero,158(sp)
    233c:	103f0816 	blt	r2,zero,1f60 <__alt_mem_onchip_memory+0xf7801f60>
    2340:	00ffdfc4 	movi	r3,-129
    2344:	a584b03a 	or	r2,r20,r22
    2348:	90e4703a 	and	r18,r18,r3
    234c:	103c8126 	beq	r2,zero,1554 <__alt_mem_onchip_memory+0xf7801554>
    2350:	0039883a 	mov	fp,zero
    2354:	003e7606 	br	1d30 <__alt_mem_onchip_memory+0xf7801d30>
    2358:	9080040c 	andi	r2,r18,16
    235c:	10013d26 	beq	r2,zero,2854 <___svfprintf_internal_r+0x1648>
    2360:	d9002d17 	ldw	r4,180(sp)
    2364:	d9402917 	ldw	r5,164(sp)
    2368:	d8002785 	stb	zero,158(sp)
    236c:	20800104 	addi	r2,r4,4
    2370:	25000017 	ldw	r20,0(r4)
    2374:	002d883a 	mov	r22,zero
    2378:	28013f16 	blt	r5,zero,2878 <___svfprintf_internal_r+0x166c>
    237c:	00ffdfc4 	movi	r3,-129
    2380:	d8802d15 	stw	r2,180(sp)
    2384:	90e4703a 	and	r18,r18,r3
    2388:	a03d2b26 	beq	r20,zero,1838 <__alt_mem_onchip_memory+0xf7801838>
    238c:	0039883a 	mov	fp,zero
    2390:	003d2e06 	br	184c <__alt_mem_onchip_memory+0xf780184c>
    2394:	dc402617 	ldw	r17,152(sp)
    2398:	0441830e 	bge	zero,r17,29a8 <___svfprintf_internal_r+0x179c>
    239c:	dc403217 	ldw	r17,200(sp)
    23a0:	d8803317 	ldw	r2,204(sp)
    23a4:	1440010e 	bge	r2,r17,23ac <___svfprintf_internal_r+0x11a0>
    23a8:	1023883a 	mov	r17,r2
    23ac:	04400a0e 	bge	zero,r17,23d8 <___svfprintf_internal_r+0x11cc>
    23b0:	d8801f17 	ldw	r2,124(sp)
    23b4:	1c47883a 	add	r3,r3,r17
    23b8:	44000015 	stw	r16,0(r8)
    23bc:	10800044 	addi	r2,r2,1
    23c0:	44400115 	stw	r17,4(r8)
    23c4:	d8c02015 	stw	r3,128(sp)
    23c8:	d8801f15 	stw	r2,124(sp)
    23cc:	010001c4 	movi	r4,7
    23d0:	20827516 	blt	r4,r2,2da8 <___svfprintf_internal_r+0x1b9c>
    23d4:	42000204 	addi	r8,r8,8
    23d8:	88027b16 	blt	r17,zero,2dc8 <___svfprintf_internal_r+0x1bbc>
    23dc:	d9003217 	ldw	r4,200(sp)
    23e0:	2463c83a 	sub	r17,r4,r17
    23e4:	0440990e 	bge	zero,r17,264c <___svfprintf_internal_r+0x1440>
    23e8:	05800404 	movi	r22,16
    23ec:	d8801f17 	ldw	r2,124(sp)
    23f0:	b441530e 	bge	r22,r17,2940 <___svfprintf_internal_r+0x1734>
    23f4:	010000b4 	movhi	r4,2
    23f8:	213d9984 	addi	r4,r4,-2458
    23fc:	d9002b15 	stw	r4,172(sp)
    2400:	070001c4 	movi	fp,7
    2404:	dd002c17 	ldw	r20,176(sp)
    2408:	00000306 	br	2418 <___svfprintf_internal_r+0x120c>
    240c:	42000204 	addi	r8,r8,8
    2410:	8c7ffc04 	addi	r17,r17,-16
    2414:	b4414d0e 	bge	r22,r17,294c <___svfprintf_internal_r+0x1740>
    2418:	18c00404 	addi	r3,r3,16
    241c:	10800044 	addi	r2,r2,1
    2420:	45400015 	stw	r21,0(r8)
    2424:	45800115 	stw	r22,4(r8)
    2428:	d8c02015 	stw	r3,128(sp)
    242c:	d8801f15 	stw	r2,124(sp)
    2430:	e0bff60e 	bge	fp,r2,240c <__alt_mem_onchip_memory+0xf780240c>
    2434:	d9801e04 	addi	r6,sp,120
    2438:	a00b883a 	mov	r5,r20
    243c:	9809883a 	mov	r4,r19
    2440:	000a8e40 	call	a8e4 <__ssprint_r>
    2444:	103c561e 	bne	r2,zero,15a0 <__alt_mem_onchip_memory+0xf78015a0>
    2448:	d8c02017 	ldw	r3,128(sp)
    244c:	d8801f17 	ldw	r2,124(sp)
    2450:	da000404 	addi	r8,sp,16
    2454:	003fee06 	br	2410 <__alt_mem_onchip_memory+0xf7802410>
    2458:	d9402c17 	ldw	r5,176(sp)
    245c:	d9801e04 	addi	r6,sp,120
    2460:	9809883a 	mov	r4,r19
    2464:	000a8e40 	call	a8e4 <__ssprint_r>
    2468:	103c4d1e 	bne	r2,zero,15a0 <__alt_mem_onchip_memory+0xf78015a0>
    246c:	d8c02017 	ldw	r3,128(sp)
    2470:	df002787 	ldb	fp,158(sp)
    2474:	da000404 	addi	r8,sp,16
    2478:	003d5a06 	br	19e4 <__alt_mem_onchip_memory+0xf78019e4>
    247c:	9080040c 	andi	r2,r18,16
    2480:	10005c26 	beq	r2,zero,25f4 <___svfprintf_internal_r+0x13e8>
    2484:	d9402d17 	ldw	r5,180(sp)
    2488:	d8c02917 	ldw	r3,164(sp)
    248c:	d8002785 	stb	zero,158(sp)
    2490:	28800104 	addi	r2,r5,4
    2494:	2d000017 	ldw	r20,0(r5)
    2498:	002d883a 	mov	r22,zero
    249c:	18005e16 	blt	r3,zero,2618 <___svfprintf_internal_r+0x140c>
    24a0:	00ffdfc4 	movi	r3,-129
    24a4:	d8802d15 	stw	r2,180(sp)
    24a8:	90e4703a 	and	r18,r18,r3
    24ac:	0039883a 	mov	fp,zero
    24b0:	a03dfe26 	beq	r20,zero,1cac <__alt_mem_onchip_memory+0xf7801cac>
    24b4:	00800244 	movi	r2,9
    24b8:	153cb336 	bltu	r2,r20,1788 <__alt_mem_onchip_memory+0xf7801788>
    24bc:	a5000c04 	addi	r20,r20,48
    24c0:	dc001dc4 	addi	r16,sp,119
    24c4:	dd001dc5 	stb	r20,119(sp)
    24c8:	d8c02817 	ldw	r3,160(sp)
    24cc:	1c07c83a 	sub	r3,r3,r16
    24d0:	d8c02e15 	stw	r3,184(sp)
    24d4:	003cf506 	br	18ac <__alt_mem_onchip_memory+0xf78018ac>
    24d8:	d8803317 	ldw	r2,204(sp)
    24dc:	143fffc4 	addi	r16,r2,-1
    24e0:	043f560e 	bge	zero,r16,223c <__alt_mem_onchip_memory+0xf780223c>
    24e4:	07000404 	movi	fp,16
    24e8:	e403530e 	bge	fp,r16,3238 <___svfprintf_internal_r+0x202c>
    24ec:	014000b4 	movhi	r5,2
    24f0:	297d9984 	addi	r5,r5,-2458
    24f4:	d9402b15 	stw	r5,172(sp)
    24f8:	01c001c4 	movi	r7,7
    24fc:	dd002c17 	ldw	r20,176(sp)
    2500:	00000306 	br	2510 <___svfprintf_internal_r+0x1304>
    2504:	843ffc04 	addi	r16,r16,-16
    2508:	b5800204 	addi	r22,r22,8
    250c:	e400130e 	bge	fp,r16,255c <___svfprintf_internal_r+0x1350>
    2510:	18c00404 	addi	r3,r3,16
    2514:	8c400044 	addi	r17,r17,1
    2518:	b5400015 	stw	r21,0(r22)
    251c:	b7000115 	stw	fp,4(r22)
    2520:	d8c02015 	stw	r3,128(sp)
    2524:	dc401f15 	stw	r17,124(sp)
    2528:	3c7ff60e 	bge	r7,r17,2504 <__alt_mem_onchip_memory+0xf7802504>
    252c:	d9801e04 	addi	r6,sp,120
    2530:	a00b883a 	mov	r5,r20
    2534:	9809883a 	mov	r4,r19
    2538:	d9c03d15 	stw	r7,244(sp)
    253c:	000a8e40 	call	a8e4 <__ssprint_r>
    2540:	d9c03d17 	ldw	r7,244(sp)
    2544:	103c161e 	bne	r2,zero,15a0 <__alt_mem_onchip_memory+0xf78015a0>
    2548:	843ffc04 	addi	r16,r16,-16
    254c:	d8c02017 	ldw	r3,128(sp)
    2550:	dc401f17 	ldw	r17,124(sp)
    2554:	dd800404 	addi	r22,sp,16
    2558:	e43fed16 	blt	fp,r16,2510 <__alt_mem_onchip_memory+0xf7802510>
    255c:	d8802b17 	ldw	r2,172(sp)
    2560:	1c07883a 	add	r3,r3,r16
    2564:	8c400044 	addi	r17,r17,1
    2568:	b0800015 	stw	r2,0(r22)
    256c:	b4000115 	stw	r16,4(r22)
    2570:	d8c02015 	stw	r3,128(sp)
    2574:	dc401f15 	stw	r17,124(sp)
    2578:	008001c4 	movi	r2,7
    257c:	147f2e0e 	bge	r2,r17,2238 <__alt_mem_onchip_memory+0xf7802238>
    2580:	d9402c17 	ldw	r5,176(sp)
    2584:	d9801e04 	addi	r6,sp,120
    2588:	9809883a 	mov	r4,r19
    258c:	000a8e40 	call	a8e4 <__ssprint_r>
    2590:	103c031e 	bne	r2,zero,15a0 <__alt_mem_onchip_memory+0xf78015a0>
    2594:	d8c02017 	ldw	r3,128(sp)
    2598:	dc401f17 	ldw	r17,124(sp)
    259c:	dd800404 	addi	r22,sp,16
    25a0:	003f2606 	br	223c <__alt_mem_onchip_memory+0xf780223c>
    25a4:	9080040c 	andi	r2,r18,16
    25a8:	1000c326 	beq	r2,zero,28b8 <___svfprintf_internal_r+0x16ac>
    25ac:	d8802d17 	ldw	r2,180(sp)
    25b0:	15000017 	ldw	r20,0(r2)
    25b4:	10800104 	addi	r2,r2,4
    25b8:	d8802d15 	stw	r2,180(sp)
    25bc:	a02dd7fa 	srai	r22,r20,31
    25c0:	b005883a 	mov	r2,r22
    25c4:	103c680e 	bge	r2,zero,1768 <__alt_mem_onchip_memory+0xf7801768>
    25c8:	0529c83a 	sub	r20,zero,r20
    25cc:	a004c03a 	cmpne	r2,r20,zero
    25d0:	05adc83a 	sub	r22,zero,r22
    25d4:	b0adc83a 	sub	r22,r22,r2
    25d8:	d8802917 	ldw	r2,164(sp)
    25dc:	07000b44 	movi	fp,45
    25e0:	df002785 	stb	fp,158(sp)
    25e4:	10022e16 	blt	r2,zero,2ea0 <___svfprintf_internal_r+0x1c94>
    25e8:	00bfdfc4 	movi	r2,-129
    25ec:	90a4703a 	and	r18,r18,r2
    25f0:	003c6406 	br	1784 <__alt_mem_onchip_memory+0xf7801784>
    25f4:	9080100c 	andi	r2,r18,64
    25f8:	d8002785 	stb	zero,158(sp)
    25fc:	10012526 	beq	r2,zero,2a94 <___svfprintf_internal_r+0x1888>
    2600:	d9002d17 	ldw	r4,180(sp)
    2604:	d9402917 	ldw	r5,164(sp)
    2608:	002d883a 	mov	r22,zero
    260c:	20800104 	addi	r2,r4,4
    2610:	2500000b 	ldhu	r20,0(r4)
    2614:	283fa20e 	bge	r5,zero,24a0 <__alt_mem_onchip_memory+0xf78024a0>
    2618:	d8802d15 	stw	r2,180(sp)
    261c:	0039883a 	mov	fp,zero
    2620:	a584b03a 	or	r2,r20,r22
    2624:	103c571e 	bne	r2,zero,1784 <__alt_mem_onchip_memory+0xf7801784>
    2628:	00800044 	movi	r2,1
    262c:	003e5006 	br	1f70 <__alt_mem_onchip_memory+0xf7801f70>
    2630:	d9402c17 	ldw	r5,176(sp)
    2634:	d9801e04 	addi	r6,sp,120
    2638:	9809883a 	mov	r4,r19
    263c:	000a8e40 	call	a8e4 <__ssprint_r>
    2640:	103bd71e 	bne	r2,zero,15a0 <__alt_mem_onchip_memory+0xf78015a0>
    2644:	d8c02017 	ldw	r3,128(sp)
    2648:	da000404 	addi	r8,sp,16
    264c:	d9003217 	ldw	r4,200(sp)
    2650:	d8802617 	ldw	r2,152(sp)
    2654:	d9403317 	ldw	r5,204(sp)
    2658:	8123883a 	add	r17,r16,r4
    265c:	11400216 	blt	r2,r5,2668 <___svfprintf_internal_r+0x145c>
    2660:	9100004c 	andi	r4,r18,1
    2664:	20000d26 	beq	r4,zero,269c <___svfprintf_internal_r+0x1490>
    2668:	d9003817 	ldw	r4,224(sp)
    266c:	d9403417 	ldw	r5,208(sp)
    2670:	1907883a 	add	r3,r3,r4
    2674:	d9001f17 	ldw	r4,124(sp)
    2678:	41400015 	stw	r5,0(r8)
    267c:	d9403817 	ldw	r5,224(sp)
    2680:	21000044 	addi	r4,r4,1
    2684:	d8c02015 	stw	r3,128(sp)
    2688:	41400115 	stw	r5,4(r8)
    268c:	d9001f15 	stw	r4,124(sp)
    2690:	014001c4 	movi	r5,7
    2694:	2901dc16 	blt	r5,r4,2e08 <___svfprintf_internal_r+0x1bfc>
    2698:	42000204 	addi	r8,r8,8
    269c:	d9003317 	ldw	r4,204(sp)
    26a0:	8121883a 	add	r16,r16,r4
    26a4:	2085c83a 	sub	r2,r4,r2
    26a8:	8461c83a 	sub	r16,r16,r17
    26ac:	1400010e 	bge	r2,r16,26b4 <___svfprintf_internal_r+0x14a8>
    26b0:	1021883a 	mov	r16,r2
    26b4:	04000a0e 	bge	zero,r16,26e0 <___svfprintf_internal_r+0x14d4>
    26b8:	d9001f17 	ldw	r4,124(sp)
    26bc:	1c07883a 	add	r3,r3,r16
    26c0:	44400015 	stw	r17,0(r8)
    26c4:	21000044 	addi	r4,r4,1
    26c8:	44000115 	stw	r16,4(r8)
    26cc:	d8c02015 	stw	r3,128(sp)
    26d0:	d9001f15 	stw	r4,124(sp)
    26d4:	014001c4 	movi	r5,7
    26d8:	2901e616 	blt	r5,r4,2e74 <___svfprintf_internal_r+0x1c68>
    26dc:	42000204 	addi	r8,r8,8
    26e0:	8001f616 	blt	r16,zero,2ebc <___svfprintf_internal_r+0x1cb0>
    26e4:	1421c83a 	sub	r16,r2,r16
    26e8:	043d1c0e 	bge	zero,r16,1b5c <__alt_mem_onchip_memory+0xf7801b5c>
    26ec:	04400404 	movi	r17,16
    26f0:	d8801f17 	ldw	r2,124(sp)
    26f4:	8c3edd0e 	bge	r17,r16,226c <__alt_mem_onchip_memory+0xf780226c>
    26f8:	014000b4 	movhi	r5,2
    26fc:	297d9984 	addi	r5,r5,-2458
    2700:	d9402b15 	stw	r5,172(sp)
    2704:	058001c4 	movi	r22,7
    2708:	dd002c17 	ldw	r20,176(sp)
    270c:	00000306 	br	271c <___svfprintf_internal_r+0x1510>
    2710:	42000204 	addi	r8,r8,8
    2714:	843ffc04 	addi	r16,r16,-16
    2718:	8c3ed70e 	bge	r17,r16,2278 <__alt_mem_onchip_memory+0xf7802278>
    271c:	18c00404 	addi	r3,r3,16
    2720:	10800044 	addi	r2,r2,1
    2724:	45400015 	stw	r21,0(r8)
    2728:	44400115 	stw	r17,4(r8)
    272c:	d8c02015 	stw	r3,128(sp)
    2730:	d8801f15 	stw	r2,124(sp)
    2734:	b0bff60e 	bge	r22,r2,2710 <__alt_mem_onchip_memory+0xf7802710>
    2738:	d9801e04 	addi	r6,sp,120
    273c:	a00b883a 	mov	r5,r20
    2740:	9809883a 	mov	r4,r19
    2744:	000a8e40 	call	a8e4 <__ssprint_r>
    2748:	103b951e 	bne	r2,zero,15a0 <__alt_mem_onchip_memory+0xf78015a0>
    274c:	d8c02017 	ldw	r3,128(sp)
    2750:	d8801f17 	ldw	r2,124(sp)
    2754:	da000404 	addi	r8,sp,16
    2758:	003fee06 	br	2714 <__alt_mem_onchip_memory+0xf7802714>
    275c:	9088703a 	and	r4,r18,r2
    2760:	203e8d1e 	bne	r4,zero,2198 <__alt_mem_onchip_memory+0xf7802198>
    2764:	dc401f17 	ldw	r17,124(sp)
    2768:	40800115 	stw	r2,4(r8)
    276c:	44000015 	stw	r16,0(r8)
    2770:	8c400044 	addi	r17,r17,1
    2774:	d8c02015 	stw	r3,128(sp)
    2778:	dc401f15 	stw	r17,124(sp)
    277c:	008001c4 	movi	r2,7
    2780:	147f7f16 	blt	r2,r17,2580 <__alt_mem_onchip_memory+0xf7802580>
    2784:	45800204 	addi	r22,r8,8
    2788:	003eac06 	br	223c <__alt_mem_onchip_memory+0xf780223c>
    278c:	d9402c17 	ldw	r5,176(sp)
    2790:	d9801e04 	addi	r6,sp,120
    2794:	9809883a 	mov	r4,r19
    2798:	000a8e40 	call	a8e4 <__ssprint_r>
    279c:	103b801e 	bne	r2,zero,15a0 <__alt_mem_onchip_memory+0xf78015a0>
    27a0:	d8c02017 	ldw	r3,128(sp)
    27a4:	dc401f17 	ldw	r17,124(sp)
    27a8:	da000404 	addi	r8,sp,16
    27ac:	003e8406 	br	21c0 <__alt_mem_onchip_memory+0xf78021c0>
    27b0:	d9402c17 	ldw	r5,176(sp)
    27b4:	d9801e04 	addi	r6,sp,120
    27b8:	9809883a 	mov	r4,r19
    27bc:	000a8e40 	call	a8e4 <__ssprint_r>
    27c0:	103b771e 	bne	r2,zero,15a0 <__alt_mem_onchip_memory+0xf78015a0>
    27c4:	d8c02017 	ldw	r3,128(sp)
    27c8:	dc401f17 	ldw	r17,124(sp)
    27cc:	dd800404 	addi	r22,sp,16
    27d0:	003e8606 	br	21ec <__alt_mem_onchip_memory+0xf78021ec>
    27d4:	0029883a 	mov	r20,zero
    27d8:	a5000c04 	addi	r20,r20,48
    27dc:	dc001dc4 	addi	r16,sp,119
    27e0:	dd001dc5 	stb	r20,119(sp)
    27e4:	003f3806 	br	24c8 <__alt_mem_onchip_memory+0xf78024c8>
    27e8:	d9402c17 	ldw	r5,176(sp)
    27ec:	d9801e04 	addi	r6,sp,120
    27f0:	9809883a 	mov	r4,r19
    27f4:	000a8e40 	call	a8e4 <__ssprint_r>
    27f8:	103b691e 	bne	r2,zero,15a0 <__alt_mem_onchip_memory+0xf78015a0>
    27fc:	d8c02017 	ldw	r3,128(sp)
    2800:	da000404 	addi	r8,sp,16
    2804:	003c9506 	br	1a5c <__alt_mem_onchip_memory+0xf7801a5c>
    2808:	d9003617 	ldw	r4,216(sp)
    280c:	d9403717 	ldw	r5,220(sp)
    2810:	da003e15 	stw	r8,248(sp)
    2814:	000a6040 	call	a604 <__fpclassifyd>
    2818:	da003e17 	ldw	r8,248(sp)
    281c:	1000bd1e 	bne	r2,zero,2b14 <___svfprintf_internal_r+0x1908>
    2820:	008011c4 	movi	r2,71
    2824:	14411e0e 	bge	r2,r17,2ca0 <___svfprintf_internal_r+0x1a94>
    2828:	040000b4 	movhi	r16,2
    282c:	843d8c04 	addi	r16,r16,-2512
    2830:	00c000c4 	movi	r3,3
    2834:	00bfdfc4 	movi	r2,-129
    2838:	d8c02a15 	stw	r3,168(sp)
    283c:	90a4703a 	and	r18,r18,r2
    2840:	df002783 	ldbu	fp,158(sp)
    2844:	d8c02e15 	stw	r3,184(sp)
    2848:	d8002915 	stw	zero,164(sp)
    284c:	d8003215 	stw	zero,200(sp)
    2850:	003c1c06 	br	18c4 <__alt_mem_onchip_memory+0xf78018c4>
    2854:	9080100c 	andi	r2,r18,64
    2858:	d8002785 	stb	zero,158(sp)
    285c:	10009426 	beq	r2,zero,2ab0 <___svfprintf_internal_r+0x18a4>
    2860:	d8c02d17 	ldw	r3,180(sp)
    2864:	d9002917 	ldw	r4,164(sp)
    2868:	002d883a 	mov	r22,zero
    286c:	18800104 	addi	r2,r3,4
    2870:	1d00000b 	ldhu	r20,0(r3)
    2874:	203ec10e 	bge	r4,zero,237c <__alt_mem_onchip_memory+0xf780237c>
    2878:	a586b03a 	or	r3,r20,r22
    287c:	d8802d15 	stw	r2,180(sp)
    2880:	183ec21e 	bne	r3,zero,238c <__alt_mem_onchip_memory+0xf780238c>
    2884:	0039883a 	mov	fp,zero
    2888:	0005883a 	mov	r2,zero
    288c:	003db806 	br	1f70 <__alt_mem_onchip_memory+0xf7801f70>
    2890:	d8802d17 	ldw	r2,180(sp)
    2894:	d8c02d17 	ldw	r3,180(sp)
    2898:	d9002d17 	ldw	r4,180(sp)
    289c:	10800017 	ldw	r2,0(r2)
    28a0:	18c00117 	ldw	r3,4(r3)
    28a4:	21000204 	addi	r4,r4,8
    28a8:	d8803615 	stw	r2,216(sp)
    28ac:	d8c03715 	stw	r3,220(sp)
    28b0:	d9002d15 	stw	r4,180(sp)
    28b4:	003b8206 	br	16c0 <__alt_mem_onchip_memory+0xf78016c0>
    28b8:	9080100c 	andi	r2,r18,64
    28bc:	10010726 	beq	r2,zero,2cdc <___svfprintf_internal_r+0x1ad0>
    28c0:	d8c02d17 	ldw	r3,180(sp)
    28c4:	1d00000f 	ldh	r20,0(r3)
    28c8:	18c00104 	addi	r3,r3,4
    28cc:	d8c02d15 	stw	r3,180(sp)
    28d0:	a02dd7fa 	srai	r22,r20,31
    28d4:	b005883a 	mov	r2,r22
    28d8:	003ba206 	br	1764 <__alt_mem_onchip_memory+0xf7801764>
    28dc:	9080100c 	andi	r2,r18,64
    28e0:	10010526 	beq	r2,zero,2cf8 <___svfprintf_internal_r+0x1aec>
    28e4:	d9002d17 	ldw	r4,180(sp)
    28e8:	002d883a 	mov	r22,zero
    28ec:	2500000b 	ldhu	r20,0(r4)
    28f0:	21000104 	addi	r4,r4,4
    28f4:	d9002d15 	stw	r4,180(sp)
    28f8:	003cfe06 	br	1cf4 <__alt_mem_onchip_memory+0xf7801cf4>
    28fc:	bc400007 	ldb	r17,0(r23)
    2900:	003a9606 	br	135c <__alt_mem_onchip_memory+0xf780135c>
    2904:	9080040c 	andi	r2,r18,16
    2908:	10010126 	beq	r2,zero,2d10 <___svfprintf_internal_r+0x1b04>
    290c:	d9402d17 	ldw	r5,180(sp)
    2910:	d8c02f17 	ldw	r3,188(sp)
    2914:	28800017 	ldw	r2,0(r5)
    2918:	29400104 	addi	r5,r5,4
    291c:	d9402d15 	stw	r5,180(sp)
    2920:	10c00015 	stw	r3,0(r2)
    2924:	003a6406 	br	12b8 <__alt_mem_onchip_memory+0xf78012b8>
    2928:	d9002917 	ldw	r4,164(sp)
    292c:	d8002785 	stb	zero,158(sp)
    2930:	203d8d16 	blt	r4,zero,1f68 <__alt_mem_onchip_memory+0xf7801f68>
    2934:	00bfdfc4 	movi	r2,-129
    2938:	90a4703a 	and	r18,r18,r2
    293c:	003b0506 	br	1554 <__alt_mem_onchip_memory+0xf7801554>
    2940:	014000b4 	movhi	r5,2
    2944:	297d9984 	addi	r5,r5,-2458
    2948:	d9402b15 	stw	r5,172(sp)
    294c:	d9402b17 	ldw	r5,172(sp)
    2950:	1c47883a 	add	r3,r3,r17
    2954:	10800044 	addi	r2,r2,1
    2958:	41400015 	stw	r5,0(r8)
    295c:	44400115 	stw	r17,4(r8)
    2960:	d8c02015 	stw	r3,128(sp)
    2964:	d8801f15 	stw	r2,124(sp)
    2968:	010001c4 	movi	r4,7
    296c:	20bf3016 	blt	r4,r2,2630 <__alt_mem_onchip_memory+0xf7802630>
    2970:	42000204 	addi	r8,r8,8
    2974:	003f3506 	br	264c <__alt_mem_onchip_memory+0xf780264c>
    2978:	010000b4 	movhi	r4,2
    297c:	213d9984 	addi	r4,r4,-2458
    2980:	d9002b15 	stw	r4,172(sp)
    2984:	003c5e06 	br	1b00 <__alt_mem_onchip_memory+0xf7801b00>
    2988:	d9402c17 	ldw	r5,176(sp)
    298c:	d9801e04 	addi	r6,sp,120
    2990:	9809883a 	mov	r4,r19
    2994:	000a8e40 	call	a8e4 <__ssprint_r>
    2998:	103b011e 	bne	r2,zero,15a0 <__alt_mem_onchip_memory+0xf78015a0>
    299c:	d8c02017 	ldw	r3,128(sp)
    29a0:	da000404 	addi	r8,sp,16
    29a4:	003d9306 	br	1ff4 <__alt_mem_onchip_memory+0xf7801ff4>
    29a8:	d8801f17 	ldw	r2,124(sp)
    29ac:	014000b4 	movhi	r5,2
    29b0:	01000044 	movi	r4,1
    29b4:	18c00044 	addi	r3,r3,1
    29b8:	10800044 	addi	r2,r2,1
    29bc:	297d9904 	addi	r5,r5,-2460
    29c0:	41000115 	stw	r4,4(r8)
    29c4:	41400015 	stw	r5,0(r8)
    29c8:	d8c02015 	stw	r3,128(sp)
    29cc:	d8801f15 	stw	r2,124(sp)
    29d0:	010001c4 	movi	r4,7
    29d4:	2080b516 	blt	r4,r2,2cac <___svfprintf_internal_r+0x1aa0>
    29d8:	42000204 	addi	r8,r8,8
    29dc:	8800041e 	bne	r17,zero,29f0 <___svfprintf_internal_r+0x17e4>
    29e0:	d8803317 	ldw	r2,204(sp)
    29e4:	1000021e 	bne	r2,zero,29f0 <___svfprintf_internal_r+0x17e4>
    29e8:	9080004c 	andi	r2,r18,1
    29ec:	103c5b26 	beq	r2,zero,1b5c <__alt_mem_onchip_memory+0xf7801b5c>
    29f0:	d9003817 	ldw	r4,224(sp)
    29f4:	d8801f17 	ldw	r2,124(sp)
    29f8:	d9403417 	ldw	r5,208(sp)
    29fc:	20c7883a 	add	r3,r4,r3
    2a00:	10800044 	addi	r2,r2,1
    2a04:	41000115 	stw	r4,4(r8)
    2a08:	41400015 	stw	r5,0(r8)
    2a0c:	d8c02015 	stw	r3,128(sp)
    2a10:	d8801f15 	stw	r2,124(sp)
    2a14:	010001c4 	movi	r4,7
    2a18:	20818016 	blt	r4,r2,301c <___svfprintf_internal_r+0x1e10>
    2a1c:	42000204 	addi	r8,r8,8
    2a20:	0463c83a 	sub	r17,zero,r17
    2a24:	0440cb0e 	bge	zero,r17,2d54 <___svfprintf_internal_r+0x1b48>
    2a28:	05800404 	movi	r22,16
    2a2c:	b440e80e 	bge	r22,r17,2dd0 <___svfprintf_internal_r+0x1bc4>
    2a30:	014000b4 	movhi	r5,2
    2a34:	297d9984 	addi	r5,r5,-2458
    2a38:	d9402b15 	stw	r5,172(sp)
    2a3c:	070001c4 	movi	fp,7
    2a40:	dd002c17 	ldw	r20,176(sp)
    2a44:	00000306 	br	2a54 <___svfprintf_internal_r+0x1848>
    2a48:	42000204 	addi	r8,r8,8
    2a4c:	8c7ffc04 	addi	r17,r17,-16
    2a50:	b440e20e 	bge	r22,r17,2ddc <___svfprintf_internal_r+0x1bd0>
    2a54:	18c00404 	addi	r3,r3,16
    2a58:	10800044 	addi	r2,r2,1
    2a5c:	45400015 	stw	r21,0(r8)
    2a60:	45800115 	stw	r22,4(r8)
    2a64:	d8c02015 	stw	r3,128(sp)
    2a68:	d8801f15 	stw	r2,124(sp)
    2a6c:	e0bff60e 	bge	fp,r2,2a48 <__alt_mem_onchip_memory+0xf7802a48>
    2a70:	d9801e04 	addi	r6,sp,120
    2a74:	a00b883a 	mov	r5,r20
    2a78:	9809883a 	mov	r4,r19
    2a7c:	000a8e40 	call	a8e4 <__ssprint_r>
    2a80:	103ac71e 	bne	r2,zero,15a0 <__alt_mem_onchip_memory+0xf78015a0>
    2a84:	d8c02017 	ldw	r3,128(sp)
    2a88:	d8801f17 	ldw	r2,124(sp)
    2a8c:	da000404 	addi	r8,sp,16
    2a90:	003fee06 	br	2a4c <__alt_mem_onchip_memory+0xf7802a4c>
    2a94:	d8c02d17 	ldw	r3,180(sp)
    2a98:	d9002917 	ldw	r4,164(sp)
    2a9c:	002d883a 	mov	r22,zero
    2aa0:	18800104 	addi	r2,r3,4
    2aa4:	1d000017 	ldw	r20,0(r3)
    2aa8:	203e7d0e 	bge	r4,zero,24a0 <__alt_mem_onchip_memory+0xf78024a0>
    2aac:	003eda06 	br	2618 <__alt_mem_onchip_memory+0xf7802618>
    2ab0:	d9402d17 	ldw	r5,180(sp)
    2ab4:	d8c02917 	ldw	r3,164(sp)
    2ab8:	002d883a 	mov	r22,zero
    2abc:	28800104 	addi	r2,r5,4
    2ac0:	2d000017 	ldw	r20,0(r5)
    2ac4:	183e2d0e 	bge	r3,zero,237c <__alt_mem_onchip_memory+0xf780237c>
    2ac8:	003f6b06 	br	2878 <__alt_mem_onchip_memory+0xf7802878>
    2acc:	d8c02d15 	stw	r3,180(sp)
    2ad0:	0039883a 	mov	fp,zero
    2ad4:	003ed206 	br	2620 <__alt_mem_onchip_memory+0xf7802620>
    2ad8:	bc400043 	ldbu	r17,1(r23)
    2adc:	94800814 	ori	r18,r18,32
    2ae0:	bdc00044 	addi	r23,r23,1
    2ae4:	8c403fcc 	andi	r17,r17,255
    2ae8:	8c40201c 	xori	r17,r17,128
    2aec:	8c7fe004 	addi	r17,r17,-128
    2af0:	003a1a06 	br	135c <__alt_mem_onchip_memory+0xf780135c>
    2af4:	d9402c17 	ldw	r5,176(sp)
    2af8:	d9801e04 	addi	r6,sp,120
    2afc:	9809883a 	mov	r4,r19
    2b00:	000a8e40 	call	a8e4 <__ssprint_r>
    2b04:	103aa61e 	bne	r2,zero,15a0 <__alt_mem_onchip_memory+0xf78015a0>
    2b08:	d8c02017 	ldw	r3,128(sp)
    2b0c:	da000404 	addi	r8,sp,16
    2b10:	003d4a06 	br	203c <__alt_mem_onchip_memory+0xf780203c>
    2b14:	d9002917 	ldw	r4,164(sp)
    2b18:	05bff7c4 	movi	r22,-33
    2b1c:	00bfffc4 	movi	r2,-1
    2b20:	8dac703a 	and	r22,r17,r22
    2b24:	20806a26 	beq	r4,r2,2cd0 <___svfprintf_internal_r+0x1ac4>
    2b28:	008011c4 	movi	r2,71
    2b2c:	b0813726 	beq	r22,r2,300c <___svfprintf_internal_r+0x1e00>
    2b30:	d9003717 	ldw	r4,220(sp)
    2b34:	90c04014 	ori	r3,r18,256
    2b38:	d8c02b15 	stw	r3,172(sp)
    2b3c:	20015d16 	blt	r4,zero,30b4 <___svfprintf_internal_r+0x1ea8>
    2b40:	dd003717 	ldw	r20,220(sp)
    2b44:	d8002a05 	stb	zero,168(sp)
    2b48:	00801984 	movi	r2,102
    2b4c:	88814026 	beq	r17,r2,3050 <___svfprintf_internal_r+0x1e44>
    2b50:	00801184 	movi	r2,70
    2b54:	88817126 	beq	r17,r2,311c <___svfprintf_internal_r+0x1f10>
    2b58:	00801144 	movi	r2,69
    2b5c:	b0816226 	beq	r22,r2,30e8 <___svfprintf_internal_r+0x1edc>
    2b60:	d8c02917 	ldw	r3,164(sp)
    2b64:	d8802104 	addi	r2,sp,132
    2b68:	d8800315 	stw	r2,12(sp)
    2b6c:	d9403617 	ldw	r5,216(sp)
    2b70:	d8802504 	addi	r2,sp,148
    2b74:	d8800215 	stw	r2,8(sp)
    2b78:	d8802604 	addi	r2,sp,152
    2b7c:	d8c00015 	stw	r3,0(sp)
    2b80:	d8800115 	stw	r2,4(sp)
    2b84:	01c00084 	movi	r7,2
    2b88:	a00d883a 	mov	r6,r20
    2b8c:	9809883a 	mov	r4,r19
    2b90:	d8c03d15 	stw	r3,244(sp)
    2b94:	da003e15 	stw	r8,248(sp)
    2b98:	0005a080 	call	5a08 <_dtoa_r>
    2b9c:	1021883a 	mov	r16,r2
    2ba0:	008019c4 	movi	r2,103
    2ba4:	d8c03d17 	ldw	r3,244(sp)
    2ba8:	da003e17 	ldw	r8,248(sp)
    2bac:	8880e726 	beq	r17,r2,2f4c <___svfprintf_internal_r+0x1d40>
    2bb0:	008011c4 	movi	r2,71
    2bb4:	8880d426 	beq	r17,r2,2f08 <___svfprintf_internal_r+0x1cfc>
    2bb8:	80f9883a 	add	fp,r16,r3
    2bbc:	d9003617 	ldw	r4,216(sp)
    2bc0:	000d883a 	mov	r6,zero
    2bc4:	000f883a 	mov	r7,zero
    2bc8:	a00b883a 	mov	r5,r20
    2bcc:	da003e15 	stw	r8,248(sp)
    2bd0:	000fa640 	call	fa64 <__eqdf2>
    2bd4:	da003e17 	ldw	r8,248(sp)
    2bd8:	1000e426 	beq	r2,zero,2f6c <___svfprintf_internal_r+0x1d60>
    2bdc:	d8802117 	ldw	r2,132(sp)
    2be0:	1700062e 	bgeu	r2,fp,2bfc <___svfprintf_internal_r+0x19f0>
    2be4:	01000c04 	movi	r4,48
    2be8:	10c00044 	addi	r3,r2,1
    2bec:	d8c02115 	stw	r3,132(sp)
    2bf0:	11000005 	stb	r4,0(r2)
    2bf4:	d8802117 	ldw	r2,132(sp)
    2bf8:	173ffb36 	bltu	r2,fp,2be8 <__alt_mem_onchip_memory+0xf7802be8>
    2bfc:	1405c83a 	sub	r2,r2,r16
    2c00:	d8803315 	stw	r2,204(sp)
    2c04:	008011c4 	movi	r2,71
    2c08:	b080c526 	beq	r22,r2,2f20 <___svfprintf_internal_r+0x1d14>
    2c0c:	00801944 	movi	r2,101
    2c10:	1441d90e 	bge	r2,r17,3378 <___svfprintf_internal_r+0x216c>
    2c14:	d8c02617 	ldw	r3,152(sp)
    2c18:	00801984 	movi	r2,102
    2c1c:	d8c03215 	stw	r3,200(sp)
    2c20:	88813426 	beq	r17,r2,30f4 <___svfprintf_internal_r+0x1ee8>
    2c24:	d8c03217 	ldw	r3,200(sp)
    2c28:	d9003317 	ldw	r4,204(sp)
    2c2c:	19012516 	blt	r3,r4,30c4 <___svfprintf_internal_r+0x1eb8>
    2c30:	9480004c 	andi	r18,r18,1
    2c34:	9001841e 	bne	r18,zero,3248 <___svfprintf_internal_r+0x203c>
    2c38:	1805883a 	mov	r2,r3
    2c3c:	1801cc16 	blt	r3,zero,3370 <___svfprintf_internal_r+0x2164>
    2c40:	d8c03217 	ldw	r3,200(sp)
    2c44:	044019c4 	movi	r17,103
    2c48:	d8c02e15 	stw	r3,184(sp)
    2c4c:	df002a07 	ldb	fp,168(sp)
    2c50:	e000a61e 	bne	fp,zero,2eec <___svfprintf_internal_r+0x1ce0>
    2c54:	df002783 	ldbu	fp,158(sp)
    2c58:	d8802a15 	stw	r2,168(sp)
    2c5c:	dc802b17 	ldw	r18,172(sp)
    2c60:	d8002915 	stw	zero,164(sp)
    2c64:	003b1706 	br	18c4 <__alt_mem_onchip_memory+0xf78018c4>
    2c68:	040000b4 	movhi	r16,2
    2c6c:	843d8904 	addi	r16,r16,-2524
    2c70:	003aa606 	br	170c <__alt_mem_onchip_memory+0xf780170c>
    2c74:	d9003917 	ldw	r4,228(sp)
    2c78:	04001004 	movi	r16,64
    2c7c:	800b883a 	mov	r5,r16
    2c80:	00083e80 	call	83e8 <_malloc_r>
    2c84:	d9002c17 	ldw	r4,176(sp)
    2c88:	20800015 	stw	r2,0(r4)
    2c8c:	20800415 	stw	r2,16(r4)
    2c90:	1001cb26 	beq	r2,zero,33c0 <___svfprintf_internal_r+0x21b4>
    2c94:	d8802c17 	ldw	r2,176(sp)
    2c98:	14000515 	stw	r16,20(r2)
    2c9c:	00397606 	br	1278 <__alt_mem_onchip_memory+0xf7801278>
    2ca0:	040000b4 	movhi	r16,2
    2ca4:	843d8b04 	addi	r16,r16,-2516
    2ca8:	003ee106 	br	2830 <__alt_mem_onchip_memory+0xf7802830>
    2cac:	d9402c17 	ldw	r5,176(sp)
    2cb0:	d9801e04 	addi	r6,sp,120
    2cb4:	9809883a 	mov	r4,r19
    2cb8:	000a8e40 	call	a8e4 <__ssprint_r>
    2cbc:	103a381e 	bne	r2,zero,15a0 <__alt_mem_onchip_memory+0xf78015a0>
    2cc0:	dc402617 	ldw	r17,152(sp)
    2cc4:	d8c02017 	ldw	r3,128(sp)
    2cc8:	da000404 	addi	r8,sp,16
    2ccc:	003f4306 	br	29dc <__alt_mem_onchip_memory+0xf78029dc>
    2cd0:	01400184 	movi	r5,6
    2cd4:	d9402915 	stw	r5,164(sp)
    2cd8:	003f9506 	br	2b30 <__alt_mem_onchip_memory+0xf7802b30>
    2cdc:	d9002d17 	ldw	r4,180(sp)
    2ce0:	25000017 	ldw	r20,0(r4)
    2ce4:	21000104 	addi	r4,r4,4
    2ce8:	d9002d15 	stw	r4,180(sp)
    2cec:	a02dd7fa 	srai	r22,r20,31
    2cf0:	b005883a 	mov	r2,r22
    2cf4:	003a9b06 	br	1764 <__alt_mem_onchip_memory+0xf7801764>
    2cf8:	d9402d17 	ldw	r5,180(sp)
    2cfc:	002d883a 	mov	r22,zero
    2d00:	2d000017 	ldw	r20,0(r5)
    2d04:	29400104 	addi	r5,r5,4
    2d08:	d9402d15 	stw	r5,180(sp)
    2d0c:	003bf906 	br	1cf4 <__alt_mem_onchip_memory+0xf7801cf4>
    2d10:	9480100c 	andi	r18,r18,64
    2d14:	90006e26 	beq	r18,zero,2ed0 <___svfprintf_internal_r+0x1cc4>
    2d18:	d9002d17 	ldw	r4,180(sp)
    2d1c:	d9402f17 	ldw	r5,188(sp)
    2d20:	20800017 	ldw	r2,0(r4)
    2d24:	21000104 	addi	r4,r4,4
    2d28:	d9002d15 	stw	r4,180(sp)
    2d2c:	1140000d 	sth	r5,0(r2)
    2d30:	00396106 	br	12b8 <__alt_mem_onchip_memory+0xf78012b8>
    2d34:	d9402c17 	ldw	r5,176(sp)
    2d38:	d9801e04 	addi	r6,sp,120
    2d3c:	9809883a 	mov	r4,r19
    2d40:	000a8e40 	call	a8e4 <__ssprint_r>
    2d44:	103a161e 	bne	r2,zero,15a0 <__alt_mem_onchip_memory+0xf78015a0>
    2d48:	d8c02017 	ldw	r3,128(sp)
    2d4c:	d8801f17 	ldw	r2,124(sp)
    2d50:	da000404 	addi	r8,sp,16
    2d54:	d9403317 	ldw	r5,204(sp)
    2d58:	10800044 	addi	r2,r2,1
    2d5c:	44000015 	stw	r16,0(r8)
    2d60:	28c7883a 	add	r3,r5,r3
    2d64:	003b7706 	br	1b44 <__alt_mem_onchip_memory+0xf7801b44>
    2d68:	8009883a 	mov	r4,r16
    2d6c:	da003e15 	stw	r8,248(sp)
    2d70:	00011740 	call	1174 <strlen>
    2d74:	d8802e15 	stw	r2,184(sp)
    2d78:	da003e17 	ldw	r8,248(sp)
    2d7c:	103c280e 	bge	r2,zero,1e20 <__alt_mem_onchip_memory+0xf7801e20>
    2d80:	0005883a 	mov	r2,zero
    2d84:	003c2606 	br	1e20 <__alt_mem_onchip_memory+0xf7801e20>
    2d88:	00bfffc4 	movi	r2,-1
    2d8c:	003a0906 	br	15b4 <__alt_mem_onchip_memory+0xf78015b4>
    2d90:	010000b4 	movhi	r4,2
    2d94:	213d9d84 	addi	r4,r4,-2442
    2d98:	d9003515 	stw	r4,212(sp)
    2d9c:	003b0606 	br	19b8 <__alt_mem_onchip_memory+0xf78019b8>
    2da0:	013fffc4 	movi	r4,-1
    2da4:	003a2706 	br	1644 <__alt_mem_onchip_memory+0xf7801644>
    2da8:	d9402c17 	ldw	r5,176(sp)
    2dac:	d9801e04 	addi	r6,sp,120
    2db0:	9809883a 	mov	r4,r19
    2db4:	000a8e40 	call	a8e4 <__ssprint_r>
    2db8:	1039f91e 	bne	r2,zero,15a0 <__alt_mem_onchip_memory+0xf78015a0>
    2dbc:	d8c02017 	ldw	r3,128(sp)
    2dc0:	da000404 	addi	r8,sp,16
    2dc4:	003d8406 	br	23d8 <__alt_mem_onchip_memory+0xf78023d8>
    2dc8:	0023883a 	mov	r17,zero
    2dcc:	003d8306 	br	23dc <__alt_mem_onchip_memory+0xf78023dc>
    2dd0:	010000b4 	movhi	r4,2
    2dd4:	213d9984 	addi	r4,r4,-2458
    2dd8:	d9002b15 	stw	r4,172(sp)
    2ddc:	d9002b17 	ldw	r4,172(sp)
    2de0:	1c47883a 	add	r3,r3,r17
    2de4:	10800044 	addi	r2,r2,1
    2de8:	41000015 	stw	r4,0(r8)
    2dec:	44400115 	stw	r17,4(r8)
    2df0:	d8c02015 	stw	r3,128(sp)
    2df4:	d8801f15 	stw	r2,124(sp)
    2df8:	010001c4 	movi	r4,7
    2dfc:	20bfcd16 	blt	r4,r2,2d34 <__alt_mem_onchip_memory+0xf7802d34>
    2e00:	42000204 	addi	r8,r8,8
    2e04:	003fd306 	br	2d54 <__alt_mem_onchip_memory+0xf7802d54>
    2e08:	d9402c17 	ldw	r5,176(sp)
    2e0c:	d9801e04 	addi	r6,sp,120
    2e10:	9809883a 	mov	r4,r19
    2e14:	000a8e40 	call	a8e4 <__ssprint_r>
    2e18:	1039e11e 	bne	r2,zero,15a0 <__alt_mem_onchip_memory+0xf78015a0>
    2e1c:	d8802617 	ldw	r2,152(sp)
    2e20:	d8c02017 	ldw	r3,128(sp)
    2e24:	da000404 	addi	r8,sp,16
    2e28:	003e1c06 	br	269c <__alt_mem_onchip_memory+0xf780269c>
    2e2c:	d8802917 	ldw	r2,164(sp)
    2e30:	00c00184 	movi	r3,6
    2e34:	1880012e 	bgeu	r3,r2,2e3c <___svfprintf_internal_r+0x1c30>
    2e38:	1805883a 	mov	r2,r3
    2e3c:	d8802e15 	stw	r2,184(sp)
    2e40:	1000f316 	blt	r2,zero,3210 <___svfprintf_internal_r+0x2004>
    2e44:	040000b4 	movhi	r16,2
    2e48:	d8802a15 	stw	r2,168(sp)
    2e4c:	dd002d15 	stw	r20,180(sp)
    2e50:	d8002915 	stw	zero,164(sp)
    2e54:	d8003215 	stw	zero,200(sp)
    2e58:	843d9704 	addi	r16,r16,-2468
    2e5c:	0039883a 	mov	fp,zero
    2e60:	003a9f06 	br	18e0 <__alt_mem_onchip_memory+0xf78018e0>
    2e64:	010000b4 	movhi	r4,2
    2e68:	213d9d84 	addi	r4,r4,-2442
    2e6c:	d9003515 	stw	r4,212(sp)
    2e70:	003b5f06 	br	1bf0 <__alt_mem_onchip_memory+0xf7801bf0>
    2e74:	d9402c17 	ldw	r5,176(sp)
    2e78:	d9801e04 	addi	r6,sp,120
    2e7c:	9809883a 	mov	r4,r19
    2e80:	000a8e40 	call	a8e4 <__ssprint_r>
    2e84:	1039c61e 	bne	r2,zero,15a0 <__alt_mem_onchip_memory+0xf78015a0>
    2e88:	d8802617 	ldw	r2,152(sp)
    2e8c:	d9403317 	ldw	r5,204(sp)
    2e90:	d8c02017 	ldw	r3,128(sp)
    2e94:	da000404 	addi	r8,sp,16
    2e98:	2885c83a 	sub	r2,r5,r2
    2e9c:	003e1006 	br	26e0 <__alt_mem_onchip_memory+0xf78026e0>
    2ea0:	00800044 	movi	r2,1
    2ea4:	10803fcc 	andi	r2,r2,255
    2ea8:	00c00044 	movi	r3,1
    2eac:	10fa3526 	beq	r2,r3,1784 <__alt_mem_onchip_memory+0xf7801784>
    2eb0:	00c00084 	movi	r3,2
    2eb4:	10fb9e26 	beq	r2,r3,1d30 <__alt_mem_onchip_memory+0xf7801d30>
    2eb8:	003a6406 	br	184c <__alt_mem_onchip_memory+0xf780184c>
    2ebc:	0021883a 	mov	r16,zero
    2ec0:	003e0806 	br	26e4 <__alt_mem_onchip_memory+0xf78026e4>
    2ec4:	07000b44 	movi	fp,45
    2ec8:	df002785 	stb	fp,158(sp)
    2ecc:	003a0b06 	br	16fc <__alt_mem_onchip_memory+0xf78016fc>
    2ed0:	d8c02d17 	ldw	r3,180(sp)
    2ed4:	d9002f17 	ldw	r4,188(sp)
    2ed8:	18800017 	ldw	r2,0(r3)
    2edc:	18c00104 	addi	r3,r3,4
    2ee0:	d8c02d15 	stw	r3,180(sp)
    2ee4:	11000015 	stw	r4,0(r2)
    2ee8:	0038f306 	br	12b8 <__alt_mem_onchip_memory+0xf78012b8>
    2eec:	00c00b44 	movi	r3,45
    2ef0:	d8c02785 	stb	r3,158(sp)
    2ef4:	d8802a15 	stw	r2,168(sp)
    2ef8:	dc802b17 	ldw	r18,172(sp)
    2efc:	d8002915 	stw	zero,164(sp)
    2f00:	07000b44 	movi	fp,45
    2f04:	003a7306 	br	18d4 <__alt_mem_onchip_memory+0xf78018d4>
    2f08:	9080004c 	andi	r2,r18,1
    2f0c:	1000941e 	bne	r2,zero,3160 <___svfprintf_internal_r+0x1f54>
    2f10:	d8802117 	ldw	r2,132(sp)
    2f14:	1405c83a 	sub	r2,r2,r16
    2f18:	d8803315 	stw	r2,204(sp)
    2f1c:	b441161e 	bne	r22,r17,3378 <___svfprintf_internal_r+0x216c>
    2f20:	dd802617 	ldw	r22,152(sp)
    2f24:	00bfff44 	movi	r2,-3
    2f28:	b0801a16 	blt	r22,r2,2f94 <___svfprintf_internal_r+0x1d88>
    2f2c:	d9402917 	ldw	r5,164(sp)
    2f30:	2d801816 	blt	r5,r22,2f94 <___svfprintf_internal_r+0x1d88>
    2f34:	dd803215 	stw	r22,200(sp)
    2f38:	003f3a06 	br	2c24 <__alt_mem_onchip_memory+0xf7802c24>
    2f3c:	1025883a 	mov	r18,r2
    2f40:	0039883a 	mov	fp,zero
    2f44:	00800084 	movi	r2,2
    2f48:	003fd606 	br	2ea4 <__alt_mem_onchip_memory+0xf7802ea4>
    2f4c:	9080004c 	andi	r2,r18,1
    2f50:	103f191e 	bne	r2,zero,2bb8 <__alt_mem_onchip_memory+0xf7802bb8>
    2f54:	d8802117 	ldw	r2,132(sp)
    2f58:	003f2806 	br	2bfc <__alt_mem_onchip_memory+0xf7802bfc>
    2f5c:	010000b4 	movhi	r4,2
    2f60:	213d9984 	addi	r4,r4,-2458
    2f64:	d9002b15 	stw	r4,172(sp)
    2f68:	003c7c06 	br	215c <__alt_mem_onchip_memory+0xf780215c>
    2f6c:	e005883a 	mov	r2,fp
    2f70:	003f2206 	br	2bfc <__alt_mem_onchip_memory+0xf7802bfc>
    2f74:	d9402917 	ldw	r5,164(sp)
    2f78:	df002783 	ldbu	fp,158(sp)
    2f7c:	dd002d15 	stw	r20,180(sp)
    2f80:	d9402a15 	stw	r5,168(sp)
    2f84:	d9402e15 	stw	r5,184(sp)
    2f88:	d8002915 	stw	zero,164(sp)
    2f8c:	d8003215 	stw	zero,200(sp)
    2f90:	003a4c06 	br	18c4 <__alt_mem_onchip_memory+0xf78018c4>
    2f94:	8c7fff84 	addi	r17,r17,-2
    2f98:	b5bfffc4 	addi	r22,r22,-1
    2f9c:	dd802615 	stw	r22,152(sp)
    2fa0:	dc4022c5 	stb	r17,139(sp)
    2fa4:	b000c316 	blt	r22,zero,32b4 <___svfprintf_internal_r+0x20a8>
    2fa8:	00800ac4 	movi	r2,43
    2fac:	d8802305 	stb	r2,140(sp)
    2fb0:	00800244 	movi	r2,9
    2fb4:	15806e16 	blt	r2,r22,3170 <___svfprintf_internal_r+0x1f64>
    2fb8:	00800c04 	movi	r2,48
    2fbc:	b5800c04 	addi	r22,r22,48
    2fc0:	d8802345 	stb	r2,141(sp)
    2fc4:	dd802385 	stb	r22,142(sp)
    2fc8:	d88023c4 	addi	r2,sp,143
    2fcc:	df0022c4 	addi	fp,sp,139
    2fd0:	d8c03317 	ldw	r3,204(sp)
    2fd4:	1739c83a 	sub	fp,r2,fp
    2fd8:	d9003317 	ldw	r4,204(sp)
    2fdc:	e0c7883a 	add	r3,fp,r3
    2fe0:	df003b15 	stw	fp,236(sp)
    2fe4:	d8c02e15 	stw	r3,184(sp)
    2fe8:	00800044 	movi	r2,1
    2fec:	1100b70e 	bge	r2,r4,32cc <___svfprintf_internal_r+0x20c0>
    2ff0:	d8c02e17 	ldw	r3,184(sp)
    2ff4:	18c00044 	addi	r3,r3,1
    2ff8:	d8c02e15 	stw	r3,184(sp)
    2ffc:	1805883a 	mov	r2,r3
    3000:	1800b016 	blt	r3,zero,32c4 <___svfprintf_internal_r+0x20b8>
    3004:	d8003215 	stw	zero,200(sp)
    3008:	003f1006 	br	2c4c <__alt_mem_onchip_memory+0xf7802c4c>
    300c:	d8802917 	ldw	r2,164(sp)
    3010:	103ec71e 	bne	r2,zero,2b30 <__alt_mem_onchip_memory+0xf7802b30>
    3014:	dc002915 	stw	r16,164(sp)
    3018:	003ec506 	br	2b30 <__alt_mem_onchip_memory+0xf7802b30>
    301c:	d9402c17 	ldw	r5,176(sp)
    3020:	d9801e04 	addi	r6,sp,120
    3024:	9809883a 	mov	r4,r19
    3028:	000a8e40 	call	a8e4 <__ssprint_r>
    302c:	10395c1e 	bne	r2,zero,15a0 <__alt_mem_onchip_memory+0xf78015a0>
    3030:	dc402617 	ldw	r17,152(sp)
    3034:	d8c02017 	ldw	r3,128(sp)
    3038:	d8801f17 	ldw	r2,124(sp)
    303c:	da000404 	addi	r8,sp,16
    3040:	003e7706 	br	2a20 <__alt_mem_onchip_memory+0xf7802a20>
    3044:	582f883a 	mov	r23,r11
    3048:	d8002915 	stw	zero,164(sp)
    304c:	0038c406 	br	1360 <__alt_mem_onchip_memory+0xf7801360>
    3050:	d8c02917 	ldw	r3,164(sp)
    3054:	d8802104 	addi	r2,sp,132
    3058:	d8800315 	stw	r2,12(sp)
    305c:	d9403617 	ldw	r5,216(sp)
    3060:	d8802504 	addi	r2,sp,148
    3064:	d8800215 	stw	r2,8(sp)
    3068:	d8802604 	addi	r2,sp,152
    306c:	d8c00015 	stw	r3,0(sp)
    3070:	9809883a 	mov	r4,r19
    3074:	d8800115 	stw	r2,4(sp)
    3078:	01c000c4 	movi	r7,3
    307c:	a00d883a 	mov	r6,r20
    3080:	da003e15 	stw	r8,248(sp)
    3084:	0005a080 	call	5a08 <_dtoa_r>
    3088:	d9002917 	ldw	r4,164(sp)
    308c:	da003e17 	ldw	r8,248(sp)
    3090:	1021883a 	mov	r16,r2
    3094:	1139883a 	add	fp,r2,r4
    3098:	2007883a 	mov	r3,r4
    309c:	81000007 	ldb	r4,0(r16)
    30a0:	00800c04 	movi	r2,48
    30a4:	20806f26 	beq	r4,r2,3264 <___svfprintf_internal_r+0x2058>
    30a8:	d8c02617 	ldw	r3,152(sp)
    30ac:	e0f9883a 	add	fp,fp,r3
    30b0:	003ec206 	br	2bbc <__alt_mem_onchip_memory+0xf7802bbc>
    30b4:	00c00b44 	movi	r3,45
    30b8:	2520003c 	xorhi	r20,r4,32768
    30bc:	d8c02a05 	stb	r3,168(sp)
    30c0:	003ea106 	br	2b48 <__alt_mem_onchip_memory+0xf7802b48>
    30c4:	d8c03217 	ldw	r3,200(sp)
    30c8:	00c0890e 	bge	zero,r3,32f0 <___svfprintf_internal_r+0x20e4>
    30cc:	00800044 	movi	r2,1
    30d0:	d9003317 	ldw	r4,204(sp)
    30d4:	1105883a 	add	r2,r2,r4
    30d8:	d8802e15 	stw	r2,184(sp)
    30dc:	10005f16 	blt	r2,zero,325c <___svfprintf_internal_r+0x2050>
    30e0:	044019c4 	movi	r17,103
    30e4:	003ed906 	br	2c4c <__alt_mem_onchip_memory+0xf7802c4c>
    30e8:	d9002917 	ldw	r4,164(sp)
    30ec:	20c00044 	addi	r3,r4,1
    30f0:	003e9c06 	br	2b64 <__alt_mem_onchip_memory+0xf7802b64>
    30f4:	d9002917 	ldw	r4,164(sp)
    30f8:	00c0680e 	bge	zero,r3,329c <___svfprintf_internal_r+0x2090>
    30fc:	2000461e 	bne	r4,zero,3218 <___svfprintf_internal_r+0x200c>
    3100:	9480004c 	andi	r18,r18,1
    3104:	9000441e 	bne	r18,zero,3218 <___svfprintf_internal_r+0x200c>
    3108:	1805883a 	mov	r2,r3
    310c:	1800a016 	blt	r3,zero,3390 <___svfprintf_internal_r+0x2184>
    3110:	d8c03217 	ldw	r3,200(sp)
    3114:	d8c02e15 	stw	r3,184(sp)
    3118:	003ecc06 	br	2c4c <__alt_mem_onchip_memory+0xf7802c4c>
    311c:	d9402917 	ldw	r5,164(sp)
    3120:	d8802104 	addi	r2,sp,132
    3124:	d8800315 	stw	r2,12(sp)
    3128:	d9400015 	stw	r5,0(sp)
    312c:	d8802504 	addi	r2,sp,148
    3130:	d9403617 	ldw	r5,216(sp)
    3134:	d8800215 	stw	r2,8(sp)
    3138:	d8802604 	addi	r2,sp,152
    313c:	d8800115 	stw	r2,4(sp)
    3140:	01c000c4 	movi	r7,3
    3144:	a00d883a 	mov	r6,r20
    3148:	9809883a 	mov	r4,r19
    314c:	da003e15 	stw	r8,248(sp)
    3150:	0005a080 	call	5a08 <_dtoa_r>
    3154:	d8c02917 	ldw	r3,164(sp)
    3158:	da003e17 	ldw	r8,248(sp)
    315c:	1021883a 	mov	r16,r2
    3160:	00801184 	movi	r2,70
    3164:	80f9883a 	add	fp,r16,r3
    3168:	88bfcc26 	beq	r17,r2,309c <__alt_mem_onchip_memory+0xf780309c>
    316c:	003e9306 	br	2bbc <__alt_mem_onchip_memory+0xf7802bbc>
    3170:	df0022c4 	addi	fp,sp,139
    3174:	dc002915 	stw	r16,164(sp)
    3178:	9829883a 	mov	r20,r19
    317c:	e021883a 	mov	r16,fp
    3180:	4027883a 	mov	r19,r8
    3184:	b009883a 	mov	r4,r22
    3188:	01400284 	movi	r5,10
    318c:	000e7a00 	call	e7a0 <__modsi3>
    3190:	10800c04 	addi	r2,r2,48
    3194:	843fffc4 	addi	r16,r16,-1
    3198:	b009883a 	mov	r4,r22
    319c:	01400284 	movi	r5,10
    31a0:	80800005 	stb	r2,0(r16)
    31a4:	000e71c0 	call	e71c <__divsi3>
    31a8:	102d883a 	mov	r22,r2
    31ac:	00800244 	movi	r2,9
    31b0:	15bff416 	blt	r2,r22,3184 <__alt_mem_onchip_memory+0xf7803184>
    31b4:	9811883a 	mov	r8,r19
    31b8:	b0800c04 	addi	r2,r22,48
    31bc:	a027883a 	mov	r19,r20
    31c0:	8029883a 	mov	r20,r16
    31c4:	a17fffc4 	addi	r5,r20,-1
    31c8:	a0bfffc5 	stb	r2,-1(r20)
    31cc:	dc002917 	ldw	r16,164(sp)
    31d0:	2f00752e 	bgeu	r5,fp,33a8 <___svfprintf_internal_r+0x219c>
    31d4:	d9c02384 	addi	r7,sp,142
    31d8:	3d0fc83a 	sub	r7,r7,r20
    31dc:	d9002344 	addi	r4,sp,141
    31e0:	e1cf883a 	add	r7,fp,r7
    31e4:	00000106 	br	31ec <___svfprintf_internal_r+0x1fe0>
    31e8:	28800003 	ldbu	r2,0(r5)
    31ec:	20800005 	stb	r2,0(r4)
    31f0:	21000044 	addi	r4,r4,1
    31f4:	29400044 	addi	r5,r5,1
    31f8:	21fffb1e 	bne	r4,r7,31e8 <__alt_mem_onchip_memory+0xf78031e8>
    31fc:	d8802304 	addi	r2,sp,140
    3200:	1505c83a 	sub	r2,r2,r20
    3204:	d8c02344 	addi	r3,sp,141
    3208:	1885883a 	add	r2,r3,r2
    320c:	003f7006 	br	2fd0 <__alt_mem_onchip_memory+0xf7802fd0>
    3210:	0005883a 	mov	r2,zero
    3214:	003f0b06 	br	2e44 <__alt_mem_onchip_memory+0xf7802e44>
    3218:	d9002917 	ldw	r4,164(sp)
    321c:	d8c03217 	ldw	r3,200(sp)
    3220:	20800044 	addi	r2,r4,1
    3224:	1885883a 	add	r2,r3,r2
    3228:	d8802e15 	stw	r2,184(sp)
    322c:	103e870e 	bge	r2,zero,2c4c <__alt_mem_onchip_memory+0xf7802c4c>
    3230:	0005883a 	mov	r2,zero
    3234:	003e8506 	br	2c4c <__alt_mem_onchip_memory+0xf7802c4c>
    3238:	010000b4 	movhi	r4,2
    323c:	213d9984 	addi	r4,r4,-2458
    3240:	d9002b15 	stw	r4,172(sp)
    3244:	003cc506 	br	255c <__alt_mem_onchip_memory+0xf780255c>
    3248:	d8c03217 	ldw	r3,200(sp)
    324c:	18c00044 	addi	r3,r3,1
    3250:	d8c02e15 	stw	r3,184(sp)
    3254:	1805883a 	mov	r2,r3
    3258:	183fa10e 	bge	r3,zero,30e0 <__alt_mem_onchip_memory+0xf78030e0>
    325c:	0005883a 	mov	r2,zero
    3260:	003f9f06 	br	30e0 <__alt_mem_onchip_memory+0xf78030e0>
    3264:	d9003617 	ldw	r4,216(sp)
    3268:	000d883a 	mov	r6,zero
    326c:	000f883a 	mov	r7,zero
    3270:	a00b883a 	mov	r5,r20
    3274:	d8c03d15 	stw	r3,244(sp)
    3278:	da003e15 	stw	r8,248(sp)
    327c:	000fa640 	call	fa64 <__eqdf2>
    3280:	d8c03d17 	ldw	r3,244(sp)
    3284:	da003e17 	ldw	r8,248(sp)
    3288:	103f8726 	beq	r2,zero,30a8 <__alt_mem_onchip_memory+0xf78030a8>
    328c:	00800044 	movi	r2,1
    3290:	10c7c83a 	sub	r3,r2,r3
    3294:	d8c02615 	stw	r3,152(sp)
    3298:	003f8406 	br	30ac <__alt_mem_onchip_memory+0xf78030ac>
    329c:	20000e1e 	bne	r4,zero,32d8 <___svfprintf_internal_r+0x20cc>
    32a0:	9480004c 	andi	r18,r18,1
    32a4:	90000c1e 	bne	r18,zero,32d8 <___svfprintf_internal_r+0x20cc>
    32a8:	00800044 	movi	r2,1
    32ac:	d8802e15 	stw	r2,184(sp)
    32b0:	003e6606 	br	2c4c <__alt_mem_onchip_memory+0xf7802c4c>
    32b4:	00800b44 	movi	r2,45
    32b8:	05adc83a 	sub	r22,zero,r22
    32bc:	d8802305 	stb	r2,140(sp)
    32c0:	003f3b06 	br	2fb0 <__alt_mem_onchip_memory+0xf7802fb0>
    32c4:	0005883a 	mov	r2,zero
    32c8:	003f4e06 	br	3004 <__alt_mem_onchip_memory+0xf7803004>
    32cc:	90a4703a 	and	r18,r18,r2
    32d0:	903f4a26 	beq	r18,zero,2ffc <__alt_mem_onchip_memory+0xf7802ffc>
    32d4:	003f4606 	br	2ff0 <__alt_mem_onchip_memory+0xf7802ff0>
    32d8:	d8c02917 	ldw	r3,164(sp)
    32dc:	18c00084 	addi	r3,r3,2
    32e0:	d8c02e15 	stw	r3,184(sp)
    32e4:	1805883a 	mov	r2,r3
    32e8:	183e580e 	bge	r3,zero,2c4c <__alt_mem_onchip_memory+0xf7802c4c>
    32ec:	003fd006 	br	3230 <__alt_mem_onchip_memory+0xf7803230>
    32f0:	00800084 	movi	r2,2
    32f4:	10c5c83a 	sub	r2,r2,r3
    32f8:	003f7506 	br	30d0 <__alt_mem_onchip_memory+0xf78030d0>
    32fc:	d8802d17 	ldw	r2,180(sp)
    3300:	d9002d17 	ldw	r4,180(sp)
    3304:	bc400043 	ldbu	r17,1(r23)
    3308:	10800017 	ldw	r2,0(r2)
    330c:	582f883a 	mov	r23,r11
    3310:	d8802915 	stw	r2,164(sp)
    3314:	20800104 	addi	r2,r4,4
    3318:	d9002917 	ldw	r4,164(sp)
    331c:	d8802d15 	stw	r2,180(sp)
    3320:	203df00e 	bge	r4,zero,2ae4 <__alt_mem_onchip_memory+0xf7802ae4>
    3324:	8c403fcc 	andi	r17,r17,255
    3328:	00bfffc4 	movi	r2,-1
    332c:	8c40201c 	xori	r17,r17,128
    3330:	d8802915 	stw	r2,164(sp)
    3334:	8c7fe004 	addi	r17,r17,-128
    3338:	00380806 	br	135c <__alt_mem_onchip_memory+0xf780135c>
    333c:	9080004c 	andi	r2,r18,1
    3340:	0039883a 	mov	fp,zero
    3344:	10000726 	beq	r2,zero,3364 <___svfprintf_internal_r+0x2158>
    3348:	d8c02817 	ldw	r3,160(sp)
    334c:	dc001dc4 	addi	r16,sp,119
    3350:	00800c04 	movi	r2,48
    3354:	1c07c83a 	sub	r3,r3,r16
    3358:	d8801dc5 	stb	r2,119(sp)
    335c:	d8c02e15 	stw	r3,184(sp)
    3360:	00395206 	br	18ac <__alt_mem_onchip_memory+0xf78018ac>
    3364:	d8002e15 	stw	zero,184(sp)
    3368:	dc001e04 	addi	r16,sp,120
    336c:	00394f06 	br	18ac <__alt_mem_onchip_memory+0xf78018ac>
    3370:	0005883a 	mov	r2,zero
    3374:	003e3206 	br	2c40 <__alt_mem_onchip_memory+0xf7802c40>
    3378:	dd802617 	ldw	r22,152(sp)
    337c:	003f0606 	br	2f98 <__alt_mem_onchip_memory+0xf7802f98>
    3380:	d9c02785 	stb	r7,158(sp)
    3384:	003a5106 	br	1ccc <__alt_mem_onchip_memory+0xf7801ccc>
    3388:	d9c02785 	stb	r7,158(sp)
    338c:	003a3706 	br	1c6c <__alt_mem_onchip_memory+0xf7801c6c>
    3390:	0005883a 	mov	r2,zero
    3394:	003f5e06 	br	3110 <__alt_mem_onchip_memory+0xf7803110>
    3398:	d9c02785 	stb	r7,158(sp)
    339c:	00391706 	br	17fc <__alt_mem_onchip_memory+0xf78017fc>
    33a0:	d9c02785 	stb	r7,158(sp)
    33a4:	0038e606 	br	1740 <__alt_mem_onchip_memory+0xf7801740>
    33a8:	d8802344 	addi	r2,sp,141
    33ac:	003f0806 	br	2fd0 <__alt_mem_onchip_memory+0xf7802fd0>
    33b0:	d9c02785 	stb	r7,158(sp)
    33b4:	0038b706 	br	1694 <__alt_mem_onchip_memory+0xf7801694>
    33b8:	d9c02785 	stb	r7,158(sp)
    33bc:	003adc06 	br	1f30 <__alt_mem_onchip_memory+0xf7801f30>
    33c0:	d9403917 	ldw	r5,228(sp)
    33c4:	00800304 	movi	r2,12
    33c8:	28800015 	stw	r2,0(r5)
    33cc:	00bfffc4 	movi	r2,-1
    33d0:	00387806 	br	15b4 <__alt_mem_onchip_memory+0xf78015b4>
    33d4:	d9c02785 	stb	r7,158(sp)
    33d8:	003abf06 	br	1ed8 <__alt_mem_onchip_memory+0xf7801ed8>
    33dc:	d9c02785 	stb	r7,158(sp)
    33e0:	003a9b06 	br	1e50 <__alt_mem_onchip_memory+0xf7801e50>

000033e4 <___vfprintf_internal_r>:
    33e4:	deffb804 	addi	sp,sp,-288
    33e8:	dfc04715 	stw	ra,284(sp)
    33ec:	ddc04515 	stw	r23,276(sp)
    33f0:	dd404315 	stw	r21,268(sp)
    33f4:	d9002c15 	stw	r4,176(sp)
    33f8:	282f883a 	mov	r23,r5
    33fc:	302b883a 	mov	r21,r6
    3400:	d9c02d15 	stw	r7,180(sp)
    3404:	df004615 	stw	fp,280(sp)
    3408:	dd804415 	stw	r22,272(sp)
    340c:	dd004215 	stw	r20,264(sp)
    3410:	dcc04115 	stw	r19,260(sp)
    3414:	dc804015 	stw	r18,256(sp)
    3418:	dc403f15 	stw	r17,252(sp)
    341c:	dc003e15 	stw	r16,248(sp)
    3420:	00081fc0 	call	81fc <_localeconv_r>
    3424:	10800017 	ldw	r2,0(r2)
    3428:	1009883a 	mov	r4,r2
    342c:	d8803415 	stw	r2,208(sp)
    3430:	00011740 	call	1174 <strlen>
    3434:	d8803715 	stw	r2,220(sp)
    3438:	d8802c17 	ldw	r2,176(sp)
    343c:	10000226 	beq	r2,zero,3448 <___vfprintf_internal_r+0x64>
    3440:	10800e17 	ldw	r2,56(r2)
    3444:	1000f926 	beq	r2,zero,382c <___vfprintf_internal_r+0x448>
    3448:	b880030b 	ldhu	r2,12(r23)
    344c:	10c8000c 	andi	r3,r2,8192
    3450:	1800061e 	bne	r3,zero,346c <___vfprintf_internal_r+0x88>
    3454:	b9001917 	ldw	r4,100(r23)
    3458:	00f7ffc4 	movi	r3,-8193
    345c:	10880014 	ori	r2,r2,8192
    3460:	20c6703a 	and	r3,r4,r3
    3464:	b880030d 	sth	r2,12(r23)
    3468:	b8c01915 	stw	r3,100(r23)
    346c:	10c0020c 	andi	r3,r2,8
    3470:	1800c126 	beq	r3,zero,3778 <___vfprintf_internal_r+0x394>
    3474:	b8c00417 	ldw	r3,16(r23)
    3478:	1800bf26 	beq	r3,zero,3778 <___vfprintf_internal_r+0x394>
    347c:	1080068c 	andi	r2,r2,26
    3480:	00c00284 	movi	r3,10
    3484:	10c0c426 	beq	r2,r3,3798 <___vfprintf_internal_r+0x3b4>
    3488:	d8c00404 	addi	r3,sp,16
    348c:	050000b4 	movhi	r20,2
    3490:	d9001e04 	addi	r4,sp,120
    3494:	a53da184 	addi	r20,r20,-2426
    3498:	d8c01e15 	stw	r3,120(sp)
    349c:	d8002015 	stw	zero,128(sp)
    34a0:	d8001f15 	stw	zero,124(sp)
    34a4:	d8003315 	stw	zero,204(sp)
    34a8:	d8003615 	stw	zero,216(sp)
    34ac:	d8003815 	stw	zero,224(sp)
    34b0:	1811883a 	mov	r8,r3
    34b4:	d8003915 	stw	zero,228(sp)
    34b8:	d8003a15 	stw	zero,232(sp)
    34bc:	d8002f15 	stw	zero,188(sp)
    34c0:	d9002815 	stw	r4,160(sp)
    34c4:	a8800007 	ldb	r2,0(r21)
    34c8:	10027b26 	beq	r2,zero,3eb8 <___vfprintf_internal_r+0xad4>
    34cc:	00c00944 	movi	r3,37
    34d0:	a821883a 	mov	r16,r21
    34d4:	10c0021e 	bne	r2,r3,34e0 <___vfprintf_internal_r+0xfc>
    34d8:	00001406 	br	352c <___vfprintf_internal_r+0x148>
    34dc:	10c00326 	beq	r2,r3,34ec <___vfprintf_internal_r+0x108>
    34e0:	84000044 	addi	r16,r16,1
    34e4:	80800007 	ldb	r2,0(r16)
    34e8:	103ffc1e 	bne	r2,zero,34dc <__alt_mem_onchip_memory+0xf78034dc>
    34ec:	8563c83a 	sub	r17,r16,r21
    34f0:	88000e26 	beq	r17,zero,352c <___vfprintf_internal_r+0x148>
    34f4:	d8c02017 	ldw	r3,128(sp)
    34f8:	d8801f17 	ldw	r2,124(sp)
    34fc:	45400015 	stw	r21,0(r8)
    3500:	1c47883a 	add	r3,r3,r17
    3504:	10800044 	addi	r2,r2,1
    3508:	d8c02015 	stw	r3,128(sp)
    350c:	44400115 	stw	r17,4(r8)
    3510:	d8801f15 	stw	r2,124(sp)
    3514:	00c001c4 	movi	r3,7
    3518:	1880a716 	blt	r3,r2,37b8 <___vfprintf_internal_r+0x3d4>
    351c:	42000204 	addi	r8,r8,8
    3520:	d9402f17 	ldw	r5,188(sp)
    3524:	2c4b883a 	add	r5,r5,r17
    3528:	d9402f15 	stw	r5,188(sp)
    352c:	80800007 	ldb	r2,0(r16)
    3530:	1000a826 	beq	r2,zero,37d4 <___vfprintf_internal_r+0x3f0>
    3534:	84400047 	ldb	r17,1(r16)
    3538:	00bfffc4 	movi	r2,-1
    353c:	85400044 	addi	r21,r16,1
    3540:	d8002785 	stb	zero,158(sp)
    3544:	0007883a 	mov	r3,zero
    3548:	000f883a 	mov	r7,zero
    354c:	d8802915 	stw	r2,164(sp)
    3550:	d8003115 	stw	zero,196(sp)
    3554:	0025883a 	mov	r18,zero
    3558:	01401604 	movi	r5,88
    355c:	01800244 	movi	r6,9
    3560:	02800a84 	movi	r10,42
    3564:	02401b04 	movi	r9,108
    3568:	ad400044 	addi	r21,r21,1
    356c:	88bff804 	addi	r2,r17,-32
    3570:	28830436 	bltu	r5,r2,4184 <___vfprintf_internal_r+0xda0>
    3574:	100490ba 	slli	r2,r2,2
    3578:	01000034 	movhi	r4,0
    357c:	210d6304 	addi	r4,r4,13708
    3580:	1105883a 	add	r2,r2,r4
    3584:	10800017 	ldw	r2,0(r2)
    3588:	1000683a 	jmp	r2
    358c:	000040a4 	muli	zero,zero,258
    3590:	00004184 	movi	zero,262
    3594:	00004184 	movi	zero,262
    3598:	000040c4 	movi	zero,259
    359c:	00004184 	movi	zero,262
    35a0:	00004184 	movi	zero,262
    35a4:	00004184 	movi	zero,262
    35a8:	00004184 	movi	zero,262
    35ac:	00004184 	movi	zero,262
    35b0:	00004184 	movi	zero,262
    35b4:	00003838 	rdprs	zero,zero,224
    35b8:	00003fe0 	cmpeqi	zero,zero,255
    35bc:	00004184 	movi	zero,262
    35c0:	00003700 	call	370 <MTL_box+0xa8>
    35c4:	00003860 	cmpeqi	zero,zero,225
    35c8:	00004184 	movi	zero,262
    35cc:	000038a0 	cmpeqi	zero,zero,226
    35d0:	000038ac 	andhi	zero,zero,226
    35d4:	000038ac 	andhi	zero,zero,226
    35d8:	000038ac 	andhi	zero,zero,226
    35dc:	000038ac 	andhi	zero,zero,226
    35e0:	000038ac 	andhi	zero,zero,226
    35e4:	000038ac 	andhi	zero,zero,226
    35e8:	000038ac 	andhi	zero,zero,226
    35ec:	000038ac 	andhi	zero,zero,226
    35f0:	000038ac 	andhi	zero,zero,226
    35f4:	00004184 	movi	zero,262
    35f8:	00004184 	movi	zero,262
    35fc:	00004184 	movi	zero,262
    3600:	00004184 	movi	zero,262
    3604:	00004184 	movi	zero,262
    3608:	00004184 	movi	zero,262
    360c:	00004184 	movi	zero,262
    3610:	00004184 	movi	zero,262
    3614:	00004184 	movi	zero,262
    3618:	00004184 	movi	zero,262
    361c:	000038e0 	cmpeqi	zero,zero,227
    3620:	0000399c 	xori	zero,zero,230
    3624:	00004184 	movi	zero,262
    3628:	0000399c 	xori	zero,zero,230
    362c:	00004184 	movi	zero,262
    3630:	00004184 	movi	zero,262
    3634:	00004184 	movi	zero,262
    3638:	00004184 	movi	zero,262
    363c:	00003a3c 	xorhi	zero,zero,232
    3640:	00004184 	movi	zero,262
    3644:	00004184 	movi	zero,262
    3648:	00003a48 	cmpgei	zero,zero,233
    364c:	00004184 	movi	zero,262
    3650:	00004184 	movi	zero,262
    3654:	00004184 	movi	zero,262
    3658:	00004184 	movi	zero,262
    365c:	00004184 	movi	zero,262
    3660:	00003ec0 	call	3ec <MTL_text+0x78>
    3664:	00004184 	movi	zero,262
    3668:	00004184 	movi	zero,262
    366c:	00003f20 	cmpeqi	zero,zero,252
    3670:	00004184 	movi	zero,262
    3674:	00004184 	movi	zero,262
    3678:	00004184 	movi	zero,262
    367c:	00004184 	movi	zero,262
    3680:	00004184 	movi	zero,262
    3684:	00004184 	movi	zero,262
    3688:	00004184 	movi	zero,262
    368c:	00004184 	movi	zero,262
    3690:	00004184 	movi	zero,262
    3694:	00004184 	movi	zero,262
    3698:	00004130 	cmpltui	zero,zero,260
    369c:	000040d0 	cmplti	zero,zero,259
    36a0:	0000399c 	xori	zero,zero,230
    36a4:	0000399c 	xori	zero,zero,230
    36a8:	0000399c 	xori	zero,zero,230
    36ac:	000040e0 	cmpeqi	zero,zero,259
    36b0:	000040d0 	cmplti	zero,zero,259
    36b4:	00004184 	movi	zero,262
    36b8:	00004184 	movi	zero,262
    36bc:	000040ec 	andhi	zero,zero,259
    36c0:	00004184 	movi	zero,262
    36c4:	000040fc 	xorhi	zero,zero,259
    36c8:	00003fd0 	cmplti	zero,zero,255
    36cc:	0000370c 	andi	zero,zero,220
    36d0:	00003ff0 	cmpltui	zero,zero,255
    36d4:	00004184 	movi	zero,262
    36d8:	00003ffc 	xorhi	zero,zero,255
    36dc:	00004184 	movi	zero,262
    36e0:	00004058 	cmpnei	zero,zero,257
    36e4:	00004184 	movi	zero,262
    36e8:	00004184 	movi	zero,262
    36ec:	00004068 	cmpgeui	zero,zero,257
    36f0:	d9003117 	ldw	r4,196(sp)
    36f4:	d8802d15 	stw	r2,180(sp)
    36f8:	0109c83a 	sub	r4,zero,r4
    36fc:	d9003115 	stw	r4,196(sp)
    3700:	94800114 	ori	r18,r18,4
    3704:	ac400007 	ldb	r17,0(r21)
    3708:	003f9706 	br	3568 <__alt_mem_onchip_memory+0xf7803568>
    370c:	00800c04 	movi	r2,48
    3710:	d9002d17 	ldw	r4,180(sp)
    3714:	d9402917 	ldw	r5,164(sp)
    3718:	d8802705 	stb	r2,156(sp)
    371c:	00801e04 	movi	r2,120
    3720:	d8802745 	stb	r2,157(sp)
    3724:	d8002785 	stb	zero,158(sp)
    3728:	20c00104 	addi	r3,r4,4
    372c:	24c00017 	ldw	r19,0(r4)
    3730:	002d883a 	mov	r22,zero
    3734:	90800094 	ori	r2,r18,2
    3738:	28029a16 	blt	r5,zero,41a4 <___vfprintf_internal_r+0xdc0>
    373c:	00bfdfc4 	movi	r2,-129
    3740:	90a4703a 	and	r18,r18,r2
    3744:	d8c02d15 	stw	r3,180(sp)
    3748:	94800094 	ori	r18,r18,2
    374c:	9802871e 	bne	r19,zero,416c <___vfprintf_internal_r+0xd88>
    3750:	008000b4 	movhi	r2,2
    3754:	10bd9204 	addi	r2,r2,-2488
    3758:	d8803915 	stw	r2,228(sp)
    375c:	04401e04 	movi	r17,120
    3760:	d8802917 	ldw	r2,164(sp)
    3764:	0039883a 	mov	fp,zero
    3768:	1001e926 	beq	r2,zero,3f10 <___vfprintf_internal_r+0xb2c>
    376c:	0027883a 	mov	r19,zero
    3770:	002d883a 	mov	r22,zero
    3774:	00020506 	br	3f8c <___vfprintf_internal_r+0xba8>
    3778:	d9002c17 	ldw	r4,176(sp)
    377c:	b80b883a 	mov	r5,r23
    3780:	00056b40 	call	56b4 <__swsetup_r>
    3784:	1005ac1e 	bne	r2,zero,4e38 <___vfprintf_internal_r+0x1a54>
    3788:	b880030b 	ldhu	r2,12(r23)
    378c:	00c00284 	movi	r3,10
    3790:	1080068c 	andi	r2,r2,26
    3794:	10ff3c1e 	bne	r2,r3,3488 <__alt_mem_onchip_memory+0xf7803488>
    3798:	b880038f 	ldh	r2,14(r23)
    379c:	103f3a16 	blt	r2,zero,3488 <__alt_mem_onchip_memory+0xf7803488>
    37a0:	d9c02d17 	ldw	r7,180(sp)
    37a4:	d9002c17 	ldw	r4,176(sp)
    37a8:	a80d883a 	mov	r6,r21
    37ac:	b80b883a 	mov	r5,r23
    37b0:	00055f80 	call	55f8 <__sbprintf>
    37b4:	00001106 	br	37fc <___vfprintf_internal_r+0x418>
    37b8:	d9002c17 	ldw	r4,176(sp)
    37bc:	d9801e04 	addi	r6,sp,120
    37c0:	b80b883a 	mov	r5,r23
    37c4:	000bdec0 	call	bdec <__sprint_r>
    37c8:	1000081e 	bne	r2,zero,37ec <___vfprintf_internal_r+0x408>
    37cc:	da000404 	addi	r8,sp,16
    37d0:	003f5306 	br	3520 <__alt_mem_onchip_memory+0xf7803520>
    37d4:	d8802017 	ldw	r2,128(sp)
    37d8:	10000426 	beq	r2,zero,37ec <___vfprintf_internal_r+0x408>
    37dc:	d9002c17 	ldw	r4,176(sp)
    37e0:	d9801e04 	addi	r6,sp,120
    37e4:	b80b883a 	mov	r5,r23
    37e8:	000bdec0 	call	bdec <__sprint_r>
    37ec:	b880030b 	ldhu	r2,12(r23)
    37f0:	1080100c 	andi	r2,r2,64
    37f4:	1005901e 	bne	r2,zero,4e38 <___vfprintf_internal_r+0x1a54>
    37f8:	d8802f17 	ldw	r2,188(sp)
    37fc:	dfc04717 	ldw	ra,284(sp)
    3800:	df004617 	ldw	fp,280(sp)
    3804:	ddc04517 	ldw	r23,276(sp)
    3808:	dd804417 	ldw	r22,272(sp)
    380c:	dd404317 	ldw	r21,268(sp)
    3810:	dd004217 	ldw	r20,264(sp)
    3814:	dcc04117 	ldw	r19,260(sp)
    3818:	dc804017 	ldw	r18,256(sp)
    381c:	dc403f17 	ldw	r17,252(sp)
    3820:	dc003e17 	ldw	r16,248(sp)
    3824:	dec04804 	addi	sp,sp,288
    3828:	f800283a 	ret
    382c:	d9002c17 	ldw	r4,176(sp)
    3830:	00076880 	call	7688 <__sinit>
    3834:	003f0406 	br	3448 <__alt_mem_onchip_memory+0xf7803448>
    3838:	d8802d17 	ldw	r2,180(sp)
    383c:	d9002d17 	ldw	r4,180(sp)
    3840:	10800017 	ldw	r2,0(r2)
    3844:	d8803115 	stw	r2,196(sp)
    3848:	20800104 	addi	r2,r4,4
    384c:	d9003117 	ldw	r4,196(sp)
    3850:	203fa716 	blt	r4,zero,36f0 <__alt_mem_onchip_memory+0xf78036f0>
    3854:	d8802d15 	stw	r2,180(sp)
    3858:	ac400007 	ldb	r17,0(r21)
    385c:	003f4206 	br	3568 <__alt_mem_onchip_memory+0xf7803568>
    3860:	ac400007 	ldb	r17,0(r21)
    3864:	aac00044 	addi	r11,r21,1
    3868:	8a872826 	beq	r17,r10,550c <___vfprintf_internal_r+0x2128>
    386c:	88bff404 	addi	r2,r17,-48
    3870:	0009883a 	mov	r4,zero
    3874:	30867d36 	bltu	r6,r2,526c <___vfprintf_internal_r+0x1e88>
    3878:	5c400007 	ldb	r17,0(r11)
    387c:	210002a4 	muli	r4,r4,10
    3880:	5d400044 	addi	r21,r11,1
    3884:	a817883a 	mov	r11,r21
    3888:	2089883a 	add	r4,r4,r2
    388c:	88bff404 	addi	r2,r17,-48
    3890:	30bff92e 	bgeu	r6,r2,3878 <__alt_mem_onchip_memory+0xf7803878>
    3894:	2005c916 	blt	r4,zero,4fbc <___vfprintf_internal_r+0x1bd8>
    3898:	d9002915 	stw	r4,164(sp)
    389c:	003f3306 	br	356c <__alt_mem_onchip_memory+0xf780356c>
    38a0:	94802014 	ori	r18,r18,128
    38a4:	ac400007 	ldb	r17,0(r21)
    38a8:	003f2f06 	br	3568 <__alt_mem_onchip_memory+0xf7803568>
    38ac:	a809883a 	mov	r4,r21
    38b0:	d8003115 	stw	zero,196(sp)
    38b4:	88bff404 	addi	r2,r17,-48
    38b8:	0017883a 	mov	r11,zero
    38bc:	24400007 	ldb	r17,0(r4)
    38c0:	5ac002a4 	muli	r11,r11,10
    38c4:	ad400044 	addi	r21,r21,1
    38c8:	a809883a 	mov	r4,r21
    38cc:	12d7883a 	add	r11,r2,r11
    38d0:	88bff404 	addi	r2,r17,-48
    38d4:	30bff92e 	bgeu	r6,r2,38bc <__alt_mem_onchip_memory+0xf78038bc>
    38d8:	dac03115 	stw	r11,196(sp)
    38dc:	003f2306 	br	356c <__alt_mem_onchip_memory+0xf780356c>
    38e0:	18c03fcc 	andi	r3,r3,255
    38e4:	18072b1e 	bne	r3,zero,5594 <___vfprintf_internal_r+0x21b0>
    38e8:	94800414 	ori	r18,r18,16
    38ec:	9080080c 	andi	r2,r18,32
    38f0:	10037b26 	beq	r2,zero,46e0 <___vfprintf_internal_r+0x12fc>
    38f4:	d9402d17 	ldw	r5,180(sp)
    38f8:	28800117 	ldw	r2,4(r5)
    38fc:	2cc00017 	ldw	r19,0(r5)
    3900:	29400204 	addi	r5,r5,8
    3904:	d9402d15 	stw	r5,180(sp)
    3908:	102d883a 	mov	r22,r2
    390c:	10044b16 	blt	r2,zero,4a3c <___vfprintf_internal_r+0x1658>
    3910:	d9402917 	ldw	r5,164(sp)
    3914:	df002783 	ldbu	fp,158(sp)
    3918:	2803bc16 	blt	r5,zero,480c <___vfprintf_internal_r+0x1428>
    391c:	00ffdfc4 	movi	r3,-129
    3920:	9d84b03a 	or	r2,r19,r22
    3924:	90e4703a 	and	r18,r18,r3
    3928:	10017726 	beq	r2,zero,3f08 <___vfprintf_internal_r+0xb24>
    392c:	b0038326 	beq	r22,zero,473c <___vfprintf_internal_r+0x1358>
    3930:	dc402a15 	stw	r17,168(sp)
    3934:	dc001e04 	addi	r16,sp,120
    3938:	b023883a 	mov	r17,r22
    393c:	402d883a 	mov	r22,r8
    3940:	9809883a 	mov	r4,r19
    3944:	880b883a 	mov	r5,r17
    3948:	01800284 	movi	r6,10
    394c:	000f883a 	mov	r7,zero
    3950:	000e1e40 	call	e1e4 <__umoddi3>
    3954:	10800c04 	addi	r2,r2,48
    3958:	843fffc4 	addi	r16,r16,-1
    395c:	9809883a 	mov	r4,r19
    3960:	880b883a 	mov	r5,r17
    3964:	80800005 	stb	r2,0(r16)
    3968:	01800284 	movi	r6,10
    396c:	000f883a 	mov	r7,zero
    3970:	000dc6c0 	call	dc6c <__udivdi3>
    3974:	1027883a 	mov	r19,r2
    3978:	10c4b03a 	or	r2,r2,r3
    397c:	1823883a 	mov	r17,r3
    3980:	103fef1e 	bne	r2,zero,3940 <__alt_mem_onchip_memory+0xf7803940>
    3984:	d8c02817 	ldw	r3,160(sp)
    3988:	dc402a17 	ldw	r17,168(sp)
    398c:	b011883a 	mov	r8,r22
    3990:	1c07c83a 	sub	r3,r3,r16
    3994:	d8c02e15 	stw	r3,184(sp)
    3998:	00005906 	br	3b00 <___vfprintf_internal_r+0x71c>
    399c:	18c03fcc 	andi	r3,r3,255
    39a0:	1806fa1e 	bne	r3,zero,558c <___vfprintf_internal_r+0x21a8>
    39a4:	9080020c 	andi	r2,r18,8
    39a8:	10048a26 	beq	r2,zero,4bd4 <___vfprintf_internal_r+0x17f0>
    39ac:	d8c02d17 	ldw	r3,180(sp)
    39b0:	d9002d17 	ldw	r4,180(sp)
    39b4:	d9402d17 	ldw	r5,180(sp)
    39b8:	18c00017 	ldw	r3,0(r3)
    39bc:	21000117 	ldw	r4,4(r4)
    39c0:	29400204 	addi	r5,r5,8
    39c4:	d8c03615 	stw	r3,216(sp)
    39c8:	d9003815 	stw	r4,224(sp)
    39cc:	d9402d15 	stw	r5,180(sp)
    39d0:	d9003617 	ldw	r4,216(sp)
    39d4:	d9403817 	ldw	r5,224(sp)
    39d8:	da003d15 	stw	r8,244(sp)
    39dc:	04000044 	movi	r16,1
    39e0:	000a6040 	call	a604 <__fpclassifyd>
    39e4:	da003d17 	ldw	r8,244(sp)
    39e8:	14041f1e 	bne	r2,r16,4a68 <___vfprintf_internal_r+0x1684>
    39ec:	d9003617 	ldw	r4,216(sp)
    39f0:	d9403817 	ldw	r5,224(sp)
    39f4:	000d883a 	mov	r6,zero
    39f8:	000f883a 	mov	r7,zero
    39fc:	000fbc80 	call	fbc8 <__ledf2>
    3a00:	da003d17 	ldw	r8,244(sp)
    3a04:	1005be16 	blt	r2,zero,5100 <___vfprintf_internal_r+0x1d1c>
    3a08:	df002783 	ldbu	fp,158(sp)
    3a0c:	008011c4 	movi	r2,71
    3a10:	1445330e 	bge	r2,r17,4ee0 <___vfprintf_internal_r+0x1afc>
    3a14:	040000b4 	movhi	r16,2
    3a18:	843d8a04 	addi	r16,r16,-2520
    3a1c:	00c000c4 	movi	r3,3
    3a20:	00bfdfc4 	movi	r2,-129
    3a24:	d8c02a15 	stw	r3,168(sp)
    3a28:	90a4703a 	and	r18,r18,r2
    3a2c:	d8c02e15 	stw	r3,184(sp)
    3a30:	d8002915 	stw	zero,164(sp)
    3a34:	d8003215 	stw	zero,200(sp)
    3a38:	00003706 	br	3b18 <___vfprintf_internal_r+0x734>
    3a3c:	94800214 	ori	r18,r18,8
    3a40:	ac400007 	ldb	r17,0(r21)
    3a44:	003ec806 	br	3568 <__alt_mem_onchip_memory+0xf7803568>
    3a48:	18c03fcc 	andi	r3,r3,255
    3a4c:	1806db1e 	bne	r3,zero,55bc <___vfprintf_internal_r+0x21d8>
    3a50:	94800414 	ori	r18,r18,16
    3a54:	9080080c 	andi	r2,r18,32
    3a58:	1002d826 	beq	r2,zero,45bc <___vfprintf_internal_r+0x11d8>
    3a5c:	d9402d17 	ldw	r5,180(sp)
    3a60:	d8c02917 	ldw	r3,164(sp)
    3a64:	d8002785 	stb	zero,158(sp)
    3a68:	28800204 	addi	r2,r5,8
    3a6c:	2cc00017 	ldw	r19,0(r5)
    3a70:	2d800117 	ldw	r22,4(r5)
    3a74:	18048f16 	blt	r3,zero,4cb4 <___vfprintf_internal_r+0x18d0>
    3a78:	013fdfc4 	movi	r4,-129
    3a7c:	9d86b03a 	or	r3,r19,r22
    3a80:	d8802d15 	stw	r2,180(sp)
    3a84:	9124703a 	and	r18,r18,r4
    3a88:	1802d91e 	bne	r3,zero,45f0 <___vfprintf_internal_r+0x120c>
    3a8c:	d8c02917 	ldw	r3,164(sp)
    3a90:	0039883a 	mov	fp,zero
    3a94:	1805c326 	beq	r3,zero,51a4 <___vfprintf_internal_r+0x1dc0>
    3a98:	0027883a 	mov	r19,zero
    3a9c:	002d883a 	mov	r22,zero
    3aa0:	dc001e04 	addi	r16,sp,120
    3aa4:	9806d0fa 	srli	r3,r19,3
    3aa8:	b008977a 	slli	r4,r22,29
    3aac:	b02cd0fa 	srli	r22,r22,3
    3ab0:	9cc001cc 	andi	r19,r19,7
    3ab4:	98800c04 	addi	r2,r19,48
    3ab8:	843fffc4 	addi	r16,r16,-1
    3abc:	20e6b03a 	or	r19,r4,r3
    3ac0:	80800005 	stb	r2,0(r16)
    3ac4:	9d86b03a 	or	r3,r19,r22
    3ac8:	183ff61e 	bne	r3,zero,3aa4 <__alt_mem_onchip_memory+0xf7803aa4>
    3acc:	90c0004c 	andi	r3,r18,1
    3ad0:	18013b26 	beq	r3,zero,3fc0 <___vfprintf_internal_r+0xbdc>
    3ad4:	10803fcc 	andi	r2,r2,255
    3ad8:	1080201c 	xori	r2,r2,128
    3adc:	10bfe004 	addi	r2,r2,-128
    3ae0:	00c00c04 	movi	r3,48
    3ae4:	10c13626 	beq	r2,r3,3fc0 <___vfprintf_internal_r+0xbdc>
    3ae8:	80ffffc5 	stb	r3,-1(r16)
    3aec:	d8c02817 	ldw	r3,160(sp)
    3af0:	80bfffc4 	addi	r2,r16,-1
    3af4:	1021883a 	mov	r16,r2
    3af8:	1887c83a 	sub	r3,r3,r2
    3afc:	d8c02e15 	stw	r3,184(sp)
    3b00:	d8802e17 	ldw	r2,184(sp)
    3b04:	d9002917 	ldw	r4,164(sp)
    3b08:	1100010e 	bge	r2,r4,3b10 <___vfprintf_internal_r+0x72c>
    3b0c:	2005883a 	mov	r2,r4
    3b10:	d8802a15 	stw	r2,168(sp)
    3b14:	d8003215 	stw	zero,200(sp)
    3b18:	e7003fcc 	andi	fp,fp,255
    3b1c:	e700201c 	xori	fp,fp,128
    3b20:	e73fe004 	addi	fp,fp,-128
    3b24:	e0000326 	beq	fp,zero,3b34 <___vfprintf_internal_r+0x750>
    3b28:	d8c02a17 	ldw	r3,168(sp)
    3b2c:	18c00044 	addi	r3,r3,1
    3b30:	d8c02a15 	stw	r3,168(sp)
    3b34:	90c0008c 	andi	r3,r18,2
    3b38:	d8c02b15 	stw	r3,172(sp)
    3b3c:	18000326 	beq	r3,zero,3b4c <___vfprintf_internal_r+0x768>
    3b40:	d8c02a17 	ldw	r3,168(sp)
    3b44:	18c00084 	addi	r3,r3,2
    3b48:	d8c02a15 	stw	r3,168(sp)
    3b4c:	90c0210c 	andi	r3,r18,132
    3b50:	d8c03015 	stw	r3,192(sp)
    3b54:	1801a31e 	bne	r3,zero,41e4 <___vfprintf_internal_r+0xe00>
    3b58:	d9003117 	ldw	r4,196(sp)
    3b5c:	d8c02a17 	ldw	r3,168(sp)
    3b60:	20e7c83a 	sub	r19,r4,r3
    3b64:	04c19f0e 	bge	zero,r19,41e4 <___vfprintf_internal_r+0xe00>
    3b68:	02400404 	movi	r9,16
    3b6c:	d8c02017 	ldw	r3,128(sp)
    3b70:	d8801f17 	ldw	r2,124(sp)
    3b74:	4cc50d0e 	bge	r9,r19,4fac <___vfprintf_internal_r+0x1bc8>
    3b78:	014000b4 	movhi	r5,2
    3b7c:	297da584 	addi	r5,r5,-2410
    3b80:	dc403b15 	stw	r17,236(sp)
    3b84:	d9403515 	stw	r5,212(sp)
    3b88:	9823883a 	mov	r17,r19
    3b8c:	482d883a 	mov	r22,r9
    3b90:	9027883a 	mov	r19,r18
    3b94:	070001c4 	movi	fp,7
    3b98:	8025883a 	mov	r18,r16
    3b9c:	dc002c17 	ldw	r16,176(sp)
    3ba0:	00000306 	br	3bb0 <___vfprintf_internal_r+0x7cc>
    3ba4:	8c7ffc04 	addi	r17,r17,-16
    3ba8:	42000204 	addi	r8,r8,8
    3bac:	b440130e 	bge	r22,r17,3bfc <___vfprintf_internal_r+0x818>
    3bb0:	010000b4 	movhi	r4,2
    3bb4:	18c00404 	addi	r3,r3,16
    3bb8:	10800044 	addi	r2,r2,1
    3bbc:	213da584 	addi	r4,r4,-2410
    3bc0:	41000015 	stw	r4,0(r8)
    3bc4:	45800115 	stw	r22,4(r8)
    3bc8:	d8c02015 	stw	r3,128(sp)
    3bcc:	d8801f15 	stw	r2,124(sp)
    3bd0:	e0bff40e 	bge	fp,r2,3ba4 <__alt_mem_onchip_memory+0xf7803ba4>
    3bd4:	d9801e04 	addi	r6,sp,120
    3bd8:	b80b883a 	mov	r5,r23
    3bdc:	8009883a 	mov	r4,r16
    3be0:	000bdec0 	call	bdec <__sprint_r>
    3be4:	103f011e 	bne	r2,zero,37ec <__alt_mem_onchip_memory+0xf78037ec>
    3be8:	8c7ffc04 	addi	r17,r17,-16
    3bec:	d8c02017 	ldw	r3,128(sp)
    3bf0:	d8801f17 	ldw	r2,124(sp)
    3bf4:	da000404 	addi	r8,sp,16
    3bf8:	b47fed16 	blt	r22,r17,3bb0 <__alt_mem_onchip_memory+0xf7803bb0>
    3bfc:	9021883a 	mov	r16,r18
    3c00:	9825883a 	mov	r18,r19
    3c04:	8827883a 	mov	r19,r17
    3c08:	dc403b17 	ldw	r17,236(sp)
    3c0c:	d9403517 	ldw	r5,212(sp)
    3c10:	98c7883a 	add	r3,r19,r3
    3c14:	10800044 	addi	r2,r2,1
    3c18:	41400015 	stw	r5,0(r8)
    3c1c:	44c00115 	stw	r19,4(r8)
    3c20:	d8c02015 	stw	r3,128(sp)
    3c24:	d8801f15 	stw	r2,124(sp)
    3c28:	010001c4 	movi	r4,7
    3c2c:	2082a316 	blt	r4,r2,46bc <___vfprintf_internal_r+0x12d8>
    3c30:	df002787 	ldb	fp,158(sp)
    3c34:	42000204 	addi	r8,r8,8
    3c38:	e0000c26 	beq	fp,zero,3c6c <___vfprintf_internal_r+0x888>
    3c3c:	d8801f17 	ldw	r2,124(sp)
    3c40:	d9002784 	addi	r4,sp,158
    3c44:	18c00044 	addi	r3,r3,1
    3c48:	10800044 	addi	r2,r2,1
    3c4c:	41000015 	stw	r4,0(r8)
    3c50:	01000044 	movi	r4,1
    3c54:	41000115 	stw	r4,4(r8)
    3c58:	d8c02015 	stw	r3,128(sp)
    3c5c:	d8801f15 	stw	r2,124(sp)
    3c60:	010001c4 	movi	r4,7
    3c64:	20823c16 	blt	r4,r2,4558 <___vfprintf_internal_r+0x1174>
    3c68:	42000204 	addi	r8,r8,8
    3c6c:	d8802b17 	ldw	r2,172(sp)
    3c70:	10000c26 	beq	r2,zero,3ca4 <___vfprintf_internal_r+0x8c0>
    3c74:	d8801f17 	ldw	r2,124(sp)
    3c78:	d9002704 	addi	r4,sp,156
    3c7c:	18c00084 	addi	r3,r3,2
    3c80:	10800044 	addi	r2,r2,1
    3c84:	41000015 	stw	r4,0(r8)
    3c88:	01000084 	movi	r4,2
    3c8c:	41000115 	stw	r4,4(r8)
    3c90:	d8c02015 	stw	r3,128(sp)
    3c94:	d8801f15 	stw	r2,124(sp)
    3c98:	010001c4 	movi	r4,7
    3c9c:	20823616 	blt	r4,r2,4578 <___vfprintf_internal_r+0x1194>
    3ca0:	42000204 	addi	r8,r8,8
    3ca4:	d9003017 	ldw	r4,192(sp)
    3ca8:	00802004 	movi	r2,128
    3cac:	20819926 	beq	r4,r2,4314 <___vfprintf_internal_r+0xf30>
    3cb0:	d9402917 	ldw	r5,164(sp)
    3cb4:	d8802e17 	ldw	r2,184(sp)
    3cb8:	28adc83a 	sub	r22,r5,r2
    3cbc:	0580310e 	bge	zero,r22,3d84 <___vfprintf_internal_r+0x9a0>
    3cc0:	07000404 	movi	fp,16
    3cc4:	d8801f17 	ldw	r2,124(sp)
    3cc8:	e584140e 	bge	fp,r22,4d1c <___vfprintf_internal_r+0x1938>
    3ccc:	014000b4 	movhi	r5,2
    3cd0:	297da184 	addi	r5,r5,-2426
    3cd4:	dc402915 	stw	r17,164(sp)
    3cd8:	d9402b15 	stw	r5,172(sp)
    3cdc:	b023883a 	mov	r17,r22
    3ce0:	04c001c4 	movi	r19,7
    3ce4:	a82d883a 	mov	r22,r21
    3ce8:	902b883a 	mov	r21,r18
    3cec:	8025883a 	mov	r18,r16
    3cf0:	dc002c17 	ldw	r16,176(sp)
    3cf4:	00000306 	br	3d04 <___vfprintf_internal_r+0x920>
    3cf8:	8c7ffc04 	addi	r17,r17,-16
    3cfc:	42000204 	addi	r8,r8,8
    3d00:	e440110e 	bge	fp,r17,3d48 <___vfprintf_internal_r+0x964>
    3d04:	18c00404 	addi	r3,r3,16
    3d08:	10800044 	addi	r2,r2,1
    3d0c:	45000015 	stw	r20,0(r8)
    3d10:	47000115 	stw	fp,4(r8)
    3d14:	d8c02015 	stw	r3,128(sp)
    3d18:	d8801f15 	stw	r2,124(sp)
    3d1c:	98bff60e 	bge	r19,r2,3cf8 <__alt_mem_onchip_memory+0xf7803cf8>
    3d20:	d9801e04 	addi	r6,sp,120
    3d24:	b80b883a 	mov	r5,r23
    3d28:	8009883a 	mov	r4,r16
    3d2c:	000bdec0 	call	bdec <__sprint_r>
    3d30:	103eae1e 	bne	r2,zero,37ec <__alt_mem_onchip_memory+0xf78037ec>
    3d34:	8c7ffc04 	addi	r17,r17,-16
    3d38:	d8c02017 	ldw	r3,128(sp)
    3d3c:	d8801f17 	ldw	r2,124(sp)
    3d40:	da000404 	addi	r8,sp,16
    3d44:	e47fef16 	blt	fp,r17,3d04 <__alt_mem_onchip_memory+0xf7803d04>
    3d48:	9021883a 	mov	r16,r18
    3d4c:	a825883a 	mov	r18,r21
    3d50:	b02b883a 	mov	r21,r22
    3d54:	882d883a 	mov	r22,r17
    3d58:	dc402917 	ldw	r17,164(sp)
    3d5c:	d9002b17 	ldw	r4,172(sp)
    3d60:	1d87883a 	add	r3,r3,r22
    3d64:	10800044 	addi	r2,r2,1
    3d68:	41000015 	stw	r4,0(r8)
    3d6c:	45800115 	stw	r22,4(r8)
    3d70:	d8c02015 	stw	r3,128(sp)
    3d74:	d8801f15 	stw	r2,124(sp)
    3d78:	010001c4 	movi	r4,7
    3d7c:	2081ee16 	blt	r4,r2,4538 <___vfprintf_internal_r+0x1154>
    3d80:	42000204 	addi	r8,r8,8
    3d84:	9080400c 	andi	r2,r18,256
    3d88:	1001181e 	bne	r2,zero,41ec <___vfprintf_internal_r+0xe08>
    3d8c:	d9402e17 	ldw	r5,184(sp)
    3d90:	d8801f17 	ldw	r2,124(sp)
    3d94:	44000015 	stw	r16,0(r8)
    3d98:	1947883a 	add	r3,r3,r5
    3d9c:	10800044 	addi	r2,r2,1
    3da0:	41400115 	stw	r5,4(r8)
    3da4:	d8c02015 	stw	r3,128(sp)
    3da8:	d8801f15 	stw	r2,124(sp)
    3dac:	010001c4 	movi	r4,7
    3db0:	2081d316 	blt	r4,r2,4500 <___vfprintf_internal_r+0x111c>
    3db4:	42000204 	addi	r8,r8,8
    3db8:	9480010c 	andi	r18,r18,4
    3dbc:	90003226 	beq	r18,zero,3e88 <___vfprintf_internal_r+0xaa4>
    3dc0:	d9403117 	ldw	r5,196(sp)
    3dc4:	d8802a17 	ldw	r2,168(sp)
    3dc8:	28a1c83a 	sub	r16,r5,r2
    3dcc:	04002e0e 	bge	zero,r16,3e88 <___vfprintf_internal_r+0xaa4>
    3dd0:	04400404 	movi	r17,16
    3dd4:	d8801f17 	ldw	r2,124(sp)
    3dd8:	8c04a20e 	bge	r17,r16,5064 <___vfprintf_internal_r+0x1c80>
    3ddc:	014000b4 	movhi	r5,2
    3de0:	297da584 	addi	r5,r5,-2410
    3de4:	d9403515 	stw	r5,212(sp)
    3de8:	048001c4 	movi	r18,7
    3dec:	dcc02c17 	ldw	r19,176(sp)
    3df0:	00000306 	br	3e00 <___vfprintf_internal_r+0xa1c>
    3df4:	843ffc04 	addi	r16,r16,-16
    3df8:	42000204 	addi	r8,r8,8
    3dfc:	8c00130e 	bge	r17,r16,3e4c <___vfprintf_internal_r+0xa68>
    3e00:	010000b4 	movhi	r4,2
    3e04:	18c00404 	addi	r3,r3,16
    3e08:	10800044 	addi	r2,r2,1
    3e0c:	213da584 	addi	r4,r4,-2410
    3e10:	41000015 	stw	r4,0(r8)
    3e14:	44400115 	stw	r17,4(r8)
    3e18:	d8c02015 	stw	r3,128(sp)
    3e1c:	d8801f15 	stw	r2,124(sp)
    3e20:	90bff40e 	bge	r18,r2,3df4 <__alt_mem_onchip_memory+0xf7803df4>
    3e24:	d9801e04 	addi	r6,sp,120
    3e28:	b80b883a 	mov	r5,r23
    3e2c:	9809883a 	mov	r4,r19
    3e30:	000bdec0 	call	bdec <__sprint_r>
    3e34:	103e6d1e 	bne	r2,zero,37ec <__alt_mem_onchip_memory+0xf78037ec>
    3e38:	843ffc04 	addi	r16,r16,-16
    3e3c:	d8c02017 	ldw	r3,128(sp)
    3e40:	d8801f17 	ldw	r2,124(sp)
    3e44:	da000404 	addi	r8,sp,16
    3e48:	8c3fed16 	blt	r17,r16,3e00 <__alt_mem_onchip_memory+0xf7803e00>
    3e4c:	d9403517 	ldw	r5,212(sp)
    3e50:	1c07883a 	add	r3,r3,r16
    3e54:	10800044 	addi	r2,r2,1
    3e58:	41400015 	stw	r5,0(r8)
    3e5c:	44000115 	stw	r16,4(r8)
    3e60:	d8c02015 	stw	r3,128(sp)
    3e64:	d8801f15 	stw	r2,124(sp)
    3e68:	010001c4 	movi	r4,7
    3e6c:	2080060e 	bge	r4,r2,3e88 <___vfprintf_internal_r+0xaa4>
    3e70:	d9002c17 	ldw	r4,176(sp)
    3e74:	d9801e04 	addi	r6,sp,120
    3e78:	b80b883a 	mov	r5,r23
    3e7c:	000bdec0 	call	bdec <__sprint_r>
    3e80:	103e5a1e 	bne	r2,zero,37ec <__alt_mem_onchip_memory+0xf78037ec>
    3e84:	d8c02017 	ldw	r3,128(sp)
    3e88:	d8803117 	ldw	r2,196(sp)
    3e8c:	d9002a17 	ldw	r4,168(sp)
    3e90:	1100010e 	bge	r2,r4,3e98 <___vfprintf_internal_r+0xab4>
    3e94:	2005883a 	mov	r2,r4
    3e98:	d9402f17 	ldw	r5,188(sp)
    3e9c:	288b883a 	add	r5,r5,r2
    3ea0:	d9402f15 	stw	r5,188(sp)
    3ea4:	18019e1e 	bne	r3,zero,4520 <___vfprintf_internal_r+0x113c>
    3ea8:	a8800007 	ldb	r2,0(r21)
    3eac:	d8001f15 	stw	zero,124(sp)
    3eb0:	da000404 	addi	r8,sp,16
    3eb4:	103d851e 	bne	r2,zero,34cc <__alt_mem_onchip_memory+0xf78034cc>
    3eb8:	a821883a 	mov	r16,r21
    3ebc:	003d9b06 	br	352c <__alt_mem_onchip_memory+0xf780352c>
    3ec0:	18c03fcc 	andi	r3,r3,255
    3ec4:	1805c11e 	bne	r3,zero,55cc <___vfprintf_internal_r+0x21e8>
    3ec8:	94800414 	ori	r18,r18,16
    3ecc:	9080080c 	andi	r2,r18,32
    3ed0:	10020c26 	beq	r2,zero,4704 <___vfprintf_internal_r+0x1320>
    3ed4:	d8802d17 	ldw	r2,180(sp)
    3ed8:	d9002917 	ldw	r4,164(sp)
    3edc:	d8002785 	stb	zero,158(sp)
    3ee0:	10c00204 	addi	r3,r2,8
    3ee4:	14c00017 	ldw	r19,0(r2)
    3ee8:	15800117 	ldw	r22,4(r2)
    3eec:	20040f16 	blt	r4,zero,4f2c <___vfprintf_internal_r+0x1b48>
    3ef0:	013fdfc4 	movi	r4,-129
    3ef4:	9d84b03a 	or	r2,r19,r22
    3ef8:	d8c02d15 	stw	r3,180(sp)
    3efc:	9124703a 	and	r18,r18,r4
    3f00:	0039883a 	mov	fp,zero
    3f04:	103e891e 	bne	r2,zero,392c <__alt_mem_onchip_memory+0xf780392c>
    3f08:	d9002917 	ldw	r4,164(sp)
    3f0c:	2002c11e 	bne	r4,zero,4a14 <___vfprintf_internal_r+0x1630>
    3f10:	d8002915 	stw	zero,164(sp)
    3f14:	d8002e15 	stw	zero,184(sp)
    3f18:	dc001e04 	addi	r16,sp,120
    3f1c:	003ef806 	br	3b00 <__alt_mem_onchip_memory+0xf7803b00>
    3f20:	18c03fcc 	andi	r3,r3,255
    3f24:	18059d1e 	bne	r3,zero,559c <___vfprintf_internal_r+0x21b8>
    3f28:	014000b4 	movhi	r5,2
    3f2c:	297d8d04 	addi	r5,r5,-2508
    3f30:	d9403915 	stw	r5,228(sp)
    3f34:	9080080c 	andi	r2,r18,32
    3f38:	10005226 	beq	r2,zero,4084 <___vfprintf_internal_r+0xca0>
    3f3c:	d8802d17 	ldw	r2,180(sp)
    3f40:	14c00017 	ldw	r19,0(r2)
    3f44:	15800117 	ldw	r22,4(r2)
    3f48:	10800204 	addi	r2,r2,8
    3f4c:	d8802d15 	stw	r2,180(sp)
    3f50:	9080004c 	andi	r2,r18,1
    3f54:	10019026 	beq	r2,zero,4598 <___vfprintf_internal_r+0x11b4>
    3f58:	9d84b03a 	or	r2,r19,r22
    3f5c:	10036926 	beq	r2,zero,4d04 <___vfprintf_internal_r+0x1920>
    3f60:	d8c02917 	ldw	r3,164(sp)
    3f64:	00800c04 	movi	r2,48
    3f68:	d8802705 	stb	r2,156(sp)
    3f6c:	dc402745 	stb	r17,157(sp)
    3f70:	d8002785 	stb	zero,158(sp)
    3f74:	90800094 	ori	r2,r18,2
    3f78:	18045d16 	blt	r3,zero,50f0 <___vfprintf_internal_r+0x1d0c>
    3f7c:	00bfdfc4 	movi	r2,-129
    3f80:	90a4703a 	and	r18,r18,r2
    3f84:	94800094 	ori	r18,r18,2
    3f88:	0039883a 	mov	fp,zero
    3f8c:	d9003917 	ldw	r4,228(sp)
    3f90:	dc001e04 	addi	r16,sp,120
    3f94:	988003cc 	andi	r2,r19,15
    3f98:	b006973a 	slli	r3,r22,28
    3f9c:	2085883a 	add	r2,r4,r2
    3fa0:	9826d13a 	srli	r19,r19,4
    3fa4:	10800003 	ldbu	r2,0(r2)
    3fa8:	b02cd13a 	srli	r22,r22,4
    3fac:	843fffc4 	addi	r16,r16,-1
    3fb0:	1ce6b03a 	or	r19,r3,r19
    3fb4:	80800005 	stb	r2,0(r16)
    3fb8:	9d84b03a 	or	r2,r19,r22
    3fbc:	103ff51e 	bne	r2,zero,3f94 <__alt_mem_onchip_memory+0xf7803f94>
    3fc0:	d8c02817 	ldw	r3,160(sp)
    3fc4:	1c07c83a 	sub	r3,r3,r16
    3fc8:	d8c02e15 	stw	r3,184(sp)
    3fcc:	003ecc06 	br	3b00 <__alt_mem_onchip_memory+0xf7803b00>
    3fd0:	18c03fcc 	andi	r3,r3,255
    3fd4:	183e9f26 	beq	r3,zero,3a54 <__alt_mem_onchip_memory+0xf7803a54>
    3fd8:	d9c02785 	stb	r7,158(sp)
    3fdc:	003e9d06 	br	3a54 <__alt_mem_onchip_memory+0xf7803a54>
    3fe0:	00c00044 	movi	r3,1
    3fe4:	01c00ac4 	movi	r7,43
    3fe8:	ac400007 	ldb	r17,0(r21)
    3fec:	003d5e06 	br	3568 <__alt_mem_onchip_memory+0xf7803568>
    3ff0:	94800814 	ori	r18,r18,32
    3ff4:	ac400007 	ldb	r17,0(r21)
    3ff8:	003d5b06 	br	3568 <__alt_mem_onchip_memory+0xf7803568>
    3ffc:	d8c02d17 	ldw	r3,180(sp)
    4000:	d8002785 	stb	zero,158(sp)
    4004:	1c000017 	ldw	r16,0(r3)
    4008:	1cc00104 	addi	r19,r3,4
    400c:	80041926 	beq	r16,zero,5074 <___vfprintf_internal_r+0x1c90>
    4010:	d9002917 	ldw	r4,164(sp)
    4014:	2003d016 	blt	r4,zero,4f58 <___vfprintf_internal_r+0x1b74>
    4018:	200d883a 	mov	r6,r4
    401c:	000b883a 	mov	r5,zero
    4020:	8009883a 	mov	r4,r16
    4024:	da003d15 	stw	r8,244(sp)
    4028:	0008bf40 	call	8bf4 <memchr>
    402c:	da003d17 	ldw	r8,244(sp)
    4030:	10045426 	beq	r2,zero,5184 <___vfprintf_internal_r+0x1da0>
    4034:	1405c83a 	sub	r2,r2,r16
    4038:	d8802e15 	stw	r2,184(sp)
    403c:	1003cc16 	blt	r2,zero,4f70 <___vfprintf_internal_r+0x1b8c>
    4040:	df002783 	ldbu	fp,158(sp)
    4044:	d8802a15 	stw	r2,168(sp)
    4048:	dcc02d15 	stw	r19,180(sp)
    404c:	d8002915 	stw	zero,164(sp)
    4050:	d8003215 	stw	zero,200(sp)
    4054:	003eb006 	br	3b18 <__alt_mem_onchip_memory+0xf7803b18>
    4058:	18c03fcc 	andi	r3,r3,255
    405c:	183f9b26 	beq	r3,zero,3ecc <__alt_mem_onchip_memory+0xf7803ecc>
    4060:	d9c02785 	stb	r7,158(sp)
    4064:	003f9906 	br	3ecc <__alt_mem_onchip_memory+0xf7803ecc>
    4068:	18c03fcc 	andi	r3,r3,255
    406c:	1805551e 	bne	r3,zero,55c4 <___vfprintf_internal_r+0x21e0>
    4070:	014000b4 	movhi	r5,2
    4074:	297d9204 	addi	r5,r5,-2488
    4078:	d9403915 	stw	r5,228(sp)
    407c:	9080080c 	andi	r2,r18,32
    4080:	103fae1e 	bne	r2,zero,3f3c <__alt_mem_onchip_memory+0xf7803f3c>
    4084:	9080040c 	andi	r2,r18,16
    4088:	1002de26 	beq	r2,zero,4c04 <___vfprintf_internal_r+0x1820>
    408c:	d8c02d17 	ldw	r3,180(sp)
    4090:	002d883a 	mov	r22,zero
    4094:	1cc00017 	ldw	r19,0(r3)
    4098:	18c00104 	addi	r3,r3,4
    409c:	d8c02d15 	stw	r3,180(sp)
    40a0:	003fab06 	br	3f50 <__alt_mem_onchip_memory+0xf7803f50>
    40a4:	38803fcc 	andi	r2,r7,255
    40a8:	1080201c 	xori	r2,r2,128
    40ac:	10bfe004 	addi	r2,r2,-128
    40b0:	1002d21e 	bne	r2,zero,4bfc <___vfprintf_internal_r+0x1818>
    40b4:	00c00044 	movi	r3,1
    40b8:	01c00804 	movi	r7,32
    40bc:	ac400007 	ldb	r17,0(r21)
    40c0:	003d2906 	br	3568 <__alt_mem_onchip_memory+0xf7803568>
    40c4:	94800054 	ori	r18,r18,1
    40c8:	ac400007 	ldb	r17,0(r21)
    40cc:	003d2606 	br	3568 <__alt_mem_onchip_memory+0xf7803568>
    40d0:	18c03fcc 	andi	r3,r3,255
    40d4:	183e0526 	beq	r3,zero,38ec <__alt_mem_onchip_memory+0xf78038ec>
    40d8:	d9c02785 	stb	r7,158(sp)
    40dc:	003e0306 	br	38ec <__alt_mem_onchip_memory+0xf78038ec>
    40e0:	94801014 	ori	r18,r18,64
    40e4:	ac400007 	ldb	r17,0(r21)
    40e8:	003d1f06 	br	3568 <__alt_mem_onchip_memory+0xf7803568>
    40ec:	ac400007 	ldb	r17,0(r21)
    40f0:	8a438726 	beq	r17,r9,4f10 <___vfprintf_internal_r+0x1b2c>
    40f4:	94800414 	ori	r18,r18,16
    40f8:	003d1b06 	br	3568 <__alt_mem_onchip_memory+0xf7803568>
    40fc:	18c03fcc 	andi	r3,r3,255
    4100:	1805341e 	bne	r3,zero,55d4 <___vfprintf_internal_r+0x21f0>
    4104:	9080080c 	andi	r2,r18,32
    4108:	1002cd26 	beq	r2,zero,4c40 <___vfprintf_internal_r+0x185c>
    410c:	d9402d17 	ldw	r5,180(sp)
    4110:	d9002f17 	ldw	r4,188(sp)
    4114:	28800017 	ldw	r2,0(r5)
    4118:	2007d7fa 	srai	r3,r4,31
    411c:	29400104 	addi	r5,r5,4
    4120:	d9402d15 	stw	r5,180(sp)
    4124:	11000015 	stw	r4,0(r2)
    4128:	10c00115 	stw	r3,4(r2)
    412c:	003ce506 	br	34c4 <__alt_mem_onchip_memory+0xf78034c4>
    4130:	d8c02d17 	ldw	r3,180(sp)
    4134:	d9002d17 	ldw	r4,180(sp)
    4138:	d8002785 	stb	zero,158(sp)
    413c:	18800017 	ldw	r2,0(r3)
    4140:	21000104 	addi	r4,r4,4
    4144:	00c00044 	movi	r3,1
    4148:	d8c02a15 	stw	r3,168(sp)
    414c:	d8801405 	stb	r2,80(sp)
    4150:	d9002d15 	stw	r4,180(sp)
    4154:	d8c02e15 	stw	r3,184(sp)
    4158:	d8002915 	stw	zero,164(sp)
    415c:	d8003215 	stw	zero,200(sp)
    4160:	dc001404 	addi	r16,sp,80
    4164:	0039883a 	mov	fp,zero
    4168:	003e7206 	br	3b34 <__alt_mem_onchip_memory+0xf7803b34>
    416c:	010000b4 	movhi	r4,2
    4170:	213d9204 	addi	r4,r4,-2488
    4174:	0039883a 	mov	fp,zero
    4178:	d9003915 	stw	r4,228(sp)
    417c:	04401e04 	movi	r17,120
    4180:	003f8206 	br	3f8c <__alt_mem_onchip_memory+0xf7803f8c>
    4184:	18c03fcc 	andi	r3,r3,255
    4188:	1805061e 	bne	r3,zero,55a4 <___vfprintf_internal_r+0x21c0>
    418c:	883d9126 	beq	r17,zero,37d4 <__alt_mem_onchip_memory+0xf78037d4>
    4190:	00c00044 	movi	r3,1
    4194:	d8c02a15 	stw	r3,168(sp)
    4198:	dc401405 	stb	r17,80(sp)
    419c:	d8002785 	stb	zero,158(sp)
    41a0:	003fec06 	br	4154 <__alt_mem_onchip_memory+0xf7804154>
    41a4:	014000b4 	movhi	r5,2
    41a8:	297d9204 	addi	r5,r5,-2488
    41ac:	d9403915 	stw	r5,228(sp)
    41b0:	d8c02d15 	stw	r3,180(sp)
    41b4:	1025883a 	mov	r18,r2
    41b8:	04401e04 	movi	r17,120
    41bc:	9d84b03a 	or	r2,r19,r22
    41c0:	1000fc1e 	bne	r2,zero,45b4 <___vfprintf_internal_r+0x11d0>
    41c4:	0039883a 	mov	fp,zero
    41c8:	00800084 	movi	r2,2
    41cc:	10803fcc 	andi	r2,r2,255
    41d0:	00c00044 	movi	r3,1
    41d4:	10c20f26 	beq	r2,r3,4a14 <___vfprintf_internal_r+0x1630>
    41d8:	00c00084 	movi	r3,2
    41dc:	10fd6326 	beq	r2,r3,376c <__alt_mem_onchip_memory+0xf780376c>
    41e0:	003e2d06 	br	3a98 <__alt_mem_onchip_memory+0xf7803a98>
    41e4:	d8c02017 	ldw	r3,128(sp)
    41e8:	003e9306 	br	3c38 <__alt_mem_onchip_memory+0xf7803c38>
    41ec:	00801944 	movi	r2,101
    41f0:	14407e0e 	bge	r2,r17,43ec <___vfprintf_internal_r+0x1008>
    41f4:	d9003617 	ldw	r4,216(sp)
    41f8:	d9403817 	ldw	r5,224(sp)
    41fc:	000d883a 	mov	r6,zero
    4200:	000f883a 	mov	r7,zero
    4204:	d8c03c15 	stw	r3,240(sp)
    4208:	da003d15 	stw	r8,244(sp)
    420c:	000fa640 	call	fa64 <__eqdf2>
    4210:	d8c03c17 	ldw	r3,240(sp)
    4214:	da003d17 	ldw	r8,244(sp)
    4218:	1000f71e 	bne	r2,zero,45f8 <___vfprintf_internal_r+0x1214>
    421c:	d8801f17 	ldw	r2,124(sp)
    4220:	010000b4 	movhi	r4,2
    4224:	213d9904 	addi	r4,r4,-2460
    4228:	18c00044 	addi	r3,r3,1
    422c:	10800044 	addi	r2,r2,1
    4230:	41000015 	stw	r4,0(r8)
    4234:	01000044 	movi	r4,1
    4238:	41000115 	stw	r4,4(r8)
    423c:	d8c02015 	stw	r3,128(sp)
    4240:	d8801f15 	stw	r2,124(sp)
    4244:	010001c4 	movi	r4,7
    4248:	2082b816 	blt	r4,r2,4d2c <___vfprintf_internal_r+0x1948>
    424c:	42000204 	addi	r8,r8,8
    4250:	d8802617 	ldw	r2,152(sp)
    4254:	d9403317 	ldw	r5,204(sp)
    4258:	11400216 	blt	r2,r5,4264 <___vfprintf_internal_r+0xe80>
    425c:	9080004c 	andi	r2,r18,1
    4260:	103ed526 	beq	r2,zero,3db8 <__alt_mem_onchip_memory+0xf7803db8>
    4264:	d8803717 	ldw	r2,220(sp)
    4268:	d9003417 	ldw	r4,208(sp)
    426c:	d9403717 	ldw	r5,220(sp)
    4270:	1887883a 	add	r3,r3,r2
    4274:	d8801f17 	ldw	r2,124(sp)
    4278:	41000015 	stw	r4,0(r8)
    427c:	41400115 	stw	r5,4(r8)
    4280:	10800044 	addi	r2,r2,1
    4284:	d8c02015 	stw	r3,128(sp)
    4288:	d8801f15 	stw	r2,124(sp)
    428c:	010001c4 	movi	r4,7
    4290:	20832916 	blt	r4,r2,4f38 <___vfprintf_internal_r+0x1b54>
    4294:	42000204 	addi	r8,r8,8
    4298:	d8803317 	ldw	r2,204(sp)
    429c:	143fffc4 	addi	r16,r2,-1
    42a0:	043ec50e 	bge	zero,r16,3db8 <__alt_mem_onchip_memory+0xf7803db8>
    42a4:	04400404 	movi	r17,16
    42a8:	d8801f17 	ldw	r2,124(sp)
    42ac:	8c00880e 	bge	r17,r16,44d0 <___vfprintf_internal_r+0x10ec>
    42b0:	014000b4 	movhi	r5,2
    42b4:	297da184 	addi	r5,r5,-2426
    42b8:	d9402b15 	stw	r5,172(sp)
    42bc:	058001c4 	movi	r22,7
    42c0:	dcc02c17 	ldw	r19,176(sp)
    42c4:	00000306 	br	42d4 <___vfprintf_internal_r+0xef0>
    42c8:	42000204 	addi	r8,r8,8
    42cc:	843ffc04 	addi	r16,r16,-16
    42d0:	8c00820e 	bge	r17,r16,44dc <___vfprintf_internal_r+0x10f8>
    42d4:	18c00404 	addi	r3,r3,16
    42d8:	10800044 	addi	r2,r2,1
    42dc:	45000015 	stw	r20,0(r8)
    42e0:	44400115 	stw	r17,4(r8)
    42e4:	d8c02015 	stw	r3,128(sp)
    42e8:	d8801f15 	stw	r2,124(sp)
    42ec:	b0bff60e 	bge	r22,r2,42c8 <__alt_mem_onchip_memory+0xf78042c8>
    42f0:	d9801e04 	addi	r6,sp,120
    42f4:	b80b883a 	mov	r5,r23
    42f8:	9809883a 	mov	r4,r19
    42fc:	000bdec0 	call	bdec <__sprint_r>
    4300:	103d3a1e 	bne	r2,zero,37ec <__alt_mem_onchip_memory+0xf78037ec>
    4304:	d8c02017 	ldw	r3,128(sp)
    4308:	d8801f17 	ldw	r2,124(sp)
    430c:	da000404 	addi	r8,sp,16
    4310:	003fee06 	br	42cc <__alt_mem_onchip_memory+0xf78042cc>
    4314:	d9403117 	ldw	r5,196(sp)
    4318:	d8802a17 	ldw	r2,168(sp)
    431c:	28adc83a 	sub	r22,r5,r2
    4320:	05be630e 	bge	zero,r22,3cb0 <__alt_mem_onchip_memory+0xf7803cb0>
    4324:	07000404 	movi	fp,16
    4328:	d8801f17 	ldw	r2,124(sp)
    432c:	e5838f0e 	bge	fp,r22,516c <___vfprintf_internal_r+0x1d88>
    4330:	014000b4 	movhi	r5,2
    4334:	297da184 	addi	r5,r5,-2426
    4338:	dc403015 	stw	r17,192(sp)
    433c:	d9402b15 	stw	r5,172(sp)
    4340:	b023883a 	mov	r17,r22
    4344:	04c001c4 	movi	r19,7
    4348:	a82d883a 	mov	r22,r21
    434c:	902b883a 	mov	r21,r18
    4350:	8025883a 	mov	r18,r16
    4354:	dc002c17 	ldw	r16,176(sp)
    4358:	00000306 	br	4368 <___vfprintf_internal_r+0xf84>
    435c:	8c7ffc04 	addi	r17,r17,-16
    4360:	42000204 	addi	r8,r8,8
    4364:	e440110e 	bge	fp,r17,43ac <___vfprintf_internal_r+0xfc8>
    4368:	18c00404 	addi	r3,r3,16
    436c:	10800044 	addi	r2,r2,1
    4370:	45000015 	stw	r20,0(r8)
    4374:	47000115 	stw	fp,4(r8)
    4378:	d8c02015 	stw	r3,128(sp)
    437c:	d8801f15 	stw	r2,124(sp)
    4380:	98bff60e 	bge	r19,r2,435c <__alt_mem_onchip_memory+0xf780435c>
    4384:	d9801e04 	addi	r6,sp,120
    4388:	b80b883a 	mov	r5,r23
    438c:	8009883a 	mov	r4,r16
    4390:	000bdec0 	call	bdec <__sprint_r>
    4394:	103d151e 	bne	r2,zero,37ec <__alt_mem_onchip_memory+0xf78037ec>
    4398:	8c7ffc04 	addi	r17,r17,-16
    439c:	d8c02017 	ldw	r3,128(sp)
    43a0:	d8801f17 	ldw	r2,124(sp)
    43a4:	da000404 	addi	r8,sp,16
    43a8:	e47fef16 	blt	fp,r17,4368 <__alt_mem_onchip_memory+0xf7804368>
    43ac:	9021883a 	mov	r16,r18
    43b0:	a825883a 	mov	r18,r21
    43b4:	b02b883a 	mov	r21,r22
    43b8:	882d883a 	mov	r22,r17
    43bc:	dc403017 	ldw	r17,192(sp)
    43c0:	d9002b17 	ldw	r4,172(sp)
    43c4:	1d87883a 	add	r3,r3,r22
    43c8:	10800044 	addi	r2,r2,1
    43cc:	41000015 	stw	r4,0(r8)
    43d0:	45800115 	stw	r22,4(r8)
    43d4:	d8c02015 	stw	r3,128(sp)
    43d8:	d8801f15 	stw	r2,124(sp)
    43dc:	010001c4 	movi	r4,7
    43e0:	20818e16 	blt	r4,r2,4a1c <___vfprintf_internal_r+0x1638>
    43e4:	42000204 	addi	r8,r8,8
    43e8:	003e3106 	br	3cb0 <__alt_mem_onchip_memory+0xf7803cb0>
    43ec:	d9403317 	ldw	r5,204(sp)
    43f0:	00800044 	movi	r2,1
    43f4:	18c00044 	addi	r3,r3,1
    43f8:	1141530e 	bge	r2,r5,4948 <___vfprintf_internal_r+0x1564>
    43fc:	dc401f17 	ldw	r17,124(sp)
    4400:	00800044 	movi	r2,1
    4404:	40800115 	stw	r2,4(r8)
    4408:	8c400044 	addi	r17,r17,1
    440c:	44000015 	stw	r16,0(r8)
    4410:	d8c02015 	stw	r3,128(sp)
    4414:	dc401f15 	stw	r17,124(sp)
    4418:	008001c4 	movi	r2,7
    441c:	14416b16 	blt	r2,r17,49cc <___vfprintf_internal_r+0x15e8>
    4420:	42000204 	addi	r8,r8,8
    4424:	d8803717 	ldw	r2,220(sp)
    4428:	d9003417 	ldw	r4,208(sp)
    442c:	8c400044 	addi	r17,r17,1
    4430:	10c7883a 	add	r3,r2,r3
    4434:	40800115 	stw	r2,4(r8)
    4438:	41000015 	stw	r4,0(r8)
    443c:	d8c02015 	stw	r3,128(sp)
    4440:	dc401f15 	stw	r17,124(sp)
    4444:	008001c4 	movi	r2,7
    4448:	14416916 	blt	r2,r17,49f0 <___vfprintf_internal_r+0x160c>
    444c:	45800204 	addi	r22,r8,8
    4450:	d9003617 	ldw	r4,216(sp)
    4454:	d9403817 	ldw	r5,224(sp)
    4458:	000d883a 	mov	r6,zero
    445c:	000f883a 	mov	r7,zero
    4460:	d8c03c15 	stw	r3,240(sp)
    4464:	000fa640 	call	fa64 <__eqdf2>
    4468:	d8c03c17 	ldw	r3,240(sp)
    446c:	1000bc26 	beq	r2,zero,4760 <___vfprintf_internal_r+0x137c>
    4470:	d9403317 	ldw	r5,204(sp)
    4474:	84000044 	addi	r16,r16,1
    4478:	8c400044 	addi	r17,r17,1
    447c:	28bfffc4 	addi	r2,r5,-1
    4480:	1887883a 	add	r3,r3,r2
    4484:	b0800115 	stw	r2,4(r22)
    4488:	b4000015 	stw	r16,0(r22)
    448c:	d8c02015 	stw	r3,128(sp)
    4490:	dc401f15 	stw	r17,124(sp)
    4494:	008001c4 	movi	r2,7
    4498:	14414316 	blt	r2,r17,49a8 <___vfprintf_internal_r+0x15c4>
    449c:	b5800204 	addi	r22,r22,8
    44a0:	d9003a17 	ldw	r4,232(sp)
    44a4:	df0022c4 	addi	fp,sp,139
    44a8:	8c400044 	addi	r17,r17,1
    44ac:	20c7883a 	add	r3,r4,r3
    44b0:	b7000015 	stw	fp,0(r22)
    44b4:	b1000115 	stw	r4,4(r22)
    44b8:	d8c02015 	stw	r3,128(sp)
    44bc:	dc401f15 	stw	r17,124(sp)
    44c0:	008001c4 	movi	r2,7
    44c4:	14400e16 	blt	r2,r17,4500 <___vfprintf_internal_r+0x111c>
    44c8:	b2000204 	addi	r8,r22,8
    44cc:	003e3a06 	br	3db8 <__alt_mem_onchip_memory+0xf7803db8>
    44d0:	010000b4 	movhi	r4,2
    44d4:	213da184 	addi	r4,r4,-2426
    44d8:	d9002b15 	stw	r4,172(sp)
    44dc:	d9002b17 	ldw	r4,172(sp)
    44e0:	1c07883a 	add	r3,r3,r16
    44e4:	44000115 	stw	r16,4(r8)
    44e8:	41000015 	stw	r4,0(r8)
    44ec:	10800044 	addi	r2,r2,1
    44f0:	d8c02015 	stw	r3,128(sp)
    44f4:	d8801f15 	stw	r2,124(sp)
    44f8:	010001c4 	movi	r4,7
    44fc:	20be2d0e 	bge	r4,r2,3db4 <__alt_mem_onchip_memory+0xf7803db4>
    4500:	d9002c17 	ldw	r4,176(sp)
    4504:	d9801e04 	addi	r6,sp,120
    4508:	b80b883a 	mov	r5,r23
    450c:	000bdec0 	call	bdec <__sprint_r>
    4510:	103cb61e 	bne	r2,zero,37ec <__alt_mem_onchip_memory+0xf78037ec>
    4514:	d8c02017 	ldw	r3,128(sp)
    4518:	da000404 	addi	r8,sp,16
    451c:	003e2606 	br	3db8 <__alt_mem_onchip_memory+0xf7803db8>
    4520:	d9002c17 	ldw	r4,176(sp)
    4524:	d9801e04 	addi	r6,sp,120
    4528:	b80b883a 	mov	r5,r23
    452c:	000bdec0 	call	bdec <__sprint_r>
    4530:	103e5d26 	beq	r2,zero,3ea8 <__alt_mem_onchip_memory+0xf7803ea8>
    4534:	003cad06 	br	37ec <__alt_mem_onchip_memory+0xf78037ec>
    4538:	d9002c17 	ldw	r4,176(sp)
    453c:	d9801e04 	addi	r6,sp,120
    4540:	b80b883a 	mov	r5,r23
    4544:	000bdec0 	call	bdec <__sprint_r>
    4548:	103ca81e 	bne	r2,zero,37ec <__alt_mem_onchip_memory+0xf78037ec>
    454c:	d8c02017 	ldw	r3,128(sp)
    4550:	da000404 	addi	r8,sp,16
    4554:	003e0b06 	br	3d84 <__alt_mem_onchip_memory+0xf7803d84>
    4558:	d9002c17 	ldw	r4,176(sp)
    455c:	d9801e04 	addi	r6,sp,120
    4560:	b80b883a 	mov	r5,r23
    4564:	000bdec0 	call	bdec <__sprint_r>
    4568:	103ca01e 	bne	r2,zero,37ec <__alt_mem_onchip_memory+0xf78037ec>
    456c:	d8c02017 	ldw	r3,128(sp)
    4570:	da000404 	addi	r8,sp,16
    4574:	003dbd06 	br	3c6c <__alt_mem_onchip_memory+0xf7803c6c>
    4578:	d9002c17 	ldw	r4,176(sp)
    457c:	d9801e04 	addi	r6,sp,120
    4580:	b80b883a 	mov	r5,r23
    4584:	000bdec0 	call	bdec <__sprint_r>
    4588:	103c981e 	bne	r2,zero,37ec <__alt_mem_onchip_memory+0xf78037ec>
    458c:	d8c02017 	ldw	r3,128(sp)
    4590:	da000404 	addi	r8,sp,16
    4594:	003dc306 	br	3ca4 <__alt_mem_onchip_memory+0xf7803ca4>
    4598:	d8802917 	ldw	r2,164(sp)
    459c:	d8002785 	stb	zero,158(sp)
    45a0:	103f0616 	blt	r2,zero,41bc <__alt_mem_onchip_memory+0xf78041bc>
    45a4:	00ffdfc4 	movi	r3,-129
    45a8:	9d84b03a 	or	r2,r19,r22
    45ac:	90e4703a 	and	r18,r18,r3
    45b0:	103c6b26 	beq	r2,zero,3760 <__alt_mem_onchip_memory+0xf7803760>
    45b4:	0039883a 	mov	fp,zero
    45b8:	003e7406 	br	3f8c <__alt_mem_onchip_memory+0xf7803f8c>
    45bc:	9080040c 	andi	r2,r18,16
    45c0:	1001b326 	beq	r2,zero,4c90 <___vfprintf_internal_r+0x18ac>
    45c4:	d9002d17 	ldw	r4,180(sp)
    45c8:	d9402917 	ldw	r5,164(sp)
    45cc:	d8002785 	stb	zero,158(sp)
    45d0:	20800104 	addi	r2,r4,4
    45d4:	24c00017 	ldw	r19,0(r4)
    45d8:	002d883a 	mov	r22,zero
    45dc:	2801b516 	blt	r5,zero,4cb4 <___vfprintf_internal_r+0x18d0>
    45e0:	00ffdfc4 	movi	r3,-129
    45e4:	d8802d15 	stw	r2,180(sp)
    45e8:	90e4703a 	and	r18,r18,r3
    45ec:	983d2726 	beq	r19,zero,3a8c <__alt_mem_onchip_memory+0xf7803a8c>
    45f0:	0039883a 	mov	fp,zero
    45f4:	003d2a06 	br	3aa0 <__alt_mem_onchip_memory+0xf7803aa0>
    45f8:	dc402617 	ldw	r17,152(sp)
    45fc:	0441d30e 	bge	zero,r17,4d4c <___vfprintf_internal_r+0x1968>
    4600:	dc403217 	ldw	r17,200(sp)
    4604:	d8803317 	ldw	r2,204(sp)
    4608:	1440010e 	bge	r2,r17,4610 <___vfprintf_internal_r+0x122c>
    460c:	1023883a 	mov	r17,r2
    4610:	04400a0e 	bge	zero,r17,463c <___vfprintf_internal_r+0x1258>
    4614:	d8801f17 	ldw	r2,124(sp)
    4618:	1c47883a 	add	r3,r3,r17
    461c:	44000015 	stw	r16,0(r8)
    4620:	10800044 	addi	r2,r2,1
    4624:	44400115 	stw	r17,4(r8)
    4628:	d8c02015 	stw	r3,128(sp)
    462c:	d8801f15 	stw	r2,124(sp)
    4630:	010001c4 	movi	r4,7
    4634:	20826516 	blt	r4,r2,4fcc <___vfprintf_internal_r+0x1be8>
    4638:	42000204 	addi	r8,r8,8
    463c:	88026116 	blt	r17,zero,4fc4 <___vfprintf_internal_r+0x1be0>
    4640:	d9003217 	ldw	r4,200(sp)
    4644:	2463c83a 	sub	r17,r4,r17
    4648:	04407b0e 	bge	zero,r17,4838 <___vfprintf_internal_r+0x1454>
    464c:	05800404 	movi	r22,16
    4650:	d8801f17 	ldw	r2,124(sp)
    4654:	b4419d0e 	bge	r22,r17,4ccc <___vfprintf_internal_r+0x18e8>
    4658:	010000b4 	movhi	r4,2
    465c:	213da184 	addi	r4,r4,-2426
    4660:	d9002b15 	stw	r4,172(sp)
    4664:	070001c4 	movi	fp,7
    4668:	dcc02c17 	ldw	r19,176(sp)
    466c:	00000306 	br	467c <___vfprintf_internal_r+0x1298>
    4670:	42000204 	addi	r8,r8,8
    4674:	8c7ffc04 	addi	r17,r17,-16
    4678:	b441970e 	bge	r22,r17,4cd8 <___vfprintf_internal_r+0x18f4>
    467c:	18c00404 	addi	r3,r3,16
    4680:	10800044 	addi	r2,r2,1
    4684:	45000015 	stw	r20,0(r8)
    4688:	45800115 	stw	r22,4(r8)
    468c:	d8c02015 	stw	r3,128(sp)
    4690:	d8801f15 	stw	r2,124(sp)
    4694:	e0bff60e 	bge	fp,r2,4670 <__alt_mem_onchip_memory+0xf7804670>
    4698:	d9801e04 	addi	r6,sp,120
    469c:	b80b883a 	mov	r5,r23
    46a0:	9809883a 	mov	r4,r19
    46a4:	000bdec0 	call	bdec <__sprint_r>
    46a8:	103c501e 	bne	r2,zero,37ec <__alt_mem_onchip_memory+0xf78037ec>
    46ac:	d8c02017 	ldw	r3,128(sp)
    46b0:	d8801f17 	ldw	r2,124(sp)
    46b4:	da000404 	addi	r8,sp,16
    46b8:	003fee06 	br	4674 <__alt_mem_onchip_memory+0xf7804674>
    46bc:	d9002c17 	ldw	r4,176(sp)
    46c0:	d9801e04 	addi	r6,sp,120
    46c4:	b80b883a 	mov	r5,r23
    46c8:	000bdec0 	call	bdec <__sprint_r>
    46cc:	103c471e 	bne	r2,zero,37ec <__alt_mem_onchip_memory+0xf78037ec>
    46d0:	d8c02017 	ldw	r3,128(sp)
    46d4:	df002787 	ldb	fp,158(sp)
    46d8:	da000404 	addi	r8,sp,16
    46dc:	003d5606 	br	3c38 <__alt_mem_onchip_memory+0xf7803c38>
    46e0:	9080040c 	andi	r2,r18,16
    46e4:	10016126 	beq	r2,zero,4c6c <___vfprintf_internal_r+0x1888>
    46e8:	d8802d17 	ldw	r2,180(sp)
    46ec:	14c00017 	ldw	r19,0(r2)
    46f0:	10800104 	addi	r2,r2,4
    46f4:	d8802d15 	stw	r2,180(sp)
    46f8:	982dd7fa 	srai	r22,r19,31
    46fc:	b005883a 	mov	r2,r22
    4700:	003c8206 	br	390c <__alt_mem_onchip_memory+0xf780390c>
    4704:	9080040c 	andi	r2,r18,16
    4708:	10003526 	beq	r2,zero,47e0 <___vfprintf_internal_r+0x13fc>
    470c:	d9402d17 	ldw	r5,180(sp)
    4710:	d8c02917 	ldw	r3,164(sp)
    4714:	d8002785 	stb	zero,158(sp)
    4718:	28800104 	addi	r2,r5,4
    471c:	2cc00017 	ldw	r19,0(r5)
    4720:	002d883a 	mov	r22,zero
    4724:	18003716 	blt	r3,zero,4804 <___vfprintf_internal_r+0x1420>
    4728:	00ffdfc4 	movi	r3,-129
    472c:	d8802d15 	stw	r2,180(sp)
    4730:	90e4703a 	and	r18,r18,r3
    4734:	0039883a 	mov	fp,zero
    4738:	983df326 	beq	r19,zero,3f08 <__alt_mem_onchip_memory+0xf7803f08>
    473c:	00800244 	movi	r2,9
    4740:	14fc7b36 	bltu	r2,r19,3930 <__alt_mem_onchip_memory+0xf7803930>
    4744:	d8c02817 	ldw	r3,160(sp)
    4748:	dc001dc4 	addi	r16,sp,119
    474c:	9cc00c04 	addi	r19,r19,48
    4750:	1c07c83a 	sub	r3,r3,r16
    4754:	dcc01dc5 	stb	r19,119(sp)
    4758:	d8c02e15 	stw	r3,184(sp)
    475c:	003ce806 	br	3b00 <__alt_mem_onchip_memory+0xf7803b00>
    4760:	d8803317 	ldw	r2,204(sp)
    4764:	143fffc4 	addi	r16,r2,-1
    4768:	043f4d0e 	bge	zero,r16,44a0 <__alt_mem_onchip_memory+0xf78044a0>
    476c:	07000404 	movi	fp,16
    4770:	e400810e 	bge	fp,r16,4978 <___vfprintf_internal_r+0x1594>
    4774:	014000b4 	movhi	r5,2
    4778:	297da184 	addi	r5,r5,-2426
    477c:	d9402b15 	stw	r5,172(sp)
    4780:	01c001c4 	movi	r7,7
    4784:	dcc02c17 	ldw	r19,176(sp)
    4788:	00000306 	br	4798 <___vfprintf_internal_r+0x13b4>
    478c:	b5800204 	addi	r22,r22,8
    4790:	843ffc04 	addi	r16,r16,-16
    4794:	e4007b0e 	bge	fp,r16,4984 <___vfprintf_internal_r+0x15a0>
    4798:	18c00404 	addi	r3,r3,16
    479c:	8c400044 	addi	r17,r17,1
    47a0:	b5000015 	stw	r20,0(r22)
    47a4:	b7000115 	stw	fp,4(r22)
    47a8:	d8c02015 	stw	r3,128(sp)
    47ac:	dc401f15 	stw	r17,124(sp)
    47b0:	3c7ff60e 	bge	r7,r17,478c <__alt_mem_onchip_memory+0xf780478c>
    47b4:	d9801e04 	addi	r6,sp,120
    47b8:	b80b883a 	mov	r5,r23
    47bc:	9809883a 	mov	r4,r19
    47c0:	d9c03c15 	stw	r7,240(sp)
    47c4:	000bdec0 	call	bdec <__sprint_r>
    47c8:	d9c03c17 	ldw	r7,240(sp)
    47cc:	103c071e 	bne	r2,zero,37ec <__alt_mem_onchip_memory+0xf78037ec>
    47d0:	d8c02017 	ldw	r3,128(sp)
    47d4:	dc401f17 	ldw	r17,124(sp)
    47d8:	dd800404 	addi	r22,sp,16
    47dc:	003fec06 	br	4790 <__alt_mem_onchip_memory+0xf7804790>
    47e0:	9080100c 	andi	r2,r18,64
    47e4:	d8002785 	stb	zero,158(sp)
    47e8:	10010e26 	beq	r2,zero,4c24 <___vfprintf_internal_r+0x1840>
    47ec:	d9002d17 	ldw	r4,180(sp)
    47f0:	d9402917 	ldw	r5,164(sp)
    47f4:	002d883a 	mov	r22,zero
    47f8:	20800104 	addi	r2,r4,4
    47fc:	24c0000b 	ldhu	r19,0(r4)
    4800:	283fc90e 	bge	r5,zero,4728 <__alt_mem_onchip_memory+0xf7804728>
    4804:	d8802d15 	stw	r2,180(sp)
    4808:	0039883a 	mov	fp,zero
    480c:	9d84b03a 	or	r2,r19,r22
    4810:	103c461e 	bne	r2,zero,392c <__alt_mem_onchip_memory+0xf780392c>
    4814:	00800044 	movi	r2,1
    4818:	003e6c06 	br	41cc <__alt_mem_onchip_memory+0xf78041cc>
    481c:	d9002c17 	ldw	r4,176(sp)
    4820:	d9801e04 	addi	r6,sp,120
    4824:	b80b883a 	mov	r5,r23
    4828:	000bdec0 	call	bdec <__sprint_r>
    482c:	103bef1e 	bne	r2,zero,37ec <__alt_mem_onchip_memory+0xf78037ec>
    4830:	d8c02017 	ldw	r3,128(sp)
    4834:	da000404 	addi	r8,sp,16
    4838:	d9003217 	ldw	r4,200(sp)
    483c:	d8802617 	ldw	r2,152(sp)
    4840:	d9403317 	ldw	r5,204(sp)
    4844:	8123883a 	add	r17,r16,r4
    4848:	11400216 	blt	r2,r5,4854 <___vfprintf_internal_r+0x1470>
    484c:	9100004c 	andi	r4,r18,1
    4850:	20000d26 	beq	r4,zero,4888 <___vfprintf_internal_r+0x14a4>
    4854:	d9003717 	ldw	r4,220(sp)
    4858:	d9403417 	ldw	r5,208(sp)
    485c:	1907883a 	add	r3,r3,r4
    4860:	d9001f17 	ldw	r4,124(sp)
    4864:	41400015 	stw	r5,0(r8)
    4868:	d9403717 	ldw	r5,220(sp)
    486c:	21000044 	addi	r4,r4,1
    4870:	d8c02015 	stw	r3,128(sp)
    4874:	41400115 	stw	r5,4(r8)
    4878:	d9001f15 	stw	r4,124(sp)
    487c:	014001c4 	movi	r5,7
    4880:	2901e816 	blt	r5,r4,5024 <___vfprintf_internal_r+0x1c40>
    4884:	42000204 	addi	r8,r8,8
    4888:	d9003317 	ldw	r4,204(sp)
    488c:	8121883a 	add	r16,r16,r4
    4890:	2085c83a 	sub	r2,r4,r2
    4894:	8461c83a 	sub	r16,r16,r17
    4898:	1400010e 	bge	r2,r16,48a0 <___vfprintf_internal_r+0x14bc>
    489c:	1021883a 	mov	r16,r2
    48a0:	04000a0e 	bge	zero,r16,48cc <___vfprintf_internal_r+0x14e8>
    48a4:	d9001f17 	ldw	r4,124(sp)
    48a8:	1c07883a 	add	r3,r3,r16
    48ac:	44400015 	stw	r17,0(r8)
    48b0:	21000044 	addi	r4,r4,1
    48b4:	44000115 	stw	r16,4(r8)
    48b8:	d8c02015 	stw	r3,128(sp)
    48bc:	d9001f15 	stw	r4,124(sp)
    48c0:	014001c4 	movi	r5,7
    48c4:	2901fb16 	blt	r5,r4,50b4 <___vfprintf_internal_r+0x1cd0>
    48c8:	42000204 	addi	r8,r8,8
    48cc:	8001f716 	blt	r16,zero,50ac <___vfprintf_internal_r+0x1cc8>
    48d0:	1421c83a 	sub	r16,r2,r16
    48d4:	043d380e 	bge	zero,r16,3db8 <__alt_mem_onchip_memory+0xf7803db8>
    48d8:	04400404 	movi	r17,16
    48dc:	d8801f17 	ldw	r2,124(sp)
    48e0:	8c3efb0e 	bge	r17,r16,44d0 <__alt_mem_onchip_memory+0xf78044d0>
    48e4:	014000b4 	movhi	r5,2
    48e8:	297da184 	addi	r5,r5,-2426
    48ec:	d9402b15 	stw	r5,172(sp)
    48f0:	058001c4 	movi	r22,7
    48f4:	dcc02c17 	ldw	r19,176(sp)
    48f8:	00000306 	br	4908 <___vfprintf_internal_r+0x1524>
    48fc:	42000204 	addi	r8,r8,8
    4900:	843ffc04 	addi	r16,r16,-16
    4904:	8c3ef50e 	bge	r17,r16,44dc <__alt_mem_onchip_memory+0xf78044dc>
    4908:	18c00404 	addi	r3,r3,16
    490c:	10800044 	addi	r2,r2,1
    4910:	45000015 	stw	r20,0(r8)
    4914:	44400115 	stw	r17,4(r8)
    4918:	d8c02015 	stw	r3,128(sp)
    491c:	d8801f15 	stw	r2,124(sp)
    4920:	b0bff60e 	bge	r22,r2,48fc <__alt_mem_onchip_memory+0xf78048fc>
    4924:	d9801e04 	addi	r6,sp,120
    4928:	b80b883a 	mov	r5,r23
    492c:	9809883a 	mov	r4,r19
    4930:	000bdec0 	call	bdec <__sprint_r>
    4934:	103bad1e 	bne	r2,zero,37ec <__alt_mem_onchip_memory+0xf78037ec>
    4938:	d8c02017 	ldw	r3,128(sp)
    493c:	d8801f17 	ldw	r2,124(sp)
    4940:	da000404 	addi	r8,sp,16
    4944:	003fee06 	br	4900 <__alt_mem_onchip_memory+0xf7804900>
    4948:	9088703a 	and	r4,r18,r2
    494c:	203eab1e 	bne	r4,zero,43fc <__alt_mem_onchip_memory+0xf78043fc>
    4950:	dc401f17 	ldw	r17,124(sp)
    4954:	40800115 	stw	r2,4(r8)
    4958:	44000015 	stw	r16,0(r8)
    495c:	8c400044 	addi	r17,r17,1
    4960:	d8c02015 	stw	r3,128(sp)
    4964:	dc401f15 	stw	r17,124(sp)
    4968:	008001c4 	movi	r2,7
    496c:	14400e16 	blt	r2,r17,49a8 <___vfprintf_internal_r+0x15c4>
    4970:	45800204 	addi	r22,r8,8
    4974:	003eca06 	br	44a0 <__alt_mem_onchip_memory+0xf78044a0>
    4978:	010000b4 	movhi	r4,2
    497c:	213da184 	addi	r4,r4,-2426
    4980:	d9002b15 	stw	r4,172(sp)
    4984:	d8802b17 	ldw	r2,172(sp)
    4988:	1c07883a 	add	r3,r3,r16
    498c:	8c400044 	addi	r17,r17,1
    4990:	b0800015 	stw	r2,0(r22)
    4994:	b4000115 	stw	r16,4(r22)
    4998:	d8c02015 	stw	r3,128(sp)
    499c:	dc401f15 	stw	r17,124(sp)
    49a0:	008001c4 	movi	r2,7
    49a4:	147ebd0e 	bge	r2,r17,449c <__alt_mem_onchip_memory+0xf780449c>
    49a8:	d9002c17 	ldw	r4,176(sp)
    49ac:	d9801e04 	addi	r6,sp,120
    49b0:	b80b883a 	mov	r5,r23
    49b4:	000bdec0 	call	bdec <__sprint_r>
    49b8:	103b8c1e 	bne	r2,zero,37ec <__alt_mem_onchip_memory+0xf78037ec>
    49bc:	d8c02017 	ldw	r3,128(sp)
    49c0:	dc401f17 	ldw	r17,124(sp)
    49c4:	dd800404 	addi	r22,sp,16
    49c8:	003eb506 	br	44a0 <__alt_mem_onchip_memory+0xf78044a0>
    49cc:	d9002c17 	ldw	r4,176(sp)
    49d0:	d9801e04 	addi	r6,sp,120
    49d4:	b80b883a 	mov	r5,r23
    49d8:	000bdec0 	call	bdec <__sprint_r>
    49dc:	103b831e 	bne	r2,zero,37ec <__alt_mem_onchip_memory+0xf78037ec>
    49e0:	d8c02017 	ldw	r3,128(sp)
    49e4:	dc401f17 	ldw	r17,124(sp)
    49e8:	da000404 	addi	r8,sp,16
    49ec:	003e8d06 	br	4424 <__alt_mem_onchip_memory+0xf7804424>
    49f0:	d9002c17 	ldw	r4,176(sp)
    49f4:	d9801e04 	addi	r6,sp,120
    49f8:	b80b883a 	mov	r5,r23
    49fc:	000bdec0 	call	bdec <__sprint_r>
    4a00:	103b7a1e 	bne	r2,zero,37ec <__alt_mem_onchip_memory+0xf78037ec>
    4a04:	d8c02017 	ldw	r3,128(sp)
    4a08:	dc401f17 	ldw	r17,124(sp)
    4a0c:	dd800404 	addi	r22,sp,16
    4a10:	003e8f06 	br	4450 <__alt_mem_onchip_memory+0xf7804450>
    4a14:	0027883a 	mov	r19,zero
    4a18:	003f4a06 	br	4744 <__alt_mem_onchip_memory+0xf7804744>
    4a1c:	d9002c17 	ldw	r4,176(sp)
    4a20:	d9801e04 	addi	r6,sp,120
    4a24:	b80b883a 	mov	r5,r23
    4a28:	000bdec0 	call	bdec <__sprint_r>
    4a2c:	103b6f1e 	bne	r2,zero,37ec <__alt_mem_onchip_memory+0xf78037ec>
    4a30:	d8c02017 	ldw	r3,128(sp)
    4a34:	da000404 	addi	r8,sp,16
    4a38:	003c9d06 	br	3cb0 <__alt_mem_onchip_memory+0xf7803cb0>
    4a3c:	04e7c83a 	sub	r19,zero,r19
    4a40:	9804c03a 	cmpne	r2,r19,zero
    4a44:	05adc83a 	sub	r22,zero,r22
    4a48:	b0adc83a 	sub	r22,r22,r2
    4a4c:	d8802917 	ldw	r2,164(sp)
    4a50:	07000b44 	movi	fp,45
    4a54:	df002785 	stb	fp,158(sp)
    4a58:	10017b16 	blt	r2,zero,5048 <___vfprintf_internal_r+0x1c64>
    4a5c:	00bfdfc4 	movi	r2,-129
    4a60:	90a4703a 	and	r18,r18,r2
    4a64:	003bb106 	br	392c <__alt_mem_onchip_memory+0xf780392c>
    4a68:	d9003617 	ldw	r4,216(sp)
    4a6c:	d9403817 	ldw	r5,224(sp)
    4a70:	da003d15 	stw	r8,244(sp)
    4a74:	000a6040 	call	a604 <__fpclassifyd>
    4a78:	da003d17 	ldw	r8,244(sp)
    4a7c:	1000f026 	beq	r2,zero,4e40 <___vfprintf_internal_r+0x1a5c>
    4a80:	d9002917 	ldw	r4,164(sp)
    4a84:	05bff7c4 	movi	r22,-33
    4a88:	00bfffc4 	movi	r2,-1
    4a8c:	8dac703a 	and	r22,r17,r22
    4a90:	20820026 	beq	r4,r2,5294 <___vfprintf_internal_r+0x1eb0>
    4a94:	008011c4 	movi	r2,71
    4a98:	b081f726 	beq	r22,r2,5278 <___vfprintf_internal_r+0x1e94>
    4a9c:	d9003817 	ldw	r4,224(sp)
    4aa0:	90c04014 	ori	r3,r18,256
    4aa4:	d8c02b15 	stw	r3,172(sp)
    4aa8:	20021516 	blt	r4,zero,5300 <___vfprintf_internal_r+0x1f1c>
    4aac:	dcc03817 	ldw	r19,224(sp)
    4ab0:	d8002a05 	stb	zero,168(sp)
    4ab4:	00801984 	movi	r2,102
    4ab8:	8881f926 	beq	r17,r2,52a0 <___vfprintf_internal_r+0x1ebc>
    4abc:	00801184 	movi	r2,70
    4ac0:	88821c26 	beq	r17,r2,5334 <___vfprintf_internal_r+0x1f50>
    4ac4:	00801144 	movi	r2,69
    4ac8:	b081ef26 	beq	r22,r2,5288 <___vfprintf_internal_r+0x1ea4>
    4acc:	d8c02917 	ldw	r3,164(sp)
    4ad0:	d8802104 	addi	r2,sp,132
    4ad4:	d8800315 	stw	r2,12(sp)
    4ad8:	d9403617 	ldw	r5,216(sp)
    4adc:	d8802504 	addi	r2,sp,148
    4ae0:	d9002c17 	ldw	r4,176(sp)
    4ae4:	d8800215 	stw	r2,8(sp)
    4ae8:	d8802604 	addi	r2,sp,152
    4aec:	d8c00015 	stw	r3,0(sp)
    4af0:	d8800115 	stw	r2,4(sp)
    4af4:	01c00084 	movi	r7,2
    4af8:	980d883a 	mov	r6,r19
    4afc:	d8c03c15 	stw	r3,240(sp)
    4b00:	da003d15 	stw	r8,244(sp)
    4b04:	0005a080 	call	5a08 <_dtoa_r>
    4b08:	1021883a 	mov	r16,r2
    4b0c:	008019c4 	movi	r2,103
    4b10:	d8c03c17 	ldw	r3,240(sp)
    4b14:	da003d17 	ldw	r8,244(sp)
    4b18:	88817126 	beq	r17,r2,50e0 <___vfprintf_internal_r+0x1cfc>
    4b1c:	008011c4 	movi	r2,71
    4b20:	88829226 	beq	r17,r2,556c <___vfprintf_internal_r+0x2188>
    4b24:	80f9883a 	add	fp,r16,r3
    4b28:	d9003617 	ldw	r4,216(sp)
    4b2c:	000d883a 	mov	r6,zero
    4b30:	000f883a 	mov	r7,zero
    4b34:	980b883a 	mov	r5,r19
    4b38:	da003d15 	stw	r8,244(sp)
    4b3c:	000fa640 	call	fa64 <__eqdf2>
    4b40:	da003d17 	ldw	r8,244(sp)
    4b44:	10018d26 	beq	r2,zero,517c <___vfprintf_internal_r+0x1d98>
    4b48:	d8802117 	ldw	r2,132(sp)
    4b4c:	1700062e 	bgeu	r2,fp,4b68 <___vfprintf_internal_r+0x1784>
    4b50:	01000c04 	movi	r4,48
    4b54:	10c00044 	addi	r3,r2,1
    4b58:	d8c02115 	stw	r3,132(sp)
    4b5c:	11000005 	stb	r4,0(r2)
    4b60:	d8802117 	ldw	r2,132(sp)
    4b64:	173ffb36 	bltu	r2,fp,4b54 <__alt_mem_onchip_memory+0xf7804b54>
    4b68:	1405c83a 	sub	r2,r2,r16
    4b6c:	d8803315 	stw	r2,204(sp)
    4b70:	008011c4 	movi	r2,71
    4b74:	b0817626 	beq	r22,r2,5150 <___vfprintf_internal_r+0x1d6c>
    4b78:	00801944 	movi	r2,101
