
comm_task.elf:     file format elf32-littlenios2
comm_task.elf
architecture: nios2:r1, flags 0x00000112:
EXEC_P, HAS_SYMS, D_PAGED
start address 0x00000248

Program Header:
    LOAD off    0x00001000 vaddr 0x00000000 paddr 0x00000000 align 2**12
         filesz 0x00000020 memsz 0x00000020 flags r-x
    LOAD off    0x00001020 vaddr 0x00000020 paddr 0x00000020 align 2**12
         filesz 0x0001cb94 memsz 0x0001cb94 flags r-x
    LOAD off    0x0001dbb4 vaddr 0x0001cbb4 paddr 0x0001eb04 align 2**12
         filesz 0x00001f50 memsz 0x00001f50 flags rw-
    LOAD off    0x00020a54 vaddr 0x00020a54 paddr 0x00020a54 align 2**12
         filesz 0x00000000 memsz 0x00011490 flags rw-

Sections:
Idx Name          Size      VMA       LMA       File off  Algn
  0 .entry        00000020  00000000  00000000  00001000  2**5
                  CONTENTS, ALLOC, LOAD, READONLY, CODE
  1 .exceptions   00000228  00000020  00000020  00001020  2**2
                  CONTENTS, ALLOC, LOAD, READONLY, CODE
  2 .text         0001be98  00000248  00000248  00001248  2**2
                  CONTENTS, ALLOC, LOAD, READONLY, CODE
  3 .rodata       00000ad4  0001c0e0  0001c0e0  0001d0e0  2**2
                  CONTENTS, ALLOC, LOAD, READONLY, DATA
  4 .rwdata       00001f50  0001cbb4  0001eb04  0001dbb4  2**2
                  CONTENTS, ALLOC, LOAD, DATA, SMALL_DATA
  5 .bss          00011490  00020a54  00020a54  00020a54  2**2
                  ALLOC, SMALL_DATA
  6 .sdram        00000000  00031ee4  00031ee4  0001fb04  2**0
                  CONTENTS
  7 .flash_controller 00000000  08000000  08000000  0001fb04  2**0
                  CONTENTS
  8 .onchip_memory 00000000  08800000  08800000  0001fb04  2**0
                  CONTENTS
  9 .comment      00000023  00000000  00000000  0001fb04  2**0
                  CONTENTS, READONLY
 10 .debug_aranges 00001238  00000000  00000000  0001fb28  2**3
                  CONTENTS, READONLY, DEBUGGING
 11 .debug_info   0003466d  00000000  00000000  00020d60  2**0
                  CONTENTS, READONLY, DEBUGGING
 12 .debug_abbrev 0000c24e  00000000  00000000  000553cd  2**0
                  CONTENTS, READONLY, DEBUGGING
 13 .debug_line   0000fc89  00000000  00000000  0006161b  2**0
                  CONTENTS, READONLY, DEBUGGING
 14 .debug_frame  00003fec  00000000  00000000  000712a4  2**2
                  CONTENTS, READONLY, DEBUGGING
 15 .debug_str    00005c5c  00000000  00000000  00075290  2**0
                  CONTENTS, READONLY, DEBUGGING
 16 .debug_loc    00017ed4  00000000  00000000  0007aeec  2**0
                  CONTENTS, READONLY, DEBUGGING
 17 .debug_alt_sim_info 00000060  00000000  00000000  00092dc0  2**2
                  CONTENTS, READONLY, DEBUGGING
 18 .debug_ranges 00001968  00000000  00000000  00092e20  2**3
                  CONTENTS, READONLY, DEBUGGING
 19 .thread_model 00000006  00000000  00000000  0009a74a  2**0
                  CONTENTS, READONLY
 20 .cpu          00000003  00000000  00000000  0009a750  2**0
                  CONTENTS, READONLY
 21 .qsys         00000001  00000000  00000000  0009a753  2**0
                  CONTENTS, READONLY
 22 .simulation_enabled 00000001  00000000  00000000  0009a754  2**0
                  CONTENTS, READONLY
 23 .sysid_hash   00000004  00000000  00000000  0009a755  2**0
                  CONTENTS, READONLY
 24 .sysid_base   00000004  00000000  00000000  0009a759  2**0
                  CONTENTS, READONLY
 25 .sysid_time   00000004  00000000  00000000  0009a75d  2**0
                  CONTENTS, READONLY
 26 .stderr_dev   00000009  00000000  00000000  0009a761  2**0
                  CONTENTS, READONLY
 27 .stdin_dev    00000009  00000000  00000000  0009a76a  2**0
                  CONTENTS, READONLY
 28 .stdout_dev   00000009  00000000  00000000  0009a773  2**0
                  CONTENTS, READONLY
 29 .sopc_system_name 00000014  00000000  00000000  0009a77c  2**0
                  CONTENTS, READONLY
 30 .quartus_project_dir 0000002b  00000000  00000000  0009a790  2**0
                  CONTENTS, READONLY
 31 .jdi          000040b5  00000000  00000000  0009a7bb  2**0
                  CONTENTS, READONLY
 32 .sopcinfo     000ed2af  00000000  00000000  0009e870  2**0
                  CONTENTS, READONLY
SYMBOL TABLE:
00000000 l    d  .entry	00000000 .entry
00000020 l    d  .exceptions	00000000 .exceptions
00000248 l    d  .text	00000000 .text
0001c0e0 l    d  .rodata	00000000 .rodata
0001cbb4 l    d  .rwdata	00000000 .rwdata
00020a54 l    d  .bss	00000000 .bss
00031ee4 l    d  .sdram	00000000 .sdram
08000000 l    d  .flash_controller	00000000 .flash_controller
08800000 l    d  .onchip_memory	00000000 .onchip_memory
00000000 l    d  .comment	00000000 .comment
00000000 l    d  .debug_aranges	00000000 .debug_aranges
00000000 l    d  .debug_info	00000000 .debug_info
00000000 l    d  .debug_abbrev	00000000 .debug_abbrev
00000000 l    d  .debug_line	00000000 .debug_line
00000000 l    d  .debug_frame	00000000 .debug_frame
00000000 l    d  .debug_str	00000000 .debug_str
00000000 l    d  .debug_loc	00000000 .debug_loc
00000000 l    d  .debug_alt_sim_info	00000000 .debug_alt_sim_info
00000000 l    d  .debug_ranges	00000000 .debug_ranges
00000000 l    df *ABS*	00000000 ../comm_task_bsp//obj/HAL/src/crt0.o
00000290 l       .text	00000000 alt_after_alt_main
00000000 l    df *ABS*	00000000 alt_irq_handler.c
00000000 l    df *ABS*	00000000 alt_instruction_exception_entry.c
00000000 l    df *ABS*	00000000 alt_ucosii_simple_error_check.c
00000000 l    df *ABS*	00000000 ucosii_tutorial.c
00000000 l    df *ABS*	00000000 exit.c
00000000 l    df *ABS*	00000000 fprintf.c
00000000 l    df *ABS*	00000000 fwrite.c
00000000 l    df *ABS*	00000000 impure.c
0001cbb4 l     O .rwdata	00000424 impure_data
00000000 l    df *ABS*	00000000 printf.c
00000000 l    df *ABS*	00000000 putchar.c
00000000 l    df *ABS*	00000000 puts.c
00000000 l    df *ABS*	00000000 strlen.c
00000000 l    df *ABS*	00000000 vfprintf.c
0001c68a l     O .rodata	00000010 zeroes.4404
00003418 l     F .text	000000bc __sbprintf
0001c69a l     O .rodata	00000010 blanks.4403
00000000 l    df *ABS*	00000000 wsetup.c
00000000 l    df *ABS*	00000000 __call_atexit.c
00000000 l    df *ABS*	00000000 dtoa.c
000037a8 l     F .text	00000200 quorem
00000000 l    df *ABS*	00000000 fflush.c
00000000 l    df *ABS*	00000000 findfp.c
000052d8 l     F .text	00000008 __fp_unlock
000052ec l     F .text	0000019c __sinit.part.1
00005488 l     F .text	00000008 __fp_lock
00000000 l    df *ABS*	00000000 mallocr.c
00000000 l    df *ABS*	00000000 fvwrite.c
00000000 l    df *ABS*	00000000 fwalk.c
00000000 l    df *ABS*	00000000 locale.c
0001cff8 l     O .rwdata	00000020 lc_ctype_charset
0001cfd8 l     O .rwdata	00000020 lc_message_charset
0001d018 l     O .rwdata	00000038 lconv
00000000 l    df *ABS*	00000000 makebuf.c
00000000 l    df *ABS*	00000000 mallocr.c
00000000 l    df *ABS*	00000000 memchr.c
00000000 l    df *ABS*	00000000 memcpy.c
00000000 l    df *ABS*	00000000 memmove.c
00000000 l    df *ABS*	00000000 memset.c
00000000 l    df *ABS*	00000000 mprec.c
0001c6c8 l     O .rodata	0000000c p05.2768
00000000 l    df *ABS*	00000000 putc.c
00000000 l    df *ABS*	00000000 mallocr.c
00000000 l    df *ABS*	00000000 s_fpclassify.c
00000000 l    df *ABS*	00000000 sbrkr.c
00000000 l    df *ABS*	00000000 stdio.c
00000000 l    df *ABS*	00000000 strcmp.c
00000000 l    df *ABS*	00000000 vfprintf.c
000089ec l     F .text	000000fc __sprint_r.part.0
0001c7fc l     O .rodata	00000010 blanks.4348
0001c7ec l     O .rodata	00000010 zeroes.4349
00009f78 l     F .text	000000bc __sbprintf
00000000 l    df *ABS*	00000000 wbuf.c
00000000 l    df *ABS*	00000000 writer.c
00000000 l    df *ABS*	00000000 closer.c
00000000 l    df *ABS*	00000000 mallocr.c
00000000 l    df *ABS*	00000000 fclose.c
00000000 l    df *ABS*	00000000 fputwc.c
00000000 l    df *ABS*	00000000 fstatr.c
00000000 l    df *ABS*	00000000 int_errno.c
00000000 l    df *ABS*	00000000 isattyr.c
00000000 l    df *ABS*	00000000 lseekr.c
00000000 l    df *ABS*	00000000 readr.c
00000000 l    df *ABS*	00000000 wcrtomb.c
00000000 l    df *ABS*	00000000 wctomb_r.c
00000000 l    df *ABS*	00000000 libgcc2.c
00000000 l    df *ABS*	00000000 libgcc2.c
00000000 l    df *ABS*	00000000 lib2-divmod.c
00000000 l    df *ABS*	00000000 adddf3.c
00000000 l    df *ABS*	00000000 divdf3.c
00000000 l    df *ABS*	00000000 eqdf2.c
00000000 l    df *ABS*	00000000 gedf2.c
00000000 l    df *ABS*	00000000 ledf2.c
00000000 l    df *ABS*	00000000 muldf3.c
00000000 l    df *ABS*	00000000 subdf3.c
00000000 l    df *ABS*	00000000 fixdfsi.c
00000000 l    df *ABS*	00000000 floatsidf.c
00000000 l    df *ABS*	00000000 floatunsidf.c
00000000 l    df *ABS*	00000000 libgcc2.c
00000000 l    df *ABS*	00000000 libgcc2.c
00000000 l    df *ABS*	00000000 alt_close.c
0000dc34 l     F .text	0000003c alt_get_errno
00000000 l    df *ABS*	00000000 alt_dev.c
0000dd40 l     F .text	0000002c alt_dev_null_write
00000000 l    df *ABS*	00000000 alt_errno.c
00000000 l    df *ABS*	00000000 alt_exit.c
00000000 l    df *ABS*	00000000 alt_fstat.c
0000dda0 l     F .text	0000003c alt_get_errno
00000000 l    df *ABS*	00000000 alt_isatty.c
0000de8c l     F .text	0000003c alt_get_errno
00000000 l    df *ABS*	00000000 alt_load.c
0000df6c l     F .text	00000068 alt_load_section
00000000 l    df *ABS*	00000000 alt_lseek.c
0000e058 l     F .text	0000003c alt_get_errno
00000000 l    df *ABS*	00000000 alt_main.c
00000000 l    df *ABS*	00000000 alt_read.c
0000e224 l     F .text	0000003c alt_get_errno
00000000 l    df *ABS*	00000000 alt_release_fd.c
00000000 l    df *ABS*	00000000 alt_sbrk.c
0001ea70 l     O .rwdata	00000004 heap_end
00000000 l    df *ABS*	00000000 alt_write.c
0000e470 l     F .text	0000003c alt_get_errno
00000000 l    df *ABS*	00000000 alt_env_lock.c
0001ea74 l     O .rwdata	00000004 lockid
00020a9c l     O .bss	00000004 locks
00000000 l    df *ABS*	00000000 alt_malloc_lock.c
0001ea78 l     O .rwdata	00000004 lockid
00020aa4 l     O .bss	00000004 locks
00000000 l    df *ABS*	00000000 os_core.c
0000fea0 l     F .text	00000048 OS_InitMisc
0000fee8 l     F .text	0000006c OS_InitRdyList
00010054 l     F .text	000000e4 OS_InitTCBList
0000fdc0 l     F .text	000000e0 OS_InitEventList
0000ff54 l     F .text	00000080 OS_InitTaskIdle
0000ffd4 l     F .text	00000080 OS_InitTaskStat
000102c4 l     F .text	00000074 OS_SchedNew
00000000 l    df *ABS*	00000000 os_dbg.c
00000000 l    df *ABS*	00000000 os_flag.c
00011fd4 l     F .text	000000f4 OS_FlagTaskRdy
00011d94 l     F .text	00000160 OS_FlagBlock
00000000 l    df *ABS*	00000000 os_mem.c
00000000 l    df *ABS*	00000000 os_q.c
00000000 l    df *ABS*	00000000 os_sem.c
00000000 l    df *ABS*	00000000 os_task.c
00000000 l    df *ABS*	00000000 os_time.c
00000000 l    df *ABS*	00000000 alt_sys_init.c
00016078 l     F .text	00000034 alt_dev_reg
0001d600 l     O .rwdata	000000dc flash_controller
0001d6dc l     O .rwdata	0000106c jtag_uart
0001e748 l     O .rwdata	00000030 audio_config
0001e778 l     O .rwdata	00000030 audio
0001e7a8 l     O .rwdata	0000002c char_lcd
0001e7d4 l     O .rwdata	0000002c green_leds
0001e800 l     O .rwdata	0000002c HEX3_HEX0
0001e82c l     O .rwdata	0000002c HEX7_HEX4
0001e858 l     O .rwdata	0000002c pushbuttons
0001e884 l     O .rwdata	0000002c red_leds
0001e8b0 l     O .rwdata	0000002c switches
0001e8dc l     O .rwdata	00000038 ps2_key
0001e914 l     O .rwdata	00000038 ps2_mouse
0001e94c l     O .rwdata	0000002c serial_port
0001e978 l     O .rwdata	00000048 mtl_char_buffer
0001e9c0 l     O .rwdata	00000054 mtl_pixel_buffer_dma
0001ea14 l     O .rwdata	0000002c SD_Card
00000000 l    df *ABS*	00000000 altera_avalon_cfi_flash.c
000164b8 l     F .text	00000034 alt_flash_device_register
00000000 l    df *ABS*	00000000 altera_avalon_cfi_flash_table.c
00017308 l     F .text	00000080 alt_read_16bit_query_entry
00000000 l    df *ABS*	00000000 altera_avalon_jtag_uart_fd.c
00000000 l    df *ABS*	00000000 altera_avalon_jtag_uart_init.c
00018438 l     F .text	000002a8 altera_avalon_jtag_uart_irq
000186e0 l     F .text	00000104 altera_avalon_jtag_uart_timeout
00000000 l    df *ABS*	00000000 altera_avalon_jtag_uart_ioctl.c
00000000 l    df *ABS*	00000000 altera_avalon_jtag_uart_read.c
00000000 l    df *ABS*	00000000 altera_avalon_jtag_uart_write.c
00000000 l    df *ABS*	00000000 altera_avalon_timer_sc.c
00018ebc l     F .text	0000007c alt_avalon_timer_sc_irq
00000000 l    df *ABS*	00000000 altera_up_avalon_character_lcd.c
00000000 l    df *ABS*	00000000 altera_up_avalon_ps2.c
00000000 l    df *ABS*	00000000 altera_up_avalon_rs232.c
00000000 l    df *ABS*	00000000 altera_up_avalon_video_character_buffer_with_dma.c
00000000 l    df *ABS*	00000000 alt_alarm_start.c
00000000 l    df *ABS*	00000000 alt_dcache_flush.c
00000000 l    df *ABS*	00000000 alt_dcache_flush_all.c
00000000 l    df *ABS*	00000000 alt_dev_llist_insert.c
0001a3ac l     F .text	0000003c alt_get_errno
00000000 l    df *ABS*	00000000 alt_do_ctors.c
00000000 l    df *ABS*	00000000 alt_do_dtors.c
00000000 l    df *ABS*	00000000 alt_find_dev.c
00000000 l    df *ABS*	00000000 alt_flash_dev.c
00000000 l    df *ABS*	00000000 alt_icache_flush_all.c
00000000 l    df *ABS*	00000000 alt_io_redirect.c
0001a6cc l     F .text	000000c4 alt_open_fd
00000000 l    df *ABS*	00000000 alt_irq_register.c
00000000 l    df *ABS*	00000000 alt_irq_vars.c
00000000 l    df *ABS*	00000000 alt_open.c
0001a98c l     F .text	0000003c alt_get_errno
0001a9c8 l     F .text	000000c4 alt_file_locked
00000000 l    df *ABS*	00000000 alt_tick.c
00000000 l    df *ABS*	00000000 altera_nios2_gen2_irq.c
00000000 l    df *ABS*	00000000 os_cpu_a.o
00000040 l       *ABS*	00000000 OSCtxSw_SWITCH_PC
00000000 l    df *ABS*	00000000 os_cpu_c.c
00000014 l       *ABS*	00000000 OSTCBNext_OFFSET
00000032 l       *ABS*	00000000 OSTCBPrio_OFFSET
00000000 l       *ABS*	00000000 OSTCBStkPtr_OFFSET
00000000 l    df *ABS*	00000000 altera_avalon_cfi_flash_amd.c
0001b494 l     F .text	000000cc alt_write_word_amd
0001b378 l     F .text	0000011c alt_wait_for_command_to_complete_amd
00000000 l    df *ABS*	00000000 altera_avalon_cfi_flash_intel.c
0001b76c l     F .text	0000017c alt_unlock_block_intel
0001b8e8 l     F .text	000000d4 alt_write_word_intel
00000000 l    df *ABS*	00000000 alt_find_file.c
00000000 l    df *ABS*	00000000 alt_get_fd.c
00000000 l    df *ABS*	00000000 alt_icache_flush.c
00000000 l    df *ABS*	00000000 alt_usleep.c
00000000 l    df *ABS*	00000000 alt_busy_sleep.c
00000000 l    df *ABS*	00000000 atexit.c
00000000 l    df *ABS*	00000000 memcmp.c
00000000 l    df *ABS*	00000000 __atexit.c
00020b08 g     O .bss	00000004 alt_instruction_exception_handler
00001080 g     F .text	00000018 putchar
00007ec8 g     F .text	00000074 _mprec_log10
00020a60 g     O .bss	00000004 getsem_task1_got_sem
0001eac6 g     O .rwdata	00000002 OSTaskNameSize
00007fb4 g     F .text	0000008c __any_on
0000a66c g     F .text	00000054 _isatty_r
0001c6d4 g     O .rodata	00000028 __mprec_tinytens
0000e168 g     F .text	000000bc alt_main
00001098 g     F .text	000000c0 _puts_r
00016dcc g     F .text	00000040 alt_read_query_entry_32bit
00031de4 g     O .bss	00000100 alt_irq
000196ec g     F .text	00000060 alt_up_ps2_disable_read_interrupt
0000a6c0 g     F .text	00000060 _lseek_r
000127f4 g     F .text	000000cc OS_MemInit
0001657c g     F .text	000002a8 alt_flash_cfi_write
0001eb04 g       *ABS*	00000000 __flash_rwdata_start
00016018 g     F .text	00000060 OSTimeSet
00019020 g     F .text	00000040 alt_up_character_lcd_send_cmd
0000c760 g     F .text	00000088 .hidden __eqdf2
00020b34 g     O .bss	00002000 send_task_stk
0000eb14 g     F .text	00000610 OSEventPendMulti
00022b34 g     O .bss	00002000 getsem_task1_stk
00031ee4 g       *ABS*	00000000 __alt_heap_start
0001afd4 g     F .text	00000024 OSTaskCreateHook
00020a68 g     O .bss	00000004 msgqueue
0000103c g     F .text	0000003c printf
0001ea9e g     O .rwdata	00000002 OSMboxEn
0000f17c g     F .text	0000004c OSIntEnter
0000a780 g     F .text	0000009c _wcrtomb_r
00020a54 g     O .bss	00000004 number_of_messages_sent
000088ac g     F .text	0000005c __sseek
00005628 g     F .text	00000010 __sinit
0001a068 g     F .text	000000fc alt_up_char_buffer_string
0000a034 g     F .text	00000140 __swbuf_r
00019504 g     F .text	00000034 read_CE_bit
0001eaae g     O .rwdata	00000002 OSQEn
000060f0 g     F .text	0000007c _setlocale_r
00005490 g     F .text	00000068 __sfmoreglue
0000e7e8 g     F .text	000000cc __malloc_unlock
0001b03c g     F .text	00000020 OSTaskStatHook
0001988c g     F .text	0000009c alt_up_ps2_read_data_byte_timeout
00019d80 g     F .text	00000090 alt_up_rs232_read_fd
00020aac g     O .bss	00000001 OSLockNesting
0001eaec g     O .rwdata	00000002 OSDataSize
00020aad g     O .bss	00000001 OSRunning
00019f9c g     F .text	000000cc alt_up_char_buffer_draw
00006dc0 g     F .text	0000015c memmove
0001b07c g     F .text	00000020 OSInitHookBegin
0001eae4 g     O .rwdata	00000002 OSTmrSize
00005610 g     F .text	00000018 _cleanup
00007044 g     F .text	000000a8 _Balloc
00024b34 g     O .bss	00002000 print_status_task_stk
00020ab0 g     O .bss	00000004 OSIdleCtr
0000c7e8 g     F .text	000000dc .hidden __gtdf2
00020a5c g     O .bss	00000004 number_of_messages_received_task2
0001ad84 g     F .text	00000024 altera_nios2_gen2_irq_init
0001ae54 g       .text	00000000 OSStartTsk
00018fac g     F .text	00000074 get_DDRAM_addr
000105f4 g     F .text	000002d4 OS_TCBInit
00016f64 g     F .text	00000050 alt_write_flash_command_32bit_device_16bit_mode
00000000 g     F .entry	0000001c __reset
0001eaea g     O .rwdata	00000002 OSTmrWheelTblSize
00000020 g       *ABS*	00000000 __flash_exceptions_start
0001ea8a g     O .rwdata	00000002 OSEventSize
00020ab4 g     O .bss	00000001 OSPrioHighRdy
0000a610 g     F .text	0000005c _fstat_r
0001aff8 g     F .text	00000024 OSTaskDelHook
00016a70 g     F .text	000002e0 alt_flash_program_block
00020a88 g     O .bss	00000004 errno
00008828 g     F .text	00000008 __seofread
0001ae34 g       .text	00000000 OSStartHighRdy
00014ac0 g     F .text	000001e4 OSTaskCreateExt
00000b6c g     F .text	0000003c initialize_task
000118dc g     F .text	00000060 OSFlagPendGetFlagsRdy
0001eaca g     O .rwdata	00000002 OSTaskStatStkSize
00010a58 g     F .text	00000308 OSFlagAccept
00012e2c g     F .text	000000b8 OSQFlush
000128c0 g     F .text	00000140 OSQAccept
00020a94 g     O .bss	00000004 alt_argv
00026a40 g       *ABS*	00000000 _gp
0001bc30 g     F .text	00000114 usleep
00014914 g     F .text	000001ac OSTaskCreate
00014424 g     F .text	000004f0 OSTaskChangePrio
00020aa8 g     O .bss	00000004 alt_heapsem
000108c8 g     F .text	00000190 OSDebugInit
00014ca4 g     F .text	00000344 OSTaskDel
0001d480 g     O .rwdata	00000180 alt_fd_list
0002ebc0 g     O .bss	00000370 OSFlagTbl
00001078 g     F .text	00000008 _putchar_r
0000fba0 g     F .text	000000b8 OS_EventTaskRemove
0001a54c g     F .text	00000090 alt_find_dev
00006c78 g     F .text	00000148 memcpy
0001eab4 g     O .rwdata	00000002 OSRdyTblSize
000191c8 g     F .text	00000050 alt_up_character_lcd_write_fd
0001a164 g     F .text	0000005c alt_up_char_buffer_clear
000052e0 g     F .text	0000000c _cleanup_r
0000da4c g     F .text	000000dc .hidden __floatsidf
0001a790 g     F .text	0000007c alt_io_redirect
0000c8c4 g     F .text	000000f4 .hidden __ltdf2
0001c0e0 g       *ABS*	00000000 __DTOR_END__
00019d0c g     F .text	00000074 alt_up_rs232_read_data
00001158 g     F .text	00000014 puts
0001be9c g     F .text	0000009c alt_exception_cause_generated_bad_addr
0000e8b4 g     F .text	00000120 OSEventNameGet
0001ea98 g     O .rwdata	00000002 OSFlagMax
0000870c g     F .text	00000074 __fpclassifyd
00007e24 g     F .text	000000a4 __ratio
0000f1c8 g     F .text	000000f8 OSIntExit
08000000 g       *ABS*	00000000 __alt_mem_flash_controller
00009f5c g     F .text	0000001c __vfiprintf_internal
0001ead2 g     O .rwdata	00000002 OSTCBSize
00020ab5 g     O .bss	00000001 OSPrioCur
0001893c g     F .text	000002bc altera_avalon_jtag_uart_read
0000100c g     F .text	00000030 _printf_r
0000b510 g     F .text	00000064 .hidden __udivsi3
0000dec8 g     F .text	000000a4 isatty
0001eab8 g     O .rwdata	00000002 OSStkWidth
0001c724 g     O .rodata	000000c8 __mprec_tens
0001eaac g     O .rwdata	00000002 OSPtrSize
0000616c g     F .text	0000000c __locale_charset
0001ea8c g     O .rwdata	00000002 OSEventTblSize
0001ada8 g       .text	00000000 OSCtxSw
0001bba0 g     F .text	00000090 alt_icache_flush
00020a84 g     O .bss	00000004 __malloc_top_pad
00020ab8 g     O .bss	00000004 OSTCBList
00020a8c g     O .bss	00000004 alt_fd_list_lock
0001ea48 g     O .rwdata	00000004 __mb_cur_max
0000619c g     F .text	0000000c _localeconv_r
00007450 g     F .text	0000003c __i2b
00005aac g     F .text	000004bc __sfvwrite_r
0002ef30 g     O .bss	00000c30 OSMemTbl
00020abc g     O .bss	00000001 OSTickStepState
00008780 g     F .text	00000054 _sbrk_r
0001b560 g     F .text	00000080 alt_program_intel
0001eab0 g     O .rwdata	00000002 OSQMax
0002fb60 g     O .bss	00000800 OSTaskStatStk
00012430 g     F .text	000000f0 OSMemNameGet
0001ea90 g     O .rwdata	00000002 OSFlagEn
0000a720 g     F .text	00000060 _read_r
0001ead6 g     O .rwdata	00000002 OSTimeTickHookEn
0001a2ec g     F .text	00000078 alt_dcache_flush
000132dc g     F .text	00000168 OSQPost
000120c8 g     F .text	000000a4 OS_FlagUnlink
0001ea68 g     O .rwdata	00000004 alt_max_fd
00019c88 g     F .text	00000044 alt_up_rs232_check_parity
00016d50 g     F .text	0000003c alt_read_query_entry_8bit
0001018c g     F .text	00000068 OS_MemCopy
000101f4 g     F .text	000000d0 OS_Sched
0000a304 g     F .text	000000f0 _fclose_r
00012340 g     F .text	000000f0 OSMemGet
000152d0 g     F .text	000001b4 OSTaskNameSet
00019538 g     F .text	00000030 read_num_bytes_available
0001b5e0 g     F .text	0000018c alt_erase_block_intel
000052a8 g     F .text	00000030 fflush
00020a80 g     O .bss	00000004 __malloc_max_sbrked_mem
00020ac0 g     O .bss	00000004 OSCtxSwCtr
0001b05c g     F .text	00000020 OSTimeTickHook
0001a80c g     F .text	00000180 alt_irq_register
0001ea9a g     O .rwdata	00000002 OSFlagNameSize
000194a0 g     F .text	00000034 read_RI_bit
0000fc58 g     F .text	00000100 OS_EventTaskRemoveMulti
0000b5cc g     F .text	000008ac .hidden __adddf3
0000fa50 g     F .text	00000150 OS_EventTaskWaitMulti
00007bcc g     F .text	0000010c __b2d
0001eab2 g     O .rwdata	00000002 OSQSize
0000aee0 g     F .text	00000538 .hidden __umoddi3
0000e094 g     F .text	000000d4 lseek
00013d8c g     F .text	0000020c OSSemPend
0001ea40 g     O .rwdata	00000004 _global_impure_ptr
000081a8 g     F .text	00000564 _realloc_r
0001ea9c g     O .rwdata	00000002 OSLowestPrio
00031ee4 g       *ABS*	00000000 __bss_end
0001b0dc g     F .text	00000024 OSTCBInitHook
0001eae2 g     O .rwdata	00000002 OSTmrCfgTicksPerSec
0001ac7c g     F .text	00000108 alt_tick
0000a968 g     F .text	00000578 .hidden __udivdi3
0000a56c g     F .text	00000024 _fputwc_r
0001ea84 g     O .rwdata	00000002 OSEventEn
0001c6fc g     O .rodata	00000028 __mprec_bigtens
00007234 g     F .text	00000104 __s2b
0001eade g     O .rwdata	00000002 OSTmrCfgNameSize
0000db28 g     F .text	000000a8 .hidden __floatunsidf
0000790c g     F .text	00000060 __mcmp
0001959c g     F .text	0000002c read_data_byte
00005648 g     F .text	00000018 __fp_lock_all
00011ef4 g     F .text	000000e0 OS_FlagInit
0001abe0 g     F .text	0000009c alt_alarm_stop
000194d4 g     F .text	00000030 read_RE_bit
0001eac0 g     O .rwdata	00000002 OSTaskIdleStkSize
00020afc g     O .bss	00000004 alt_irq_active
000139c4 g     F .text	000000b0 OSSemAccept
00012634 g     F .text	000000d8 OSMemPut
0001216c g     F .text	000001d4 OSMemCreate
00020ac4 g     O .bss	00000004 OSIdleCtrMax
000000fc g     F .exceptions	000000d8 alt_irq_handler
0001d458 g     O .rwdata	00000028 alt_dev_null
0001ead4 g     O .rwdata	00000002 OSTicksPerSec
00019468 g     F .text	00000038 alt_up_character_lcd_cursor_blink_on
0001726c g     F .text	0000009c alt_set_flash_algorithm_func
00026b34 g     O .bss	00000078 msgqueueTbl
0001ada8 g       .text	00000000 OSIntCtxSw
0001974c g     F .text	00000074 alt_up_ps2_write_data_byte
00000918 g     F .text	000000d8 getsem_task2
0001a364 g     F .text	00000048 alt_dcache_flush_all
00007338 g     F .text	00000068 __hi0bits
0000d9cc g     F .text	00000080 .hidden __fixdfsi
00016e0c g     F .text	00000044 alt_write_flash_command_8bit_device_8bit_mode
00020ac8 g     O .bss	00000004 OSTCBFreeList
0001eb04 g       *ABS*	00000000 __ram_rwdata_end
00013f98 g     F .text	0000016c OSSemPendAbort
08800000 g       *ABS*	00000000 __alt_mem_onchip_memory
0001ea60 g     O .rwdata	00000008 alt_dev_list
0000e4ac g     F .text	000000f8 write
00008040 g     F .text	000000a0 _putc_r
0001ead8 g     O .rwdata	00000002 OSVersionNbr
00026bac g     O .bss	00002000 getsem_task2_stk
0001cbb4 g       *ABS*	00000000 __ram_rodata_end
0000dddc g     F .text	000000b0 fstat
00000ee8 g     F .text	00000024 fprintf
00019e10 g     F .text	00000094 alt_up_rs232_write_fd
0000c8c4 g     F .text	000000f4 .hidden __ledf2
000180c0 g     F .text	000000d8 alt_check_primary_table
0001ea80 g     O .rwdata	00000004 OSEndiannessTest
00007684 g     F .text	00000140 __pow5mult
00008b00 g     F .text	0000145c ___vfiprintf_internal_r
00020a78 g     O .bss	00000004 __nlocale_changed
0000b574 g     F .text	00000058 .hidden __umodsi3
000168b0 g     F .text	00000064 alt_flash_cfi_read
00017004 g     F .text	00000038 alt_write_native_8bit
00000738 g     F .text	00000108 print_status_task
0001ea92 g     O .rwdata	00000002 OSFlagGrpSize
00031ee4 g       *ABS*	00000000 end
00019a7c g     F .text	00000098 alt_up_ps2_write_fd
00016e50 g     F .text	00000078 alt_write_flash_command_16bit_device_8bit_mode
00019ee0 g     F .text	00000080 alt_up_char_buffer_init
00017388 g     F .text	000005c8 alt_read_cfi_table
000182fc g     F .text	0000013c altera_avalon_jtag_uart_init
0001045c g     F .text	000000cc OS_TaskStat
000001d4 g     F .exceptions	00000074 alt_instruction_exception_entry
0001c0e0 g       *ABS*	00000000 __CTOR_LIST__
08000000 g       *ABS*	00000000 __alt_stack_pointer
00018f38 g     F .text	00000074 alt_avalon_timer_sc_init
0000dbd0 g     F .text	00000064 .hidden __clzsi2
00018bf8 g     F .text	000002c4 altera_avalon_jtag_uart_write
000164ec g     F .text	00000090 alt_flash_cfi_init
00005638 g     F .text	00000004 __sfp_lock_acquire
00006b94 g     F .text	000000e4 memchr
00010138 g     F .text	00000054 OS_MemClr
000190d4 g     F .text	0000007c alt_up_character_lcd_write
00001204 g     F .text	000021f8 ___vfprintf_internal_r
0001ae78 g     F .text	0000015c OSTaskStkInit
0000579c g     F .text	00000310 _free_r
00006178 g     F .text	00000010 __locale_mb_cur_max
0000f7a8 g     F .text	00000198 OS_EventTaskRdy
00003628 g     F .text	00000180 __call_exitprocs
00020acc g     O .bss	00000001 OSCPUUsage
00020a74 g     O .bss	00000004 __mlocale_changed
0001ea4c g     O .rwdata	00000004 __malloc_sbrk_base
00000248 g     F .text	0000004c _start
00020b00 g     O .bss	00000004 _alt_tick_rate
00012ee4 g     F .text	0000028c OSQPend
00015b90 g     F .text	00000104 OSTimeDly
000077c4 g     F .text	00000148 __lshift
00020b04 g     O .bss	00000004 _alt_nticks
0000e260 g     F .text	000000fc read
000160e4 g     F .text	000003d4 alt_sys_init
00019318 g     F .text	0000008c alt_up_character_lcd_shift_display
0001bfc8 g     F .text	00000118 __register_exitproc
00020acd g     O .bss	00000001 OSTaskCtr
00019998 g     F .text	00000058 alt_up_ps2_clear_fifo
00019c4c g     F .text	0000003c alt_up_rs232_get_available_space_in_write_FIFO
00016d8c g     F .text	00000040 alt_read_query_entry_16bit
00015c94 g     F .text	00000154 OSTimeDlyHMSM
0000748c g     F .text	000001f8 __multiply
000193a4 g     F .text	0000008c alt_up_character_lcd_erase_pos
000187e4 g     F .text	00000068 altera_avalon_jtag_uart_close
0001cbb4 g       *ABS*	00000000 __ram_rwdata_start
0001c0e0 g       *ABS*	00000000 __ram_rodata_start
00020b0c g     O .bss	00000028 __malloc_current_mallinfo
0001ea86 g     O .rwdata	00000002 OSEventMax
000170a8 g     F .text	000001c4 alt_set_flash_width_func
00007cd8 g     F .text	0000014c __d2b
00014104 g     F .text	00000110 OSSemPost
0000f34c g     F .text	000000dc OSSchedUnlock
000009f0 g     F .text	000000ac send_task
00018198 g     F .text	00000060 altera_avalon_jtag_uart_read_fd
0001bac4 g     F .text	000000dc alt_get_fd
00020ad0 g     O .bss	00000004 OSMemFreeList
0000f498 g     F .text	000000b0 OSStatInit
0001bd44 g     F .text	00000158 alt_busy_sleep
00011cd0 g     F .text	000000c4 OSFlagQuery
0001eabc g     O .rwdata	00000002 OSTaskCreateExtEn
0000a1ec g     F .text	00000054 _close_r
0001b168 g     F .text	00000210 alt_erase_block_amd
0001bf4c g     F .text	0000007c memcmp
0000f788 g     F .text	00000020 OS_Dummy
00018258 g     F .text	00000050 altera_avalon_jtag_uart_close_fd
00031ee4 g       *ABS*	00000000 __alt_stack_base
000182a8 g     F .text	00000054 altera_avalon_jtag_uart_ioctl_fd
00000f0c g     F .text	000000cc _fwrite_r
000034d4 g     F .text	00000154 __swsetup_r
00017950 g     F .text	00000770 alt_read_cfi_width
00030360 g     O .bss	000001e0 OSQTbl
0000be78 g     F .text	000008e8 .hidden __divdf3
000054f8 g     F .text	00000118 __sfp
00007f3c g     F .text	00000078 __copybits
0001d050 g     O .rwdata	00000408 __malloc_av_
00005644 g     F .text	00000004 __sinit_lock_release
00020ad4 g     O .bss	00000004 OSTCBHighRdy
0000c9b8 g     F .text	00000718 .hidden __muldf3
000087d4 g     F .text	00000054 __sread
00020ad8 g     O .bss	00000004 OSQFreeList
00019bac g     F .text	00000060 alt_up_rs232_disable_read_interrupt
0001b9bc g     F .text	00000108 alt_find_file
0001a3e8 g     F .text	000000a4 alt_dev_llist_insert
0000e6c8 g     F .text	00000120 __malloc_lock
00000ec0 g     F .text	00000028 _fprintf_r
0000e3c0 g     F .text	000000b0 sbrk
0000e9d4 g     F .text	00000140 OSEventNameSet
0000524c g     F .text	0000005c _fflush_r
0000a240 g     F .text	000000c4 _calloc_r
00020adc g     O .bss	00000001 OSRdyGrp
0001eaf0 g     O .rwdata	00000008 alt_flash_dev_list
00016f18 g     F .text	0000004c alt_write_flash_command_16bit_device_16bit_mode
00020a54 g       *ABS*	00000000 __bss_start
00006f1c g     F .text	00000128 memset
00000ba8 g     F .text	0000008c main
00020a98 g     O .bss	00000004 alt_envp
00020a7c g     O .bss	00000004 __malloc_max_total_mem
00019f60 g     F .text	0000003c alt_up_char_buffer_open_dev
000181f8 g     F .text	00000060 altera_avalon_jtag_uart_write_fd
0000a174 g     F .text	00000018 __swbuf
0001c928 g     O .rodata	00000100 OSUnMapTbl
00000c7c g     F .text	0000020c initCreateTasks
0001eab6 g     O .rwdata	00000002 OSSemEn
0001928c g     F .text	0000008c alt_up_character_lcd_shift_cursor
0001193c g     F .text	00000394 OSFlagPost
00008908 g     F .text	00000008 __sclose
000002e0 g     F .text	00000458 alt_ucosii_simple_error_handler
08000000 g       *ABS*	00000000 __alt_heap_limit
0000a3f4 g     F .text	00000014 fclose
0000f940 g     F .text	00000110 OS_EventTaskWait
00019928 g     F .text	00000070 alt_up_ps2_read_data_byte
00010528 g     F .text	000000cc OS_TaskStatStkChk
00014fe8 g     F .text	00000150 OSTaskDelReq
000039a8 g     F .text	00001688 _dtoa_r
00006388 g     F .text	0000080c _malloc_r
0000a8dc g     F .text	00000030 __ascii_wctomb
0001ea6c g     O .rwdata	00000004 alt_errno
0000f428 g     F .text	00000070 OSStart
00016fb4 g     F .text	00000050 alt_write_flash_command_32bit_device_32bit_mode
0000e668 g     F .text	00000060 __env_unlock
00005f68 g     F .text	000000c4 _fwalk
00015484 g     F .text	000001d4 OSTaskResume
0001270c g     F .text	000000e8 OSMemQuery
0001eac8 g     O .rwdata	00000002 OSTaskStatEn
00020a58 g     O .bss	00000004 number_of_messages_received_task1
00016914 g     F .text	0000015c alt_write_value_to_flash
0001eaa2 g     O .rwdata	00000002 OSMemMax
00013444 g     F .text	00000170 OSQPostFront
00019b14 g     F .text	0000003c alt_up_ps2_open_dev
0001703c g     F .text	00000038 alt_write_native_16bit
000080e0 g     F .text	000000c8 putc
0000b418 g     F .text	00000084 .hidden __divsi3
00020add g     O .bss	00000003 OSRdyTbl
0001ea7c g     O .rwdata	00000002 OSDebugEn
00019098 g     F .text	0000003c alt_up_character_lcd_open_dev
00005678 g     F .text	00000124 _malloc_trim_r
00019690 g     F .text	0000005c alt_up_ps2_enable_read_interrupt
0001c0e0 g       *ABS*	00000000 __CTOR_END__
0001ea94 g     O .rwdata	00000002 OSFlagNodeSize
0001eadc g     O .rwdata	00000002 OSTmrCfgMax
00019060 g     F .text	00000038 alt_up_character_lcd_init
00008910 g     F .text	000000dc strcmp
00012a00 g     F .text	000001ac OSQCreate
00015138 g     F .text	00000198 OSTaskNameGet
0001c0e0 g       *ABS*	00000000 __flash_rodata_start
000135b4 g     F .text	0000020c OSQPostOpt
0000f548 g     F .text	00000220 OSTimeTick
0001eac4 g     O .rwdata	00000002 OSTaskMax
0001c0e0 g       *ABS*	00000000 __DTOR_LIST__
00013a74 g     F .text	000000d8 OSSemCreate
0001eae8 g     O .rwdata	00000002 OSTmrWheelSize
00019ea4 g     F .text	0000003c alt_up_rs232_open_dev
0000c760 g     F .text	00000088 .hidden __nedf2
0001eabe g     O .rwdata	00000002 OSTaskDelEn
00028bac g     O .bss	00000014 sem_owner_task_name
00014214 g     F .text	00000110 OSSemQuery
00012bac g     F .text	00000280 OSQDel
00013170 g     F .text	0000016c OSQPendAbort
000160ac g     F .text	00000038 alt_irq_init
0000e35c g     F .text	00000064 alt_release_fd
00019568 g     F .text	00000034 read_data_valid
00019430 g     F .text	00000038 alt_up_character_lcd_cursor_off
0001c80c g     O .rodata	00000100 .hidden __clz_tab
00020a70 g     O .bss	00000004 _PathLocale
00019828 g     F .text	00000064 alt_up_ps2_write_data_byte_with_ack
0001bf38 g     F .text	00000014 atexit
00000b04 g     F .text	00000068 receive_task2
0000a18c g     F .text	00000060 _write_r
0000f2c0 g     F .text	0000008c OSSchedLock
000061a8 g     F .text	00000018 setlocale
00010d60 g     F .text	00000108 OSFlagCreate
0001ea44 g     O .rwdata	00000004 _impure_ptr
00020a90 g     O .bss	00000004 alt_argc
00005030 g     F .text	0000021c __sflush_r
0001a4ec g     F .text	00000060 _do_dtors
00006194 g     F .text	00000008 __locale_cjk_lang
0001ea8e g     O .rwdata	00000002 OSEventMultiEn
00010e68 g     F .text	00000248 OSFlagDel
00020ae0 g     O .bss	00000004 OSEventFreeList
00000020 g       .exceptions	00000000 alt_irq_entry
00007b68 g     F .text	00000064 __ulp
00011324 g     F .text	000005b8 OSFlagPend
0001eada g     O .rwdata	00000002 OSTmrEn
00005660 g     F .text	00000018 __fp_unlock_all
00020a64 g     O .bss	00000004 getsem_task2_got_sem
0001ea58 g     O .rwdata	00000008 alt_fs_list
00000294 g     F .text	0000004c alt_ucosii_check_return_code
00010338 g     F .text	00000074 OS_StrCopy
00019b50 g     F .text	0000005c alt_up_rs232_enable_read_interrupt
00016ec8 g     F .text	00000050 alt_write_flash_command_32bit_device_8bit_mode
00019ccc g     F .text	00000040 alt_up_rs232_write_data
0001eaa4 g     O .rwdata	00000002 OSMemNameSize
0001b09c g     F .text	00000020 OSInitHookEnd
00000020 g       *ABS*	00000000 __ram_exceptions_start
0001ead0 g     O .rwdata	00000002 OSTCBPrioTblMax
000061c0 g     F .text	0000000c localeconv
00020a6c g     O .bss	00000004 shared_resource_sem
0001eacc g     O .rwdata	00000002 OSTaskStatStkChkEn
0001eaa0 g     O .rwdata	00000002 OSMemEn
00000fd8 g     F .text	00000034 fwrite
0001eaaa g     O .rwdata	00000002 OSMutexEn
0001eb04 g       *ABS*	00000000 _edata
00031ee4 g       *ABS*	00000000 _end
0001a5dc g     F .text	00000068 alt_flash_open_dev
00020ae4 g     O .bss	00000001 OSIntNesting
0000a408 g     F .text	00000164 __fputwc
00000248 g       *ABS*	00000000 __ram_exceptions_end
0001884c g     F .text	000000f0 altera_avalon_jtag_uart_ioctl
00015de8 g     F .text	000001d4 OSTimeDlyResume
000111d8 g     F .text	0000014c OSFlagNameSet
00015658 g     F .text	000001c0 OSTaskStkChk
0001eaa6 g     O .rwdata	00000002 OSMemSize
00008830 g     F .text	0000007c __swrite
0001ea50 g     O .rwdata	00000004 __malloc_trim_threshold
00006188 g     F .text	0000000c __locale_msgcharset
00020ae8 g     O .bss	00000004 OSTCBCur
00000e88 g     F .text	00000038 exit
0001eaa8 g     O .rwdata	00000002 OSMemTblSize
0000602c g     F .text	000000c4 _fwalk_reent
000195c8 g     F .text	000000c8 alt_up_ps2_init
0000796c g     F .text	000001fc __mdiff
0001a644 g     F .text	00000054 alt_flash_close_dev
0000b49c g     F .text	00000074 .hidden __modsi3
08000000 g       *ABS*	00000000 __alt_data_end
00000020 g     F .exceptions	00000000 alt_exception
0000563c g     F .text	00000004 __sfp_lock_release
0000f124 g     F .text	00000058 OSInit
00000000 g       *ABS*	00000000 __alt_mem_sdram
000159fc g     F .text	00000124 OSTaskQuery
00019150 g     F .text	00000078 alt_up_character_lcd_string
0001391c g     F .text	000000a8 OS_QInit
000103ac g     F .text	00000054 OS_StrLen
00012520 g     F .text	00000114 OSMemNameSet
0001eac2 g     O .rwdata	00000002 OSTaskProfileEn
00020aec g     O .bss	00000004 OSTime
00028bc0 g     O .bss	00002000 initialize_task_stk
00030540 g     O .bss	00000800 OSTaskIdleStk
0000dd6c g     F .text	00000034 _exit
0001a1c0 g     F .text	0000012c alt_alarm_start
000110b0 g     F .text	00000128 OSFlagNameGet
0002abc0 g     O .bss	00002000 receive_task2_stk
00015fbc g     F .text	0000005c OSTimeGet
000061cc g     F .text	000001bc __smakebuf_r
00017074 g     F .text	00000034 alt_write_native_32bit
000197c0 g     F .text	00000068 alt_up_ps2_wait_for_ack
0000116c g     F .text	00000098 strlen
0001b01c g     F .text	00000020 OSTaskSwHook
0001aa8c g     F .text	00000154 open
00030d40 g     O .bss	00000b40 OSEventTbl
0000c7e8 g     F .text	000000dc .hidden __gedf2
00031880 g     O .bss	00000510 OSTCBTbl
00014324 g     F .text	00000100 OSSemSet
00016824 g     F .text	0000008c alt_flash_cfi_get_info
0001ea54 g     O .rwdata	00000004 __wctomb
00008ae8 g     F .text	00000018 __sprint_r
0001a698 g     F .text	00000034 alt_icache_flush_all
00019218 g     F .text	00000074 alt_up_character_lcd_set_cursor_pos
0001eaf8 g     O .rwdata	00000004 alt_priority_mask
00013b4c g     F .text	00000240 OSSemDel
00020af0 g     O .bss	00000004 OSFlagFreeList
0001ea88 g     O .rwdata	00000002 OSEventNameSize
000033fc g     F .text	0000001c __vfprintf_internal
00020af4 g     O .bss	00000001 OSStatRdy
00031d90 g     O .bss	00000054 OSTCBPrioTbl
0000a90c g     F .text	0000005c _wctomb_r
0000e5a4 g     F .text	000000c4 __env_lock
000199f0 g     F .text	0000008c alt_up_ps2_read_fd
0001eace g     O .rwdata	00000002 OSTaskSwHookEn
0000d0d0 g     F .text	000008fc .hidden __subdf3
00000c34 g     F .text	00000048 initOSDataStructs
000073a0 g     F .text	000000b0 __lo0bits
0001eafc g     O .rwdata	00000008 alt_alarm_list
0001ea96 g     O .rwdata	00000002 OSFlagWidth
0001a48c g     F .text	00000060 _do_ctors
00019c0c g     F .text	00000040 alt_up_rs232_get_used_space_in_read_FIFO
0000a81c g     F .text	000000c0 wcrtomb
0000dc70 g     F .text	000000d0 close
00000a9c g     F .text	00000068 receive_task1
0001b100 g     F .text	00000068 alt_program_amd
0002cbc0 g     O .bss	00002000 receive_task1_stk
00020aa0 g     O .bss	00000004 alt_envsem
00020af8 g     O .bss	00000004 OSIdleCtrRun
0000f768 g     F .text	00000020 OSVersion
0001eae0 g     O .rwdata	00000002 OSTmrCfgWheelSize
0000dfd4 g     F .text	00000084 alt_load
00015b20 g     F .text	00000070 OS_TaskStkClr
0001eaba g     O .rwdata	00000002 OSTaskCreateEn
00000840 g     F .text	000000d8 getsem_task1
0000fd58 g     F .text	00000068 OS_EventWaitListInit
0000a590 g     F .text	00000080 fputwc
0001b0bc g     F .text	00000020 OSTaskIdleHook
00005640 g     F .text	00000004 __sinit_lock_acquire
00007114 g     F .text	00000120 __multadd
00015818 g     F .text	000001e4 OSTaskSuspend
000070ec g     F .text	00000028 _Bfree
00010400 g     F .text	0000005c OS_TaskIdle
0001eae6 g     O .rwdata	00000002 OSTmrTblSize
000137c0 g     F .text	0000015c OSQQuery



Disassembly of section .entry:

00000000 <__reset>:
#if NIOS2_ICACHE_SIZE > 0 && defined(ALT_ALLOW_CODE_AT_RESET) && (!defined(ALT_SIM_OPTIMIZE) || defined(NIOS2_ECC_PRESENT))
    /* Assume the instruction cache size is always a power of two. */
#if NIOS2_ICACHE_SIZE > 0x8000
    movhi r2, %hi(NIOS2_ICACHE_SIZE)
#else
    movui r2, NIOS2_ICACHE_SIZE
   0:	00840014 	movui	r2,4096
#endif

0:
    initi r2
   4:	1001483a 	initi	r2
    addi r2, r2, -NIOS2_ICACHE_LINE_SIZE
   8:	10bff804 	addi	r2,r2,-32
    bgt r2, zero, 0b
   c:	00bffd16 	blt	zero,r2,4 <__alt_mem_onchip_memory+0xf7800004>
 * Jump to the _start entry point in the .text section if reset code
 * is allowed or if optimizing for RTL simulation.
 */
#if defined(ALT_ALLOW_CODE_AT_RESET) || defined(ALT_SIM_OPTIMIZE)
    /* Jump to the _start entry point in the .text section. */
    movhi r1, %hi(_start)
  10:	00400034 	movhi	at,0
    ori r1, r1, %lo(_start)
  14:	08409214 	ori	at,at,584
    jmp r1
  18:	0800683a 	jmp	at
  1c:	00000000 	call	0 <__reset>

Disassembly of section .exceptions:

00000020 <alt_exception>:

#else /* ALT_EXCEPTION_STACK disabled */
        /* 
         * Reserve space on normal stack for registers about to be pushed.
         */
        addi  sp, sp, -76
  20:	deffed04 	addi	sp,sp,-76
         * documentation for details).
         *
         * Leave a gap in the stack frame at 4(sp) for the muldiv handler to
         * store zero into.
         */
        stw   ra,  0(sp)
  24:	dfc00015 	stw	ra,0(sp)
        stw   r1,   8(sp)
  28:	d8400215 	stw	at,8(sp)
        stw   r2,  12(sp)
  2c:	d8800315 	stw	r2,12(sp)
        stw   r3,  16(sp)
  30:	d8c00415 	stw	r3,16(sp)
        stw   r4,  20(sp)
  34:	d9000515 	stw	r4,20(sp)
        stw   r5,  24(sp)
  38:	d9400615 	stw	r5,24(sp)
        stw   r6,  28(sp)
  3c:	d9800715 	stw	r6,28(sp)
        stw   r7,  32(sp)
  40:	d9c00815 	stw	r7,32(sp)
        rdctl r5, estatus   /* Read early to avoid usage stall */
  44:	000b307a 	rdctl	r5,estatus
        stw   r8,  36(sp)
  48:	da000915 	stw	r8,36(sp)
        stw   r9,  40(sp)
  4c:	da400a15 	stw	r9,40(sp)
        stw   r10, 44(sp)
  50:	da800b15 	stw	r10,44(sp)
        stw   r11, 48(sp)
  54:	dac00c15 	stw	r11,48(sp)
        stw   r12, 52(sp)
  58:	db000d15 	stw	r12,52(sp)
        stw   r13, 56(sp)
  5c:	db400e15 	stw	r13,56(sp)
        stw   r14, 60(sp)
  60:	db800f15 	stw	r14,60(sp)
        stw   r15, 64(sp)
  64:	dbc01015 	stw	r15,64(sp)
        /*
         * ea-4 contains the address of the instruction being executed
         * when the exception occured. For interrupt exceptions, we will
         * will be re-issue the isntruction. Store it in 72(sp)
         */
        stw   r5,  68(sp)  /* estatus */
  68:	d9401115 	stw	r5,68(sp)
        addi  r15, ea, -4  /* instruction that caused exception */
  6c:	ebffff04 	addi	r15,ea,-4
        stw   r15,  72(sp)
  70:	dbc01215 	stw	r15,72(sp)
#else
        /*
         * Test to see if the exception was a software exception or caused 
         * by an external interrupt, and vector accordingly.
         */
        rdctl r4, ipending
  74:	0009313a 	rdctl	r4,ipending
        andi  r2, r5, 1
  78:	2880004c 	andi	r2,r5,1
        beq   r2, zero, .Lnot_irq
  7c:	10000326 	beq	r2,zero,8c <OSCtxSw_SWITCH_PC+0x4c>
        beq   r4, zero, .Lnot_irq
  80:	20000226 	beq	r4,zero,8c <OSCtxSw_SWITCH_PC+0x4c>
        /*
         * Now that all necessary registers have been preserved, call 
         * alt_irq_handler() to process the interrupts.
         */

        call alt_irq_handler
  84:	00000fc0 	call	fc <alt_irq_handler>

        .section .exceptions.irqreturn, "xa"

        br    .Lexception_exit
  88:	00000706 	br	a8 <OSCtxSw_SWITCH_PC+0x68>
         * upon completion, so we write ea (address of instruction *after*
         * the one where the exception occured) into 72(sp). The actual
         * instruction that caused the exception is written in r2, which these
         * handlers will utilize.
         */
        stw ea, 72(sp) /* EA is PC+4 so will skip over instruction causing exception */
  8c:	df401215 	stw	ea,72(sp)
.Lunknown_16bit:
        addi.n r4, r4, 2 /* Need PC+2 to skip over instruction causing exception */
        stw r4, 72(sp)

#else /* CDX is not Enabled and all instructions are 32bits */
        ldw r2, -4(ea) /* Instruction value that caused exception */
  90:	e8bfff17 	ldw	r2,-4(ea)
         * debugger is present) or go into an infinite loop since the
         * handling behavior is undefined; in that case we will not return here.
         */

        /* Load exception-causing address as first argument (r4) */
        addi   r4, ea, -4
  94:	e93fff04 	addi	r4,ea,-4

        /* Call the instruction-exception entry */
        call   alt_instruction_exception_entry
  98:	00001d40 	call	1d4 <alt_instruction_exception_entry>
         * instruction
         *
         * Return code was 0: Skip. The instruction after the exception is
         * already stored in 72(sp).
         */
        bne   r2, r0, .Lexception_exit
  9c:	1000021e 	bne	r2,zero,a8 <OSCtxSw_SWITCH_PC+0x68>

        /*
         * Otherwise, modify 72(sp) to re-issue the instruction that caused the
         * exception.
         */
        addi  r15, ea, -4  /* instruction that caused exception */
  a0:	ebffff04 	addi	r15,ea,-4
        stw   r15,  72(sp)
  a4:	dbc01215 	stw	r15,72(sp)
        /* 
         * Restore the saved registers, so that all general purpose registers 
         * have been restored to their state at the time the interrupt occured.
         */

        ldw   r5,  68(sp)
  a8:	d9401117 	ldw	r5,68(sp)
        ldw   ea,  72(sp)  /* This becomes the PC once eret is executed */
  ac:	df401217 	ldw	ea,72(sp)
        ldw   ra,   0(sp)
  b0:	dfc00017 	ldw	ra,0(sp)

        wrctl estatus, r5
  b4:	2801707a 	wrctl	estatus,r5

        ldw   r1,   8(sp)
  b8:	d8400217 	ldw	at,8(sp)
        ldw   r2,  12(sp)
  bc:	d8800317 	ldw	r2,12(sp)
        ldw   r3,  16(sp)
  c0:	d8c00417 	ldw	r3,16(sp)
        ldw   r4,  20(sp)
  c4:	d9000517 	ldw	r4,20(sp)
        ldw   r5,  24(sp)
  c8:	d9400617 	ldw	r5,24(sp)
        ldw   r6,  28(sp)
  cc:	d9800717 	ldw	r6,28(sp)
        ldw   r7,  32(sp)
  d0:	d9c00817 	ldw	r7,32(sp)

#if defined(ALT_EXCEPTION_STACK) && defined(ALT_STACK_CHECK)
        ldw   et, %gprel(alt_exception_old_stack_limit)(gp)
#endif

        ldw   r8,  36(sp)
  d4:	da000917 	ldw	r8,36(sp)
        ldw   r9,  40(sp)
  d8:	da400a17 	ldw	r9,40(sp)
        ldw   r10, 44(sp)
  dc:	da800b17 	ldw	r10,44(sp)
        ldw   r11, 48(sp)
  e0:	dac00c17 	ldw	r11,48(sp)
        ldw   r12, 52(sp)
  e4:	db000d17 	ldw	r12,52(sp)
        ldw   r13, 56(sp)
  e8:	db400e17 	ldw	r13,56(sp)
        ldw   r14, 60(sp)
  ec:	db800f17 	ldw	r14,60(sp)
        ldw   r15, 64(sp)
  f0:	dbc01017 	ldw	r15,64(sp)
        stw   et, %gprel(alt_stack_limit_value)(gp)
        stw   zero, %gprel(alt_exception_old_stack_limit)(gp)
#endif /* ALT_STACK_CHECK */
        ldw   sp,  76(sp)
#else /* ALT_EXCEPTION_STACK disabled */
        addi  sp, sp, 76
  f4:	dec01304 	addi	sp,sp,76

        /*
         * Return to the interrupted instruction.
         */

        eret
  f8:	ef80083a 	eret

000000fc <alt_irq_handler>:
 * instruction is present if the macro ALT_CI_INTERRUPT_VECTOR defined.
 */

void alt_irq_handler (void) __attribute__ ((section (".exceptions")));
void alt_irq_handler (void)
{
  fc:	defff904 	addi	sp,sp,-28
 100:	dfc00615 	stw	ra,24(sp)
 104:	df000515 	stw	fp,20(sp)
 108:	df000504 	addi	fp,sp,20
  
  /*
   * Notify the operating system that we are at interrupt level.
   */ 
  
  ALT_OS_INT_ENTER();
 10c:	000f17c0 	call	f17c <OSIntEnter>
#ifndef NIOS2_EIC_PRESENT
static ALT_INLINE alt_u32 ALT_ALWAYS_INLINE alt_irq_pending (void)
{
  alt_u32 active;

  NIOS2_READ_IPENDING (active);
 110:	0005313a 	rdctl	r2,ipending
 114:	e0bffe15 	stw	r2,-8(fp)

  return active;
 118:	e0bffe17 	ldw	r2,-8(fp)
   * Consider the case where the high priority interupt is asserted during
   * the interrupt entry sequence for a lower priority interrupt to see why
   * this is the case.
   */

  active = alt_irq_pending ();
 11c:	e0bffb15 	stw	r2,-20(fp)

  do
  {
    i = 0;
 120:	e03ffd15 	stw	zero,-12(fp)
    mask = 1;
 124:	00800044 	movi	r2,1
 128:	e0bffc15 	stw	r2,-16(fp)
     * called to clear the interrupt condition.
     */

    do
    {
      if (active & mask)
 12c:	e0fffb17 	ldw	r3,-20(fp)
 130:	e0bffc17 	ldw	r2,-16(fp)
 134:	1884703a 	and	r2,r3,r2
 138:	10001526 	beq	r2,zero,190 <alt_irq_handler+0x94>
      { 
#ifdef ALT_ENHANCED_INTERRUPT_API_PRESENT
        alt_irq[i].handler(alt_irq[i].context); 
#else
        alt_irq[i].handler(alt_irq[i].context, i); 
 13c:	008000f4 	movhi	r2,3
 140:	10877904 	addi	r2,r2,7652
 144:	e0fffd17 	ldw	r3,-12(fp)
 148:	180690fa 	slli	r3,r3,3
 14c:	10c5883a 	add	r2,r2,r3
 150:	10c00017 	ldw	r3,0(r2)
 154:	008000f4 	movhi	r2,3
 158:	10877904 	addi	r2,r2,7652
 15c:	e13ffd17 	ldw	r4,-12(fp)
 160:	200890fa 	slli	r4,r4,3
 164:	1105883a 	add	r2,r2,r4
 168:	10800104 	addi	r2,r2,4
 16c:	10800017 	ldw	r2,0(r2)
 170:	e17ffd17 	ldw	r5,-12(fp)
 174:	1009883a 	mov	r4,r2
 178:	183ee83a 	callr	r3
#endif
        break;
 17c:	0001883a 	nop
#ifndef NIOS2_EIC_PRESENT
static ALT_INLINE alt_u32 ALT_ALWAYS_INLINE alt_irq_pending (void)
{
  alt_u32 active;

  NIOS2_READ_IPENDING (active);
 180:	0005313a 	rdctl	r2,ipending
 184:	e0bfff15 	stw	r2,-4(fp)

  return active;
 188:	e0bfff17 	ldw	r2,-4(fp)
 18c:	00000706 	br	1ac <alt_irq_handler+0xb0>
      }
      mask <<= 1;
 190:	e0bffc17 	ldw	r2,-16(fp)
 194:	1085883a 	add	r2,r2,r2
 198:	e0bffc15 	stw	r2,-16(fp)
      i++;
 19c:	e0bffd17 	ldw	r2,-12(fp)
 1a0:	10800044 	addi	r2,r2,1
 1a4:	e0bffd15 	stw	r2,-12(fp)

    } while (1);
 1a8:	003fe006 	br	12c <__alt_mem_onchip_memory+0xf780012c>

    active = alt_irq_pending ();
 1ac:	e0bffb15 	stw	r2,-20(fp)
    
  } while (active);
 1b0:	e0bffb17 	ldw	r2,-20(fp)
 1b4:	103fda1e 	bne	r2,zero,120 <__alt_mem_onchip_memory+0xf7800120>

  /*
   * Notify the operating system that interrupt processing is complete.
   */ 

  ALT_OS_INT_EXIT();
 1b8:	000f1c80 	call	f1c8 <OSIntExit>
}
 1bc:	0001883a 	nop
 1c0:	e037883a 	mov	sp,fp
 1c4:	dfc00117 	ldw	ra,4(sp)
 1c8:	df000017 	ldw	fp,0(sp)
 1cc:	dec00204 	addi	sp,sp,8
 1d0:	f800283a 	ret

000001d4 <alt_instruction_exception_entry>:
 * that handler if it has been registered. Absent a handler, it will
 * break break or hang as discussed below.
 */
int 
alt_instruction_exception_entry (alt_u32 exception_pc)
{
 1d4:	defffb04 	addi	sp,sp,-20
 1d8:	dfc00415 	stw	ra,16(sp)
 1dc:	df000315 	stw	fp,12(sp)
 1e0:	df000304 	addi	fp,sp,12
 1e4:	e13fff15 	stw	r4,-4(fp)
 * NIOS2_EXCEPTION_CAUSE_NOT_PRESENT. Your handling routine should
 * check the validity of the cause argument before proceeding.
 */
#ifdef NIOS2_HAS_EXTRA_EXCEPTION_INFO
  /* Get exception cause & "badaddr" */
  NIOS2_READ_EXCEPTION(cause);
 1e8:	000531fa 	rdctl	r2,exception
 1ec:	e0bffd15 	stw	r2,-12(fp)
  cause = ( (cause & NIOS2_EXCEPTION_REG_CAUSE_MASK) >>
 1f0:	e0bffd17 	ldw	r2,-12(fp)
 1f4:	10801f0c 	andi	r2,r2,124
 1f8:	1004d0ba 	srli	r2,r2,2
 1fc:	e0bffd15 	stw	r2,-12(fp)
              NIOS2_EXCEPTION_REG_CAUSE_OFST );

  NIOS2_READ_BADADDR(badaddr);
 200:	0005333a 	rdctl	r2,badaddr
 204:	e0bffe15 	stw	r2,-8(fp)
#else
  cause = NIOS2_EXCEPTION_CAUSE_NOT_PRESENT;
  badaddr = 0;
#endif /* NIOS2_HAS_EXTRA_EXCEPTION_INFO */

  if(alt_instruction_exception_handler) {
 208:	d0a83217 	ldw	r2,-24376(gp)
 20c:	10000726 	beq	r2,zero,22c <alt_instruction_exception_entry+0x58>
     * Call handler. Its return value indicates whether the exception-causing
     * instruction should be re-issued. The code that called us,
     * alt_eceptions_entry.S, will look at this value and adjust the ea
     * register as necessary
     */
    return alt_instruction_exception_handler(cause, exception_pc, badaddr);
 210:	d0a83217 	ldw	r2,-24376(gp)
 214:	e0fffd17 	ldw	r3,-12(fp)
 218:	e1bffe17 	ldw	r6,-8(fp)
 21c:	e17fff17 	ldw	r5,-4(fp)
 220:	1809883a 	mov	r4,r3
 224:	103ee83a 	callr	r2
 228:	00000206 	br	234 <alt_instruction_exception_entry+0x60>
   *    (a peripheral which negates its interrupt output before its
   *    interrupt handler has been executed will cause spurious interrupts)
   */
  else {
#ifdef NIOS2_HAS_DEBUG_STUB
    NIOS2_BREAK();
 22c:	003da03a 	break	0
      ;
#endif /* NIOS2_HAS_DEBUG_STUB */
  }

  /* We should not get here. Remove compiler warning. */
  return NIOS2_EXCEPTION_RETURN_REISSUE_INST;
 230:	0005883a 	mov	r2,zero
}
 234:	e037883a 	mov	sp,fp
 238:	dfc00117 	ldw	ra,4(sp)
 23c:	df000017 	ldw	fp,0(sp)
 240:	dec00204 	addi	sp,sp,8
 244:	f800283a 	ret

Disassembly of section .text:

00000248 <_start>:

    /* Assume the data cache size is always a power of two. */
#if NIOS2_DCACHE_SIZE > 0x8000
    movhi r2, %hi(NIOS2_DCACHE_SIZE)
#else
    movui r2, NIOS2_DCACHE_SIZE
     248:	00820014 	movui	r2,2048
#endif

0:
    initd 0(r2)
     24c:	10000033 	initd	0(r2)
#ifdef NIOS2_ECC_PRESENT
    addi r2, r2, -4
#else
    addi r2, r2, -NIOS2_DCACHE_LINE_SIZE
     250:	10bff804 	addi	r2,r2,-32
#endif
    bgt r2, zero, 0b
     254:	00bffd16 	blt	zero,r2,24c <__alt_mem_onchip_memory+0xf780024c>

    /*
     * Now that the caches are initialized, set up the stack pointer and global pointer.
     * The values provided by the linker are assumed to be correctly aligned.
     */
    movhi sp, %hi(__alt_stack_pointer)
     258:	06c20034 	movhi	sp,2048
    ori sp, sp, %lo(__alt_stack_pointer)
     25c:	dec00014 	ori	sp,sp,0
    movhi gp, %hi(_gp)
     260:	068000b4 	movhi	gp,2
    ori gp, gp, %lo(_gp)
     264:	d69a9014 	ori	gp,gp,27200
 */
#ifndef ALT_SIM_OPTIMIZE
    /* Log that the BSS is about to be cleared. */
    ALT_LOG_PUTS(alt_log_msg_bss)

    movhi r2, %hi(__bss_start)
     268:	008000b4 	movhi	r2,2
    ori r2, r2, %lo(__bss_start)
     26c:	10829514 	ori	r2,r2,2644

    movhi r3, %hi(__bss_end)
     270:	00c000f4 	movhi	r3,3
    ori r3, r3, %lo(__bss_end)
     274:	18c7b914 	ori	r3,r3,7908

    beq r2, r3, 1f
     278:	10c00326 	beq	r2,r3,288 <_start+0x40>

0:
    stw zero, (r2)
     27c:	10000015 	stw	zero,0(r2)
    addi r2, r2, 4
     280:	10800104 	addi	r2,r2,4
    bltu r2, r3, 0b
     284:	10fffd36 	bltu	r2,r3,27c <__alt_mem_onchip_memory+0xf780027c>
     * section aren't defined until alt_load() has been called).
     */
    mov   et, zero
#endif

    call alt_load
     288:	000dfd40 	call	dfd4 <alt_load>

    /* Log that alt_main is about to be called. */
    ALT_LOG_PUTS(alt_log_msg_alt_main)

    /* Call the C entry point. It should never return. */
    call alt_main
     28c:	000e1680 	call	e168 <alt_main>

00000290 <alt_after_alt_main>:

    /* Wait in infinite loop in case alt_main does return. */
alt_after_alt_main:
    br alt_after_alt_main
     290:	003fff06 	br	290 <__alt_mem_onchip_memory+0xf7800290>

00000294 <alt_ucosii_check_return_code>:
 */
 

 
void alt_ucosii_check_return_code(INT8U return_code)
{
     294:	defffd04 	addi	sp,sp,-12
     298:	dfc00215 	stw	ra,8(sp)
     29c:	df000115 	stw	fp,4(sp)
     2a0:	df000104 	addi	fp,sp,4
     2a4:	2005883a 	mov	r2,r4
     2a8:	e0bfff05 	stb	r2,-4(fp)
  if(return_code != OS_NO_ERR)
     2ac:	e0bfff03 	ldbu	r2,-4(fp)
     2b0:	10000526 	beq	r2,zero,2c8 <alt_ucosii_check_return_code+0x34>
  {
    OSSchedLock();  /* Disable Task Switching but still service other IRQs to avoid mismatch errors*/
     2b4:	000f2c00 	call	f2c0 <OSSchedLock>
    alt_ucosii_simple_error_handler(return_code);
     2b8:	e0bfff03 	ldbu	r2,-4(fp)
     2bc:	1009883a 	mov	r4,r2
     2c0:	00002e00 	call	2e0 <alt_ucosii_simple_error_handler>
    OSSchedUnlock(); /* Enable Task Switching */
     2c4:	000f34c0 	call	f34c <OSSchedUnlock>
  }
}
     2c8:	0001883a 	nop
     2cc:	e037883a 	mov	sp,fp
     2d0:	dfc00117 	ldw	ra,4(sp)
     2d4:	df000017 	ldw	fp,0(sp)
     2d8:	dec00204 	addi	sp,sp,8
     2dc:	f800283a 	ret

000002e0 <alt_ucosii_simple_error_handler>:
 * controls the flow that is taken from different errors occurring at different 
 * locations in the application code.
 */

void alt_ucosii_simple_error_handler(INT8U return_code)
{
     2e0:	defffd04 	addi	sp,sp,-12
     2e4:	dfc00215 	stw	ra,8(sp)
     2e8:	df000115 	stw	fp,4(sp)
     2ec:	df000104 	addi	fp,sp,4
     2f0:	2005883a 	mov	r2,r4
     2f4:	e0bfff05 	stb	r2,-4(fp)
  printf("[Program Error]: See STDERR\n");
     2f8:	010000b4 	movhi	r4,2
     2fc:	21303804 	addi	r4,r4,-16160
     300:	00011580 	call	1158 <puts>
  switch (return_code) {
     304:	e0bfff03 	ldbu	r2,-4(fp)
     308:	10c01968 	cmpgeui	r3,r2,101
     30c:	1800f71e 	bne	r3,zero,6ec <alt_ucosii_simple_error_handler+0x40c>
     310:	100690ba 	slli	r3,r2,2
     314:	00800034 	movhi	r2,0
     318:	1080ca04 	addi	r2,r2,808
     31c:	1885883a 	add	r2,r3,r2
     320:	10800017 	ldw	r2,0(r2)
     324:	1000683a 	jmp	r2
     328:	000006ec 	andhi	zero,zero,27
     32c:	00000584 	movi	zero,22
     330:	00000614 	movui	zero,24
     334:	000005cc 	andi	zero,zero,23
     338:	000005a8 	cmpgeui	zero,zero,22
     33c:	000006ec 	andhi	zero,zero,27
     340:	000006ec 	andhi	zero,zero,27
     344:	000006ec 	andhi	zero,zero,27
     348:	000006ec 	andhi	zero,zero,27
     34c:	000006ec 	andhi	zero,zero,27
     350:	000005f0 	cmpltui	zero,zero,23
     354:	000006ec 	andhi	zero,zero,27
     358:	000006ec 	andhi	zero,zero,27
     35c:	000006ec 	andhi	zero,zero,27
     360:	000006ec 	andhi	zero,zero,27
     364:	000006ec 	andhi	zero,zero,27
     368:	000006ec 	andhi	zero,zero,27
     36c:	000006ec 	andhi	zero,zero,27
     370:	000006ec 	andhi	zero,zero,27
     374:	000006ec 	andhi	zero,zero,27
     378:	00000560 	cmpeqi	zero,zero,21
     37c:	000006ec 	andhi	zero,zero,27
     380:	000006ec 	andhi	zero,zero,27
     384:	000006ec 	andhi	zero,zero,27
     388:	000006ec 	andhi	zero,zero,27
     38c:	000006ec 	andhi	zero,zero,27
     390:	000006ec 	andhi	zero,zero,27
     394:	000006ec 	andhi	zero,zero,27
     398:	000006ec 	andhi	zero,zero,27
     39c:	000006ec 	andhi	zero,zero,27
     3a0:	000006a4 	muli	zero,zero,26
     3a4:	000006ec 	andhi	zero,zero,27
     3a8:	000006ec 	andhi	zero,zero,27
     3ac:	000006ec 	andhi	zero,zero,27
     3b0:	000006ec 	andhi	zero,zero,27
     3b4:	000006ec 	andhi	zero,zero,27
     3b8:	000006ec 	andhi	zero,zero,27
     3bc:	000006ec 	andhi	zero,zero,27
     3c0:	000006ec 	andhi	zero,zero,27
     3c4:	000006ec 	andhi	zero,zero,27
     3c8:	000004bc 	xorhi	zero,zero,18
     3cc:	000006ec 	andhi	zero,zero,27
     3d0:	000004e0 	cmpeqi	zero,zero,19
     3d4:	000006ec 	andhi	zero,zero,27
     3d8:	000006ec 	andhi	zero,zero,27
     3dc:	000006ec 	andhi	zero,zero,27
     3e0:	000006ec 	andhi	zero,zero,27
     3e4:	000006ec 	andhi	zero,zero,27
     3e8:	000006ec 	andhi	zero,zero,27
     3ec:	000006ec 	andhi	zero,zero,27
     3f0:	000006ec 	andhi	zero,zero,27
     3f4:	000006ec 	andhi	zero,zero,27
     3f8:	000006ec 	andhi	zero,zero,27
     3fc:	000006ec 	andhi	zero,zero,27
     400:	000006ec 	andhi	zero,zero,27
     404:	000006ec 	andhi	zero,zero,27
     408:	000006ec 	andhi	zero,zero,27
     40c:	000006ec 	andhi	zero,zero,27
     410:	000006ec 	andhi	zero,zero,27
     414:	000006ec 	andhi	zero,zero,27
     418:	000006ec 	andhi	zero,zero,27
     41c:	0000065c 	xori	zero,zero,25
     420:	00000638 	rdprs	zero,zero,24
     424:	000006ec 	andhi	zero,zero,27
     428:	00000680 	call	68 <OSCtxSw_SWITCH_PC+0x28>
     42c:	000006ec 	andhi	zero,zero,27
     430:	00000520 	cmpeqi	zero,zero,20
     434:	000006ec 	andhi	zero,zero,27
     438:	000006ec 	andhi	zero,zero,27
     43c:	000006ec 	andhi	zero,zero,27
     440:	000006ec 	andhi	zero,zero,27
     444:	000006ec 	andhi	zero,zero,27
     448:	000006ec 	andhi	zero,zero,27
     44c:	000006ec 	andhi	zero,zero,27
     450:	000006ec 	andhi	zero,zero,27
     454:	000006ec 	andhi	zero,zero,27
     458:	000006ec 	andhi	zero,zero,27
     45c:	000006ec 	andhi	zero,zero,27
     460:	000006ec 	andhi	zero,zero,27
     464:	000006ec 	andhi	zero,zero,27
     468:	000006ec 	andhi	zero,zero,27
     46c:	000006ec 	andhi	zero,zero,27
     470:	000006ec 	andhi	zero,zero,27
     474:	000006ec 	andhi	zero,zero,27
     478:	000006ec 	andhi	zero,zero,27
     47c:	000006ec 	andhi	zero,zero,27
     480:	000006ec 	andhi	zero,zero,27
     484:	000006ec 	andhi	zero,zero,27
     488:	000006ec 	andhi	zero,zero,27
     48c:	000006ec 	andhi	zero,zero,27
     490:	000006ec 	andhi	zero,zero,27
     494:	000006ec 	andhi	zero,zero,27
     498:	000006ec 	andhi	zero,zero,27
     49c:	000006ec 	andhi	zero,zero,27
     4a0:	000006ec 	andhi	zero,zero,27
     4a4:	000006ec 	andhi	zero,zero,27
     4a8:	000006ec 	andhi	zero,zero,27
     4ac:	000006ec 	andhi	zero,zero,27
     4b0:	000006ec 	andhi	zero,zero,27
     4b4:	000006ec 	andhi	zero,zero,27
     4b8:	000006c8 	cmpgei	zero,zero,27
    case OS_PRIO_EXIST:
      fprintf(stderr, "Attempted to assign a task priority that is already in use.\n");
     4bc:	d0a00117 	ldw	r2,-32764(gp)
     4c0:	10800317 	ldw	r2,12(r2)
     4c4:	100f883a 	mov	r7,r2
     4c8:	01800f04 	movi	r6,60
     4cc:	01400044 	movi	r5,1
     4d0:	010000b4 	movhi	r4,2
     4d4:	21303f04 	addi	r4,r4,-16132
     4d8:	0000fd80 	call	fd8 <fwrite>
      break;
     4dc:	00008c06 	br	710 <alt_ucosii_simple_error_handler+0x430>
    case OS_PRIO_INVALID:
      fprintf(stderr, "Specified a task priority higher than the allowed maximum.\n");
     4e0:	d0a00117 	ldw	r2,-32764(gp)
     4e4:	10800317 	ldw	r2,12(r2)
     4e8:	100f883a 	mov	r7,r2
     4ec:	01800ec4 	movi	r6,59
     4f0:	01400044 	movi	r5,1
     4f4:	010000b4 	movhi	r4,2
     4f8:	21304f04 	addi	r4,r4,-16068
     4fc:	0000fd80 	call	fd8 <fwrite>
      fprintf(stderr, "Task can not be assigned a priority higher than %d\n",OS_LOWEST_PRIO);
     500:	d0a00117 	ldw	r2,-32764(gp)
     504:	10800317 	ldw	r2,12(r2)
     508:	01800504 	movi	r6,20
     50c:	014000b4 	movhi	r5,2
     510:	29705e04 	addi	r5,r5,-16008
     514:	1009883a 	mov	r4,r2
     518:	0000ee80 	call	ee8 <fprintf>
      break;
     51c:	00007c06 	br	710 <alt_ucosii_simple_error_handler+0x430>
    case OS_NO_MORE_TCB:
      fprintf(stderr, "Task Control Blocks have been exhausted\n");
     520:	d0a00117 	ldw	r2,-32764(gp)
     524:	10800317 	ldw	r2,12(r2)
     528:	100f883a 	mov	r7,r2
     52c:	01800a04 	movi	r6,40
     530:	01400044 	movi	r5,1
     534:	010000b4 	movhi	r4,2
     538:	21306b04 	addi	r4,r4,-15956
     53c:	0000fd80 	call	fd8 <fwrite>
      fprintf(stderr, "The current max number of task is %d\n",OS_MAX_TASKS);
     540:	d0a00117 	ldw	r2,-32764(gp)
     544:	10800317 	ldw	r2,12(r2)
     548:	01800284 	movi	r6,10
     54c:	014000b4 	movhi	r5,2
     550:	29707604 	addi	r5,r5,-15912
     554:	1009883a 	mov	r4,r2
     558:	0000ee80 	call	ee8 <fprintf>
      break;
     55c:	00006c06 	br	710 <alt_ucosii_simple_error_handler+0x430>
    case OS_MBOX_FULL:
      fprintf(stderr, "Attempted a Post to a Mailbox that already contains a message\n");
     560:	d0a00117 	ldw	r2,-32764(gp)
     564:	10800317 	ldw	r2,12(r2)
     568:	100f883a 	mov	r7,r2
     56c:	01800f84 	movi	r6,62
     570:	01400044 	movi	r5,1
     574:	010000b4 	movhi	r4,2
     578:	21308004 	addi	r4,r4,-15872
     57c:	0000fd80 	call	fd8 <fwrite>
      break;
     580:	00006306 	br	710 <alt_ucosii_simple_error_handler+0x430>
    case OS_ERR_EVENT_TYPE:
      fprintf(stderr, "Attempted to access a resource that doesn't match the required data type\n");
     584:	d0a00117 	ldw	r2,-32764(gp)
     588:	10800317 	ldw	r2,12(r2)
     58c:	100f883a 	mov	r7,r2
     590:	01801244 	movi	r6,73
     594:	01400044 	movi	r5,1
     598:	010000b4 	movhi	r4,2
     59c:	21309004 	addi	r4,r4,-15808
     5a0:	0000fd80 	call	fd8 <fwrite>
      break;
     5a4:	00005a06 	br	710 <alt_ucosii_simple_error_handler+0x430>
    case OS_ERR_PEVENT_NULL:
      fprintf(stderr, "Attempting access a resource that is pointing to NULL\n");
     5a8:	d0a00117 	ldw	r2,-32764(gp)
     5ac:	10800317 	ldw	r2,12(r2)
     5b0:	100f883a 	mov	r7,r2
     5b4:	01800d84 	movi	r6,54
     5b8:	01400044 	movi	r5,1
     5bc:	010000b4 	movhi	r4,2
     5c0:	2130a304 	addi	r4,r4,-15732
     5c4:	0000fd80 	call	fd8 <fwrite>
      break;
     5c8:	00005106 	br	710 <alt_ucosii_simple_error_handler+0x430>
    case OS_ERR_POST_NULL_PTR:
      fprintf(stderr, "Attempted to Post a NULL to a resource. \n");
     5cc:	d0a00117 	ldw	r2,-32764(gp)
     5d0:	10800317 	ldw	r2,12(r2)
     5d4:	100f883a 	mov	r7,r2
     5d8:	01800a44 	movi	r6,41
     5dc:	01400044 	movi	r5,1
     5e0:	010000b4 	movhi	r4,2
     5e4:	2130b104 	addi	r4,r4,-15676
     5e8:	0000fd80 	call	fd8 <fwrite>
      break;
     5ec:	00004806 	br	710 <alt_ucosii_simple_error_handler+0x430>
    case OS_TIMEOUT:
      fprintf(stderr, "Resource not received in specified time\n");
     5f0:	d0a00117 	ldw	r2,-32764(gp)
     5f4:	10800317 	ldw	r2,12(r2)
     5f8:	100f883a 	mov	r7,r2
     5fc:	01800a04 	movi	r6,40
     600:	01400044 	movi	r5,1
     604:	010000b4 	movhi	r4,2
     608:	2130bc04 	addi	r4,r4,-15632
     60c:	0000fd80 	call	fd8 <fwrite>
      break;
     610:	00003f06 	br	710 <alt_ucosii_simple_error_handler+0x430>
    case OS_ERR_PEND_ISR:
      fprintf(stderr, "Attempting to pending for a resource in an ISR\n");
     614:	d0a00117 	ldw	r2,-32764(gp)
     618:	10800317 	ldw	r2,12(r2)
     61c:	100f883a 	mov	r7,r2
     620:	01800bc4 	movi	r6,47
     624:	01400044 	movi	r5,1
     628:	010000b4 	movhi	r4,2
     62c:	2130c704 	addi	r4,r4,-15588
     630:	0000fd80 	call	fd8 <fwrite>
      break;
     634:	00003606 	br	710 <alt_ucosii_simple_error_handler+0x430>
    case OS_TASK_DEL_IDLE:
      fprintf(stderr, "Attempted to delete the IDLE task\n");
     638:	d0a00117 	ldw	r2,-32764(gp)
     63c:	10800317 	ldw	r2,12(r2)
     640:	100f883a 	mov	r7,r2
     644:	01800884 	movi	r6,34
     648:	01400044 	movi	r5,1
     64c:	010000b4 	movhi	r4,2
     650:	2130d304 	addi	r4,r4,-15540
     654:	0000fd80 	call	fd8 <fwrite>
      break;
     658:	00002d06 	br	710 <alt_ucosii_simple_error_handler+0x430>
    case OS_TASK_DEL_ERR:
      fprintf(stderr, "Attempted to delete a task that does not exist\n");
     65c:	d0a00117 	ldw	r2,-32764(gp)
     660:	10800317 	ldw	r2,12(r2)
     664:	100f883a 	mov	r7,r2
     668:	01800bc4 	movi	r6,47
     66c:	01400044 	movi	r5,1
     670:	010000b4 	movhi	r4,2
     674:	2130dc04 	addi	r4,r4,-15504
     678:	0000fd80 	call	fd8 <fwrite>
      break;
     67c:	00002406 	br	710 <alt_ucosii_simple_error_handler+0x430>
    case OS_TASK_DEL_ISR:
      fprintf(stderr, "Attempted to delete a task from an ISR\n");
     680:	d0a00117 	ldw	r2,-32764(gp)
     684:	10800317 	ldw	r2,12(r2)
     688:	100f883a 	mov	r7,r2
     68c:	018009c4 	movi	r6,39
     690:	01400044 	movi	r5,1
     694:	010000b4 	movhi	r4,2
     698:	2130e804 	addi	r4,r4,-15456
     69c:	0000fd80 	call	fd8 <fwrite>
      break;
     6a0:	00001b06 	br	710 <alt_ucosii_simple_error_handler+0x430>
    case OS_Q_FULL:
      fprintf(stderr, "Attempted to post to a full message queue\n");
     6a4:	d0a00117 	ldw	r2,-32764(gp)
     6a8:	10800317 	ldw	r2,12(r2)
     6ac:	100f883a 	mov	r7,r2
     6b0:	01800a84 	movi	r6,42
     6b4:	01400044 	movi	r5,1
     6b8:	010000b4 	movhi	r4,2
     6bc:	2130f204 	addi	r4,r4,-15416
     6c0:	0000fd80 	call	fd8 <fwrite>
      break;
     6c4:	00001206 	br	710 <alt_ucosii_simple_error_handler+0x430>
    case OS_ERR_NOT_MUTEX_OWNER:
      fprintf(stderr, "Attempted to post a mutex that is not owned by the task\n");
     6c8:	d0a00117 	ldw	r2,-32764(gp)
     6cc:	10800317 	ldw	r2,12(r2)
     6d0:	100f883a 	mov	r7,r2
     6d4:	01800e04 	movi	r6,56
     6d8:	01400044 	movi	r5,1
     6dc:	010000b4 	movhi	r4,2
     6e0:	2130fd04 	addi	r4,r4,-15372
     6e4:	0000fd80 	call	fd8 <fwrite>
      break;
     6e8:	00000906 	br	710 <alt_ucosii_simple_error_handler+0x430>
    default:
      fprintf(stderr, "Unknown Error\n");
     6ec:	d0a00117 	ldw	r2,-32764(gp)
     6f0:	10800317 	ldw	r2,12(r2)
     6f4:	100f883a 	mov	r7,r2
     6f8:	01800384 	movi	r6,14
     6fc:	01400044 	movi	r5,1
     700:	010000b4 	movhi	r4,2
     704:	21310c04 	addi	r4,r4,-15312
     708:	0000fd80 	call	fd8 <fwrite>
      break;
     70c:	0001883a 	nop
  }
  fprintf(stderr, "Program is terminating.\n");
     710:	d0a00117 	ldw	r2,-32764(gp)
     714:	10800317 	ldw	r2,12(r2)
     718:	100f883a 	mov	r7,r2
     71c:	01800604 	movi	r6,24
     720:	01400044 	movi	r5,1
     724:	010000b4 	movhi	r4,2
     728:	21311004 	addi	r4,r4,-15296
     72c:	0000fd80 	call	fd8 <fwrite>
  exit(0);
     730:	0009883a 	mov	r4,zero
     734:	0000e880 	call	e88 <exit>

00000738 <print_status_task>:


/*The following tast prints out status information every 3 seconds.  */

void print_status_task(void* pdata)
{
     738:	defffd04 	addi	sp,sp,-12
     73c:	dfc00215 	stw	ra,8(sp)
     740:	df000115 	stw	fp,4(sp)
     744:	df000104 	addi	fp,sp,4
     748:	e13fff15 	stw	r4,-4(fp)
  while (1)
  { 
    OSTimeDlyHMSM(0, 0, 3, 0);
     74c:	000f883a 	mov	r7,zero
     750:	018000c4 	movi	r6,3
     754:	000b883a 	mov	r5,zero
     758:	0009883a 	mov	r4,zero
     75c:	0015c940 	call	15c94 <OSTimeDlyHMSM>
    printf("****************************************************************\n");
     760:	010000b4 	movhi	r4,2
     764:	21311704 	addi	r4,r4,-15268
     768:	00011580 	call	1158 <puts>
    printf("Hello From MicroC/OS-II Running on NIOS II.  Here is the status:\n");
     76c:	010000b4 	movhi	r4,2
     770:	21312804 	addi	r4,r4,-15200
     774:	00011580 	call	1158 <puts>
    printf("\n");
     778:	01000284 	movi	r4,10
     77c:	00010800 	call	1080 <putchar>
    printf("The number of messages sent by the send_task:         %lu\n",
     780:	d0a80517 	ldw	r2,-24556(gp)
     784:	100b883a 	mov	r5,r2
     788:	010000b4 	movhi	r4,2
     78c:	21313904 	addi	r4,r4,-15132
     790:	000103c0 	call	103c <printf>
            number_of_messages_sent);
    printf("\n");
     794:	01000284 	movi	r4,10
     798:	00010800 	call	1080 <putchar>
    printf("The number of messages received by the receive_task1: %lu\n",
     79c:	d0a80617 	ldw	r2,-24552(gp)
     7a0:	100b883a 	mov	r5,r2
     7a4:	010000b4 	movhi	r4,2
     7a8:	21314804 	addi	r4,r4,-15072
     7ac:	000103c0 	call	103c <printf>
            number_of_messages_received_task1);
    printf("\n");
     7b0:	01000284 	movi	r4,10
     7b4:	00010800 	call	1080 <putchar>
    printf("The number of messages received by the receive_task2: %lu\n",
     7b8:	d0a80717 	ldw	r2,-24548(gp)
     7bc:	100b883a 	mov	r5,r2
     7c0:	010000b4 	movhi	r4,2
     7c4:	21315704 	addi	r4,r4,-15012
     7c8:	000103c0 	call	103c <printf>
            number_of_messages_received_task2);
    printf("\n");
     7cc:	01000284 	movi	r4,10
     7d0:	00010800 	call	1080 <putchar>
    printf("The shared resource is owned by: %s\n",
     7d4:	014000f4 	movhi	r5,3
     7d8:	2962eb04 	addi	r5,r5,-29780
     7dc:	010000b4 	movhi	r4,2
     7e0:	21316604 	addi	r4,r4,-14952
     7e4:	000103c0 	call	103c <printf>
           &sem_owner_task_name[0]);
    printf("\n");
     7e8:	01000284 	movi	r4,10
     7ec:	00010800 	call	1080 <putchar>
    printf("The Number of times getsem_task1 acquired the semaphore %lu\n",
     7f0:	d0a80817 	ldw	r2,-24544(gp)
     7f4:	100b883a 	mov	r5,r2
     7f8:	010000b4 	movhi	r4,2
     7fc:	21317004 	addi	r4,r4,-14912
     800:	000103c0 	call	103c <printf>
            getsem_task1_got_sem);
    printf("\n");
     804:	01000284 	movi	r4,10
     808:	00010800 	call	1080 <putchar>
    printf("The Number of times getsem_task2 acquired the semaphore %lu\n",
     80c:	d0a80917 	ldw	r2,-24540(gp)
     810:	100b883a 	mov	r5,r2
     814:	010000b4 	movhi	r4,2
     818:	21318004 	addi	r4,r4,-14848
     81c:	000103c0 	call	103c <printf>
            getsem_task2_got_sem);
    printf("\n");
     820:	01000284 	movi	r4,10
     824:	00010800 	call	1080 <putchar>
    printf("****************************************************************\n");
     828:	010000b4 	movhi	r4,2
     82c:	21311704 	addi	r4,r4,-15268
     830:	00011580 	call	1158 <puts>
    printf("\n");
     834:	01000284 	movi	r4,10
     838:	00010800 	call	1080 <putchar>
  }
     83c:	003fc306 	br	74c <__alt_mem_onchip_memory+0xf780074c>

00000840 <getsem_task1>:
/*The next two task compete for a shared resource via a semaphore.  The name of
 * the task that owns the semaphore is copied into the global variable
 * sem_owner_task_name[].  
 */ 
void getsem_task1(void* pdata)
{
     840:	defffc04 	addi	sp,sp,-16
     844:	dfc00315 	stw	ra,12(sp)
     848:	df000215 	stw	fp,8(sp)
     84c:	df000204 	addi	fp,sp,8
     850:	e13fff15 	stw	r4,-4(fp)
  INT8U return_code = OS_NO_ERR;
     854:	e03ffe05 	stb	zero,-8(fp)
  
  while (1)
  {
    OSSemPend(shared_resource_sem, 0, &return_code);
     858:	d0a80b17 	ldw	r2,-24532(gp)
     85c:	e1bffe04 	addi	r6,fp,-8
     860:	000b883a 	mov	r5,zero
     864:	1009883a 	mov	r4,r2
     868:	0013d8c0 	call	13d8c <OSSemPend>
    // zona de recursos compartidos
    alt_ucosii_check_return_code(return_code);
     86c:	e0bffe03 	ldbu	r2,-8(fp)
     870:	10803fcc 	andi	r2,r2,255
     874:	1009883a 	mov	r4,r2
     878:	00002940 	call	294 <alt_ucosii_check_return_code>
    strcpy(&sem_owner_task_name[0], "getsem_task1");
     87c:	008000f4 	movhi	r2,3
     880:	10a2eb04 	addi	r2,r2,-29780
     884:	00c019c4 	movi	r3,103
     888:	10c00005 	stb	r3,0(r2)
     88c:	00c01944 	movi	r3,101
     890:	10c00045 	stb	r3,1(r2)
     894:	00c01d04 	movi	r3,116
     898:	10c00085 	stb	r3,2(r2)
     89c:	00c01cc4 	movi	r3,115
     8a0:	10c000c5 	stb	r3,3(r2)
     8a4:	00c01944 	movi	r3,101
     8a8:	10c00105 	stb	r3,4(r2)
     8ac:	00c01b44 	movi	r3,109
     8b0:	10c00145 	stb	r3,5(r2)
     8b4:	00c017c4 	movi	r3,95
     8b8:	10c00185 	stb	r3,6(r2)
     8bc:	00c01d04 	movi	r3,116
     8c0:	10c001c5 	stb	r3,7(r2)
     8c4:	00c01844 	movi	r3,97
     8c8:	10c00205 	stb	r3,8(r2)
     8cc:	00c01cc4 	movi	r3,115
     8d0:	10c00245 	stb	r3,9(r2)
     8d4:	00c01ac4 	movi	r3,107
     8d8:	10c00285 	stb	r3,10(r2)
     8dc:	00c00c44 	movi	r3,49
     8e0:	10c002c5 	stb	r3,11(r2)
     8e4:	10000305 	stb	zero,12(r2)
    getsem_task1_got_sem++;
     8e8:	d0a80817 	ldw	r2,-24544(gp)
     8ec:	10800044 	addi	r2,r2,1
     8f0:	d0a80815 	stw	r2,-24544(gp)
    // zona de recursos compartidos
    OSSemPost(shared_resource_sem);
     8f4:	d0a80b17 	ldw	r2,-24532(gp)
     8f8:	1009883a 	mov	r4,r2
     8fc:	00141040 	call	14104 <OSSemPost>
    OSTimeDlyHMSM(0, 0, 0, 100);
     900:	01c01904 	movi	r7,100
     904:	000d883a 	mov	r6,zero
     908:	000b883a 	mov	r5,zero
     90c:	0009883a 	mov	r4,zero
     910:	0015c940 	call	15c94 <OSTimeDlyHMSM>
  }
     914:	003fd006 	br	858 <__alt_mem_onchip_memory+0xf7800858>

00000918 <getsem_task2>:
}

void getsem_task2(void* pdata)
{
     918:	defffc04 	addi	sp,sp,-16
     91c:	dfc00315 	stw	ra,12(sp)
     920:	df000215 	stw	fp,8(sp)
     924:	df000204 	addi	fp,sp,8
     928:	e13fff15 	stw	r4,-4(fp)
  INT8U return_code = OS_NO_ERR;
     92c:	e03ffe05 	stb	zero,-8(fp)
  while (1)
  {
    OSSemPend(shared_resource_sem, 0, &return_code);
     930:	d0a80b17 	ldw	r2,-24532(gp)
     934:	e1bffe04 	addi	r6,fp,-8
     938:	000b883a 	mov	r5,zero
     93c:	1009883a 	mov	r4,r2
     940:	0013d8c0 	call	13d8c <OSSemPend>
    // zona de recursos compartidos
    strcpy(&sem_owner_task_name[0], "getsem_task2");
     944:	008000f4 	movhi	r2,3
     948:	10a2eb04 	addi	r2,r2,-29780
     94c:	00c019c4 	movi	r3,103
     950:	10c00005 	stb	r3,0(r2)
     954:	00c01944 	movi	r3,101
     958:	10c00045 	stb	r3,1(r2)
     95c:	00c01d04 	movi	r3,116
     960:	10c00085 	stb	r3,2(r2)
     964:	00c01cc4 	movi	r3,115
     968:	10c000c5 	stb	r3,3(r2)
     96c:	00c01944 	movi	r3,101
     970:	10c00105 	stb	r3,4(r2)
     974:	00c01b44 	movi	r3,109
     978:	10c00145 	stb	r3,5(r2)
     97c:	00c017c4 	movi	r3,95
     980:	10c00185 	stb	r3,6(r2)
     984:	00c01d04 	movi	r3,116
     988:	10c001c5 	stb	r3,7(r2)
     98c:	00c01844 	movi	r3,97
     990:	10c00205 	stb	r3,8(r2)
     994:	00c01cc4 	movi	r3,115
     998:	10c00245 	stb	r3,9(r2)
     99c:	00c01ac4 	movi	r3,107
     9a0:	10c00285 	stb	r3,10(r2)
     9a4:	00c00c84 	movi	r3,50
     9a8:	10c002c5 	stb	r3,11(r2)
     9ac:	10000305 	stb	zero,12(r2)
    alt_ucosii_check_return_code(return_code);
     9b0:	e0bffe03 	ldbu	r2,-8(fp)
     9b4:	10803fcc 	andi	r2,r2,255
     9b8:	1009883a 	mov	r4,r2
     9bc:	00002940 	call	294 <alt_ucosii_check_return_code>
    getsem_task2_got_sem++;
     9c0:	d0a80917 	ldw	r2,-24540(gp)
     9c4:	10800044 	addi	r2,r2,1
     9c8:	d0a80915 	stw	r2,-24540(gp)
    // zona de recursos compartidos
    OSSemPost(shared_resource_sem);
     9cc:	d0a80b17 	ldw	r2,-24532(gp)
     9d0:	1009883a 	mov	r4,r2
     9d4:	00141040 	call	14104 <OSSemPost>
    OSTimeDlyHMSM(0, 0, 0, 130);
     9d8:	01c02084 	movi	r7,130
     9dc:	000d883a 	mov	r6,zero
     9e0:	000b883a 	mov	r5,zero
     9e4:	0009883a 	mov	r4,zero
     9e8:	0015c940 	call	15c94 <OSTimeDlyHMSM>
  }
     9ec:	003fd006 	br	930 <__alt_mem_onchip_memory+0xf7800930>

000009f0 <send_task>:
 * is not actually used by the application.  If the queue is full the task is
 * suspended for 1 second.
 */
 
void send_task(void* pdata)
{
     9f0:	defff804 	addi	sp,sp,-32
     9f4:	dfc00715 	stw	ra,28(sp)
     9f8:	df000615 	stw	fp,24(sp)
     9fc:	df000604 	addi	fp,sp,24
     a00:	e13fff15 	stw	r4,-4(fp)
  INT8U return_code = OS_NO_ERR;
     a04:	e03ffa05 	stb	zero,-24(fp)
  INT32U  msg = 0;
     a08:	e03ffb15 	stw	zero,-20(fp)
  OS_Q_DATA queue_data;  
  
  while (1)
  {
    return_code = OSQQuery(msgqueue, &queue_data);
     a0c:	d0a80a17 	ldw	r2,-24536(gp)
     a10:	e0fffc04 	addi	r3,fp,-16
     a14:	180b883a 	mov	r5,r3
     a18:	1009883a 	mov	r4,r2
     a1c:	00137c00 	call	137c0 <OSQQuery>
     a20:	e0bffa05 	stb	r2,-24(fp)
    alt_ucosii_check_return_code(return_code);
     a24:	e0bffa03 	ldbu	r2,-24(fp)
     a28:	1009883a 	mov	r4,r2
     a2c:	00002940 	call	294 <alt_ucosii_check_return_code>
    if(queue_data.OSNMsgs < MSG_QUEUE_SIZE) /*Check the number of messages*/
     a30:	e0bffd0b 	ldhu	r2,-12(fp)
     a34:	10bfffcc 	andi	r2,r2,65535
     a38:	108007a8 	cmpgeui	r2,r2,30
     a3c:	1000111e 	bne	r2,zero,a84 <send_task+0x94>
    {                                       /*in the message queue*/
      return_code = OSQPostOpt(msgqueue, (void *)&msg, OS_POST_OPT_BROADCAST);
     a40:	d0a80a17 	ldw	r2,-24536(gp)
     a44:	e0fffb04 	addi	r3,fp,-20
     a48:	01800044 	movi	r6,1
     a4c:	180b883a 	mov	r5,r3
     a50:	1009883a 	mov	r4,r2
     a54:	00135b40 	call	135b4 <OSQPostOpt>
     a58:	e0bffa05 	stb	r2,-24(fp)
      alt_ucosii_check_return_code(return_code);
     a5c:	e0bffa03 	ldbu	r2,-24(fp)
     a60:	1009883a 	mov	r4,r2
     a64:	00002940 	call	294 <alt_ucosii_check_return_code>
      msg++;
     a68:	e0bffb17 	ldw	r2,-20(fp)
     a6c:	10800044 	addi	r2,r2,1
     a70:	e0bffb15 	stw	r2,-20(fp)
      number_of_messages_sent++;
     a74:	d0a80517 	ldw	r2,-24556(gp)
     a78:	10800044 	addi	r2,r2,1
     a7c:	d0a80515 	stw	r2,-24556(gp)
     a80:	003fe206 	br	a0c <__alt_mem_onchip_memory+0xf7800a0c>
    }
    else
    {
      OSTimeDlyHMSM(0, 0, 1, 0);
     a84:	000f883a 	mov	r7,zero
     a88:	01800044 	movi	r6,1
     a8c:	000b883a 	mov	r5,zero
     a90:	0009883a 	mov	r4,zero
     a94:	0015c940 	call	15c94 <OSTimeDlyHMSM>
    }
  }
     a98:	003fdc06 	br	a0c <__alt_mem_onchip_memory+0xf7800a0c>

00000a9c <receive_task1>:

/*The next two task pull messages in the queue at different rates.  The number
 * of messages received by the task is incremented when a new message is received
 */
void receive_task1(void* pdata)
{
     a9c:	defffb04 	addi	sp,sp,-20
     aa0:	dfc00415 	stw	ra,16(sp)
     aa4:	df000315 	stw	fp,12(sp)
     aa8:	df000304 	addi	fp,sp,12
     aac:	e13fff15 	stw	r4,-4(fp)
  INT8U return_code = OS_NO_ERR;
     ab0:	e03ffe05 	stb	zero,-8(fp)
  INT32U *msg;
  
  while (1)
  {
    msg = (INT32U *)OSQPend(msgqueue, 0, &return_code);
     ab4:	d0a80a17 	ldw	r2,-24536(gp)
     ab8:	e0fffe04 	addi	r3,fp,-8
     abc:	180d883a 	mov	r6,r3
     ac0:	000b883a 	mov	r5,zero
     ac4:	1009883a 	mov	r4,r2
     ac8:	0012ee40 	call	12ee4 <OSQPend>
     acc:	e0bffd15 	stw	r2,-12(fp)
    alt_ucosii_check_return_code(return_code);
     ad0:	e0bffe03 	ldbu	r2,-8(fp)
     ad4:	10803fcc 	andi	r2,r2,255
     ad8:	1009883a 	mov	r4,r2
     adc:	00002940 	call	294 <alt_ucosii_check_return_code>
    number_of_messages_received_task1++;
     ae0:	d0a80617 	ldw	r2,-24552(gp)
     ae4:	10800044 	addi	r2,r2,1
     ae8:	d0a80615 	stw	r2,-24552(gp)
    OSTimeDlyHMSM(0, 0, 0, 333);
     aec:	01c05344 	movi	r7,333
     af0:	000d883a 	mov	r6,zero
     af4:	000b883a 	mov	r5,zero
     af8:	0009883a 	mov	r4,zero
     afc:	0015c940 	call	15c94 <OSTimeDlyHMSM>
  }
     b00:	003fec06 	br	ab4 <__alt_mem_onchip_memory+0xf7800ab4>

00000b04 <receive_task2>:
}

void receive_task2(void* pdata)
{
     b04:	defffb04 	addi	sp,sp,-20
     b08:	dfc00415 	stw	ra,16(sp)
     b0c:	df000315 	stw	fp,12(sp)
     b10:	df000304 	addi	fp,sp,12
     b14:	e13fff15 	stw	r4,-4(fp)
  INT8U return_code = OS_NO_ERR;
     b18:	e03ffe05 	stb	zero,-8(fp)
  INT32U *msg;
  
  while (1)
  {
    msg = (INT32U *)OSQPend(msgqueue, 0, &return_code);
     b1c:	d0a80a17 	ldw	r2,-24536(gp)
     b20:	e0fffe04 	addi	r3,fp,-8
     b24:	180d883a 	mov	r6,r3
     b28:	000b883a 	mov	r5,zero
     b2c:	1009883a 	mov	r4,r2
     b30:	0012ee40 	call	12ee4 <OSQPend>
     b34:	e0bffd15 	stw	r2,-12(fp)
    alt_ucosii_check_return_code(return_code);
     b38:	e0bffe03 	ldbu	r2,-8(fp)
     b3c:	10803fcc 	andi	r2,r2,255
     b40:	1009883a 	mov	r4,r2
     b44:	00002940 	call	294 <alt_ucosii_check_return_code>
    number_of_messages_received_task2++;
     b48:	d0a80717 	ldw	r2,-24548(gp)
     b4c:	10800044 	addi	r2,r2,1
     b50:	d0a80715 	stw	r2,-24548(gp)
    OSTimeDlyHMSM(0, 0, 1, 0);
     b54:	000f883a 	mov	r7,zero
     b58:	01800044 	movi	r6,1
     b5c:	000b883a 	mov	r5,zero
     b60:	0009883a 	mov	r4,zero
     b64:	0015c940 	call	15c94 <OSTimeDlyHMSM>
  }
     b68:	003fec06 	br	b1c <__alt_mem_onchip_memory+0xf7800b1c>

00000b6c <initialize_task>:
 * The main purpose for doing this is to ensure that stack checking will 
 * initialize correctly if enabled. See MicroC/OS-II The Real-Time Kernal text 
 * book for details. 
 */
void  initialize_task(void* pdata)
{
     b6c:	defffc04 	addi	sp,sp,-16
     b70:	dfc00315 	stw	ra,12(sp)
     b74:	df000215 	stw	fp,8(sp)
     b78:	df000204 	addi	fp,sp,8
     b7c:	e13fff15 	stw	r4,-4(fp)
  INT8U return_code = OS_NO_ERR;
     b80:	e03ffe05 	stb	zero,-8(fp)
    
  /*create os data structures */
  initOSDataStructs();  
     b84:	0000c340 	call	c34 <initOSDataStructs>

  /* create the tasks */
  initCreateTasks();
     b88:	0000c7c0 	call	c7c <initCreateTasks>
  
  /*This task is deleted because there is no need for it to run again */
  return_code = OSTaskDel(OS_PRIO_SELF);
     b8c:	01003fc4 	movi	r4,255
     b90:	0014ca40 	call	14ca4 <OSTaskDel>
     b94:	e0bffe05 	stb	r2,-8(fp)
  alt_ucosii_check_return_code(return_code);
     b98:	e0bffe03 	ldbu	r2,-8(fp)
     b9c:	1009883a 	mov	r4,r2
     ba0:	00002940 	call	294 <alt_ucosii_check_return_code>
  while (1);
     ba4:	003fff06 	br	ba4 <__alt_mem_onchip_memory+0xf7800ba4>

00000ba8 <main>:

/* Main creates a single task and starts task switching
 */
 
int main (int argc, char* argv[], char* envp[])
{
     ba8:	defff504 	addi	sp,sp,-44
     bac:	dfc00a15 	stw	ra,40(sp)
     bb0:	df000915 	stw	fp,36(sp)
     bb4:	df000904 	addi	fp,sp,36
     bb8:	e13ffd15 	stw	r4,-12(fp)
     bbc:	e17ffe15 	stw	r5,-8(fp)
     bc0:	e1bfff15 	stw	r6,-4(fp)
  INT8U return_code = OS_NO_ERR;
     bc4:	e03ffc05 	stb	zero,-16(fp)
   
  return_code = OSTaskCreateExt(initialize_task,
     bc8:	d8000415 	stw	zero,16(sp)
     bcc:	d8000315 	stw	zero,12(sp)
     bd0:	00820004 	movi	r2,2048
     bd4:	d8800215 	stw	r2,8(sp)
     bd8:	008000f4 	movhi	r2,3
     bdc:	10a2f004 	addi	r2,r2,-29760
     be0:	d8800115 	stw	r2,4(sp)
     be4:	00800184 	movi	r2,6
     be8:	d8800015 	stw	r2,0(sp)
     bec:	01c00184 	movi	r7,6
     bf0:	018000f4 	movhi	r6,3
     bf4:	31aaf004 	addi	r6,r6,-21568
     bf8:	000b883a 	mov	r5,zero
     bfc:	01000034 	movhi	r4,0
     c00:	2102db04 	addi	r4,r4,2924
     c04:	0014ac00 	call	14ac0 <OSTaskCreateExt>
     c08:	e0bffc05 	stb	r2,-16(fp)
                             INITIALIZE_TASK_PRIORITY,
                             initialize_task_stk,
                             TASK_STACKSIZE,
                             NULL,
			     0);
  alt_ucosii_check_return_code(return_code);
     c0c:	e0bffc03 	ldbu	r2,-16(fp)
     c10:	1009883a 	mov	r4,r2
     c14:	00002940 	call	294 <alt_ucosii_check_return_code>
  OSStart();
     c18:	000f4280 	call	f428 <OSStart>
  return 0;
     c1c:	0005883a 	mov	r2,zero
}
     c20:	e037883a 	mov	sp,fp
     c24:	dfc00117 	ldw	ra,4(sp)
     c28:	df000017 	ldw	fp,0(sp)
     c2c:	dec00204 	addi	sp,sp,8
     c30:	f800283a 	ret

00000c34 <initOSDataStructs>:

/* This function simply creates a message queue and a semaphore
 */
 
int initOSDataStructs(void)
{
     c34:	defffe04 	addi	sp,sp,-8
     c38:	dfc00115 	stw	ra,4(sp)
     c3c:	df000015 	stw	fp,0(sp)
     c40:	d839883a 	mov	fp,sp
  msgqueue = OSQCreate(&msgqueueTbl[0], MSG_QUEUE_SIZE);
     c44:	01400784 	movi	r5,30
     c48:	010000b4 	movhi	r4,2
     c4c:	211acd04 	addi	r4,r4,27444
     c50:	0012a000 	call	12a00 <OSQCreate>
     c54:	d0a80a15 	stw	r2,-24536(gp)
  shared_resource_sem = OSSemCreate(1);
     c58:	01000044 	movi	r4,1
     c5c:	0013a740 	call	13a74 <OSSemCreate>
     c60:	d0a80b15 	stw	r2,-24532(gp)
  return 0;
     c64:	0005883a 	mov	r2,zero
}
     c68:	e037883a 	mov	sp,fp
     c6c:	dfc00117 	ldw	ra,4(sp)
     c70:	df000017 	ldw	fp,0(sp)
     c74:	dec00204 	addi	sp,sp,8
     c78:	f800283a 	ret

00000c7c <initCreateTasks>:
/*This function creates the tasks used in this example
 */
 
int initCreateTasks(void)
{
     c7c:	defff804 	addi	sp,sp,-32
     c80:	dfc00715 	stw	ra,28(sp)
     c84:	df000615 	stw	fp,24(sp)
     c88:	df000604 	addi	fp,sp,24
  INT8U return_code = OS_NO_ERR;
     c8c:	e03fff05 	stb	zero,-4(fp)

  return_code = OSTaskCreateExt(getsem_task1,
     c90:	d8000415 	stw	zero,16(sp)
     c94:	d8000315 	stw	zero,12(sp)
     c98:	00820004 	movi	r2,2048
     c9c:	d8800215 	stw	r2,8(sp)
     ca0:	008000b4 	movhi	r2,2
     ca4:	108acd04 	addi	r2,r2,11060
     ca8:	d8800115 	stw	r2,4(sp)
     cac:	00800204 	movi	r2,8
     cb0:	d8800015 	stw	r2,0(sp)
     cb4:	01c00204 	movi	r7,8
     cb8:	018000b4 	movhi	r6,2
     cbc:	3192cd04 	addi	r6,r6,19252
     cc0:	000b883a 	mov	r5,zero
     cc4:	01000034 	movhi	r4,0
     cc8:	21021004 	addi	r4,r4,2112
     ccc:	0014ac00 	call	14ac0 <OSTaskCreateExt>
     cd0:	e0bfff05 	stb	r2,-4(fp)
                             GETSEM_TASK1_PRIORITY,
                             getsem_task1_stk,
                             TASK_STACKSIZE,
                             NULL,
                             0);
  alt_ucosii_check_return_code(return_code);
     cd4:	e0bfff03 	ldbu	r2,-4(fp)
     cd8:	1009883a 	mov	r4,r2
     cdc:	00002940 	call	294 <alt_ucosii_check_return_code>

  return_code = OSTaskCreateExt(getsem_task2,
     ce0:	d8000415 	stw	zero,16(sp)
     ce4:	d8000315 	stw	zero,12(sp)
     ce8:	00820004 	movi	r2,2048
     cec:	d8800215 	stw	r2,8(sp)
     cf0:	008000b4 	movhi	r2,2
     cf4:	109aeb04 	addi	r2,r2,27564
     cf8:	d8800115 	stw	r2,4(sp)
     cfc:	00800244 	movi	r2,9
     d00:	d8800015 	stw	r2,0(sp)
     d04:	01c00244 	movi	r7,9
     d08:	018000f4 	movhi	r6,3
     d0c:	31a2eb04 	addi	r6,r6,-29780
     d10:	000b883a 	mov	r5,zero
     d14:	01000034 	movhi	r4,0
     d18:	21024604 	addi	r4,r4,2328
     d1c:	0014ac00 	call	14ac0 <OSTaskCreateExt>
     d20:	e0bfff05 	stb	r2,-4(fp)
                             GETSEM_TASK2_PRIORITY,
                             getsem_task2_stk,
                             TASK_STACKSIZE,
                             NULL,
                             0);
  alt_ucosii_check_return_code(return_code);
     d24:	e0bfff03 	ldbu	r2,-4(fp)
     d28:	1009883a 	mov	r4,r2
     d2c:	00002940 	call	294 <alt_ucosii_check_return_code>

  return_code = OSTaskCreateExt(receive_task1,
     d30:	d8000415 	stw	zero,16(sp)
     d34:	d8000315 	stw	zero,12(sp)
     d38:	00820004 	movi	r2,2048
     d3c:	d8800215 	stw	r2,8(sp)
     d40:	008000f4 	movhi	r2,3
     d44:	10b2f004 	addi	r2,r2,-13376
     d48:	d8800115 	stw	r2,4(sp)
     d4c:	00800284 	movi	r2,10
     d50:	d8800015 	stw	r2,0(sp)
     d54:	01c00284 	movi	r7,10
     d58:	018000f4 	movhi	r6,3
     d5c:	31baf004 	addi	r6,r6,-5184
     d60:	000b883a 	mov	r5,zero
     d64:	01000034 	movhi	r4,0
     d68:	2102a704 	addi	r4,r4,2716
     d6c:	0014ac00 	call	14ac0 <OSTaskCreateExt>
     d70:	e0bfff05 	stb	r2,-4(fp)
                             RECEIVE_TASK1_PRIORITY,
                             receive_task1_stk,
                             TASK_STACKSIZE,
                             NULL,
                             0);
  alt_ucosii_check_return_code(return_code);
     d74:	e0bfff03 	ldbu	r2,-4(fp)
     d78:	1009883a 	mov	r4,r2
     d7c:	00002940 	call	294 <alt_ucosii_check_return_code>

  return_code = OSTaskCreateExt(receive_task2,
     d80:	d8000415 	stw	zero,16(sp)
     d84:	d8000315 	stw	zero,12(sp)
     d88:	00820004 	movi	r2,2048
     d8c:	d8800215 	stw	r2,8(sp)
     d90:	008000f4 	movhi	r2,3
     d94:	10aaf004 	addi	r2,r2,-21568
     d98:	d8800115 	stw	r2,4(sp)
     d9c:	008002c4 	movi	r2,11
     da0:	d8800015 	stw	r2,0(sp)
     da4:	01c002c4 	movi	r7,11
     da8:	018000f4 	movhi	r6,3
     dac:	31b2f004 	addi	r6,r6,-13376
     db0:	000b883a 	mov	r5,zero
     db4:	01000034 	movhi	r4,0
     db8:	2102c104 	addi	r4,r4,2820
     dbc:	0014ac00 	call	14ac0 <OSTaskCreateExt>
     dc0:	e0bfff05 	stb	r2,-4(fp)
                             RECEIVE_TASK2_PRIORITY,
                             receive_task2_stk,
                             TASK_STACKSIZE,
                             NULL,
                             0);
  alt_ucosii_check_return_code(return_code);
     dc4:	e0bfff03 	ldbu	r2,-4(fp)
     dc8:	1009883a 	mov	r4,r2
     dcc:	00002940 	call	294 <alt_ucosii_check_return_code>

  return_code = OSTaskCreateExt(send_task,
     dd0:	d8000415 	stw	zero,16(sp)
     dd4:	d8000315 	stw	zero,12(sp)
     dd8:	00820004 	movi	r2,2048
     ddc:	d8800215 	stw	r2,8(sp)
     de0:	008000b4 	movhi	r2,2
     de4:	1082cd04 	addi	r2,r2,2868
     de8:	d8800115 	stw	r2,4(sp)
     dec:	00800304 	movi	r2,12
     df0:	d8800015 	stw	r2,0(sp)
     df4:	01c00304 	movi	r7,12
     df8:	018000b4 	movhi	r6,2
     dfc:	318acd04 	addi	r6,r6,11060
     e00:	000b883a 	mov	r5,zero
     e04:	01000034 	movhi	r4,0
     e08:	21027c04 	addi	r4,r4,2544
     e0c:	0014ac00 	call	14ac0 <OSTaskCreateExt>
     e10:	e0bfff05 	stb	r2,-4(fp)
                             SEND_TASK_PRIORITY,
                             send_task_stk,
                             TASK_STACKSIZE,
                             NULL,
                             0);
  alt_ucosii_check_return_code(return_code);
     e14:	e0bfff03 	ldbu	r2,-4(fp)
     e18:	1009883a 	mov	r4,r2
     e1c:	00002940 	call	294 <alt_ucosii_check_return_code>

  return_code = OSTaskCreateExt(print_status_task,
     e20:	d8000415 	stw	zero,16(sp)
     e24:	d8000315 	stw	zero,12(sp)
     e28:	00820004 	movi	r2,2048
     e2c:	d8800215 	stw	r2,8(sp)
     e30:	008000b4 	movhi	r2,2
     e34:	1092cd04 	addi	r2,r2,19252
     e38:	d8800115 	stw	r2,4(sp)
     e3c:	008001c4 	movi	r2,7
     e40:	d8800015 	stw	r2,0(sp)
     e44:	01c001c4 	movi	r7,7
     e48:	018000b4 	movhi	r6,2
     e4c:	319acd04 	addi	r6,r6,27444
     e50:	000b883a 	mov	r5,zero
     e54:	01000034 	movhi	r4,0
     e58:	2101ce04 	addi	r4,r4,1848
     e5c:	0014ac00 	call	14ac0 <OSTaskCreateExt>
     e60:	e0bfff05 	stb	r2,-4(fp)
                             PRINT_STATUS_TASK_PRIORITY,
                             print_status_task_stk,
                             TASK_STACKSIZE,
                             NULL,
                             0);
  alt_ucosii_check_return_code(return_code);
     e64:	e0bfff03 	ldbu	r2,-4(fp)
     e68:	1009883a 	mov	r4,r2
     e6c:	00002940 	call	294 <alt_ucosii_check_return_code>
  return 0;
     e70:	0005883a 	mov	r2,zero
}
     e74:	e037883a 	mov	sp,fp
     e78:	dfc00117 	ldw	ra,4(sp)
     e7c:	df000017 	ldw	fp,0(sp)
     e80:	dec00204 	addi	sp,sp,8
     e84:	f800283a 	ret

00000e88 <exit>:
     e88:	defffe04 	addi	sp,sp,-8
     e8c:	000b883a 	mov	r5,zero
     e90:	dc000015 	stw	r16,0(sp)
     e94:	dfc00115 	stw	ra,4(sp)
     e98:	2021883a 	mov	r16,r4
     e9c:	00036280 	call	3628 <__call_exitprocs>
     ea0:	008000b4 	movhi	r2,2
     ea4:	10ba9004 	addi	r2,r2,-5568
     ea8:	11000017 	ldw	r4,0(r2)
     eac:	20800f17 	ldw	r2,60(r4)
     eb0:	10000126 	beq	r2,zero,eb8 <exit+0x30>
     eb4:	103ee83a 	callr	r2
     eb8:	8009883a 	mov	r4,r16
     ebc:	000dd6c0 	call	dd6c <_exit>

00000ec0 <_fprintf_r>:
     ec0:	defffe04 	addi	sp,sp,-8
     ec4:	2809883a 	mov	r4,r5
     ec8:	300b883a 	mov	r5,r6
     ecc:	dfc00015 	stw	ra,0(sp)
     ed0:	d9c00115 	stw	r7,4(sp)
     ed4:	d9800104 	addi	r6,sp,4
     ed8:	00033fc0 	call	33fc <__vfprintf_internal>
     edc:	dfc00017 	ldw	ra,0(sp)
     ee0:	dec00204 	addi	sp,sp,8
     ee4:	f800283a 	ret

00000ee8 <fprintf>:
     ee8:	defffd04 	addi	sp,sp,-12
     eec:	dfc00015 	stw	ra,0(sp)
     ef0:	d9800115 	stw	r6,4(sp)
     ef4:	d9c00215 	stw	r7,8(sp)
     ef8:	d9800104 	addi	r6,sp,4
     efc:	00033fc0 	call	33fc <__vfprintf_internal>
     f00:	dfc00017 	ldw	ra,0(sp)
     f04:	dec00304 	addi	sp,sp,12
     f08:	f800283a 	ret

00000f0c <_fwrite_r>:
     f0c:	defff504 	addi	sp,sp,-44
     f10:	dc800815 	stw	r18,32(sp)
     f14:	39a5383a 	mul	r18,r7,r6
     f18:	d8800304 	addi	r2,sp,12
     f1c:	d8800015 	stw	r2,0(sp)
     f20:	00800044 	movi	r2,1
     f24:	dcc00915 	stw	r19,36(sp)
     f28:	dc400715 	stw	r17,28(sp)
     f2c:	dc000615 	stw	r16,24(sp)
     f30:	d9400315 	stw	r5,12(sp)
     f34:	dfc00a15 	stw	ra,40(sp)
     f38:	dc800415 	stw	r18,16(sp)
     f3c:	dc800215 	stw	r18,8(sp)
     f40:	d8800115 	stw	r2,4(sp)
     f44:	3027883a 	mov	r19,r6
     f48:	3821883a 	mov	r16,r7
     f4c:	2023883a 	mov	r17,r4
     f50:	d9400b17 	ldw	r5,44(sp)
     f54:	20000226 	beq	r4,zero,f60 <_fwrite_r+0x54>
     f58:	20800e17 	ldw	r2,56(r4)
     f5c:	10001a26 	beq	r2,zero,fc8 <_fwrite_r+0xbc>
     f60:	2880030b 	ldhu	r2,12(r5)
     f64:	10c8000c 	andi	r3,r2,8192
     f68:	1800061e 	bne	r3,zero,f84 <_fwrite_r+0x78>
     f6c:	29001917 	ldw	r4,100(r5)
     f70:	00f7ffc4 	movi	r3,-8193
     f74:	10880014 	ori	r2,r2,8192
     f78:	20c6703a 	and	r3,r4,r3
     f7c:	2880030d 	sth	r2,12(r5)
     f80:	28c01915 	stw	r3,100(r5)
     f84:	d80d883a 	mov	r6,sp
     f88:	8809883a 	mov	r4,r17
     f8c:	0005aac0 	call	5aac <__sfvwrite_r>
     f90:	10000b26 	beq	r2,zero,fc0 <_fwrite_r+0xb4>
     f94:	d9000217 	ldw	r4,8(sp)
     f98:	980b883a 	mov	r5,r19
     f9c:	9109c83a 	sub	r4,r18,r4
     fa0:	000b5100 	call	b510 <__udivsi3>
     fa4:	dfc00a17 	ldw	ra,40(sp)
     fa8:	dcc00917 	ldw	r19,36(sp)
     fac:	dc800817 	ldw	r18,32(sp)
     fb0:	dc400717 	ldw	r17,28(sp)
     fb4:	dc000617 	ldw	r16,24(sp)
     fb8:	dec00b04 	addi	sp,sp,44
     fbc:	f800283a 	ret
     fc0:	8005883a 	mov	r2,r16
     fc4:	003ff706 	br	fa4 <__alt_mem_onchip_memory+0xf7800fa4>
     fc8:	d9400515 	stw	r5,20(sp)
     fcc:	00056280 	call	5628 <__sinit>
     fd0:	d9400517 	ldw	r5,20(sp)
     fd4:	003fe206 	br	f60 <__alt_mem_onchip_memory+0xf7800f60>

00000fd8 <fwrite>:
     fd8:	defffe04 	addi	sp,sp,-8
     fdc:	008000b4 	movhi	r2,2
     fe0:	d9c00015 	stw	r7,0(sp)
     fe4:	10ba9104 	addi	r2,r2,-5564
     fe8:	300f883a 	mov	r7,r6
     fec:	280d883a 	mov	r6,r5
     ff0:	200b883a 	mov	r5,r4
     ff4:	11000017 	ldw	r4,0(r2)
     ff8:	dfc00115 	stw	ra,4(sp)
     ffc:	0000f0c0 	call	f0c <_fwrite_r>
    1000:	dfc00117 	ldw	ra,4(sp)
    1004:	dec00204 	addi	sp,sp,8
    1008:	f800283a 	ret

0000100c <_printf_r>:
    100c:	defffd04 	addi	sp,sp,-12
    1010:	2805883a 	mov	r2,r5
    1014:	dfc00015 	stw	ra,0(sp)
    1018:	d9800115 	stw	r6,4(sp)
    101c:	d9c00215 	stw	r7,8(sp)
    1020:	21400217 	ldw	r5,8(r4)
    1024:	d9c00104 	addi	r7,sp,4
    1028:	100d883a 	mov	r6,r2
    102c:	00012040 	call	1204 <___vfprintf_internal_r>
    1030:	dfc00017 	ldw	ra,0(sp)
    1034:	dec00304 	addi	sp,sp,12
    1038:	f800283a 	ret

0000103c <printf>:
    103c:	defffc04 	addi	sp,sp,-16
    1040:	dfc00015 	stw	ra,0(sp)
    1044:	d9400115 	stw	r5,4(sp)
    1048:	d9800215 	stw	r6,8(sp)
    104c:	d9c00315 	stw	r7,12(sp)
    1050:	008000b4 	movhi	r2,2
    1054:	10ba9104 	addi	r2,r2,-5564
    1058:	10800017 	ldw	r2,0(r2)
    105c:	200b883a 	mov	r5,r4
    1060:	d9800104 	addi	r6,sp,4
    1064:	11000217 	ldw	r4,8(r2)
    1068:	00033fc0 	call	33fc <__vfprintf_internal>
    106c:	dfc00017 	ldw	ra,0(sp)
    1070:	dec00404 	addi	sp,sp,16
    1074:	f800283a 	ret

00001078 <_putchar_r>:
    1078:	21800217 	ldw	r6,8(r4)
    107c:	00080401 	jmpi	8040 <_putc_r>

00001080 <putchar>:
    1080:	008000b4 	movhi	r2,2
    1084:	10ba9104 	addi	r2,r2,-5564
    1088:	200b883a 	mov	r5,r4
    108c:	11000017 	ldw	r4,0(r2)
    1090:	21800217 	ldw	r6,8(r4)
    1094:	00080401 	jmpi	8040 <_putc_r>

00001098 <_puts_r>:
    1098:	defff604 	addi	sp,sp,-40
    109c:	dc000715 	stw	r16,28(sp)
    10a0:	2021883a 	mov	r16,r4
    10a4:	2809883a 	mov	r4,r5
    10a8:	dc400815 	stw	r17,32(sp)
    10ac:	dfc00915 	stw	ra,36(sp)
    10b0:	2823883a 	mov	r17,r5
    10b4:	000116c0 	call	116c <strlen>
    10b8:	10c00044 	addi	r3,r2,1
    10bc:	d8800115 	stw	r2,4(sp)
    10c0:	008000b4 	movhi	r2,2
    10c4:	10b19104 	addi	r2,r2,-14780
    10c8:	d8800215 	stw	r2,8(sp)
    10cc:	00800044 	movi	r2,1
    10d0:	d8800315 	stw	r2,12(sp)
    10d4:	00800084 	movi	r2,2
    10d8:	dc400015 	stw	r17,0(sp)
    10dc:	d8c00615 	stw	r3,24(sp)
    10e0:	dec00415 	stw	sp,16(sp)
    10e4:	d8800515 	stw	r2,20(sp)
    10e8:	80000226 	beq	r16,zero,10f4 <_puts_r+0x5c>
    10ec:	80800e17 	ldw	r2,56(r16)
    10f0:	10001426 	beq	r2,zero,1144 <_puts_r+0xac>
    10f4:	81400217 	ldw	r5,8(r16)
    10f8:	2880030b 	ldhu	r2,12(r5)
    10fc:	10c8000c 	andi	r3,r2,8192
    1100:	1800061e 	bne	r3,zero,111c <_puts_r+0x84>
    1104:	29001917 	ldw	r4,100(r5)
    1108:	00f7ffc4 	movi	r3,-8193
    110c:	10880014 	ori	r2,r2,8192
    1110:	20c6703a 	and	r3,r4,r3
    1114:	2880030d 	sth	r2,12(r5)
    1118:	28c01915 	stw	r3,100(r5)
    111c:	d9800404 	addi	r6,sp,16
    1120:	8009883a 	mov	r4,r16
    1124:	0005aac0 	call	5aac <__sfvwrite_r>
    1128:	1000091e 	bne	r2,zero,1150 <_puts_r+0xb8>
    112c:	00800284 	movi	r2,10
    1130:	dfc00917 	ldw	ra,36(sp)
    1134:	dc400817 	ldw	r17,32(sp)
    1138:	dc000717 	ldw	r16,28(sp)
    113c:	dec00a04 	addi	sp,sp,40
    1140:	f800283a 	ret
    1144:	8009883a 	mov	r4,r16
    1148:	00056280 	call	5628 <__sinit>
    114c:	003fe906 	br	10f4 <__alt_mem_onchip_memory+0xf78010f4>
    1150:	00bfffc4 	movi	r2,-1
    1154:	003ff606 	br	1130 <__alt_mem_onchip_memory+0xf7801130>

00001158 <puts>:
    1158:	008000b4 	movhi	r2,2
    115c:	10ba9104 	addi	r2,r2,-5564
    1160:	200b883a 	mov	r5,r4
    1164:	11000017 	ldw	r4,0(r2)
    1168:	00010981 	jmpi	1098 <_puts_r>

0000116c <strlen>:
    116c:	208000cc 	andi	r2,r4,3
    1170:	10002026 	beq	r2,zero,11f4 <strlen+0x88>
    1174:	20800007 	ldb	r2,0(r4)
    1178:	10002026 	beq	r2,zero,11fc <strlen+0x90>
    117c:	2005883a 	mov	r2,r4
    1180:	00000206 	br	118c <strlen+0x20>
    1184:	10c00007 	ldb	r3,0(r2)
    1188:	18001826 	beq	r3,zero,11ec <strlen+0x80>
    118c:	10800044 	addi	r2,r2,1
    1190:	10c000cc 	andi	r3,r2,3
    1194:	183ffb1e 	bne	r3,zero,1184 <__alt_mem_onchip_memory+0xf7801184>
    1198:	10c00017 	ldw	r3,0(r2)
    119c:	01ffbff4 	movhi	r7,65279
    11a0:	39ffbfc4 	addi	r7,r7,-257
    11a4:	00ca303a 	nor	r5,zero,r3
    11a8:	01a02074 	movhi	r6,32897
    11ac:	19c7883a 	add	r3,r3,r7
    11b0:	31a02004 	addi	r6,r6,-32640
    11b4:	1946703a 	and	r3,r3,r5
    11b8:	1986703a 	and	r3,r3,r6
    11bc:	1800091e 	bne	r3,zero,11e4 <strlen+0x78>
    11c0:	10800104 	addi	r2,r2,4
    11c4:	10c00017 	ldw	r3,0(r2)
    11c8:	19cb883a 	add	r5,r3,r7
    11cc:	00c6303a 	nor	r3,zero,r3
    11d0:	28c6703a 	and	r3,r5,r3
    11d4:	1986703a 	and	r3,r3,r6
    11d8:	183ff926 	beq	r3,zero,11c0 <__alt_mem_onchip_memory+0xf78011c0>
    11dc:	00000106 	br	11e4 <strlen+0x78>
    11e0:	10800044 	addi	r2,r2,1
    11e4:	10c00007 	ldb	r3,0(r2)
    11e8:	183ffd1e 	bne	r3,zero,11e0 <__alt_mem_onchip_memory+0xf78011e0>
    11ec:	1105c83a 	sub	r2,r2,r4
    11f0:	f800283a 	ret
    11f4:	2005883a 	mov	r2,r4
    11f8:	003fe706 	br	1198 <__alt_mem_onchip_memory+0xf7801198>
    11fc:	0005883a 	mov	r2,zero
    1200:	f800283a 	ret

00001204 <___vfprintf_internal_r>:
    1204:	deffb804 	addi	sp,sp,-288
    1208:	dfc04715 	stw	ra,284(sp)
    120c:	ddc04515 	stw	r23,276(sp)
    1210:	dd404315 	stw	r21,268(sp)
    1214:	d9002c15 	stw	r4,176(sp)
    1218:	282f883a 	mov	r23,r5
    121c:	302b883a 	mov	r21,r6
    1220:	d9c02d15 	stw	r7,180(sp)
    1224:	df004615 	stw	fp,280(sp)
    1228:	dd804415 	stw	r22,272(sp)
    122c:	dd004215 	stw	r20,264(sp)
    1230:	dcc04115 	stw	r19,260(sp)
    1234:	dc804015 	stw	r18,256(sp)
    1238:	dc403f15 	stw	r17,252(sp)
    123c:	dc003e15 	stw	r16,248(sp)
    1240:	000619c0 	call	619c <_localeconv_r>
    1244:	10800017 	ldw	r2,0(r2)
    1248:	1009883a 	mov	r4,r2
    124c:	d8803415 	stw	r2,208(sp)
    1250:	000116c0 	call	116c <strlen>
    1254:	d8803715 	stw	r2,220(sp)
    1258:	d8802c17 	ldw	r2,176(sp)
    125c:	10000226 	beq	r2,zero,1268 <___vfprintf_internal_r+0x64>
    1260:	10800e17 	ldw	r2,56(r2)
    1264:	1000f926 	beq	r2,zero,164c <___vfprintf_internal_r+0x448>
    1268:	b880030b 	ldhu	r2,12(r23)
    126c:	10c8000c 	andi	r3,r2,8192
    1270:	1800061e 	bne	r3,zero,128c <___vfprintf_internal_r+0x88>
    1274:	b9001917 	ldw	r4,100(r23)
    1278:	00f7ffc4 	movi	r3,-8193
    127c:	10880014 	ori	r2,r2,8192
    1280:	20c6703a 	and	r3,r4,r3
    1284:	b880030d 	sth	r2,12(r23)
    1288:	b8c01915 	stw	r3,100(r23)
    128c:	10c0020c 	andi	r3,r2,8
    1290:	1800c126 	beq	r3,zero,1598 <___vfprintf_internal_r+0x394>
    1294:	b8c00417 	ldw	r3,16(r23)
    1298:	1800bf26 	beq	r3,zero,1598 <___vfprintf_internal_r+0x394>
    129c:	1080068c 	andi	r2,r2,26
    12a0:	00c00284 	movi	r3,10
    12a4:	10c0c426 	beq	r2,r3,15b8 <___vfprintf_internal_r+0x3b4>
    12a8:	d8c00404 	addi	r3,sp,16
    12ac:	050000b4 	movhi	r20,2
    12b0:	d9001e04 	addi	r4,sp,120
    12b4:	a531a284 	addi	r20,r20,-14710
    12b8:	d8c01e15 	stw	r3,120(sp)
    12bc:	d8002015 	stw	zero,128(sp)
    12c0:	d8001f15 	stw	zero,124(sp)
    12c4:	d8003315 	stw	zero,204(sp)
    12c8:	d8003615 	stw	zero,216(sp)
    12cc:	d8003815 	stw	zero,224(sp)
    12d0:	1811883a 	mov	r8,r3
    12d4:	d8003915 	stw	zero,228(sp)
    12d8:	d8003a15 	stw	zero,232(sp)
    12dc:	d8002f15 	stw	zero,188(sp)
    12e0:	d9002815 	stw	r4,160(sp)
    12e4:	a8800007 	ldb	r2,0(r21)
    12e8:	10027b26 	beq	r2,zero,1cd8 <___vfprintf_internal_r+0xad4>
    12ec:	00c00944 	movi	r3,37
    12f0:	a821883a 	mov	r16,r21
    12f4:	10c0021e 	bne	r2,r3,1300 <___vfprintf_internal_r+0xfc>
    12f8:	00001406 	br	134c <___vfprintf_internal_r+0x148>
    12fc:	10c00326 	beq	r2,r3,130c <___vfprintf_internal_r+0x108>
    1300:	84000044 	addi	r16,r16,1
    1304:	80800007 	ldb	r2,0(r16)
    1308:	103ffc1e 	bne	r2,zero,12fc <__alt_mem_onchip_memory+0xf78012fc>
    130c:	8563c83a 	sub	r17,r16,r21
    1310:	88000e26 	beq	r17,zero,134c <___vfprintf_internal_r+0x148>
    1314:	d8c02017 	ldw	r3,128(sp)
    1318:	d8801f17 	ldw	r2,124(sp)
    131c:	45400015 	stw	r21,0(r8)
    1320:	1c47883a 	add	r3,r3,r17
    1324:	10800044 	addi	r2,r2,1
    1328:	d8c02015 	stw	r3,128(sp)
    132c:	44400115 	stw	r17,4(r8)
    1330:	d8801f15 	stw	r2,124(sp)
    1334:	00c001c4 	movi	r3,7
    1338:	1880a716 	blt	r3,r2,15d8 <___vfprintf_internal_r+0x3d4>
    133c:	42000204 	addi	r8,r8,8
    1340:	d9402f17 	ldw	r5,188(sp)
    1344:	2c4b883a 	add	r5,r5,r17
    1348:	d9402f15 	stw	r5,188(sp)
    134c:	80800007 	ldb	r2,0(r16)
    1350:	1000a826 	beq	r2,zero,15f4 <___vfprintf_internal_r+0x3f0>
    1354:	84400047 	ldb	r17,1(r16)
    1358:	00bfffc4 	movi	r2,-1
    135c:	85400044 	addi	r21,r16,1
    1360:	d8002785 	stb	zero,158(sp)
    1364:	0007883a 	mov	r3,zero
    1368:	000f883a 	mov	r7,zero
    136c:	d8802915 	stw	r2,164(sp)
    1370:	d8003115 	stw	zero,196(sp)
    1374:	0025883a 	mov	r18,zero
    1378:	01401604 	movi	r5,88
    137c:	01800244 	movi	r6,9
    1380:	02800a84 	movi	r10,42
    1384:	02401b04 	movi	r9,108
    1388:	ad400044 	addi	r21,r21,1
    138c:	88bff804 	addi	r2,r17,-32
    1390:	28830436 	bltu	r5,r2,1fa4 <___vfprintf_internal_r+0xda0>
    1394:	100490ba 	slli	r2,r2,2
    1398:	01000034 	movhi	r4,0
    139c:	2104eb04 	addi	r4,r4,5036
    13a0:	1105883a 	add	r2,r2,r4
    13a4:	10800017 	ldw	r2,0(r2)
    13a8:	1000683a 	jmp	r2
    13ac:	00001ec4 	movi	zero,123
    13b0:	00001fa4 	muli	zero,zero,126
    13b4:	00001fa4 	muli	zero,zero,126
    13b8:	00001ee4 	muli	zero,zero,123
    13bc:	00001fa4 	muli	zero,zero,126
    13c0:	00001fa4 	muli	zero,zero,126
    13c4:	00001fa4 	muli	zero,zero,126
    13c8:	00001fa4 	muli	zero,zero,126
    13cc:	00001fa4 	muli	zero,zero,126
    13d0:	00001fa4 	muli	zero,zero,126
    13d4:	00001658 	cmpnei	zero,zero,89
    13d8:	00001e00 	call	1e0 <alt_instruction_exception_entry+0xc>
    13dc:	00001fa4 	muli	zero,zero,126
    13e0:	00001520 	cmpeqi	zero,zero,84
    13e4:	00001680 	call	168 <alt_irq_handler+0x6c>
    13e8:	00001fa4 	muli	zero,zero,126
    13ec:	000016c0 	call	16c <alt_irq_handler+0x70>
    13f0:	000016cc 	andi	zero,zero,91
    13f4:	000016cc 	andi	zero,zero,91
    13f8:	000016cc 	andi	zero,zero,91
    13fc:	000016cc 	andi	zero,zero,91
    1400:	000016cc 	andi	zero,zero,91
    1404:	000016cc 	andi	zero,zero,91
    1408:	000016cc 	andi	zero,zero,91
    140c:	000016cc 	andi	zero,zero,91
    1410:	000016cc 	andi	zero,zero,91
    1414:	00001fa4 	muli	zero,zero,126
    1418:	00001fa4 	muli	zero,zero,126
    141c:	00001fa4 	muli	zero,zero,126
    1420:	00001fa4 	muli	zero,zero,126
    1424:	00001fa4 	muli	zero,zero,126
    1428:	00001fa4 	muli	zero,zero,126
    142c:	00001fa4 	muli	zero,zero,126
    1430:	00001fa4 	muli	zero,zero,126
    1434:	00001fa4 	muli	zero,zero,126
    1438:	00001fa4 	muli	zero,zero,126
    143c:	00001700 	call	170 <alt_irq_handler+0x74>
    1440:	000017bc 	xorhi	zero,zero,94
    1444:	00001fa4 	muli	zero,zero,126
    1448:	000017bc 	xorhi	zero,zero,94
    144c:	00001fa4 	muli	zero,zero,126
    1450:	00001fa4 	muli	zero,zero,126
    1454:	00001fa4 	muli	zero,zero,126
    1458:	00001fa4 	muli	zero,zero,126
    145c:	0000185c 	xori	zero,zero,97
    1460:	00001fa4 	muli	zero,zero,126
    1464:	00001fa4 	muli	zero,zero,126
    1468:	00001868 	cmpgeui	zero,zero,97
    146c:	00001fa4 	muli	zero,zero,126
    1470:	00001fa4 	muli	zero,zero,126
    1474:	00001fa4 	muli	zero,zero,126
    1478:	00001fa4 	muli	zero,zero,126
    147c:	00001fa4 	muli	zero,zero,126
    1480:	00001ce0 	cmpeqi	zero,zero,115
    1484:	00001fa4 	muli	zero,zero,126
    1488:	00001fa4 	muli	zero,zero,126
    148c:	00001d40 	call	1d4 <alt_instruction_exception_entry>
    1490:	00001fa4 	muli	zero,zero,126
    1494:	00001fa4 	muli	zero,zero,126
    1498:	00001fa4 	muli	zero,zero,126
    149c:	00001fa4 	muli	zero,zero,126
    14a0:	00001fa4 	muli	zero,zero,126
    14a4:	00001fa4 	muli	zero,zero,126
    14a8:	00001fa4 	muli	zero,zero,126
    14ac:	00001fa4 	muli	zero,zero,126
    14b0:	00001fa4 	muli	zero,zero,126
    14b4:	00001fa4 	muli	zero,zero,126
    14b8:	00001f50 	cmplti	zero,zero,125
    14bc:	00001ef0 	cmpltui	zero,zero,123
    14c0:	000017bc 	xorhi	zero,zero,94
    14c4:	000017bc 	xorhi	zero,zero,94
    14c8:	000017bc 	xorhi	zero,zero,94
    14cc:	00001f00 	call	1f0 <alt_instruction_exception_entry+0x1c>
    14d0:	00001ef0 	cmpltui	zero,zero,123
    14d4:	00001fa4 	muli	zero,zero,126
    14d8:	00001fa4 	muli	zero,zero,126
    14dc:	00001f0c 	andi	zero,zero,124
    14e0:	00001fa4 	muli	zero,zero,126
    14e4:	00001f1c 	xori	zero,zero,124
    14e8:	00001df0 	cmpltui	zero,zero,119
    14ec:	0000152c 	andhi	zero,zero,84
    14f0:	00001e10 	cmplti	zero,zero,120
    14f4:	00001fa4 	muli	zero,zero,126
    14f8:	00001e1c 	xori	zero,zero,120
    14fc:	00001fa4 	muli	zero,zero,126
    1500:	00001e78 	rdprs	zero,zero,121
    1504:	00001fa4 	muli	zero,zero,126
    1508:	00001fa4 	muli	zero,zero,126
    150c:	00001e88 	cmpgei	zero,zero,122
    1510:	d9003117 	ldw	r4,196(sp)
    1514:	d8802d15 	stw	r2,180(sp)
    1518:	0109c83a 	sub	r4,zero,r4
    151c:	d9003115 	stw	r4,196(sp)
    1520:	94800114 	ori	r18,r18,4
    1524:	ac400007 	ldb	r17,0(r21)
    1528:	003f9706 	br	1388 <__alt_mem_onchip_memory+0xf7801388>
    152c:	00800c04 	movi	r2,48
    1530:	d9002d17 	ldw	r4,180(sp)
    1534:	d9402917 	ldw	r5,164(sp)
    1538:	d8802705 	stb	r2,156(sp)
    153c:	00801e04 	movi	r2,120
    1540:	d8802745 	stb	r2,157(sp)
    1544:	d8002785 	stb	zero,158(sp)
    1548:	20c00104 	addi	r3,r4,4
    154c:	24c00017 	ldw	r19,0(r4)
    1550:	002d883a 	mov	r22,zero
    1554:	90800094 	ori	r2,r18,2
    1558:	28029a16 	blt	r5,zero,1fc4 <___vfprintf_internal_r+0xdc0>
    155c:	00bfdfc4 	movi	r2,-129
    1560:	90a4703a 	and	r18,r18,r2
    1564:	d8c02d15 	stw	r3,180(sp)
    1568:	94800094 	ori	r18,r18,2
    156c:	9802871e 	bne	r19,zero,1f8c <___vfprintf_internal_r+0xd88>
    1570:	008000b4 	movhi	r2,2
    1574:	10b19b04 	addi	r2,r2,-14740
    1578:	d8803915 	stw	r2,228(sp)
    157c:	04401e04 	movi	r17,120
    1580:	d8802917 	ldw	r2,164(sp)
    1584:	0039883a 	mov	fp,zero
    1588:	1001e926 	beq	r2,zero,1d30 <___vfprintf_internal_r+0xb2c>
    158c:	0027883a 	mov	r19,zero
    1590:	002d883a 	mov	r22,zero
    1594:	00020506 	br	1dac <___vfprintf_internal_r+0xba8>
    1598:	d9002c17 	ldw	r4,176(sp)
    159c:	b80b883a 	mov	r5,r23
    15a0:	00034d40 	call	34d4 <__swsetup_r>
    15a4:	1005ac1e 	bne	r2,zero,2c58 <___vfprintf_internal_r+0x1a54>
    15a8:	b880030b 	ldhu	r2,12(r23)
    15ac:	00c00284 	movi	r3,10
    15b0:	1080068c 	andi	r2,r2,26
    15b4:	10ff3c1e 	bne	r2,r3,12a8 <__alt_mem_onchip_memory+0xf78012a8>
    15b8:	b880038f 	ldh	r2,14(r23)
    15bc:	103f3a16 	blt	r2,zero,12a8 <__alt_mem_onchip_memory+0xf78012a8>
    15c0:	d9c02d17 	ldw	r7,180(sp)
    15c4:	d9002c17 	ldw	r4,176(sp)
    15c8:	a80d883a 	mov	r6,r21
    15cc:	b80b883a 	mov	r5,r23
    15d0:	00034180 	call	3418 <__sbprintf>
    15d4:	00001106 	br	161c <___vfprintf_internal_r+0x418>
    15d8:	d9002c17 	ldw	r4,176(sp)
    15dc:	d9801e04 	addi	r6,sp,120
    15e0:	b80b883a 	mov	r5,r23
    15e4:	0008ae80 	call	8ae8 <__sprint_r>
    15e8:	1000081e 	bne	r2,zero,160c <___vfprintf_internal_r+0x408>
    15ec:	da000404 	addi	r8,sp,16
    15f0:	003f5306 	br	1340 <__alt_mem_onchip_memory+0xf7801340>
    15f4:	d8802017 	ldw	r2,128(sp)
    15f8:	10000426 	beq	r2,zero,160c <___vfprintf_internal_r+0x408>
    15fc:	d9002c17 	ldw	r4,176(sp)
    1600:	d9801e04 	addi	r6,sp,120
    1604:	b80b883a 	mov	r5,r23
    1608:	0008ae80 	call	8ae8 <__sprint_r>
    160c:	b880030b 	ldhu	r2,12(r23)
    1610:	1080100c 	andi	r2,r2,64
    1614:	1005901e 	bne	r2,zero,2c58 <___vfprintf_internal_r+0x1a54>
    1618:	d8802f17 	ldw	r2,188(sp)
    161c:	dfc04717 	ldw	ra,284(sp)
    1620:	df004617 	ldw	fp,280(sp)
    1624:	ddc04517 	ldw	r23,276(sp)
    1628:	dd804417 	ldw	r22,272(sp)
    162c:	dd404317 	ldw	r21,268(sp)
    1630:	dd004217 	ldw	r20,264(sp)
    1634:	dcc04117 	ldw	r19,260(sp)
    1638:	dc804017 	ldw	r18,256(sp)
    163c:	dc403f17 	ldw	r17,252(sp)
    1640:	dc003e17 	ldw	r16,248(sp)
    1644:	dec04804 	addi	sp,sp,288
    1648:	f800283a 	ret
    164c:	d9002c17 	ldw	r4,176(sp)
    1650:	00056280 	call	5628 <__sinit>
    1654:	003f0406 	br	1268 <__alt_mem_onchip_memory+0xf7801268>
    1658:	d8802d17 	ldw	r2,180(sp)
    165c:	d9002d17 	ldw	r4,180(sp)
    1660:	10800017 	ldw	r2,0(r2)
    1664:	d8803115 	stw	r2,196(sp)
    1668:	20800104 	addi	r2,r4,4
    166c:	d9003117 	ldw	r4,196(sp)
    1670:	203fa716 	blt	r4,zero,1510 <__alt_mem_onchip_memory+0xf7801510>
    1674:	d8802d15 	stw	r2,180(sp)
    1678:	ac400007 	ldb	r17,0(r21)
    167c:	003f4206 	br	1388 <__alt_mem_onchip_memory+0xf7801388>
    1680:	ac400007 	ldb	r17,0(r21)
    1684:	aac00044 	addi	r11,r21,1
    1688:	8a872826 	beq	r17,r10,332c <___vfprintf_internal_r+0x2128>
    168c:	88bff404 	addi	r2,r17,-48
    1690:	0009883a 	mov	r4,zero
    1694:	30867d36 	bltu	r6,r2,308c <___vfprintf_internal_r+0x1e88>
    1698:	5c400007 	ldb	r17,0(r11)
    169c:	210002a4 	muli	r4,r4,10
    16a0:	5d400044 	addi	r21,r11,1
    16a4:	a817883a 	mov	r11,r21
    16a8:	2089883a 	add	r4,r4,r2
    16ac:	88bff404 	addi	r2,r17,-48
    16b0:	30bff92e 	bgeu	r6,r2,1698 <__alt_mem_onchip_memory+0xf7801698>
    16b4:	2005c916 	blt	r4,zero,2ddc <___vfprintf_internal_r+0x1bd8>
    16b8:	d9002915 	stw	r4,164(sp)
    16bc:	003f3306 	br	138c <__alt_mem_onchip_memory+0xf780138c>
    16c0:	94802014 	ori	r18,r18,128
    16c4:	ac400007 	ldb	r17,0(r21)
    16c8:	003f2f06 	br	1388 <__alt_mem_onchip_memory+0xf7801388>
    16cc:	a809883a 	mov	r4,r21
    16d0:	d8003115 	stw	zero,196(sp)
    16d4:	88bff404 	addi	r2,r17,-48
    16d8:	0017883a 	mov	r11,zero
    16dc:	24400007 	ldb	r17,0(r4)
    16e0:	5ac002a4 	muli	r11,r11,10
    16e4:	ad400044 	addi	r21,r21,1
    16e8:	a809883a 	mov	r4,r21
    16ec:	12d7883a 	add	r11,r2,r11
    16f0:	88bff404 	addi	r2,r17,-48
    16f4:	30bff92e 	bgeu	r6,r2,16dc <__alt_mem_onchip_memory+0xf78016dc>
    16f8:	dac03115 	stw	r11,196(sp)
    16fc:	003f2306 	br	138c <__alt_mem_onchip_memory+0xf780138c>
    1700:	18c03fcc 	andi	r3,r3,255
    1704:	18072b1e 	bne	r3,zero,33b4 <___vfprintf_internal_r+0x21b0>
    1708:	94800414 	ori	r18,r18,16
    170c:	9080080c 	andi	r2,r18,32
    1710:	10037b26 	beq	r2,zero,2500 <___vfprintf_internal_r+0x12fc>
    1714:	d9402d17 	ldw	r5,180(sp)
    1718:	28800117 	ldw	r2,4(r5)
    171c:	2cc00017 	ldw	r19,0(r5)
    1720:	29400204 	addi	r5,r5,8
    1724:	d9402d15 	stw	r5,180(sp)
    1728:	102d883a 	mov	r22,r2
    172c:	10044b16 	blt	r2,zero,285c <___vfprintf_internal_r+0x1658>
    1730:	d9402917 	ldw	r5,164(sp)
    1734:	df002783 	ldbu	fp,158(sp)
    1738:	2803bc16 	blt	r5,zero,262c <___vfprintf_internal_r+0x1428>
    173c:	00ffdfc4 	movi	r3,-129
    1740:	9d84b03a 	or	r2,r19,r22
    1744:	90e4703a 	and	r18,r18,r3
    1748:	10017726 	beq	r2,zero,1d28 <___vfprintf_internal_r+0xb24>
    174c:	b0038326 	beq	r22,zero,255c <___vfprintf_internal_r+0x1358>
    1750:	dc402a15 	stw	r17,168(sp)
    1754:	dc001e04 	addi	r16,sp,120
    1758:	b023883a 	mov	r17,r22
    175c:	402d883a 	mov	r22,r8
    1760:	9809883a 	mov	r4,r19
    1764:	880b883a 	mov	r5,r17
    1768:	01800284 	movi	r6,10
    176c:	000f883a 	mov	r7,zero
    1770:	000aee00 	call	aee0 <__umoddi3>
    1774:	10800c04 	addi	r2,r2,48
    1778:	843fffc4 	addi	r16,r16,-1
    177c:	9809883a 	mov	r4,r19
    1780:	880b883a 	mov	r5,r17
    1784:	80800005 	stb	r2,0(r16)
    1788:	01800284 	movi	r6,10
    178c:	000f883a 	mov	r7,zero
    1790:	000a9680 	call	a968 <__udivdi3>
    1794:	1027883a 	mov	r19,r2
    1798:	10c4b03a 	or	r2,r2,r3
    179c:	1823883a 	mov	r17,r3
    17a0:	103fef1e 	bne	r2,zero,1760 <__alt_mem_onchip_memory+0xf7801760>
    17a4:	d8c02817 	ldw	r3,160(sp)
    17a8:	dc402a17 	ldw	r17,168(sp)
    17ac:	b011883a 	mov	r8,r22
    17b0:	1c07c83a 	sub	r3,r3,r16
    17b4:	d8c02e15 	stw	r3,184(sp)
    17b8:	00005906 	br	1920 <___vfprintf_internal_r+0x71c>
    17bc:	18c03fcc 	andi	r3,r3,255
    17c0:	1806fa1e 	bne	r3,zero,33ac <___vfprintf_internal_r+0x21a8>
    17c4:	9080020c 	andi	r2,r18,8
    17c8:	10048a26 	beq	r2,zero,29f4 <___vfprintf_internal_r+0x17f0>
    17cc:	d8c02d17 	ldw	r3,180(sp)
    17d0:	d9002d17 	ldw	r4,180(sp)
    17d4:	d9402d17 	ldw	r5,180(sp)
    17d8:	18c00017 	ldw	r3,0(r3)
    17dc:	21000117 	ldw	r4,4(r4)
    17e0:	29400204 	addi	r5,r5,8
    17e4:	d8c03615 	stw	r3,216(sp)
    17e8:	d9003815 	stw	r4,224(sp)
    17ec:	d9402d15 	stw	r5,180(sp)
    17f0:	d9003617 	ldw	r4,216(sp)
    17f4:	d9403817 	ldw	r5,224(sp)
    17f8:	da003d15 	stw	r8,244(sp)
    17fc:	04000044 	movi	r16,1
    1800:	000870c0 	call	870c <__fpclassifyd>
    1804:	da003d17 	ldw	r8,244(sp)
    1808:	14041f1e 	bne	r2,r16,2888 <___vfprintf_internal_r+0x1684>
    180c:	d9003617 	ldw	r4,216(sp)
    1810:	d9403817 	ldw	r5,224(sp)
    1814:	000d883a 	mov	r6,zero
    1818:	000f883a 	mov	r7,zero
    181c:	000c8c40 	call	c8c4 <__ledf2>
    1820:	da003d17 	ldw	r8,244(sp)
    1824:	1005be16 	blt	r2,zero,2f20 <___vfprintf_internal_r+0x1d1c>
    1828:	df002783 	ldbu	fp,158(sp)
    182c:	008011c4 	movi	r2,71
    1830:	1445330e 	bge	r2,r17,2d00 <___vfprintf_internal_r+0x1afc>
    1834:	040000b4 	movhi	r16,2
    1838:	84319304 	addi	r16,r16,-14772
    183c:	00c000c4 	movi	r3,3
    1840:	00bfdfc4 	movi	r2,-129
    1844:	d8c02a15 	stw	r3,168(sp)
    1848:	90a4703a 	and	r18,r18,r2
    184c:	d8c02e15 	stw	r3,184(sp)
    1850:	d8002915 	stw	zero,164(sp)
    1854:	d8003215 	stw	zero,200(sp)
    1858:	00003706 	br	1938 <___vfprintf_internal_r+0x734>
    185c:	94800214 	ori	r18,r18,8
    1860:	ac400007 	ldb	r17,0(r21)
    1864:	003ec806 	br	1388 <__alt_mem_onchip_memory+0xf7801388>
    1868:	18c03fcc 	andi	r3,r3,255
    186c:	1806db1e 	bne	r3,zero,33dc <___vfprintf_internal_r+0x21d8>
    1870:	94800414 	ori	r18,r18,16
    1874:	9080080c 	andi	r2,r18,32
    1878:	1002d826 	beq	r2,zero,23dc <___vfprintf_internal_r+0x11d8>
    187c:	d9402d17 	ldw	r5,180(sp)
    1880:	d8c02917 	ldw	r3,164(sp)
    1884:	d8002785 	stb	zero,158(sp)
    1888:	28800204 	addi	r2,r5,8
    188c:	2cc00017 	ldw	r19,0(r5)
    1890:	2d800117 	ldw	r22,4(r5)
    1894:	18048f16 	blt	r3,zero,2ad4 <___vfprintf_internal_r+0x18d0>
    1898:	013fdfc4 	movi	r4,-129
    189c:	9d86b03a 	or	r3,r19,r22
    18a0:	d8802d15 	stw	r2,180(sp)
    18a4:	9124703a 	and	r18,r18,r4
    18a8:	1802d91e 	bne	r3,zero,2410 <___vfprintf_internal_r+0x120c>
    18ac:	d8c02917 	ldw	r3,164(sp)
    18b0:	0039883a 	mov	fp,zero
    18b4:	1805c326 	beq	r3,zero,2fc4 <___vfprintf_internal_r+0x1dc0>
    18b8:	0027883a 	mov	r19,zero
    18bc:	002d883a 	mov	r22,zero
    18c0:	dc001e04 	addi	r16,sp,120
    18c4:	9806d0fa 	srli	r3,r19,3
    18c8:	b008977a 	slli	r4,r22,29
    18cc:	b02cd0fa 	srli	r22,r22,3
    18d0:	9cc001cc 	andi	r19,r19,7
    18d4:	98800c04 	addi	r2,r19,48
    18d8:	843fffc4 	addi	r16,r16,-1
    18dc:	20e6b03a 	or	r19,r4,r3
    18e0:	80800005 	stb	r2,0(r16)
    18e4:	9d86b03a 	or	r3,r19,r22
    18e8:	183ff61e 	bne	r3,zero,18c4 <__alt_mem_onchip_memory+0xf78018c4>
    18ec:	90c0004c 	andi	r3,r18,1
    18f0:	18013b26 	beq	r3,zero,1de0 <___vfprintf_internal_r+0xbdc>
    18f4:	10803fcc 	andi	r2,r2,255
    18f8:	1080201c 	xori	r2,r2,128
    18fc:	10bfe004 	addi	r2,r2,-128
    1900:	00c00c04 	movi	r3,48
    1904:	10c13626 	beq	r2,r3,1de0 <___vfprintf_internal_r+0xbdc>
    1908:	80ffffc5 	stb	r3,-1(r16)
    190c:	d8c02817 	ldw	r3,160(sp)
    1910:	80bfffc4 	addi	r2,r16,-1
    1914:	1021883a 	mov	r16,r2
    1918:	1887c83a 	sub	r3,r3,r2
    191c:	d8c02e15 	stw	r3,184(sp)
    1920:	d8802e17 	ldw	r2,184(sp)
    1924:	d9002917 	ldw	r4,164(sp)
    1928:	1100010e 	bge	r2,r4,1930 <___vfprintf_internal_r+0x72c>
    192c:	2005883a 	mov	r2,r4
    1930:	d8802a15 	stw	r2,168(sp)
    1934:	d8003215 	stw	zero,200(sp)
    1938:	e7003fcc 	andi	fp,fp,255
    193c:	e700201c 	xori	fp,fp,128
    1940:	e73fe004 	addi	fp,fp,-128
    1944:	e0000326 	beq	fp,zero,1954 <___vfprintf_internal_r+0x750>
    1948:	d8c02a17 	ldw	r3,168(sp)
    194c:	18c00044 	addi	r3,r3,1
    1950:	d8c02a15 	stw	r3,168(sp)
    1954:	90c0008c 	andi	r3,r18,2
    1958:	d8c02b15 	stw	r3,172(sp)
    195c:	18000326 	beq	r3,zero,196c <___vfprintf_internal_r+0x768>
    1960:	d8c02a17 	ldw	r3,168(sp)
    1964:	18c00084 	addi	r3,r3,2
    1968:	d8c02a15 	stw	r3,168(sp)
    196c:	90c0210c 	andi	r3,r18,132
    1970:	d8c03015 	stw	r3,192(sp)
    1974:	1801a31e 	bne	r3,zero,2004 <___vfprintf_internal_r+0xe00>
    1978:	d9003117 	ldw	r4,196(sp)
    197c:	d8c02a17 	ldw	r3,168(sp)
    1980:	20e7c83a 	sub	r19,r4,r3
    1984:	04c19f0e 	bge	zero,r19,2004 <___vfprintf_internal_r+0xe00>
    1988:	02400404 	movi	r9,16
    198c:	d8c02017 	ldw	r3,128(sp)
    1990:	d8801f17 	ldw	r2,124(sp)
    1994:	4cc50d0e 	bge	r9,r19,2dcc <___vfprintf_internal_r+0x1bc8>
    1998:	014000b4 	movhi	r5,2
    199c:	2971a684 	addi	r5,r5,-14694
    19a0:	dc403b15 	stw	r17,236(sp)
    19a4:	d9403515 	stw	r5,212(sp)
    19a8:	9823883a 	mov	r17,r19
    19ac:	482d883a 	mov	r22,r9
    19b0:	9027883a 	mov	r19,r18
    19b4:	070001c4 	movi	fp,7
    19b8:	8025883a 	mov	r18,r16
    19bc:	dc002c17 	ldw	r16,176(sp)
    19c0:	00000306 	br	19d0 <___vfprintf_internal_r+0x7cc>
    19c4:	8c7ffc04 	addi	r17,r17,-16
    19c8:	42000204 	addi	r8,r8,8
    19cc:	b440130e 	bge	r22,r17,1a1c <___vfprintf_internal_r+0x818>
    19d0:	010000b4 	movhi	r4,2
    19d4:	18c00404 	addi	r3,r3,16
    19d8:	10800044 	addi	r2,r2,1
    19dc:	2131a684 	addi	r4,r4,-14694
    19e0:	41000015 	stw	r4,0(r8)
    19e4:	45800115 	stw	r22,4(r8)
    19e8:	d8c02015 	stw	r3,128(sp)
    19ec:	d8801f15 	stw	r2,124(sp)
    19f0:	e0bff40e 	bge	fp,r2,19c4 <__alt_mem_onchip_memory+0xf78019c4>
    19f4:	d9801e04 	addi	r6,sp,120
    19f8:	b80b883a 	mov	r5,r23
    19fc:	8009883a 	mov	r4,r16
    1a00:	0008ae80 	call	8ae8 <__sprint_r>
    1a04:	103f011e 	bne	r2,zero,160c <__alt_mem_onchip_memory+0xf780160c>
    1a08:	8c7ffc04 	addi	r17,r17,-16
    1a0c:	d8c02017 	ldw	r3,128(sp)
    1a10:	d8801f17 	ldw	r2,124(sp)
    1a14:	da000404 	addi	r8,sp,16
    1a18:	b47fed16 	blt	r22,r17,19d0 <__alt_mem_onchip_memory+0xf78019d0>
    1a1c:	9021883a 	mov	r16,r18
    1a20:	9825883a 	mov	r18,r19
    1a24:	8827883a 	mov	r19,r17
    1a28:	dc403b17 	ldw	r17,236(sp)
    1a2c:	d9403517 	ldw	r5,212(sp)
    1a30:	98c7883a 	add	r3,r19,r3
    1a34:	10800044 	addi	r2,r2,1
    1a38:	41400015 	stw	r5,0(r8)
    1a3c:	44c00115 	stw	r19,4(r8)
    1a40:	d8c02015 	stw	r3,128(sp)
    1a44:	d8801f15 	stw	r2,124(sp)
    1a48:	010001c4 	movi	r4,7
    1a4c:	2082a316 	blt	r4,r2,24dc <___vfprintf_internal_r+0x12d8>
    1a50:	df002787 	ldb	fp,158(sp)
    1a54:	42000204 	addi	r8,r8,8
    1a58:	e0000c26 	beq	fp,zero,1a8c <___vfprintf_internal_r+0x888>
    1a5c:	d8801f17 	ldw	r2,124(sp)
    1a60:	d9002784 	addi	r4,sp,158
    1a64:	18c00044 	addi	r3,r3,1
    1a68:	10800044 	addi	r2,r2,1
    1a6c:	41000015 	stw	r4,0(r8)
    1a70:	01000044 	movi	r4,1
    1a74:	41000115 	stw	r4,4(r8)
    1a78:	d8c02015 	stw	r3,128(sp)
    1a7c:	d8801f15 	stw	r2,124(sp)
    1a80:	010001c4 	movi	r4,7
    1a84:	20823c16 	blt	r4,r2,2378 <___vfprintf_internal_r+0x1174>
    1a88:	42000204 	addi	r8,r8,8
    1a8c:	d8802b17 	ldw	r2,172(sp)
    1a90:	10000c26 	beq	r2,zero,1ac4 <___vfprintf_internal_r+0x8c0>
    1a94:	d8801f17 	ldw	r2,124(sp)
    1a98:	d9002704 	addi	r4,sp,156
    1a9c:	18c00084 	addi	r3,r3,2
    1aa0:	10800044 	addi	r2,r2,1
    1aa4:	41000015 	stw	r4,0(r8)
    1aa8:	01000084 	movi	r4,2
    1aac:	41000115 	stw	r4,4(r8)
    1ab0:	d8c02015 	stw	r3,128(sp)
    1ab4:	d8801f15 	stw	r2,124(sp)
    1ab8:	010001c4 	movi	r4,7
    1abc:	20823616 	blt	r4,r2,2398 <___vfprintf_internal_r+0x1194>
    1ac0:	42000204 	addi	r8,r8,8
    1ac4:	d9003017 	ldw	r4,192(sp)
    1ac8:	00802004 	movi	r2,128
    1acc:	20819926 	beq	r4,r2,2134 <___vfprintf_internal_r+0xf30>
    1ad0:	d9402917 	ldw	r5,164(sp)
    1ad4:	d8802e17 	ldw	r2,184(sp)
    1ad8:	28adc83a 	sub	r22,r5,r2
    1adc:	0580310e 	bge	zero,r22,1ba4 <___vfprintf_internal_r+0x9a0>
    1ae0:	07000404 	movi	fp,16
    1ae4:	d8801f17 	ldw	r2,124(sp)
    1ae8:	e584140e 	bge	fp,r22,2b3c <___vfprintf_internal_r+0x1938>
    1aec:	014000b4 	movhi	r5,2
    1af0:	2971a284 	addi	r5,r5,-14710
    1af4:	dc402915 	stw	r17,164(sp)
    1af8:	d9402b15 	stw	r5,172(sp)
    1afc:	b023883a 	mov	r17,r22
    1b00:	04c001c4 	movi	r19,7
    1b04:	a82d883a 	mov	r22,r21
    1b08:	902b883a 	mov	r21,r18
    1b0c:	8025883a 	mov	r18,r16
    1b10:	dc002c17 	ldw	r16,176(sp)
    1b14:	00000306 	br	1b24 <___vfprintf_internal_r+0x920>
    1b18:	8c7ffc04 	addi	r17,r17,-16
    1b1c:	42000204 	addi	r8,r8,8
    1b20:	e440110e 	bge	fp,r17,1b68 <___vfprintf_internal_r+0x964>
    1b24:	18c00404 	addi	r3,r3,16
    1b28:	10800044 	addi	r2,r2,1
    1b2c:	45000015 	stw	r20,0(r8)
    1b30:	47000115 	stw	fp,4(r8)
    1b34:	d8c02015 	stw	r3,128(sp)
    1b38:	d8801f15 	stw	r2,124(sp)
    1b3c:	98bff60e 	bge	r19,r2,1b18 <__alt_mem_onchip_memory+0xf7801b18>
    1b40:	d9801e04 	addi	r6,sp,120
    1b44:	b80b883a 	mov	r5,r23
    1b48:	8009883a 	mov	r4,r16
    1b4c:	0008ae80 	call	8ae8 <__sprint_r>
    1b50:	103eae1e 	bne	r2,zero,160c <__alt_mem_onchip_memory+0xf780160c>
    1b54:	8c7ffc04 	addi	r17,r17,-16
    1b58:	d8c02017 	ldw	r3,128(sp)
    1b5c:	d8801f17 	ldw	r2,124(sp)
    1b60:	da000404 	addi	r8,sp,16
    1b64:	e47fef16 	blt	fp,r17,1b24 <__alt_mem_onchip_memory+0xf7801b24>
    1b68:	9021883a 	mov	r16,r18
    1b6c:	a825883a 	mov	r18,r21
    1b70:	b02b883a 	mov	r21,r22
    1b74:	882d883a 	mov	r22,r17
    1b78:	dc402917 	ldw	r17,164(sp)
    1b7c:	d9002b17 	ldw	r4,172(sp)
    1b80:	1d87883a 	add	r3,r3,r22
    1b84:	10800044 	addi	r2,r2,1
    1b88:	41000015 	stw	r4,0(r8)
    1b8c:	45800115 	stw	r22,4(r8)
    1b90:	d8c02015 	stw	r3,128(sp)
    1b94:	d8801f15 	stw	r2,124(sp)
    1b98:	010001c4 	movi	r4,7
    1b9c:	2081ee16 	blt	r4,r2,2358 <___vfprintf_internal_r+0x1154>
    1ba0:	42000204 	addi	r8,r8,8
    1ba4:	9080400c 	andi	r2,r18,256
    1ba8:	1001181e 	bne	r2,zero,200c <___vfprintf_internal_r+0xe08>
    1bac:	d9402e17 	ldw	r5,184(sp)
    1bb0:	d8801f17 	ldw	r2,124(sp)
    1bb4:	44000015 	stw	r16,0(r8)
    1bb8:	1947883a 	add	r3,r3,r5
    1bbc:	10800044 	addi	r2,r2,1
    1bc0:	41400115 	stw	r5,4(r8)
    1bc4:	d8c02015 	stw	r3,128(sp)
    1bc8:	d8801f15 	stw	r2,124(sp)
    1bcc:	010001c4 	movi	r4,7
    1bd0:	2081d316 	blt	r4,r2,2320 <___vfprintf_internal_r+0x111c>
    1bd4:	42000204 	addi	r8,r8,8
    1bd8:	9480010c 	andi	r18,r18,4
    1bdc:	90003226 	beq	r18,zero,1ca8 <___vfprintf_internal_r+0xaa4>
    1be0:	d9403117 	ldw	r5,196(sp)
    1be4:	d8802a17 	ldw	r2,168(sp)
    1be8:	28a1c83a 	sub	r16,r5,r2
    1bec:	04002e0e 	bge	zero,r16,1ca8 <___vfprintf_internal_r+0xaa4>
    1bf0:	04400404 	movi	r17,16
    1bf4:	d8801f17 	ldw	r2,124(sp)
    1bf8:	8c04a20e 	bge	r17,r16,2e84 <___vfprintf_internal_r+0x1c80>
    1bfc:	014000b4 	movhi	r5,2
    1c00:	2971a684 	addi	r5,r5,-14694
    1c04:	d9403515 	stw	r5,212(sp)
    1c08:	048001c4 	movi	r18,7
    1c0c:	dcc02c17 	ldw	r19,176(sp)
    1c10:	00000306 	br	1c20 <___vfprintf_internal_r+0xa1c>
    1c14:	843ffc04 	addi	r16,r16,-16
    1c18:	42000204 	addi	r8,r8,8
    1c1c:	8c00130e 	bge	r17,r16,1c6c <___vfprintf_internal_r+0xa68>
    1c20:	010000b4 	movhi	r4,2
    1c24:	18c00404 	addi	r3,r3,16
    1c28:	10800044 	addi	r2,r2,1
    1c2c:	2131a684 	addi	r4,r4,-14694
    1c30:	41000015 	stw	r4,0(r8)
    1c34:	44400115 	stw	r17,4(r8)
    1c38:	d8c02015 	stw	r3,128(sp)
    1c3c:	d8801f15 	stw	r2,124(sp)
    1c40:	90bff40e 	bge	r18,r2,1c14 <__alt_mem_onchip_memory+0xf7801c14>
    1c44:	d9801e04 	addi	r6,sp,120
    1c48:	b80b883a 	mov	r5,r23
    1c4c:	9809883a 	mov	r4,r19
    1c50:	0008ae80 	call	8ae8 <__sprint_r>
    1c54:	103e6d1e 	bne	r2,zero,160c <__alt_mem_onchip_memory+0xf780160c>
    1c58:	843ffc04 	addi	r16,r16,-16
    1c5c:	d8c02017 	ldw	r3,128(sp)
    1c60:	d8801f17 	ldw	r2,124(sp)
    1c64:	da000404 	addi	r8,sp,16
    1c68:	8c3fed16 	blt	r17,r16,1c20 <__alt_mem_onchip_memory+0xf7801c20>
    1c6c:	d9403517 	ldw	r5,212(sp)
    1c70:	1c07883a 	add	r3,r3,r16
    1c74:	10800044 	addi	r2,r2,1
    1c78:	41400015 	stw	r5,0(r8)
    1c7c:	44000115 	stw	r16,4(r8)
    1c80:	d8c02015 	stw	r3,128(sp)
    1c84:	d8801f15 	stw	r2,124(sp)
    1c88:	010001c4 	movi	r4,7
    1c8c:	2080060e 	bge	r4,r2,1ca8 <___vfprintf_internal_r+0xaa4>
    1c90:	d9002c17 	ldw	r4,176(sp)
    1c94:	d9801e04 	addi	r6,sp,120
    1c98:	b80b883a 	mov	r5,r23
    1c9c:	0008ae80 	call	8ae8 <__sprint_r>
    1ca0:	103e5a1e 	bne	r2,zero,160c <__alt_mem_onchip_memory+0xf780160c>
    1ca4:	d8c02017 	ldw	r3,128(sp)
    1ca8:	d8803117 	ldw	r2,196(sp)
    1cac:	d9002a17 	ldw	r4,168(sp)
    1cb0:	1100010e 	bge	r2,r4,1cb8 <___vfprintf_internal_r+0xab4>
    1cb4:	2005883a 	mov	r2,r4
    1cb8:	d9402f17 	ldw	r5,188(sp)
    1cbc:	288b883a 	add	r5,r5,r2
    1cc0:	d9402f15 	stw	r5,188(sp)
    1cc4:	18019e1e 	bne	r3,zero,2340 <___vfprintf_internal_r+0x113c>
    1cc8:	a8800007 	ldb	r2,0(r21)
    1ccc:	d8001f15 	stw	zero,124(sp)
    1cd0:	da000404 	addi	r8,sp,16
    1cd4:	103d851e 	bne	r2,zero,12ec <__alt_mem_onchip_memory+0xf78012ec>
    1cd8:	a821883a 	mov	r16,r21
    1cdc:	003d9b06 	br	134c <__alt_mem_onchip_memory+0xf780134c>
    1ce0:	18c03fcc 	andi	r3,r3,255
    1ce4:	1805c11e 	bne	r3,zero,33ec <___vfprintf_internal_r+0x21e8>
    1ce8:	94800414 	ori	r18,r18,16
    1cec:	9080080c 	andi	r2,r18,32
    1cf0:	10020c26 	beq	r2,zero,2524 <___vfprintf_internal_r+0x1320>
    1cf4:	d8802d17 	ldw	r2,180(sp)
    1cf8:	d9002917 	ldw	r4,164(sp)
    1cfc:	d8002785 	stb	zero,158(sp)
    1d00:	10c00204 	addi	r3,r2,8
    1d04:	14c00017 	ldw	r19,0(r2)
    1d08:	15800117 	ldw	r22,4(r2)
    1d0c:	20040f16 	blt	r4,zero,2d4c <___vfprintf_internal_r+0x1b48>
    1d10:	013fdfc4 	movi	r4,-129
    1d14:	9d84b03a 	or	r2,r19,r22
    1d18:	d8c02d15 	stw	r3,180(sp)
    1d1c:	9124703a 	and	r18,r18,r4
    1d20:	0039883a 	mov	fp,zero
    1d24:	103e891e 	bne	r2,zero,174c <__alt_mem_onchip_memory+0xf780174c>
    1d28:	d9002917 	ldw	r4,164(sp)
    1d2c:	2002c11e 	bne	r4,zero,2834 <___vfprintf_internal_r+0x1630>
    1d30:	d8002915 	stw	zero,164(sp)
    1d34:	d8002e15 	stw	zero,184(sp)
    1d38:	dc001e04 	addi	r16,sp,120
    1d3c:	003ef806 	br	1920 <__alt_mem_onchip_memory+0xf7801920>
    1d40:	18c03fcc 	andi	r3,r3,255
    1d44:	18059d1e 	bne	r3,zero,33bc <___vfprintf_internal_r+0x21b8>
    1d48:	014000b4 	movhi	r5,2
    1d4c:	29719604 	addi	r5,r5,-14760
    1d50:	d9403915 	stw	r5,228(sp)
    1d54:	9080080c 	andi	r2,r18,32
    1d58:	10005226 	beq	r2,zero,1ea4 <___vfprintf_internal_r+0xca0>
    1d5c:	d8802d17 	ldw	r2,180(sp)
    1d60:	14c00017 	ldw	r19,0(r2)
    1d64:	15800117 	ldw	r22,4(r2)
    1d68:	10800204 	addi	r2,r2,8
    1d6c:	d8802d15 	stw	r2,180(sp)
    1d70:	9080004c 	andi	r2,r18,1
    1d74:	10019026 	beq	r2,zero,23b8 <___vfprintf_internal_r+0x11b4>
    1d78:	9d84b03a 	or	r2,r19,r22
    1d7c:	10036926 	beq	r2,zero,2b24 <___vfprintf_internal_r+0x1920>
    1d80:	d8c02917 	ldw	r3,164(sp)
    1d84:	00800c04 	movi	r2,48
    1d88:	d8802705 	stb	r2,156(sp)
    1d8c:	dc402745 	stb	r17,157(sp)
    1d90:	d8002785 	stb	zero,158(sp)
    1d94:	90800094 	ori	r2,r18,2
    1d98:	18045d16 	blt	r3,zero,2f10 <___vfprintf_internal_r+0x1d0c>
    1d9c:	00bfdfc4 	movi	r2,-129
    1da0:	90a4703a 	and	r18,r18,r2
    1da4:	94800094 	ori	r18,r18,2
    1da8:	0039883a 	mov	fp,zero
    1dac:	d9003917 	ldw	r4,228(sp)
    1db0:	dc001e04 	addi	r16,sp,120
    1db4:	988003cc 	andi	r2,r19,15
    1db8:	b006973a 	slli	r3,r22,28
    1dbc:	2085883a 	add	r2,r4,r2
    1dc0:	9826d13a 	srli	r19,r19,4
    1dc4:	10800003 	ldbu	r2,0(r2)
    1dc8:	b02cd13a 	srli	r22,r22,4
    1dcc:	843fffc4 	addi	r16,r16,-1
    1dd0:	1ce6b03a 	or	r19,r3,r19
    1dd4:	80800005 	stb	r2,0(r16)
    1dd8:	9d84b03a 	or	r2,r19,r22
    1ddc:	103ff51e 	bne	r2,zero,1db4 <__alt_mem_onchip_memory+0xf7801db4>
    1de0:	d8c02817 	ldw	r3,160(sp)
    1de4:	1c07c83a 	sub	r3,r3,r16
    1de8:	d8c02e15 	stw	r3,184(sp)
    1dec:	003ecc06 	br	1920 <__alt_mem_onchip_memory+0xf7801920>
    1df0:	18c03fcc 	andi	r3,r3,255
    1df4:	183e9f26 	beq	r3,zero,1874 <__alt_mem_onchip_memory+0xf7801874>
    1df8:	d9c02785 	stb	r7,158(sp)
    1dfc:	003e9d06 	br	1874 <__alt_mem_onchip_memory+0xf7801874>
    1e00:	00c00044 	movi	r3,1
    1e04:	01c00ac4 	movi	r7,43
    1e08:	ac400007 	ldb	r17,0(r21)
    1e0c:	003d5e06 	br	1388 <__alt_mem_onchip_memory+0xf7801388>
    1e10:	94800814 	ori	r18,r18,32
    1e14:	ac400007 	ldb	r17,0(r21)
    1e18:	003d5b06 	br	1388 <__alt_mem_onchip_memory+0xf7801388>
    1e1c:	d8c02d17 	ldw	r3,180(sp)
    1e20:	d8002785 	stb	zero,158(sp)
    1e24:	1c000017 	ldw	r16,0(r3)
    1e28:	1cc00104 	addi	r19,r3,4
    1e2c:	80041926 	beq	r16,zero,2e94 <___vfprintf_internal_r+0x1c90>
    1e30:	d9002917 	ldw	r4,164(sp)
    1e34:	2003d016 	blt	r4,zero,2d78 <___vfprintf_internal_r+0x1b74>
    1e38:	200d883a 	mov	r6,r4
    1e3c:	000b883a 	mov	r5,zero
    1e40:	8009883a 	mov	r4,r16
    1e44:	da003d15 	stw	r8,244(sp)
    1e48:	0006b940 	call	6b94 <memchr>
    1e4c:	da003d17 	ldw	r8,244(sp)
    1e50:	10045426 	beq	r2,zero,2fa4 <___vfprintf_internal_r+0x1da0>
    1e54:	1405c83a 	sub	r2,r2,r16
    1e58:	d8802e15 	stw	r2,184(sp)
    1e5c:	1003cc16 	blt	r2,zero,2d90 <___vfprintf_internal_r+0x1b8c>
    1e60:	df002783 	ldbu	fp,158(sp)
    1e64:	d8802a15 	stw	r2,168(sp)
    1e68:	dcc02d15 	stw	r19,180(sp)
    1e6c:	d8002915 	stw	zero,164(sp)
    1e70:	d8003215 	stw	zero,200(sp)
    1e74:	003eb006 	br	1938 <__alt_mem_onchip_memory+0xf7801938>
    1e78:	18c03fcc 	andi	r3,r3,255
    1e7c:	183f9b26 	beq	r3,zero,1cec <__alt_mem_onchip_memory+0xf7801cec>
    1e80:	d9c02785 	stb	r7,158(sp)
    1e84:	003f9906 	br	1cec <__alt_mem_onchip_memory+0xf7801cec>
    1e88:	18c03fcc 	andi	r3,r3,255
    1e8c:	1805551e 	bne	r3,zero,33e4 <___vfprintf_internal_r+0x21e0>
    1e90:	014000b4 	movhi	r5,2
    1e94:	29719b04 	addi	r5,r5,-14740
    1e98:	d9403915 	stw	r5,228(sp)
    1e9c:	9080080c 	andi	r2,r18,32
    1ea0:	103fae1e 	bne	r2,zero,1d5c <__alt_mem_onchip_memory+0xf7801d5c>
    1ea4:	9080040c 	andi	r2,r18,16
    1ea8:	1002de26 	beq	r2,zero,2a24 <___vfprintf_internal_r+0x1820>
    1eac:	d8c02d17 	ldw	r3,180(sp)
    1eb0:	002d883a 	mov	r22,zero
    1eb4:	1cc00017 	ldw	r19,0(r3)
    1eb8:	18c00104 	addi	r3,r3,4
    1ebc:	d8c02d15 	stw	r3,180(sp)
    1ec0:	003fab06 	br	1d70 <__alt_mem_onchip_memory+0xf7801d70>
    1ec4:	38803fcc 	andi	r2,r7,255
    1ec8:	1080201c 	xori	r2,r2,128
    1ecc:	10bfe004 	addi	r2,r2,-128
    1ed0:	1002d21e 	bne	r2,zero,2a1c <___vfprintf_internal_r+0x1818>
    1ed4:	00c00044 	movi	r3,1
    1ed8:	01c00804 	movi	r7,32
    1edc:	ac400007 	ldb	r17,0(r21)
    1ee0:	003d2906 	br	1388 <__alt_mem_onchip_memory+0xf7801388>
    1ee4:	94800054 	ori	r18,r18,1
    1ee8:	ac400007 	ldb	r17,0(r21)
    1eec:	003d2606 	br	1388 <__alt_mem_onchip_memory+0xf7801388>
    1ef0:	18c03fcc 	andi	r3,r3,255
    1ef4:	183e0526 	beq	r3,zero,170c <__alt_mem_onchip_memory+0xf780170c>
    1ef8:	d9c02785 	stb	r7,158(sp)
    1efc:	003e0306 	br	170c <__alt_mem_onchip_memory+0xf780170c>
    1f00:	94801014 	ori	r18,r18,64
    1f04:	ac400007 	ldb	r17,0(r21)
    1f08:	003d1f06 	br	1388 <__alt_mem_onchip_memory+0xf7801388>
    1f0c:	ac400007 	ldb	r17,0(r21)
    1f10:	8a438726 	beq	r17,r9,2d30 <___vfprintf_internal_r+0x1b2c>
    1f14:	94800414 	ori	r18,r18,16
    1f18:	003d1b06 	br	1388 <__alt_mem_onchip_memory+0xf7801388>
    1f1c:	18c03fcc 	andi	r3,r3,255
    1f20:	1805341e 	bne	r3,zero,33f4 <___vfprintf_internal_r+0x21f0>
    1f24:	9080080c 	andi	r2,r18,32
    1f28:	1002cd26 	beq	r2,zero,2a60 <___vfprintf_internal_r+0x185c>
    1f2c:	d9402d17 	ldw	r5,180(sp)
    1f30:	d9002f17 	ldw	r4,188(sp)
    1f34:	28800017 	ldw	r2,0(r5)
    1f38:	2007d7fa 	srai	r3,r4,31
    1f3c:	29400104 	addi	r5,r5,4
    1f40:	d9402d15 	stw	r5,180(sp)
    1f44:	11000015 	stw	r4,0(r2)
    1f48:	10c00115 	stw	r3,4(r2)
    1f4c:	003ce506 	br	12e4 <__alt_mem_onchip_memory+0xf78012e4>
    1f50:	d8c02d17 	ldw	r3,180(sp)
    1f54:	d9002d17 	ldw	r4,180(sp)
    1f58:	d8002785 	stb	zero,158(sp)
    1f5c:	18800017 	ldw	r2,0(r3)
    1f60:	21000104 	addi	r4,r4,4
    1f64:	00c00044 	movi	r3,1
    1f68:	d8c02a15 	stw	r3,168(sp)
    1f6c:	d8801405 	stb	r2,80(sp)
    1f70:	d9002d15 	stw	r4,180(sp)
    1f74:	d8c02e15 	stw	r3,184(sp)
    1f78:	d8002915 	stw	zero,164(sp)
    1f7c:	d8003215 	stw	zero,200(sp)
    1f80:	dc001404 	addi	r16,sp,80
    1f84:	0039883a 	mov	fp,zero
    1f88:	003e7206 	br	1954 <__alt_mem_onchip_memory+0xf7801954>
    1f8c:	010000b4 	movhi	r4,2
    1f90:	21319b04 	addi	r4,r4,-14740
    1f94:	0039883a 	mov	fp,zero
    1f98:	d9003915 	stw	r4,228(sp)
    1f9c:	04401e04 	movi	r17,120
    1fa0:	003f8206 	br	1dac <__alt_mem_onchip_memory+0xf7801dac>
    1fa4:	18c03fcc 	andi	r3,r3,255
    1fa8:	1805061e 	bne	r3,zero,33c4 <___vfprintf_internal_r+0x21c0>
    1fac:	883d9126 	beq	r17,zero,15f4 <__alt_mem_onchip_memory+0xf78015f4>
    1fb0:	00c00044 	movi	r3,1
    1fb4:	d8c02a15 	stw	r3,168(sp)
    1fb8:	dc401405 	stb	r17,80(sp)
    1fbc:	d8002785 	stb	zero,158(sp)
    1fc0:	003fec06 	br	1f74 <__alt_mem_onchip_memory+0xf7801f74>
    1fc4:	014000b4 	movhi	r5,2
    1fc8:	29719b04 	addi	r5,r5,-14740
    1fcc:	d9403915 	stw	r5,228(sp)
    1fd0:	d8c02d15 	stw	r3,180(sp)
    1fd4:	1025883a 	mov	r18,r2
    1fd8:	04401e04 	movi	r17,120
    1fdc:	9d84b03a 	or	r2,r19,r22
    1fe0:	1000fc1e 	bne	r2,zero,23d4 <___vfprintf_internal_r+0x11d0>
    1fe4:	0039883a 	mov	fp,zero
    1fe8:	00800084 	movi	r2,2
    1fec:	10803fcc 	andi	r2,r2,255
    1ff0:	00c00044 	movi	r3,1
    1ff4:	10c20f26 	beq	r2,r3,2834 <___vfprintf_internal_r+0x1630>
    1ff8:	00c00084 	movi	r3,2
    1ffc:	10fd6326 	beq	r2,r3,158c <__alt_mem_onchip_memory+0xf780158c>
    2000:	003e2d06 	br	18b8 <__alt_mem_onchip_memory+0xf78018b8>
    2004:	d8c02017 	ldw	r3,128(sp)
    2008:	003e9306 	br	1a58 <__alt_mem_onchip_memory+0xf7801a58>
    200c:	00801944 	movi	r2,101
    2010:	14407e0e 	bge	r2,r17,220c <___vfprintf_internal_r+0x1008>
    2014:	d9003617 	ldw	r4,216(sp)
    2018:	d9403817 	ldw	r5,224(sp)
    201c:	000d883a 	mov	r6,zero
    2020:	000f883a 	mov	r7,zero
    2024:	d8c03c15 	stw	r3,240(sp)
    2028:	da003d15 	stw	r8,244(sp)
    202c:	000c7600 	call	c760 <__eqdf2>
    2030:	d8c03c17 	ldw	r3,240(sp)
    2034:	da003d17 	ldw	r8,244(sp)
    2038:	1000f71e 	bne	r2,zero,2418 <___vfprintf_internal_r+0x1214>
    203c:	d8801f17 	ldw	r2,124(sp)
    2040:	010000b4 	movhi	r4,2
    2044:	2131a204 	addi	r4,r4,-14712
    2048:	18c00044 	addi	r3,r3,1
    204c:	10800044 	addi	r2,r2,1
    2050:	41000015 	stw	r4,0(r8)
    2054:	01000044 	movi	r4,1
    2058:	41000115 	stw	r4,4(r8)
    205c:	d8c02015 	stw	r3,128(sp)
    2060:	d8801f15 	stw	r2,124(sp)
    2064:	010001c4 	movi	r4,7
    2068:	2082b816 	blt	r4,r2,2b4c <___vfprintf_internal_r+0x1948>
    206c:	42000204 	addi	r8,r8,8
    2070:	d8802617 	ldw	r2,152(sp)
    2074:	d9403317 	ldw	r5,204(sp)
    2078:	11400216 	blt	r2,r5,2084 <___vfprintf_internal_r+0xe80>
    207c:	9080004c 	andi	r2,r18,1
    2080:	103ed526 	beq	r2,zero,1bd8 <__alt_mem_onchip_memory+0xf7801bd8>
    2084:	d8803717 	ldw	r2,220(sp)
    2088:	d9003417 	ldw	r4,208(sp)
    208c:	d9403717 	ldw	r5,220(sp)
    2090:	1887883a 	add	r3,r3,r2
    2094:	d8801f17 	ldw	r2,124(sp)
    2098:	41000015 	stw	r4,0(r8)
    209c:	41400115 	stw	r5,4(r8)
    20a0:	10800044 	addi	r2,r2,1
    20a4:	d8c02015 	stw	r3,128(sp)
    20a8:	d8801f15 	stw	r2,124(sp)
    20ac:	010001c4 	movi	r4,7
    20b0:	20832916 	blt	r4,r2,2d58 <___vfprintf_internal_r+0x1b54>
    20b4:	42000204 	addi	r8,r8,8
    20b8:	d8803317 	ldw	r2,204(sp)
    20bc:	143fffc4 	addi	r16,r2,-1
    20c0:	043ec50e 	bge	zero,r16,1bd8 <__alt_mem_onchip_memory+0xf7801bd8>
    20c4:	04400404 	movi	r17,16
    20c8:	d8801f17 	ldw	r2,124(sp)
    20cc:	8c00880e 	bge	r17,r16,22f0 <___vfprintf_internal_r+0x10ec>
    20d0:	014000b4 	movhi	r5,2
    20d4:	2971a284 	addi	r5,r5,-14710
    20d8:	d9402b15 	stw	r5,172(sp)
    20dc:	058001c4 	movi	r22,7
    20e0:	dcc02c17 	ldw	r19,176(sp)
    20e4:	00000306 	br	20f4 <___vfprintf_internal_r+0xef0>
    20e8:	42000204 	addi	r8,r8,8
    20ec:	843ffc04 	addi	r16,r16,-16
    20f0:	8c00820e 	bge	r17,r16,22fc <___vfprintf_internal_r+0x10f8>
    20f4:	18c00404 	addi	r3,r3,16
    20f8:	10800044 	addi	r2,r2,1
    20fc:	45000015 	stw	r20,0(r8)
    2100:	44400115 	stw	r17,4(r8)
    2104:	d8c02015 	stw	r3,128(sp)
    2108:	d8801f15 	stw	r2,124(sp)
    210c:	b0bff60e 	bge	r22,r2,20e8 <__alt_mem_onchip_memory+0xf78020e8>
    2110:	d9801e04 	addi	r6,sp,120
    2114:	b80b883a 	mov	r5,r23
    2118:	9809883a 	mov	r4,r19
    211c:	0008ae80 	call	8ae8 <__sprint_r>
    2120:	103d3a1e 	bne	r2,zero,160c <__alt_mem_onchip_memory+0xf780160c>
    2124:	d8c02017 	ldw	r3,128(sp)
    2128:	d8801f17 	ldw	r2,124(sp)
    212c:	da000404 	addi	r8,sp,16
    2130:	003fee06 	br	20ec <__alt_mem_onchip_memory+0xf78020ec>
    2134:	d9403117 	ldw	r5,196(sp)
    2138:	d8802a17 	ldw	r2,168(sp)
    213c:	28adc83a 	sub	r22,r5,r2
    2140:	05be630e 	bge	zero,r22,1ad0 <__alt_mem_onchip_memory+0xf7801ad0>
    2144:	07000404 	movi	fp,16
    2148:	d8801f17 	ldw	r2,124(sp)
    214c:	e5838f0e 	bge	fp,r22,2f8c <___vfprintf_internal_r+0x1d88>
    2150:	014000b4 	movhi	r5,2
    2154:	2971a284 	addi	r5,r5,-14710
    2158:	dc403015 	stw	r17,192(sp)
    215c:	d9402b15 	stw	r5,172(sp)
    2160:	b023883a 	mov	r17,r22
    2164:	04c001c4 	movi	r19,7
    2168:	a82d883a 	mov	r22,r21
    216c:	902b883a 	mov	r21,r18
    2170:	8025883a 	mov	r18,r16
    2174:	dc002c17 	ldw	r16,176(sp)
    2178:	00000306 	br	2188 <___vfprintf_internal_r+0xf84>
    217c:	8c7ffc04 	addi	r17,r17,-16
    2180:	42000204 	addi	r8,r8,8
    2184:	e440110e 	bge	fp,r17,21cc <___vfprintf_internal_r+0xfc8>
    2188:	18c00404 	addi	r3,r3,16
    218c:	10800044 	addi	r2,r2,1
    2190:	45000015 	stw	r20,0(r8)
    2194:	47000115 	stw	fp,4(r8)
    2198:	d8c02015 	stw	r3,128(sp)
    219c:	d8801f15 	stw	r2,124(sp)
    21a0:	98bff60e 	bge	r19,r2,217c <__alt_mem_onchip_memory+0xf780217c>
    21a4:	d9801e04 	addi	r6,sp,120
    21a8:	b80b883a 	mov	r5,r23
    21ac:	8009883a 	mov	r4,r16
    21b0:	0008ae80 	call	8ae8 <__sprint_r>
    21b4:	103d151e 	bne	r2,zero,160c <__alt_mem_onchip_memory+0xf780160c>
    21b8:	8c7ffc04 	addi	r17,r17,-16
    21bc:	d8c02017 	ldw	r3,128(sp)
    21c0:	d8801f17 	ldw	r2,124(sp)
    21c4:	da000404 	addi	r8,sp,16
    21c8:	e47fef16 	blt	fp,r17,2188 <__alt_mem_onchip_memory+0xf7802188>
    21cc:	9021883a 	mov	r16,r18
    21d0:	a825883a 	mov	r18,r21
    21d4:	b02b883a 	mov	r21,r22
    21d8:	882d883a 	mov	r22,r17
    21dc:	dc403017 	ldw	r17,192(sp)
    21e0:	d9002b17 	ldw	r4,172(sp)
    21e4:	1d87883a 	add	r3,r3,r22
    21e8:	10800044 	addi	r2,r2,1
    21ec:	41000015 	stw	r4,0(r8)
    21f0:	45800115 	stw	r22,4(r8)
    21f4:	d8c02015 	stw	r3,128(sp)
    21f8:	d8801f15 	stw	r2,124(sp)
    21fc:	010001c4 	movi	r4,7
    2200:	20818e16 	blt	r4,r2,283c <___vfprintf_internal_r+0x1638>
    2204:	42000204 	addi	r8,r8,8
    2208:	003e3106 	br	1ad0 <__alt_mem_onchip_memory+0xf7801ad0>
    220c:	d9403317 	ldw	r5,204(sp)
    2210:	00800044 	movi	r2,1
    2214:	18c00044 	addi	r3,r3,1
    2218:	1141530e 	bge	r2,r5,2768 <___vfprintf_internal_r+0x1564>
    221c:	dc401f17 	ldw	r17,124(sp)
    2220:	00800044 	movi	r2,1
    2224:	40800115 	stw	r2,4(r8)
    2228:	8c400044 	addi	r17,r17,1
    222c:	44000015 	stw	r16,0(r8)
    2230:	d8c02015 	stw	r3,128(sp)
    2234:	dc401f15 	stw	r17,124(sp)
    2238:	008001c4 	movi	r2,7
    223c:	14416b16 	blt	r2,r17,27ec <___vfprintf_internal_r+0x15e8>
    2240:	42000204 	addi	r8,r8,8
    2244:	d8803717 	ldw	r2,220(sp)
    2248:	d9003417 	ldw	r4,208(sp)
    224c:	8c400044 	addi	r17,r17,1
    2250:	10c7883a 	add	r3,r2,r3
    2254:	40800115 	stw	r2,4(r8)
    2258:	41000015 	stw	r4,0(r8)
    225c:	d8c02015 	stw	r3,128(sp)
    2260:	dc401f15 	stw	r17,124(sp)
    2264:	008001c4 	movi	r2,7
    2268:	14416916 	blt	r2,r17,2810 <___vfprintf_internal_r+0x160c>
    226c:	45800204 	addi	r22,r8,8
    2270:	d9003617 	ldw	r4,216(sp)
    2274:	d9403817 	ldw	r5,224(sp)
    2278:	000d883a 	mov	r6,zero
    227c:	000f883a 	mov	r7,zero
    2280:	d8c03c15 	stw	r3,240(sp)
    2284:	000c7600 	call	c760 <__eqdf2>
    2288:	d8c03c17 	ldw	r3,240(sp)
    228c:	1000bc26 	beq	r2,zero,2580 <___vfprintf_internal_r+0x137c>
    2290:	d9403317 	ldw	r5,204(sp)
    2294:	84000044 	addi	r16,r16,1
    2298:	8c400044 	addi	r17,r17,1
    229c:	28bfffc4 	addi	r2,r5,-1
    22a0:	1887883a 	add	r3,r3,r2
    22a4:	b0800115 	stw	r2,4(r22)
    22a8:	b4000015 	stw	r16,0(r22)
    22ac:	d8c02015 	stw	r3,128(sp)
    22b0:	dc401f15 	stw	r17,124(sp)
    22b4:	008001c4 	movi	r2,7
    22b8:	14414316 	blt	r2,r17,27c8 <___vfprintf_internal_r+0x15c4>
    22bc:	b5800204 	addi	r22,r22,8
    22c0:	d9003a17 	ldw	r4,232(sp)
    22c4:	df0022c4 	addi	fp,sp,139
    22c8:	8c400044 	addi	r17,r17,1
    22cc:	20c7883a 	add	r3,r4,r3
    22d0:	b7000015 	stw	fp,0(r22)
    22d4:	b1000115 	stw	r4,4(r22)
    22d8:	d8c02015 	stw	r3,128(sp)
    22dc:	dc401f15 	stw	r17,124(sp)
    22e0:	008001c4 	movi	r2,7
    22e4:	14400e16 	blt	r2,r17,2320 <___vfprintf_internal_r+0x111c>
    22e8:	b2000204 	addi	r8,r22,8
    22ec:	003e3a06 	br	1bd8 <__alt_mem_onchip_memory+0xf7801bd8>
    22f0:	010000b4 	movhi	r4,2
    22f4:	2131a284 	addi	r4,r4,-14710
    22f8:	d9002b15 	stw	r4,172(sp)
    22fc:	d9002b17 	ldw	r4,172(sp)
    2300:	1c07883a 	add	r3,r3,r16
    2304:	44000115 	stw	r16,4(r8)
    2308:	41000015 	stw	r4,0(r8)
    230c:	10800044 	addi	r2,r2,1
    2310:	d8c02015 	stw	r3,128(sp)
    2314:	d8801f15 	stw	r2,124(sp)
    2318:	010001c4 	movi	r4,7
    231c:	20be2d0e 	bge	r4,r2,1bd4 <__alt_mem_onchip_memory+0xf7801bd4>
    2320:	d9002c17 	ldw	r4,176(sp)
    2324:	d9801e04 	addi	r6,sp,120
    2328:	b80b883a 	mov	r5,r23
    232c:	0008ae80 	call	8ae8 <__sprint_r>
    2330:	103cb61e 	bne	r2,zero,160c <__alt_mem_onchip_memory+0xf780160c>
    2334:	d8c02017 	ldw	r3,128(sp)
    2338:	da000404 	addi	r8,sp,16
    233c:	003e2606 	br	1bd8 <__alt_mem_onchip_memory+0xf7801bd8>
    2340:	d9002c17 	ldw	r4,176(sp)
    2344:	d9801e04 	addi	r6,sp,120
    2348:	b80b883a 	mov	r5,r23
    234c:	0008ae80 	call	8ae8 <__sprint_r>
    2350:	103e5d26 	beq	r2,zero,1cc8 <__alt_mem_onchip_memory+0xf7801cc8>
    2354:	003cad06 	br	160c <__alt_mem_onchip_memory+0xf780160c>
    2358:	d9002c17 	ldw	r4,176(sp)
    235c:	d9801e04 	addi	r6,sp,120
    2360:	b80b883a 	mov	r5,r23
    2364:	0008ae80 	call	8ae8 <__sprint_r>
    2368:	103ca81e 	bne	r2,zero,160c <__alt_mem_onchip_memory+0xf780160c>
    236c:	d8c02017 	ldw	r3,128(sp)
    2370:	da000404 	addi	r8,sp,16
    2374:	003e0b06 	br	1ba4 <__alt_mem_onchip_memory+0xf7801ba4>
    2378:	d9002c17 	ldw	r4,176(sp)
    237c:	d9801e04 	addi	r6,sp,120
    2380:	b80b883a 	mov	r5,r23
    2384:	0008ae80 	call	8ae8 <__sprint_r>
    2388:	103ca01e 	bne	r2,zero,160c <__alt_mem_onchip_memory+0xf780160c>
    238c:	d8c02017 	ldw	r3,128(sp)
    2390:	da000404 	addi	r8,sp,16
    2394:	003dbd06 	br	1a8c <__alt_mem_onchip_memory+0xf7801a8c>
    2398:	d9002c17 	ldw	r4,176(sp)
    239c:	d9801e04 	addi	r6,sp,120
    23a0:	b80b883a 	mov	r5,r23
    23a4:	0008ae80 	call	8ae8 <__sprint_r>
    23a8:	103c981e 	bne	r2,zero,160c <__alt_mem_onchip_memory+0xf780160c>
    23ac:	d8c02017 	ldw	r3,128(sp)
    23b0:	da000404 	addi	r8,sp,16
    23b4:	003dc306 	br	1ac4 <__alt_mem_onchip_memory+0xf7801ac4>
    23b8:	d8802917 	ldw	r2,164(sp)
    23bc:	d8002785 	stb	zero,158(sp)
    23c0:	103f0616 	blt	r2,zero,1fdc <__alt_mem_onchip_memory+0xf7801fdc>
    23c4:	00ffdfc4 	movi	r3,-129
    23c8:	9d84b03a 	or	r2,r19,r22
    23cc:	90e4703a 	and	r18,r18,r3
    23d0:	103c6b26 	beq	r2,zero,1580 <__alt_mem_onchip_memory+0xf7801580>
    23d4:	0039883a 	mov	fp,zero
    23d8:	003e7406 	br	1dac <__alt_mem_onchip_memory+0xf7801dac>
    23dc:	9080040c 	andi	r2,r18,16
    23e0:	1001b326 	beq	r2,zero,2ab0 <___vfprintf_internal_r+0x18ac>
    23e4:	d9002d17 	ldw	r4,180(sp)
    23e8:	d9402917 	ldw	r5,164(sp)
    23ec:	d8002785 	stb	zero,158(sp)
    23f0:	20800104 	addi	r2,r4,4
    23f4:	24c00017 	ldw	r19,0(r4)
    23f8:	002d883a 	mov	r22,zero
    23fc:	2801b516 	blt	r5,zero,2ad4 <___vfprintf_internal_r+0x18d0>
    2400:	00ffdfc4 	movi	r3,-129
    2404:	d8802d15 	stw	r2,180(sp)
    2408:	90e4703a 	and	r18,r18,r3
    240c:	983d2726 	beq	r19,zero,18ac <__alt_mem_onchip_memory+0xf78018ac>
    2410:	0039883a 	mov	fp,zero
    2414:	003d2a06 	br	18c0 <__alt_mem_onchip_memory+0xf78018c0>
    2418:	dc402617 	ldw	r17,152(sp)
    241c:	0441d30e 	bge	zero,r17,2b6c <___vfprintf_internal_r+0x1968>
    2420:	dc403217 	ldw	r17,200(sp)
    2424:	d8803317 	ldw	r2,204(sp)
    2428:	1440010e 	bge	r2,r17,2430 <___vfprintf_internal_r+0x122c>
    242c:	1023883a 	mov	r17,r2
    2430:	04400a0e 	bge	zero,r17,245c <___vfprintf_internal_r+0x1258>
    2434:	d8801f17 	ldw	r2,124(sp)
    2438:	1c47883a 	add	r3,r3,r17
    243c:	44000015 	stw	r16,0(r8)
    2440:	10800044 	addi	r2,r2,1
    2444:	44400115 	stw	r17,4(r8)
    2448:	d8c02015 	stw	r3,128(sp)
    244c:	d8801f15 	stw	r2,124(sp)
    2450:	010001c4 	movi	r4,7
    2454:	20826516 	blt	r4,r2,2dec <___vfprintf_internal_r+0x1be8>
    2458:	42000204 	addi	r8,r8,8
    245c:	88026116 	blt	r17,zero,2de4 <___vfprintf_internal_r+0x1be0>
    2460:	d9003217 	ldw	r4,200(sp)
    2464:	2463c83a 	sub	r17,r4,r17
    2468:	04407b0e 	bge	zero,r17,2658 <___vfprintf_internal_r+0x1454>
    246c:	05800404 	movi	r22,16
    2470:	d8801f17 	ldw	r2,124(sp)
    2474:	b4419d0e 	bge	r22,r17,2aec <___vfprintf_internal_r+0x18e8>
    2478:	010000b4 	movhi	r4,2
    247c:	2131a284 	addi	r4,r4,-14710
    2480:	d9002b15 	stw	r4,172(sp)
    2484:	070001c4 	movi	fp,7
    2488:	dcc02c17 	ldw	r19,176(sp)
    248c:	00000306 	br	249c <___vfprintf_internal_r+0x1298>
    2490:	42000204 	addi	r8,r8,8
    2494:	8c7ffc04 	addi	r17,r17,-16
    2498:	b441970e 	bge	r22,r17,2af8 <___vfprintf_internal_r+0x18f4>
    249c:	18c00404 	addi	r3,r3,16
    24a0:	10800044 	addi	r2,r2,1
    24a4:	45000015 	stw	r20,0(r8)
    24a8:	45800115 	stw	r22,4(r8)
    24ac:	d8c02015 	stw	r3,128(sp)
    24b0:	d8801f15 	stw	r2,124(sp)
    24b4:	e0bff60e 	bge	fp,r2,2490 <__alt_mem_onchip_memory+0xf7802490>
    24b8:	d9801e04 	addi	r6,sp,120
    24bc:	b80b883a 	mov	r5,r23
    24c0:	9809883a 	mov	r4,r19
    24c4:	0008ae80 	call	8ae8 <__sprint_r>
    24c8:	103c501e 	bne	r2,zero,160c <__alt_mem_onchip_memory+0xf780160c>
    24cc:	d8c02017 	ldw	r3,128(sp)
    24d0:	d8801f17 	ldw	r2,124(sp)
    24d4:	da000404 	addi	r8,sp,16
    24d8:	003fee06 	br	2494 <__alt_mem_onchip_memory+0xf7802494>
    24dc:	d9002c17 	ldw	r4,176(sp)
    24e0:	d9801e04 	addi	r6,sp,120
    24e4:	b80b883a 	mov	r5,r23
    24e8:	0008ae80 	call	8ae8 <__sprint_r>
    24ec:	103c471e 	bne	r2,zero,160c <__alt_mem_onchip_memory+0xf780160c>
    24f0:	d8c02017 	ldw	r3,128(sp)
    24f4:	df002787 	ldb	fp,158(sp)
    24f8:	da000404 	addi	r8,sp,16
    24fc:	003d5606 	br	1a58 <__alt_mem_onchip_memory+0xf7801a58>
    2500:	9080040c 	andi	r2,r18,16
    2504:	10016126 	beq	r2,zero,2a8c <___vfprintf_internal_r+0x1888>
    2508:	d8802d17 	ldw	r2,180(sp)
    250c:	14c00017 	ldw	r19,0(r2)
    2510:	10800104 	addi	r2,r2,4
    2514:	d8802d15 	stw	r2,180(sp)
    2518:	982dd7fa 	srai	r22,r19,31
    251c:	b005883a 	mov	r2,r22
    2520:	003c8206 	br	172c <__alt_mem_onchip_memory+0xf780172c>
    2524:	9080040c 	andi	r2,r18,16
    2528:	10003526 	beq	r2,zero,2600 <___vfprintf_internal_r+0x13fc>
    252c:	d9402d17 	ldw	r5,180(sp)
    2530:	d8c02917 	ldw	r3,164(sp)
    2534:	d8002785 	stb	zero,158(sp)
    2538:	28800104 	addi	r2,r5,4
    253c:	2cc00017 	ldw	r19,0(r5)
    2540:	002d883a 	mov	r22,zero
    2544:	18003716 	blt	r3,zero,2624 <___vfprintf_internal_r+0x1420>
    2548:	00ffdfc4 	movi	r3,-129
    254c:	d8802d15 	stw	r2,180(sp)
    2550:	90e4703a 	and	r18,r18,r3
    2554:	0039883a 	mov	fp,zero
    2558:	983df326 	beq	r19,zero,1d28 <__alt_mem_onchip_memory+0xf7801d28>
    255c:	00800244 	movi	r2,9
    2560:	14fc7b36 	bltu	r2,r19,1750 <__alt_mem_onchip_memory+0xf7801750>
    2564:	d8c02817 	ldw	r3,160(sp)
    2568:	dc001dc4 	addi	r16,sp,119
    256c:	9cc00c04 	addi	r19,r19,48
    2570:	1c07c83a 	sub	r3,r3,r16
    2574:	dcc01dc5 	stb	r19,119(sp)
    2578:	d8c02e15 	stw	r3,184(sp)
    257c:	003ce806 	br	1920 <__alt_mem_onchip_memory+0xf7801920>
    2580:	d8803317 	ldw	r2,204(sp)
    2584:	143fffc4 	addi	r16,r2,-1
    2588:	043f4d0e 	bge	zero,r16,22c0 <__alt_mem_onchip_memory+0xf78022c0>
    258c:	07000404 	movi	fp,16
    2590:	e400810e 	bge	fp,r16,2798 <___vfprintf_internal_r+0x1594>
    2594:	014000b4 	movhi	r5,2
    2598:	2971a284 	addi	r5,r5,-14710
    259c:	d9402b15 	stw	r5,172(sp)
    25a0:	01c001c4 	movi	r7,7
    25a4:	dcc02c17 	ldw	r19,176(sp)
    25a8:	00000306 	br	25b8 <___vfprintf_internal_r+0x13b4>
    25ac:	b5800204 	addi	r22,r22,8
    25b0:	843ffc04 	addi	r16,r16,-16
    25b4:	e4007b0e 	bge	fp,r16,27a4 <___vfprintf_internal_r+0x15a0>
    25b8:	18c00404 	addi	r3,r3,16
    25bc:	8c400044 	addi	r17,r17,1
    25c0:	b5000015 	stw	r20,0(r22)
    25c4:	b7000115 	stw	fp,4(r22)
    25c8:	d8c02015 	stw	r3,128(sp)
    25cc:	dc401f15 	stw	r17,124(sp)
    25d0:	3c7ff60e 	bge	r7,r17,25ac <__alt_mem_onchip_memory+0xf78025ac>
    25d4:	d9801e04 	addi	r6,sp,120
    25d8:	b80b883a 	mov	r5,r23
    25dc:	9809883a 	mov	r4,r19
    25e0:	d9c03c15 	stw	r7,240(sp)
    25e4:	0008ae80 	call	8ae8 <__sprint_r>
    25e8:	d9c03c17 	ldw	r7,240(sp)
    25ec:	103c071e 	bne	r2,zero,160c <__alt_mem_onchip_memory+0xf780160c>
    25f0:	d8c02017 	ldw	r3,128(sp)
    25f4:	dc401f17 	ldw	r17,124(sp)
    25f8:	dd800404 	addi	r22,sp,16
    25fc:	003fec06 	br	25b0 <__alt_mem_onchip_memory+0xf78025b0>
    2600:	9080100c 	andi	r2,r18,64
    2604:	d8002785 	stb	zero,158(sp)
    2608:	10010e26 	beq	r2,zero,2a44 <___vfprintf_internal_r+0x1840>
    260c:	d9002d17 	ldw	r4,180(sp)
    2610:	d9402917 	ldw	r5,164(sp)
    2614:	002d883a 	mov	r22,zero
    2618:	20800104 	addi	r2,r4,4
    261c:	24c0000b 	ldhu	r19,0(r4)
    2620:	283fc90e 	bge	r5,zero,2548 <__alt_mem_onchip_memory+0xf7802548>
    2624:	d8802d15 	stw	r2,180(sp)
    2628:	0039883a 	mov	fp,zero
    262c:	9d84b03a 	or	r2,r19,r22
    2630:	103c461e 	bne	r2,zero,174c <__alt_mem_onchip_memory+0xf780174c>
    2634:	00800044 	movi	r2,1
    2638:	003e6c06 	br	1fec <__alt_mem_onchip_memory+0xf7801fec>
    263c:	d9002c17 	ldw	r4,176(sp)
    2640:	d9801e04 	addi	r6,sp,120
    2644:	b80b883a 	mov	r5,r23
    2648:	0008ae80 	call	8ae8 <__sprint_r>
    264c:	103bef1e 	bne	r2,zero,160c <__alt_mem_onchip_memory+0xf780160c>
    2650:	d8c02017 	ldw	r3,128(sp)
    2654:	da000404 	addi	r8,sp,16
    2658:	d9003217 	ldw	r4,200(sp)
    265c:	d8802617 	ldw	r2,152(sp)
    2660:	d9403317 	ldw	r5,204(sp)
    2664:	8123883a 	add	r17,r16,r4
    2668:	11400216 	blt	r2,r5,2674 <___vfprintf_internal_r+0x1470>
    266c:	9100004c 	andi	r4,r18,1
    2670:	20000d26 	beq	r4,zero,26a8 <___vfprintf_internal_r+0x14a4>
    2674:	d9003717 	ldw	r4,220(sp)
    2678:	d9403417 	ldw	r5,208(sp)
    267c:	1907883a 	add	r3,r3,r4
    2680:	d9001f17 	ldw	r4,124(sp)
    2684:	41400015 	stw	r5,0(r8)
    2688:	d9403717 	ldw	r5,220(sp)
    268c:	21000044 	addi	r4,r4,1
    2690:	d8c02015 	stw	r3,128(sp)
    2694:	41400115 	stw	r5,4(r8)
    2698:	d9001f15 	stw	r4,124(sp)
    269c:	014001c4 	movi	r5,7
    26a0:	2901e816 	blt	r5,r4,2e44 <___vfprintf_internal_r+0x1c40>
    26a4:	42000204 	addi	r8,r8,8
    26a8:	d9003317 	ldw	r4,204(sp)
    26ac:	8121883a 	add	r16,r16,r4
    26b0:	2085c83a 	sub	r2,r4,r2
    26b4:	8461c83a 	sub	r16,r16,r17
    26b8:	1400010e 	bge	r2,r16,26c0 <___vfprintf_internal_r+0x14bc>
    26bc:	1021883a 	mov	r16,r2
    26c0:	04000a0e 	bge	zero,r16,26ec <___vfprintf_internal_r+0x14e8>
    26c4:	d9001f17 	ldw	r4,124(sp)
    26c8:	1c07883a 	add	r3,r3,r16
    26cc:	44400015 	stw	r17,0(r8)
    26d0:	21000044 	addi	r4,r4,1
    26d4:	44000115 	stw	r16,4(r8)
    26d8:	d8c02015 	stw	r3,128(sp)
    26dc:	d9001f15 	stw	r4,124(sp)
    26e0:	014001c4 	movi	r5,7
    26e4:	2901fb16 	blt	r5,r4,2ed4 <___vfprintf_internal_r+0x1cd0>
    26e8:	42000204 	addi	r8,r8,8
    26ec:	8001f716 	blt	r16,zero,2ecc <___vfprintf_internal_r+0x1cc8>
    26f0:	1421c83a 	sub	r16,r2,r16
    26f4:	043d380e 	bge	zero,r16,1bd8 <__alt_mem_onchip_memory+0xf7801bd8>
    26f8:	04400404 	movi	r17,16
    26fc:	d8801f17 	ldw	r2,124(sp)
    2700:	8c3efb0e 	bge	r17,r16,22f0 <__alt_mem_onchip_memory+0xf78022f0>
    2704:	014000b4 	movhi	r5,2
    2708:	2971a284 	addi	r5,r5,-14710
    270c:	d9402b15 	stw	r5,172(sp)
    2710:	058001c4 	movi	r22,7
    2714:	dcc02c17 	ldw	r19,176(sp)
    2718:	00000306 	br	2728 <___vfprintf_internal_r+0x1524>
    271c:	42000204 	addi	r8,r8,8
    2720:	843ffc04 	addi	r16,r16,-16
    2724:	8c3ef50e 	bge	r17,r16,22fc <__alt_mem_onchip_memory+0xf78022fc>
    2728:	18c00404 	addi	r3,r3,16
    272c:	10800044 	addi	r2,r2,1
    2730:	45000015 	stw	r20,0(r8)
    2734:	44400115 	stw	r17,4(r8)
    2738:	d8c02015 	stw	r3,128(sp)
    273c:	d8801f15 	stw	r2,124(sp)
    2740:	b0bff60e 	bge	r22,r2,271c <__alt_mem_onchip_memory+0xf780271c>
    2744:	d9801e04 	addi	r6,sp,120
    2748:	b80b883a 	mov	r5,r23
    274c:	9809883a 	mov	r4,r19
    2750:	0008ae80 	call	8ae8 <__sprint_r>
    2754:	103bad1e 	bne	r2,zero,160c <__alt_mem_onchip_memory+0xf780160c>
    2758:	d8c02017 	ldw	r3,128(sp)
    275c:	d8801f17 	ldw	r2,124(sp)
    2760:	da000404 	addi	r8,sp,16
    2764:	003fee06 	br	2720 <__alt_mem_onchip_memory+0xf7802720>
    2768:	9088703a 	and	r4,r18,r2
    276c:	203eab1e 	bne	r4,zero,221c <__alt_mem_onchip_memory+0xf780221c>
    2770:	dc401f17 	ldw	r17,124(sp)
    2774:	40800115 	stw	r2,4(r8)
    2778:	44000015 	stw	r16,0(r8)
    277c:	8c400044 	addi	r17,r17,1
    2780:	d8c02015 	stw	r3,128(sp)
    2784:	dc401f15 	stw	r17,124(sp)
    2788:	008001c4 	movi	r2,7
    278c:	14400e16 	blt	r2,r17,27c8 <___vfprintf_internal_r+0x15c4>
    2790:	45800204 	addi	r22,r8,8
    2794:	003eca06 	br	22c0 <__alt_mem_onchip_memory+0xf78022c0>
    2798:	010000b4 	movhi	r4,2
    279c:	2131a284 	addi	r4,r4,-14710
    27a0:	d9002b15 	stw	r4,172(sp)
    27a4:	d8802b17 	ldw	r2,172(sp)
    27a8:	1c07883a 	add	r3,r3,r16
    27ac:	8c400044 	addi	r17,r17,1
    27b0:	b0800015 	stw	r2,0(r22)
    27b4:	b4000115 	stw	r16,4(r22)
    27b8:	d8c02015 	stw	r3,128(sp)
    27bc:	dc401f15 	stw	r17,124(sp)
    27c0:	008001c4 	movi	r2,7
    27c4:	147ebd0e 	bge	r2,r17,22bc <__alt_mem_onchip_memory+0xf78022bc>
    27c8:	d9002c17 	ldw	r4,176(sp)
    27cc:	d9801e04 	addi	r6,sp,120
    27d0:	b80b883a 	mov	r5,r23
    27d4:	0008ae80 	call	8ae8 <__sprint_r>
    27d8:	103b8c1e 	bne	r2,zero,160c <__alt_mem_onchip_memory+0xf780160c>
    27dc:	d8c02017 	ldw	r3,128(sp)
    27e0:	dc401f17 	ldw	r17,124(sp)
    27e4:	dd800404 	addi	r22,sp,16
    27e8:	003eb506 	br	22c0 <__alt_mem_onchip_memory+0xf78022c0>
    27ec:	d9002c17 	ldw	r4,176(sp)
    27f0:	d9801e04 	addi	r6,sp,120
    27f4:	b80b883a 	mov	r5,r23
    27f8:	0008ae80 	call	8ae8 <__sprint_r>
    27fc:	103b831e 	bne	r2,zero,160c <__alt_mem_onchip_memory+0xf780160c>
    2800:	d8c02017 	ldw	r3,128(sp)
    2804:	dc401f17 	ldw	r17,124(sp)
    2808:	da000404 	addi	r8,sp,16
    280c:	003e8d06 	br	2244 <__alt_mem_onchip_memory+0xf7802244>
    2810:	d9002c17 	ldw	r4,176(sp)
    2814:	d9801e04 	addi	r6,sp,120
    2818:	b80b883a 	mov	r5,r23
    281c:	0008ae80 	call	8ae8 <__sprint_r>
    2820:	103b7a1e 	bne	r2,zero,160c <__alt_mem_onchip_memory+0xf780160c>
    2824:	d8c02017 	ldw	r3,128(sp)
    2828:	dc401f17 	ldw	r17,124(sp)
    282c:	dd800404 	addi	r22,sp,16
    2830:	003e8f06 	br	2270 <__alt_mem_onchip_memory+0xf7802270>
    2834:	0027883a 	mov	r19,zero
    2838:	003f4a06 	br	2564 <__alt_mem_onchip_memory+0xf7802564>
    283c:	d9002c17 	ldw	r4,176(sp)
    2840:	d9801e04 	addi	r6,sp,120
    2844:	b80b883a 	mov	r5,r23
    2848:	0008ae80 	call	8ae8 <__sprint_r>
    284c:	103b6f1e 	bne	r2,zero,160c <__alt_mem_onchip_memory+0xf780160c>
    2850:	d8c02017 	ldw	r3,128(sp)
    2854:	da000404 	addi	r8,sp,16
    2858:	003c9d06 	br	1ad0 <__alt_mem_onchip_memory+0xf7801ad0>
    285c:	04e7c83a 	sub	r19,zero,r19
    2860:	9804c03a 	cmpne	r2,r19,zero
    2864:	05adc83a 	sub	r22,zero,r22
    2868:	b0adc83a 	sub	r22,r22,r2
    286c:	d8802917 	ldw	r2,164(sp)
    2870:	07000b44 	movi	fp,45
    2874:	df002785 	stb	fp,158(sp)
    2878:	10017b16 	blt	r2,zero,2e68 <___vfprintf_internal_r+0x1c64>
    287c:	00bfdfc4 	movi	r2,-129
    2880:	90a4703a 	and	r18,r18,r2
    2884:	003bb106 	br	174c <__alt_mem_onchip_memory+0xf780174c>
    2888:	d9003617 	ldw	r4,216(sp)
    288c:	d9403817 	ldw	r5,224(sp)
    2890:	da003d15 	stw	r8,244(sp)
    2894:	000870c0 	call	870c <__fpclassifyd>
    2898:	da003d17 	ldw	r8,244(sp)
    289c:	1000f026 	beq	r2,zero,2c60 <___vfprintf_internal_r+0x1a5c>
    28a0:	d9002917 	ldw	r4,164(sp)
    28a4:	05bff7c4 	movi	r22,-33
    28a8:	00bfffc4 	movi	r2,-1
    28ac:	8dac703a 	and	r22,r17,r22
    28b0:	20820026 	beq	r4,r2,30b4 <___vfprintf_internal_r+0x1eb0>
    28b4:	008011c4 	movi	r2,71
    28b8:	b081f726 	beq	r22,r2,3098 <___vfprintf_internal_r+0x1e94>
    28bc:	d9003817 	ldw	r4,224(sp)
    28c0:	90c04014 	ori	r3,r18,256
    28c4:	d8c02b15 	stw	r3,172(sp)
    28c8:	20021516 	blt	r4,zero,3120 <___vfprintf_internal_r+0x1f1c>
    28cc:	dcc03817 	ldw	r19,224(sp)
    28d0:	d8002a05 	stb	zero,168(sp)
    28d4:	00801984 	movi	r2,102
    28d8:	8881f926 	beq	r17,r2,30c0 <___vfprintf_internal_r+0x1ebc>
    28dc:	00801184 	movi	r2,70
    28e0:	88821c26 	beq	r17,r2,3154 <___vfprintf_internal_r+0x1f50>
    28e4:	00801144 	movi	r2,69
    28e8:	b081ef26 	beq	r22,r2,30a8 <___vfprintf_internal_r+0x1ea4>
    28ec:	d8c02917 	ldw	r3,164(sp)
    28f0:	d8802104 	addi	r2,sp,132
    28f4:	d8800315 	stw	r2,12(sp)
    28f8:	d9403617 	ldw	r5,216(sp)
    28fc:	d8802504 	addi	r2,sp,148
    2900:	d9002c17 	ldw	r4,176(sp)
    2904:	d8800215 	stw	r2,8(sp)
    2908:	d8802604 	addi	r2,sp,152
    290c:	d8c00015 	stw	r3,0(sp)
    2910:	d8800115 	stw	r2,4(sp)
    2914:	01c00084 	movi	r7,2
    2918:	980d883a 	mov	r6,r19
    291c:	d8c03c15 	stw	r3,240(sp)
    2920:	da003d15 	stw	r8,244(sp)
    2924:	00039a80 	call	39a8 <_dtoa_r>
    2928:	1021883a 	mov	r16,r2
    292c:	008019c4 	movi	r2,103
    2930:	d8c03c17 	ldw	r3,240(sp)
    2934:	da003d17 	ldw	r8,244(sp)
    2938:	88817126 	beq	r17,r2,2f00 <___vfprintf_internal_r+0x1cfc>
    293c:	008011c4 	movi	r2,71
    2940:	88829226 	beq	r17,r2,338c <___vfprintf_internal_r+0x2188>
    2944:	80f9883a 	add	fp,r16,r3
    2948:	d9003617 	ldw	r4,216(sp)
    294c:	000d883a 	mov	r6,zero
    2950:	000f883a 	mov	r7,zero
    2954:	980b883a 	mov	r5,r19
    2958:	da003d15 	stw	r8,244(sp)
    295c:	000c7600 	call	c760 <__eqdf2>
    2960:	da003d17 	ldw	r8,244(sp)
    2964:	10018d26 	beq	r2,zero,2f9c <___vfprintf_internal_r+0x1d98>
    2968:	d8802117 	ldw	r2,132(sp)
    296c:	1700062e 	bgeu	r2,fp,2988 <___vfprintf_internal_r+0x1784>
    2970:	01000c04 	movi	r4,48
    2974:	10c00044 	addi	r3,r2,1
    2978:	d8c02115 	stw	r3,132(sp)
    297c:	11000005 	stb	r4,0(r2)
    2980:	d8802117 	ldw	r2,132(sp)
    2984:	173ffb36 	bltu	r2,fp,2974 <__alt_mem_onchip_memory+0xf7802974>
    2988:	1405c83a 	sub	r2,r2,r16
    298c:	d8803315 	stw	r2,204(sp)
    2990:	008011c4 	movi	r2,71
    2994:	b0817626 	beq	r22,r2,2f70 <___vfprintf_internal_r+0x1d6c>
    2998:	00801944 	movi	r2,101
    299c:	1442810e 	bge	r2,r17,33a4 <___vfprintf_internal_r+0x21a0>
    29a0:	d8c02617 	ldw	r3,152(sp)
    29a4:	00801984 	movi	r2,102
    29a8:	d8c03215 	stw	r3,200(sp)
    29ac:	8881fe26 	beq	r17,r2,31a8 <___vfprintf_internal_r+0x1fa4>
    29b0:	d8c03217 	ldw	r3,200(sp)
    29b4:	d9003317 	ldw	r4,204(sp)
    29b8:	1901dd16 	blt	r3,r4,3130 <___vfprintf_internal_r+0x1f2c>
    29bc:	9480004c 	andi	r18,r18,1
    29c0:	90022b1e 	bne	r18,zero,3270 <___vfprintf_internal_r+0x206c>
    29c4:	1805883a 	mov	r2,r3
    29c8:	18028016 	blt	r3,zero,33cc <___vfprintf_internal_r+0x21c8>
    29cc:	d8c03217 	ldw	r3,200(sp)
    29d0:	044019c4 	movi	r17,103
    29d4:	d8c02e15 	stw	r3,184(sp)
    29d8:	df002a07 	ldb	fp,168(sp)
    29dc:	e001531e 	bne	fp,zero,2f2c <___vfprintf_internal_r+0x1d28>
    29e0:	df002783 	ldbu	fp,158(sp)
    29e4:	d8802a15 	stw	r2,168(sp)
    29e8:	dc802b17 	ldw	r18,172(sp)
    29ec:	d8002915 	stw	zero,164(sp)
    29f0:	003bd106 	br	1938 <__alt_mem_onchip_memory+0xf7801938>
    29f4:	d8802d17 	ldw	r2,180(sp)
    29f8:	d8c02d17 	ldw	r3,180(sp)
    29fc:	d9002d17 	ldw	r4,180(sp)
    2a00:	10800017 	ldw	r2,0(r2)
    2a04:	18c00117 	ldw	r3,4(r3)
    2a08:	21000204 	addi	r4,r4,8
    2a0c:	d8803615 	stw	r2,216(sp)
    2a10:	d8c03815 	stw	r3,224(sp)
    2a14:	d9002d15 	stw	r4,180(sp)
    2a18:	003b7506 	br	17f0 <__alt_mem_onchip_memory+0xf78017f0>
    2a1c:	ac400007 	ldb	r17,0(r21)
    2a20:	003a5906 	br	1388 <__alt_mem_onchip_memory+0xf7801388>
    2a24:	9080100c 	andi	r2,r18,64
    2a28:	1000a826 	beq	r2,zero,2ccc <___vfprintf_internal_r+0x1ac8>
    2a2c:	d9002d17 	ldw	r4,180(sp)
    2a30:	002d883a 	mov	r22,zero
    2a34:	24c0000b 	ldhu	r19,0(r4)
    2a38:	21000104 	addi	r4,r4,4
    2a3c:	d9002d15 	stw	r4,180(sp)
    2a40:	003ccb06 	br	1d70 <__alt_mem_onchip_memory+0xf7801d70>
    2a44:	d8c02d17 	ldw	r3,180(sp)
    2a48:	d9002917 	ldw	r4,164(sp)
    2a4c:	002d883a 	mov	r22,zero
    2a50:	18800104 	addi	r2,r3,4
    2a54:	1cc00017 	ldw	r19,0(r3)
    2a58:	203ebb0e 	bge	r4,zero,2548 <__alt_mem_onchip_memory+0xf7802548>
    2a5c:	003ef106 	br	2624 <__alt_mem_onchip_memory+0xf7802624>
    2a60:	9080040c 	andi	r2,r18,16
    2a64:	1000921e 	bne	r2,zero,2cb0 <___vfprintf_internal_r+0x1aac>
    2a68:	9480100c 	andi	r18,r18,64
    2a6c:	90013926 	beq	r18,zero,2f54 <___vfprintf_internal_r+0x1d50>
    2a70:	d9002d17 	ldw	r4,180(sp)
    2a74:	d9402f17 	ldw	r5,188(sp)
    2a78:	20800017 	ldw	r2,0(r4)
    2a7c:	21000104 	addi	r4,r4,4
    2a80:	d9002d15 	stw	r4,180(sp)
    2a84:	1140000d 	sth	r5,0(r2)
    2a88:	003a1606 	br	12e4 <__alt_mem_onchip_memory+0xf78012e4>
    2a8c:	9080100c 	andi	r2,r18,64
    2a90:	10008026 	beq	r2,zero,2c94 <___vfprintf_internal_r+0x1a90>
    2a94:	d8c02d17 	ldw	r3,180(sp)
    2a98:	1cc0000f 	ldh	r19,0(r3)
    2a9c:	18c00104 	addi	r3,r3,4
    2aa0:	d8c02d15 	stw	r3,180(sp)
    2aa4:	982dd7fa 	srai	r22,r19,31
    2aa8:	b005883a 	mov	r2,r22
    2aac:	003b1f06 	br	172c <__alt_mem_onchip_memory+0xf780172c>
    2ab0:	9080100c 	andi	r2,r18,64
    2ab4:	d8002785 	stb	zero,158(sp)
    2ab8:	10008a1e 	bne	r2,zero,2ce4 <___vfprintf_internal_r+0x1ae0>
    2abc:	d9402d17 	ldw	r5,180(sp)
    2ac0:	d8c02917 	ldw	r3,164(sp)
    2ac4:	002d883a 	mov	r22,zero
    2ac8:	28800104 	addi	r2,r5,4
    2acc:	2cc00017 	ldw	r19,0(r5)
    2ad0:	183e4b0e 	bge	r3,zero,2400 <__alt_mem_onchip_memory+0xf7802400>
    2ad4:	9d86b03a 	or	r3,r19,r22
    2ad8:	d8802d15 	stw	r2,180(sp)
    2adc:	183e4c1e 	bne	r3,zero,2410 <__alt_mem_onchip_memory+0xf7802410>
    2ae0:	0039883a 	mov	fp,zero
    2ae4:	0005883a 	mov	r2,zero
    2ae8:	003d4006 	br	1fec <__alt_mem_onchip_memory+0xf7801fec>
    2aec:	014000b4 	movhi	r5,2
    2af0:	2971a284 	addi	r5,r5,-14710
    2af4:	d9402b15 	stw	r5,172(sp)
    2af8:	d9402b17 	ldw	r5,172(sp)
    2afc:	1c47883a 	add	r3,r3,r17
    2b00:	10800044 	addi	r2,r2,1
    2b04:	41400015 	stw	r5,0(r8)
    2b08:	44400115 	stw	r17,4(r8)
    2b0c:	d8c02015 	stw	r3,128(sp)
    2b10:	d8801f15 	stw	r2,124(sp)
    2b14:	010001c4 	movi	r4,7
    2b18:	20bec816 	blt	r4,r2,263c <__alt_mem_onchip_memory+0xf780263c>
    2b1c:	42000204 	addi	r8,r8,8
    2b20:	003ecd06 	br	2658 <__alt_mem_onchip_memory+0xf7802658>
    2b24:	d9002917 	ldw	r4,164(sp)
    2b28:	d8002785 	stb	zero,158(sp)
    2b2c:	203d2d16 	blt	r4,zero,1fe4 <__alt_mem_onchip_memory+0xf7801fe4>
    2b30:	00bfdfc4 	movi	r2,-129
    2b34:	90a4703a 	and	r18,r18,r2
    2b38:	003a9106 	br	1580 <__alt_mem_onchip_memory+0xf7801580>
    2b3c:	010000b4 	movhi	r4,2
    2b40:	2131a284 	addi	r4,r4,-14710
    2b44:	d9002b15 	stw	r4,172(sp)
    2b48:	003c0c06 	br	1b7c <__alt_mem_onchip_memory+0xf7801b7c>
    2b4c:	d9002c17 	ldw	r4,176(sp)
    2b50:	d9801e04 	addi	r6,sp,120
    2b54:	b80b883a 	mov	r5,r23
    2b58:	0008ae80 	call	8ae8 <__sprint_r>
    2b5c:	103aab1e 	bne	r2,zero,160c <__alt_mem_onchip_memory+0xf780160c>
    2b60:	d8c02017 	ldw	r3,128(sp)
    2b64:	da000404 	addi	r8,sp,16
    2b68:	003d4106 	br	2070 <__alt_mem_onchip_memory+0xf7802070>
    2b6c:	d8801f17 	ldw	r2,124(sp)
    2b70:	014000b4 	movhi	r5,2
    2b74:	01000044 	movi	r4,1
    2b78:	18c00044 	addi	r3,r3,1
    2b7c:	10800044 	addi	r2,r2,1
    2b80:	2971a204 	addi	r5,r5,-14712
    2b84:	41000115 	stw	r4,4(r8)
    2b88:	41400015 	stw	r5,0(r8)
    2b8c:	d8c02015 	stw	r3,128(sp)
    2b90:	d8801f15 	stw	r2,124(sp)
    2b94:	010001c4 	movi	r4,7
    2b98:	20805c16 	blt	r4,r2,2d0c <___vfprintf_internal_r+0x1b08>
    2b9c:	42000204 	addi	r8,r8,8
    2ba0:	8800041e 	bne	r17,zero,2bb4 <___vfprintf_internal_r+0x19b0>
    2ba4:	d8803317 	ldw	r2,204(sp)
    2ba8:	1000021e 	bne	r2,zero,2bb4 <___vfprintf_internal_r+0x19b0>
    2bac:	9080004c 	andi	r2,r18,1
    2bb0:	103c0926 	beq	r2,zero,1bd8 <__alt_mem_onchip_memory+0xf7801bd8>
    2bb4:	d9003717 	ldw	r4,220(sp)
    2bb8:	d8801f17 	ldw	r2,124(sp)
    2bbc:	d9403417 	ldw	r5,208(sp)
    2bc0:	20c7883a 	add	r3,r4,r3
    2bc4:	10800044 	addi	r2,r2,1
    2bc8:	41000115 	stw	r4,4(r8)
    2bcc:	41400015 	stw	r5,0(r8)
    2bd0:	d8c02015 	stw	r3,128(sp)
    2bd4:	d8801f15 	stw	r2,124(sp)
    2bd8:	010001c4 	movi	r4,7
    2bdc:	20812116 	blt	r4,r2,3064 <___vfprintf_internal_r+0x1e60>
    2be0:	42000204 	addi	r8,r8,8
    2be4:	0463c83a 	sub	r17,zero,r17
    2be8:	0440730e 	bge	zero,r17,2db8 <___vfprintf_internal_r+0x1bb4>
    2bec:	05800404 	movi	r22,16
    2bf0:	b440860e 	bge	r22,r17,2e0c <___vfprintf_internal_r+0x1c08>
    2bf4:	014000b4 	movhi	r5,2
    2bf8:	2971a284 	addi	r5,r5,-14710
    2bfc:	d9402b15 	stw	r5,172(sp)
    2c00:	070001c4 	movi	fp,7
    2c04:	dcc02c17 	ldw	r19,176(sp)
    2c08:	00000306 	br	2c18 <___vfprintf_internal_r+0x1a14>
    2c0c:	42000204 	addi	r8,r8,8
    2c10:	8c7ffc04 	addi	r17,r17,-16
    2c14:	b440800e 	bge	r22,r17,2e18 <___vfprintf_internal_r+0x1c14>
    2c18:	18c00404 	addi	r3,r3,16
    2c1c:	10800044 	addi	r2,r2,1
    2c20:	45000015 	stw	r20,0(r8)
    2c24:	45800115 	stw	r22,4(r8)
    2c28:	d8c02015 	stw	r3,128(sp)
    2c2c:	d8801f15 	stw	r2,124(sp)
    2c30:	e0bff60e 	bge	fp,r2,2c0c <__alt_mem_onchip_memory+0xf7802c0c>
    2c34:	d9801e04 	addi	r6,sp,120
    2c38:	b80b883a 	mov	r5,r23
    2c3c:	9809883a 	mov	r4,r19
    2c40:	0008ae80 	call	8ae8 <__sprint_r>
    2c44:	103a711e 	bne	r2,zero,160c <__alt_mem_onchip_memory+0xf780160c>
    2c48:	d8c02017 	ldw	r3,128(sp)
    2c4c:	d8801f17 	ldw	r2,124(sp)
    2c50:	da000404 	addi	r8,sp,16
    2c54:	003fee06 	br	2c10 <__alt_mem_onchip_memory+0xf7802c10>
    2c58:	00bfffc4 	movi	r2,-1
    2c5c:	003a6f06 	br	161c <__alt_mem_onchip_memory+0xf780161c>
    2c60:	008011c4 	movi	r2,71
    2c64:	1440b816 	blt	r2,r17,2f48 <___vfprintf_internal_r+0x1d44>
    2c68:	040000b4 	movhi	r16,2
    2c6c:	84319404 	addi	r16,r16,-14768
    2c70:	00c000c4 	movi	r3,3
    2c74:	00bfdfc4 	movi	r2,-129
    2c78:	d8c02a15 	stw	r3,168(sp)
    2c7c:	90a4703a 	and	r18,r18,r2
    2c80:	df002783 	ldbu	fp,158(sp)
    2c84:	d8c02e15 	stw	r3,184(sp)
    2c88:	d8002915 	stw	zero,164(sp)
    2c8c:	d8003215 	stw	zero,200(sp)
    2c90:	003b2906 	br	1938 <__alt_mem_onchip_memory+0xf7801938>
    2c94:	d9002d17 	ldw	r4,180(sp)
    2c98:	24c00017 	ldw	r19,0(r4)
    2c9c:	21000104 	addi	r4,r4,4
    2ca0:	d9002d15 	stw	r4,180(sp)
    2ca4:	982dd7fa 	srai	r22,r19,31
    2ca8:	b005883a 	mov	r2,r22
    2cac:	003a9f06 	br	172c <__alt_mem_onchip_memory+0xf780172c>
    2cb0:	d9402d17 	ldw	r5,180(sp)
    2cb4:	d8c02f17 	ldw	r3,188(sp)
    2cb8:	28800017 	ldw	r2,0(r5)
    2cbc:	29400104 	addi	r5,r5,4
    2cc0:	d9402d15 	stw	r5,180(sp)
    2cc4:	10c00015 	stw	r3,0(r2)
    2cc8:	00398606 	br	12e4 <__alt_mem_onchip_memory+0xf78012e4>
    2ccc:	d9402d17 	ldw	r5,180(sp)
    2cd0:	002d883a 	mov	r22,zero
    2cd4:	2cc00017 	ldw	r19,0(r5)
    2cd8:	29400104 	addi	r5,r5,4
    2cdc:	d9402d15 	stw	r5,180(sp)
    2ce0:	003c2306 	br	1d70 <__alt_mem_onchip_memory+0xf7801d70>
    2ce4:	d8c02d17 	ldw	r3,180(sp)
    2ce8:	d9002917 	ldw	r4,164(sp)
    2cec:	002d883a 	mov	r22,zero
    2cf0:	18800104 	addi	r2,r3,4
    2cf4:	1cc0000b 	ldhu	r19,0(r3)
    2cf8:	203dc10e 	bge	r4,zero,2400 <__alt_mem_onchip_memory+0xf7802400>
    2cfc:	003f7506 	br	2ad4 <__alt_mem_onchip_memory+0xf7802ad4>
    2d00:	040000b4 	movhi	r16,2
    2d04:	84319204 	addi	r16,r16,-14776
    2d08:	003acc06 	br	183c <__alt_mem_onchip_memory+0xf780183c>
    2d0c:	d9002c17 	ldw	r4,176(sp)
    2d10:	d9801e04 	addi	r6,sp,120
    2d14:	b80b883a 	mov	r5,r23
    2d18:	0008ae80 	call	8ae8 <__sprint_r>
    2d1c:	103a3b1e 	bne	r2,zero,160c <__alt_mem_onchip_memory+0xf780160c>
    2d20:	dc402617 	ldw	r17,152(sp)
    2d24:	d8c02017 	ldw	r3,128(sp)
    2d28:	da000404 	addi	r8,sp,16
    2d2c:	003f9c06 	br	2ba0 <__alt_mem_onchip_memory+0xf7802ba0>
    2d30:	ac400043 	ldbu	r17,1(r21)
    2d34:	94800814 	ori	r18,r18,32
    2d38:	ad400044 	addi	r21,r21,1
    2d3c:	8c403fcc 	andi	r17,r17,255
    2d40:	8c40201c 	xori	r17,r17,128
    2d44:	8c7fe004 	addi	r17,r17,-128
    2d48:	00398f06 	br	1388 <__alt_mem_onchip_memory+0xf7801388>
    2d4c:	d8c02d15 	stw	r3,180(sp)
    2d50:	0039883a 	mov	fp,zero
    2d54:	003e3506 	br	262c <__alt_mem_onchip_memory+0xf780262c>
    2d58:	d9002c17 	ldw	r4,176(sp)
    2d5c:	d9801e04 	addi	r6,sp,120
    2d60:	b80b883a 	mov	r5,r23
    2d64:	0008ae80 	call	8ae8 <__sprint_r>
    2d68:	103a281e 	bne	r2,zero,160c <__alt_mem_onchip_memory+0xf780160c>
    2d6c:	d8c02017 	ldw	r3,128(sp)
    2d70:	da000404 	addi	r8,sp,16
    2d74:	003cd006 	br	20b8 <__alt_mem_onchip_memory+0xf78020b8>
    2d78:	8009883a 	mov	r4,r16
    2d7c:	da003d15 	stw	r8,244(sp)
    2d80:	000116c0 	call	116c <strlen>
    2d84:	d8802e15 	stw	r2,184(sp)
    2d88:	da003d17 	ldw	r8,244(sp)
    2d8c:	103c340e 	bge	r2,zero,1e60 <__alt_mem_onchip_memory+0xf7801e60>
    2d90:	0005883a 	mov	r2,zero
    2d94:	003c3206 	br	1e60 <__alt_mem_onchip_memory+0xf7801e60>
    2d98:	d9002c17 	ldw	r4,176(sp)
    2d9c:	d9801e04 	addi	r6,sp,120
    2da0:	b80b883a 	mov	r5,r23
    2da4:	0008ae80 	call	8ae8 <__sprint_r>
    2da8:	103a181e 	bne	r2,zero,160c <__alt_mem_onchip_memory+0xf780160c>
    2dac:	d8c02017 	ldw	r3,128(sp)
    2db0:	d8801f17 	ldw	r2,124(sp)
    2db4:	da000404 	addi	r8,sp,16
    2db8:	d9403317 	ldw	r5,204(sp)
    2dbc:	10800044 	addi	r2,r2,1
    2dc0:	44000015 	stw	r16,0(r8)
    2dc4:	28c7883a 	add	r3,r5,r3
    2dc8:	003b7d06 	br	1bc0 <__alt_mem_onchip_memory+0xf7801bc0>
    2dcc:	010000b4 	movhi	r4,2
    2dd0:	2131a684 	addi	r4,r4,-14694
    2dd4:	d9003515 	stw	r4,212(sp)
    2dd8:	003b1406 	br	1a2c <__alt_mem_onchip_memory+0xf7801a2c>
    2ddc:	013fffc4 	movi	r4,-1
    2de0:	003a3506 	br	16b8 <__alt_mem_onchip_memory+0xf78016b8>
    2de4:	0023883a 	mov	r17,zero
    2de8:	003d9d06 	br	2460 <__alt_mem_onchip_memory+0xf7802460>
    2dec:	d9002c17 	ldw	r4,176(sp)
    2df0:	d9801e04 	addi	r6,sp,120
    2df4:	b80b883a 	mov	r5,r23
    2df8:	0008ae80 	call	8ae8 <__sprint_r>
    2dfc:	103a031e 	bne	r2,zero,160c <__alt_mem_onchip_memory+0xf780160c>
    2e00:	d8c02017 	ldw	r3,128(sp)
    2e04:	da000404 	addi	r8,sp,16
    2e08:	003d9406 	br	245c <__alt_mem_onchip_memory+0xf780245c>
    2e0c:	010000b4 	movhi	r4,2
    2e10:	2131a284 	addi	r4,r4,-14710
    2e14:	d9002b15 	stw	r4,172(sp)
    2e18:	d9002b17 	ldw	r4,172(sp)
    2e1c:	1c47883a 	add	r3,r3,r17
    2e20:	10800044 	addi	r2,r2,1
    2e24:	41000015 	stw	r4,0(r8)
    2e28:	44400115 	stw	r17,4(r8)
    2e2c:	d8c02015 	stw	r3,128(sp)
    2e30:	d8801f15 	stw	r2,124(sp)
    2e34:	010001c4 	movi	r4,7
    2e38:	20bfd716 	blt	r4,r2,2d98 <__alt_mem_onchip_memory+0xf7802d98>
    2e3c:	42000204 	addi	r8,r8,8
    2e40:	003fdd06 	br	2db8 <__alt_mem_onchip_memory+0xf7802db8>
    2e44:	d9002c17 	ldw	r4,176(sp)
    2e48:	d9801e04 	addi	r6,sp,120
    2e4c:	b80b883a 	mov	r5,r23
    2e50:	0008ae80 	call	8ae8 <__sprint_r>
    2e54:	1039ed1e 	bne	r2,zero,160c <__alt_mem_onchip_memory+0xf780160c>
    2e58:	d8802617 	ldw	r2,152(sp)
    2e5c:	d8c02017 	ldw	r3,128(sp)
    2e60:	da000404 	addi	r8,sp,16
    2e64:	003e1006 	br	26a8 <__alt_mem_onchip_memory+0xf78026a8>
    2e68:	00800044 	movi	r2,1
    2e6c:	10803fcc 	andi	r2,r2,255
    2e70:	00c00044 	movi	r3,1
    2e74:	10fa3526 	beq	r2,r3,174c <__alt_mem_onchip_memory+0xf780174c>
    2e78:	00c00084 	movi	r3,2
    2e7c:	10fbcb26 	beq	r2,r3,1dac <__alt_mem_onchip_memory+0xf7801dac>
    2e80:	003a8f06 	br	18c0 <__alt_mem_onchip_memory+0xf78018c0>
    2e84:	010000b4 	movhi	r4,2
    2e88:	2131a684 	addi	r4,r4,-14694
    2e8c:	d9003515 	stw	r4,212(sp)
    2e90:	003b7606 	br	1c6c <__alt_mem_onchip_memory+0xf7801c6c>
    2e94:	d8802917 	ldw	r2,164(sp)
    2e98:	00c00184 	movi	r3,6
    2e9c:	1880012e 	bgeu	r3,r2,2ea4 <___vfprintf_internal_r+0x1ca0>
    2ea0:	1805883a 	mov	r2,r3
    2ea4:	d8802e15 	stw	r2,184(sp)
    2ea8:	1000ef16 	blt	r2,zero,3268 <___vfprintf_internal_r+0x2064>
    2eac:	040000b4 	movhi	r16,2
    2eb0:	d8802a15 	stw	r2,168(sp)
    2eb4:	dcc02d15 	stw	r19,180(sp)
    2eb8:	d8002915 	stw	zero,164(sp)
    2ebc:	d8003215 	stw	zero,200(sp)
    2ec0:	8431a004 	addi	r16,r16,-14720
    2ec4:	0039883a 	mov	fp,zero
    2ec8:	003aa206 	br	1954 <__alt_mem_onchip_memory+0xf7801954>
    2ecc:	0021883a 	mov	r16,zero
    2ed0:	003e0706 	br	26f0 <__alt_mem_onchip_memory+0xf78026f0>
    2ed4:	d9002c17 	ldw	r4,176(sp)
    2ed8:	d9801e04 	addi	r6,sp,120
    2edc:	b80b883a 	mov	r5,r23
    2ee0:	0008ae80 	call	8ae8 <__sprint_r>
    2ee4:	1039c91e 	bne	r2,zero,160c <__alt_mem_onchip_memory+0xf780160c>
    2ee8:	d8802617 	ldw	r2,152(sp)
    2eec:	d9403317 	ldw	r5,204(sp)
    2ef0:	d8c02017 	ldw	r3,128(sp)
    2ef4:	da000404 	addi	r8,sp,16
    2ef8:	2885c83a 	sub	r2,r5,r2
    2efc:	003dfb06 	br	26ec <__alt_mem_onchip_memory+0xf78026ec>
    2f00:	9080004c 	andi	r2,r18,1
    2f04:	103e8f1e 	bne	r2,zero,2944 <__alt_mem_onchip_memory+0xf7802944>
    2f08:	d8802117 	ldw	r2,132(sp)
    2f0c:	003e9e06 	br	2988 <__alt_mem_onchip_memory+0xf7802988>
    2f10:	1025883a 	mov	r18,r2
    2f14:	0039883a 	mov	fp,zero
    2f18:	00800084 	movi	r2,2
    2f1c:	003fd306 	br	2e6c <__alt_mem_onchip_memory+0xf7802e6c>
    2f20:	07000b44 	movi	fp,45
    2f24:	df002785 	stb	fp,158(sp)
    2f28:	003a4006 	br	182c <__alt_mem_onchip_memory+0xf780182c>
    2f2c:	00c00b44 	movi	r3,45
    2f30:	d8c02785 	stb	r3,158(sp)
    2f34:	d8802a15 	stw	r2,168(sp)
    2f38:	dc802b17 	ldw	r18,172(sp)
    2f3c:	d8002915 	stw	zero,164(sp)
    2f40:	07000b44 	movi	fp,45
    2f44:	003a8006 	br	1948 <__alt_mem_onchip_memory+0xf7801948>
    2f48:	040000b4 	movhi	r16,2
    2f4c:	84319504 	addi	r16,r16,-14764
    2f50:	003f4706 	br	2c70 <__alt_mem_onchip_memory+0xf7802c70>
    2f54:	d8c02d17 	ldw	r3,180(sp)
    2f58:	d9002f17 	ldw	r4,188(sp)
    2f5c:	18800017 	ldw	r2,0(r3)
    2f60:	18c00104 	addi	r3,r3,4
    2f64:	d8c02d15 	stw	r3,180(sp)
    2f68:	11000015 	stw	r4,0(r2)
    2f6c:	0038dd06 	br	12e4 <__alt_mem_onchip_memory+0xf78012e4>
    2f70:	dd802617 	ldw	r22,152(sp)
    2f74:	00bfff44 	movi	r2,-3
    2f78:	b0801c16 	blt	r22,r2,2fec <___vfprintf_internal_r+0x1de8>
    2f7c:	d9402917 	ldw	r5,164(sp)
    2f80:	2d801a16 	blt	r5,r22,2fec <___vfprintf_internal_r+0x1de8>
    2f84:	dd803215 	stw	r22,200(sp)
    2f88:	003e8906 	br	29b0 <__alt_mem_onchip_memory+0xf78029b0>
    2f8c:	010000b4 	movhi	r4,2
    2f90:	2131a284 	addi	r4,r4,-14710
    2f94:	d9002b15 	stw	r4,172(sp)
    2f98:	003c9106 	br	21e0 <__alt_mem_onchip_memory+0xf78021e0>
    2f9c:	e005883a 	mov	r2,fp
    2fa0:	003e7906 	br	2988 <__alt_mem_onchip_memory+0xf7802988>
    2fa4:	d9402917 	ldw	r5,164(sp)
    2fa8:	df002783 	ldbu	fp,158(sp)
    2fac:	dcc02d15 	stw	r19,180(sp)
    2fb0:	d9402a15 	stw	r5,168(sp)
    2fb4:	d9402e15 	stw	r5,184(sp)
    2fb8:	d8002915 	stw	zero,164(sp)
    2fbc:	d8003215 	stw	zero,200(sp)
    2fc0:	003a5d06 	br	1938 <__alt_mem_onchip_memory+0xf7801938>
    2fc4:	9080004c 	andi	r2,r18,1
    2fc8:	0039883a 	mov	fp,zero
    2fcc:	10000426 	beq	r2,zero,2fe0 <___vfprintf_internal_r+0x1ddc>
    2fd0:	00800c04 	movi	r2,48
    2fd4:	dc001dc4 	addi	r16,sp,119
    2fd8:	d8801dc5 	stb	r2,119(sp)
    2fdc:	003b8006 	br	1de0 <__alt_mem_onchip_memory+0xf7801de0>
    2fe0:	d8002e15 	stw	zero,184(sp)
    2fe4:	dc001e04 	addi	r16,sp,120
    2fe8:	003a4d06 	br	1920 <__alt_mem_onchip_memory+0xf7801920>
    2fec:	8c7fff84 	addi	r17,r17,-2
    2ff0:	b5bfffc4 	addi	r22,r22,-1
    2ff4:	dd802615 	stw	r22,152(sp)
    2ff8:	dc4022c5 	stb	r17,139(sp)
    2ffc:	b000bf16 	blt	r22,zero,32fc <___vfprintf_internal_r+0x20f8>
    3000:	00800ac4 	movi	r2,43
    3004:	d8802305 	stb	r2,140(sp)
    3008:	00800244 	movi	r2,9
    300c:	15807016 	blt	r2,r22,31d0 <___vfprintf_internal_r+0x1fcc>
    3010:	00800c04 	movi	r2,48
    3014:	b5800c04 	addi	r22,r22,48
    3018:	d8802345 	stb	r2,141(sp)
    301c:	dd802385 	stb	r22,142(sp)
    3020:	d88023c4 	addi	r2,sp,143
    3024:	df0022c4 	addi	fp,sp,139
    3028:	d8c03317 	ldw	r3,204(sp)
    302c:	1739c83a 	sub	fp,r2,fp
    3030:	d9003317 	ldw	r4,204(sp)
    3034:	e0c7883a 	add	r3,fp,r3
    3038:	df003a15 	stw	fp,232(sp)
    303c:	d8c02e15 	stw	r3,184(sp)
    3040:	00800044 	movi	r2,1
    3044:	1100b30e 	bge	r2,r4,3314 <___vfprintf_internal_r+0x2110>
    3048:	d8c02e17 	ldw	r3,184(sp)
    304c:	18c00044 	addi	r3,r3,1
    3050:	d8c02e15 	stw	r3,184(sp)
    3054:	1805883a 	mov	r2,r3
    3058:	1800ac16 	blt	r3,zero,330c <___vfprintf_internal_r+0x2108>
    305c:	d8003215 	stw	zero,200(sp)
    3060:	003e5d06 	br	29d8 <__alt_mem_onchip_memory+0xf78029d8>
    3064:	d9002c17 	ldw	r4,176(sp)
    3068:	d9801e04 	addi	r6,sp,120
    306c:	b80b883a 	mov	r5,r23
    3070:	0008ae80 	call	8ae8 <__sprint_r>
    3074:	1039651e 	bne	r2,zero,160c <__alt_mem_onchip_memory+0xf780160c>
    3078:	dc402617 	ldw	r17,152(sp)
    307c:	d8c02017 	ldw	r3,128(sp)
    3080:	d8801f17 	ldw	r2,124(sp)
    3084:	da000404 	addi	r8,sp,16
    3088:	003ed606 	br	2be4 <__alt_mem_onchip_memory+0xf7802be4>
    308c:	582b883a 	mov	r21,r11
    3090:	d8002915 	stw	zero,164(sp)
    3094:	0038bd06 	br	138c <__alt_mem_onchip_memory+0xf780138c>
    3098:	d8802917 	ldw	r2,164(sp)
    309c:	103e071e 	bne	r2,zero,28bc <__alt_mem_onchip_memory+0xf78028bc>
    30a0:	dc002915 	stw	r16,164(sp)
    30a4:	003e0506 	br	28bc <__alt_mem_onchip_memory+0xf78028bc>
    30a8:	d9002917 	ldw	r4,164(sp)
    30ac:	20c00044 	addi	r3,r4,1
    30b0:	003e0f06 	br	28f0 <__alt_mem_onchip_memory+0xf78028f0>
    30b4:	01400184 	movi	r5,6
    30b8:	d9402915 	stw	r5,164(sp)
    30bc:	003dff06 	br	28bc <__alt_mem_onchip_memory+0xf78028bc>
    30c0:	d8802104 	addi	r2,sp,132
    30c4:	d8800315 	stw	r2,12(sp)
    30c8:	d8802504 	addi	r2,sp,148
    30cc:	d8800215 	stw	r2,8(sp)
    30d0:	d8802604 	addi	r2,sp,152
    30d4:	d8800115 	stw	r2,4(sp)
    30d8:	d8802917 	ldw	r2,164(sp)
    30dc:	d9403617 	ldw	r5,216(sp)
    30e0:	d9002c17 	ldw	r4,176(sp)
    30e4:	d8800015 	stw	r2,0(sp)
    30e8:	01c000c4 	movi	r7,3
    30ec:	980d883a 	mov	r6,r19
    30f0:	da003d15 	stw	r8,244(sp)
    30f4:	00039a80 	call	39a8 <_dtoa_r>
    30f8:	d8c02917 	ldw	r3,164(sp)
    30fc:	da003d17 	ldw	r8,244(sp)
    3100:	1021883a 	mov	r16,r2
    3104:	10f9883a 	add	fp,r2,r3
    3108:	81000007 	ldb	r4,0(r16)
    310c:	00800c04 	movi	r2,48
    3110:	20805e26 	beq	r4,r2,328c <___vfprintf_internal_r+0x2088>
    3114:	d8c02617 	ldw	r3,152(sp)
    3118:	e0f9883a 	add	fp,fp,r3
    311c:	003e0a06 	br	2948 <__alt_mem_onchip_memory+0xf7802948>
    3120:	00c00b44 	movi	r3,45
    3124:	24e0003c 	xorhi	r19,r4,32768
    3128:	d8c02a05 	stb	r3,168(sp)
    312c:	003de906 	br	28d4 <__alt_mem_onchip_memory+0xf78028d4>
    3130:	d8c03217 	ldw	r3,200(sp)
    3134:	00c07a0e 	bge	zero,r3,3320 <___vfprintf_internal_r+0x211c>
    3138:	00800044 	movi	r2,1
    313c:	d9003317 	ldw	r4,204(sp)
    3140:	1105883a 	add	r2,r2,r4
    3144:	d8802e15 	stw	r2,184(sp)
    3148:	10004e16 	blt	r2,zero,3284 <___vfprintf_internal_r+0x2080>
    314c:	044019c4 	movi	r17,103
    3150:	003e2106 	br	29d8 <__alt_mem_onchip_memory+0xf78029d8>
    3154:	d9002917 	ldw	r4,164(sp)
    3158:	d8802104 	addi	r2,sp,132
    315c:	d8800315 	stw	r2,12(sp)
    3160:	d9000015 	stw	r4,0(sp)
    3164:	d8802504 	addi	r2,sp,148
    3168:	d9403617 	ldw	r5,216(sp)
    316c:	d9002c17 	ldw	r4,176(sp)
    3170:	d8800215 	stw	r2,8(sp)
    3174:	d8802604 	addi	r2,sp,152
    3178:	d8800115 	stw	r2,4(sp)
    317c:	01c000c4 	movi	r7,3
    3180:	980d883a 	mov	r6,r19
    3184:	da003d15 	stw	r8,244(sp)
    3188:	00039a80 	call	39a8 <_dtoa_r>
    318c:	d8c02917 	ldw	r3,164(sp)
    3190:	da003d17 	ldw	r8,244(sp)
    3194:	1021883a 	mov	r16,r2
    3198:	00801184 	movi	r2,70
    319c:	80f9883a 	add	fp,r16,r3
    31a0:	88bfd926 	beq	r17,r2,3108 <__alt_mem_onchip_memory+0xf7803108>
    31a4:	003de806 	br	2948 <__alt_mem_onchip_memory+0xf7802948>
    31a8:	d9002917 	ldw	r4,164(sp)
    31ac:	00c04d0e 	bge	zero,r3,32e4 <___vfprintf_internal_r+0x20e0>
    31b0:	2000441e 	bne	r4,zero,32c4 <___vfprintf_internal_r+0x20c0>
    31b4:	9480004c 	andi	r18,r18,1
    31b8:	9000421e 	bne	r18,zero,32c4 <___vfprintf_internal_r+0x20c0>
    31bc:	1805883a 	mov	r2,r3
    31c0:	18007016 	blt	r3,zero,3384 <___vfprintf_internal_r+0x2180>
    31c4:	d8c03217 	ldw	r3,200(sp)
    31c8:	d8c02e15 	stw	r3,184(sp)
    31cc:	003e0206 	br	29d8 <__alt_mem_onchip_memory+0xf78029d8>
    31d0:	df0022c4 	addi	fp,sp,139
    31d4:	dc002915 	stw	r16,164(sp)
    31d8:	4027883a 	mov	r19,r8
    31dc:	e021883a 	mov	r16,fp
    31e0:	b009883a 	mov	r4,r22
    31e4:	01400284 	movi	r5,10
    31e8:	000b49c0 	call	b49c <__modsi3>
    31ec:	10800c04 	addi	r2,r2,48
    31f0:	843fffc4 	addi	r16,r16,-1
    31f4:	b009883a 	mov	r4,r22
    31f8:	01400284 	movi	r5,10
    31fc:	80800005 	stb	r2,0(r16)
    3200:	000b4180 	call	b418 <__divsi3>
    3204:	102d883a 	mov	r22,r2
    3208:	00800244 	movi	r2,9
    320c:	15bff416 	blt	r2,r22,31e0 <__alt_mem_onchip_memory+0xf78031e0>
    3210:	9811883a 	mov	r8,r19
    3214:	b0800c04 	addi	r2,r22,48
    3218:	8027883a 	mov	r19,r16
    321c:	997fffc4 	addi	r5,r19,-1
    3220:	98bfffc5 	stb	r2,-1(r19)
    3224:	dc002917 	ldw	r16,164(sp)
    3228:	2f006a2e 	bgeu	r5,fp,33d4 <___vfprintf_internal_r+0x21d0>
    322c:	d9c02384 	addi	r7,sp,142
    3230:	3ccfc83a 	sub	r7,r7,r19
    3234:	d9002344 	addi	r4,sp,141
    3238:	e1cf883a 	add	r7,fp,r7
    323c:	00000106 	br	3244 <___vfprintf_internal_r+0x2040>
    3240:	28800003 	ldbu	r2,0(r5)
    3244:	20800005 	stb	r2,0(r4)
    3248:	21000044 	addi	r4,r4,1
    324c:	29400044 	addi	r5,r5,1
    3250:	393ffb1e 	bne	r7,r4,3240 <__alt_mem_onchip_memory+0xf7803240>
    3254:	d8802304 	addi	r2,sp,140
    3258:	14c5c83a 	sub	r2,r2,r19
    325c:	d8c02344 	addi	r3,sp,141
    3260:	1885883a 	add	r2,r3,r2
    3264:	003f7006 	br	3028 <__alt_mem_onchip_memory+0xf7803028>
    3268:	0005883a 	mov	r2,zero
    326c:	003f0f06 	br	2eac <__alt_mem_onchip_memory+0xf7802eac>
    3270:	d8c03217 	ldw	r3,200(sp)
    3274:	18c00044 	addi	r3,r3,1
    3278:	d8c02e15 	stw	r3,184(sp)
    327c:	1805883a 	mov	r2,r3
    3280:	183fb20e 	bge	r3,zero,314c <__alt_mem_onchip_memory+0xf780314c>
    3284:	0005883a 	mov	r2,zero
    3288:	003fb006 	br	314c <__alt_mem_onchip_memory+0xf780314c>
    328c:	d9003617 	ldw	r4,216(sp)
    3290:	000d883a 	mov	r6,zero
    3294:	000f883a 	mov	r7,zero
    3298:	980b883a 	mov	r5,r19
    329c:	d8c03c15 	stw	r3,240(sp)
    32a0:	da003d15 	stw	r8,244(sp)
    32a4:	000c7600 	call	c760 <__eqdf2>
    32a8:	d8c03c17 	ldw	r3,240(sp)
    32ac:	da003d17 	ldw	r8,244(sp)
    32b0:	103f9826 	beq	r2,zero,3114 <__alt_mem_onchip_memory+0xf7803114>
    32b4:	00800044 	movi	r2,1
    32b8:	10c7c83a 	sub	r3,r2,r3
    32bc:	d8c02615 	stw	r3,152(sp)
    32c0:	003f9506 	br	3118 <__alt_mem_onchip_memory+0xf7803118>
    32c4:	d9002917 	ldw	r4,164(sp)
    32c8:	d8c03217 	ldw	r3,200(sp)
    32cc:	20800044 	addi	r2,r4,1
    32d0:	1885883a 	add	r2,r3,r2
    32d4:	d8802e15 	stw	r2,184(sp)
    32d8:	103dbf0e 	bge	r2,zero,29d8 <__alt_mem_onchip_memory+0xf78029d8>
    32dc:	0005883a 	mov	r2,zero
    32e0:	003dbd06 	br	29d8 <__alt_mem_onchip_memory+0xf78029d8>
    32e4:	2000211e 	bne	r4,zero,336c <___vfprintf_internal_r+0x2168>
    32e8:	9480004c 	andi	r18,r18,1
    32ec:	90001f1e 	bne	r18,zero,336c <___vfprintf_internal_r+0x2168>
    32f0:	00800044 	movi	r2,1
    32f4:	d8802e15 	stw	r2,184(sp)
    32f8:	003db706 	br	29d8 <__alt_mem_onchip_memory+0xf78029d8>
    32fc:	00800b44 	movi	r2,45
    3300:	05adc83a 	sub	r22,zero,r22
    3304:	d8802305 	stb	r2,140(sp)
    3308:	003f3f06 	br	3008 <__alt_mem_onchip_memory+0xf7803008>
    330c:	0005883a 	mov	r2,zero
    3310:	003f5206 	br	305c <__alt_mem_onchip_memory+0xf780305c>
    3314:	90a4703a 	and	r18,r18,r2
    3318:	903f4e26 	beq	r18,zero,3054 <__alt_mem_onchip_memory+0xf7803054>
    331c:	003f4a06 	br	3048 <__alt_mem_onchip_memory+0xf7803048>
    3320:	00800084 	movi	r2,2
    3324:	10c5c83a 	sub	r2,r2,r3
    3328:	003f8406 	br	313c <__alt_mem_onchip_memory+0xf780313c>
    332c:	d8802d17 	ldw	r2,180(sp)
    3330:	d9002d17 	ldw	r4,180(sp)
    3334:	ac400043 	ldbu	r17,1(r21)
    3338:	10800017 	ldw	r2,0(r2)
    333c:	582b883a 	mov	r21,r11
    3340:	d8802915 	stw	r2,164(sp)
    3344:	20800104 	addi	r2,r4,4
    3348:	d9002917 	ldw	r4,164(sp)
    334c:	d8802d15 	stw	r2,180(sp)
    3350:	203e7a0e 	bge	r4,zero,2d3c <__alt_mem_onchip_memory+0xf7802d3c>
    3354:	8c403fcc 	andi	r17,r17,255
    3358:	00bfffc4 	movi	r2,-1
    335c:	8c40201c 	xori	r17,r17,128
    3360:	d8802915 	stw	r2,164(sp)
    3364:	8c7fe004 	addi	r17,r17,-128
    3368:	00380706 	br	1388 <__alt_mem_onchip_memory+0xf7801388>
    336c:	d8c02917 	ldw	r3,164(sp)
    3370:	18c00084 	addi	r3,r3,2
    3374:	d8c02e15 	stw	r3,184(sp)
    3378:	1805883a 	mov	r2,r3
    337c:	183d960e 	bge	r3,zero,29d8 <__alt_mem_onchip_memory+0xf78029d8>
    3380:	003fd606 	br	32dc <__alt_mem_onchip_memory+0xf78032dc>
    3384:	0005883a 	mov	r2,zero
    3388:	003f8e06 	br	31c4 <__alt_mem_onchip_memory+0xf78031c4>
    338c:	9080004c 	andi	r2,r18,1
    3390:	103f811e 	bne	r2,zero,3198 <__alt_mem_onchip_memory+0xf7803198>
    3394:	d8802117 	ldw	r2,132(sp)
    3398:	1405c83a 	sub	r2,r2,r16
    339c:	d8803315 	stw	r2,204(sp)
    33a0:	b47ef326 	beq	r22,r17,2f70 <__alt_mem_onchip_memory+0xf7802f70>
    33a4:	dd802617 	ldw	r22,152(sp)
    33a8:	003f1106 	br	2ff0 <__alt_mem_onchip_memory+0xf7802ff0>
    33ac:	d9c02785 	stb	r7,158(sp)
    33b0:	00390406 	br	17c4 <__alt_mem_onchip_memory+0xf78017c4>
    33b4:	d9c02785 	stb	r7,158(sp)
    33b8:	0038d306 	br	1708 <__alt_mem_onchip_memory+0xf7801708>
    33bc:	d9c02785 	stb	r7,158(sp)
    33c0:	003a6106 	br	1d48 <__alt_mem_onchip_memory+0xf7801d48>
    33c4:	d9c02785 	stb	r7,158(sp)
    33c8:	003af806 	br	1fac <__alt_mem_onchip_memory+0xf7801fac>
    33cc:	0005883a 	mov	r2,zero
    33d0:	003d7e06 	br	29cc <__alt_mem_onchip_memory+0xf78029cc>
    33d4:	d8802344 	addi	r2,sp,141
    33d8:	003f1306 	br	3028 <__alt_mem_onchip_memory+0xf7803028>
    33dc:	d9c02785 	stb	r7,158(sp)
    33e0:	00392306 	br	1870 <__alt_mem_onchip_memory+0xf7801870>
    33e4:	d9c02785 	stb	r7,158(sp)
    33e8:	003aa906 	br	1e90 <__alt_mem_onchip_memory+0xf7801e90>
    33ec:	d9c02785 	stb	r7,158(sp)
    33f0:	003a3d06 	br	1ce8 <__alt_mem_onchip_memory+0xf7801ce8>
    33f4:	d9c02785 	stb	r7,158(sp)
    33f8:	003aca06 	br	1f24 <__alt_mem_onchip_memory+0xf7801f24>

000033fc <__vfprintf_internal>:
    33fc:	008000b4 	movhi	r2,2
    3400:	10ba9104 	addi	r2,r2,-5564
    3404:	300f883a 	mov	r7,r6
    3408:	280d883a 	mov	r6,r5
    340c:	200b883a 	mov	r5,r4
    3410:	11000017 	ldw	r4,0(r2)
    3414:	00012041 	jmpi	1204 <___vfprintf_internal_r>

00003418 <__sbprintf>:
    3418:	2880030b 	ldhu	r2,12(r5)
    341c:	2ac01917 	ldw	r11,100(r5)
    3420:	2a80038b 	ldhu	r10,14(r5)
    3424:	2a400717 	ldw	r9,28(r5)
    3428:	2a000917 	ldw	r8,36(r5)
    342c:	defee204 	addi	sp,sp,-1144
    3430:	00c10004 	movi	r3,1024
    3434:	dc011a15 	stw	r16,1128(sp)
    3438:	10bfff4c 	andi	r2,r2,65533
    343c:	2821883a 	mov	r16,r5
    3440:	d8cb883a 	add	r5,sp,r3
    3444:	dc811c15 	stw	r18,1136(sp)
    3448:	dc411b15 	stw	r17,1132(sp)
    344c:	dfc11d15 	stw	ra,1140(sp)
    3450:	2025883a 	mov	r18,r4
    3454:	d881030d 	sth	r2,1036(sp)
    3458:	dac11915 	stw	r11,1124(sp)
    345c:	da81038d 	sth	r10,1038(sp)
    3460:	da410715 	stw	r9,1052(sp)
    3464:	da010915 	stw	r8,1060(sp)
    3468:	dec10015 	stw	sp,1024(sp)
    346c:	dec10415 	stw	sp,1040(sp)
    3470:	d8c10215 	stw	r3,1032(sp)
    3474:	d8c10515 	stw	r3,1044(sp)
    3478:	d8010615 	stw	zero,1048(sp)
    347c:	00012040 	call	1204 <___vfprintf_internal_r>
    3480:	1023883a 	mov	r17,r2
    3484:	10000416 	blt	r2,zero,3498 <__sbprintf+0x80>
    3488:	d9410004 	addi	r5,sp,1024
    348c:	9009883a 	mov	r4,r18
    3490:	000524c0 	call	524c <_fflush_r>
    3494:	10000d1e 	bne	r2,zero,34cc <__sbprintf+0xb4>
    3498:	d881030b 	ldhu	r2,1036(sp)
    349c:	1080100c 	andi	r2,r2,64
    34a0:	10000326 	beq	r2,zero,34b0 <__sbprintf+0x98>
    34a4:	8080030b 	ldhu	r2,12(r16)
    34a8:	10801014 	ori	r2,r2,64
    34ac:	8080030d 	sth	r2,12(r16)
    34b0:	8805883a 	mov	r2,r17
    34b4:	dfc11d17 	ldw	ra,1140(sp)
    34b8:	dc811c17 	ldw	r18,1136(sp)
    34bc:	dc411b17 	ldw	r17,1132(sp)
    34c0:	dc011a17 	ldw	r16,1128(sp)
    34c4:	dec11e04 	addi	sp,sp,1144
    34c8:	f800283a 	ret
    34cc:	047fffc4 	movi	r17,-1
    34d0:	003ff106 	br	3498 <__alt_mem_onchip_memory+0xf7803498>

000034d4 <__swsetup_r>:
    34d4:	008000b4 	movhi	r2,2
    34d8:	defffd04 	addi	sp,sp,-12
    34dc:	10ba9104 	addi	r2,r2,-5564
    34e0:	dc400115 	stw	r17,4(sp)
    34e4:	2023883a 	mov	r17,r4
    34e8:	11000017 	ldw	r4,0(r2)
    34ec:	dc000015 	stw	r16,0(sp)
    34f0:	dfc00215 	stw	ra,8(sp)
    34f4:	2821883a 	mov	r16,r5
    34f8:	20000226 	beq	r4,zero,3504 <__swsetup_r+0x30>
    34fc:	20800e17 	ldw	r2,56(r4)
    3500:	10003126 	beq	r2,zero,35c8 <__swsetup_r+0xf4>
    3504:	8080030b 	ldhu	r2,12(r16)
    3508:	10c0020c 	andi	r3,r2,8
    350c:	1009883a 	mov	r4,r2
    3510:	18000f26 	beq	r3,zero,3550 <__swsetup_r+0x7c>
    3514:	80c00417 	ldw	r3,16(r16)
    3518:	18001526 	beq	r3,zero,3570 <__swsetup_r+0x9c>
    351c:	1100004c 	andi	r4,r2,1
    3520:	20001c1e 	bne	r4,zero,3594 <__swsetup_r+0xc0>
    3524:	1080008c 	andi	r2,r2,2
    3528:	1000291e 	bne	r2,zero,35d0 <__swsetup_r+0xfc>
    352c:	80800517 	ldw	r2,20(r16)
    3530:	80800215 	stw	r2,8(r16)
    3534:	18001c26 	beq	r3,zero,35a8 <__swsetup_r+0xd4>
    3538:	0005883a 	mov	r2,zero
    353c:	dfc00217 	ldw	ra,8(sp)
    3540:	dc400117 	ldw	r17,4(sp)
    3544:	dc000017 	ldw	r16,0(sp)
    3548:	dec00304 	addi	sp,sp,12
    354c:	f800283a 	ret
    3550:	2080040c 	andi	r2,r4,16
    3554:	10002e26 	beq	r2,zero,3610 <__swsetup_r+0x13c>
    3558:	2080010c 	andi	r2,r4,4
    355c:	10001e1e 	bne	r2,zero,35d8 <__swsetup_r+0x104>
    3560:	80c00417 	ldw	r3,16(r16)
    3564:	20800214 	ori	r2,r4,8
    3568:	8080030d 	sth	r2,12(r16)
    356c:	183feb1e 	bne	r3,zero,351c <__alt_mem_onchip_memory+0xf780351c>
    3570:	1100a00c 	andi	r4,r2,640
    3574:	01408004 	movi	r5,512
    3578:	217fe826 	beq	r4,r5,351c <__alt_mem_onchip_memory+0xf780351c>
    357c:	800b883a 	mov	r5,r16
    3580:	8809883a 	mov	r4,r17
    3584:	00061cc0 	call	61cc <__smakebuf_r>
    3588:	8080030b 	ldhu	r2,12(r16)
    358c:	80c00417 	ldw	r3,16(r16)
    3590:	003fe206 	br	351c <__alt_mem_onchip_memory+0xf780351c>
    3594:	80800517 	ldw	r2,20(r16)
    3598:	80000215 	stw	zero,8(r16)
    359c:	0085c83a 	sub	r2,zero,r2
    35a0:	80800615 	stw	r2,24(r16)
    35a4:	183fe41e 	bne	r3,zero,3538 <__alt_mem_onchip_memory+0xf7803538>
    35a8:	80c0030b 	ldhu	r3,12(r16)
    35ac:	0005883a 	mov	r2,zero
    35b0:	1900200c 	andi	r4,r3,128
    35b4:	203fe126 	beq	r4,zero,353c <__alt_mem_onchip_memory+0xf780353c>
    35b8:	18c01014 	ori	r3,r3,64
    35bc:	80c0030d 	sth	r3,12(r16)
    35c0:	00bfffc4 	movi	r2,-1
    35c4:	003fdd06 	br	353c <__alt_mem_onchip_memory+0xf780353c>
    35c8:	00056280 	call	5628 <__sinit>
    35cc:	003fcd06 	br	3504 <__alt_mem_onchip_memory+0xf7803504>
    35d0:	0005883a 	mov	r2,zero
    35d4:	003fd606 	br	3530 <__alt_mem_onchip_memory+0xf7803530>
    35d8:	81400c17 	ldw	r5,48(r16)
    35dc:	28000626 	beq	r5,zero,35f8 <__swsetup_r+0x124>
    35e0:	80801004 	addi	r2,r16,64
    35e4:	28800326 	beq	r5,r2,35f4 <__swsetup_r+0x120>
    35e8:	8809883a 	mov	r4,r17
    35ec:	000579c0 	call	579c <_free_r>
    35f0:	8100030b 	ldhu	r4,12(r16)
    35f4:	80000c15 	stw	zero,48(r16)
    35f8:	80c00417 	ldw	r3,16(r16)
    35fc:	00bff6c4 	movi	r2,-37
    3600:	1108703a 	and	r4,r2,r4
    3604:	80000115 	stw	zero,4(r16)
    3608:	80c00015 	stw	r3,0(r16)
    360c:	003fd506 	br	3564 <__alt_mem_onchip_memory+0xf7803564>
    3610:	00800244 	movi	r2,9
    3614:	88800015 	stw	r2,0(r17)
    3618:	20801014 	ori	r2,r4,64
    361c:	8080030d 	sth	r2,12(r16)
    3620:	00bfffc4 	movi	r2,-1
    3624:	003fc506 	br	353c <__alt_mem_onchip_memory+0xf780353c>

00003628 <__call_exitprocs>:
    3628:	defff504 	addi	sp,sp,-44
    362c:	df000915 	stw	fp,36(sp)
    3630:	dd400615 	stw	r21,24(sp)
    3634:	dc800315 	stw	r18,12(sp)
    3638:	dfc00a15 	stw	ra,40(sp)
    363c:	ddc00815 	stw	r23,32(sp)
    3640:	dd800715 	stw	r22,28(sp)
    3644:	dd000515 	stw	r20,20(sp)
    3648:	dcc00415 	stw	r19,16(sp)
    364c:	dc400215 	stw	r17,8(sp)
    3650:	dc000115 	stw	r16,4(sp)
    3654:	d9000015 	stw	r4,0(sp)
    3658:	2839883a 	mov	fp,r5
    365c:	04800044 	movi	r18,1
    3660:	057fffc4 	movi	r21,-1
    3664:	008000b4 	movhi	r2,2
    3668:	10ba9004 	addi	r2,r2,-5568
    366c:	12000017 	ldw	r8,0(r2)
    3670:	45005217 	ldw	r20,328(r8)
    3674:	44c05204 	addi	r19,r8,328
    3678:	a0001c26 	beq	r20,zero,36ec <__call_exitprocs+0xc4>
    367c:	a0800117 	ldw	r2,4(r20)
    3680:	15ffffc4 	addi	r23,r2,-1
    3684:	b8000d16 	blt	r23,zero,36bc <__call_exitprocs+0x94>
    3688:	14000044 	addi	r16,r2,1
    368c:	8421883a 	add	r16,r16,r16
    3690:	8421883a 	add	r16,r16,r16
    3694:	84402004 	addi	r17,r16,128
    3698:	a463883a 	add	r17,r20,r17
    369c:	a421883a 	add	r16,r20,r16
    36a0:	e0001e26 	beq	fp,zero,371c <__call_exitprocs+0xf4>
    36a4:	80804017 	ldw	r2,256(r16)
    36a8:	e0801c26 	beq	fp,r2,371c <__call_exitprocs+0xf4>
    36ac:	bdffffc4 	addi	r23,r23,-1
    36b0:	843fff04 	addi	r16,r16,-4
    36b4:	8c7fff04 	addi	r17,r17,-4
    36b8:	bd7ff91e 	bne	r23,r21,36a0 <__alt_mem_onchip_memory+0xf78036a0>
    36bc:	00800034 	movhi	r2,0
    36c0:	10800004 	addi	r2,r2,0
    36c4:	10000926 	beq	r2,zero,36ec <__call_exitprocs+0xc4>
    36c8:	a0800117 	ldw	r2,4(r20)
    36cc:	1000301e 	bne	r2,zero,3790 <__call_exitprocs+0x168>
    36d0:	a0800017 	ldw	r2,0(r20)
    36d4:	10003226 	beq	r2,zero,37a0 <__call_exitprocs+0x178>
    36d8:	a009883a 	mov	r4,r20
    36dc:	98800015 	stw	r2,0(r19)
    36e0:	00000000 	call	0 <__alt_mem_sdram>
    36e4:	9d000017 	ldw	r20,0(r19)
    36e8:	a03fe41e 	bne	r20,zero,367c <__alt_mem_onchip_memory+0xf780367c>
    36ec:	dfc00a17 	ldw	ra,40(sp)
    36f0:	df000917 	ldw	fp,36(sp)
    36f4:	ddc00817 	ldw	r23,32(sp)
    36f8:	dd800717 	ldw	r22,28(sp)
    36fc:	dd400617 	ldw	r21,24(sp)
    3700:	dd000517 	ldw	r20,20(sp)
    3704:	dcc00417 	ldw	r19,16(sp)
    3708:	dc800317 	ldw	r18,12(sp)
    370c:	dc400217 	ldw	r17,8(sp)
    3710:	dc000117 	ldw	r16,4(sp)
    3714:	dec00b04 	addi	sp,sp,44
    3718:	f800283a 	ret
    371c:	a0800117 	ldw	r2,4(r20)
    3720:	80c00017 	ldw	r3,0(r16)
    3724:	10bfffc4 	addi	r2,r2,-1
    3728:	15c01426 	beq	r2,r23,377c <__call_exitprocs+0x154>
    372c:	80000015 	stw	zero,0(r16)
    3730:	183fde26 	beq	r3,zero,36ac <__alt_mem_onchip_memory+0xf78036ac>
    3734:	95c8983a 	sll	r4,r18,r23
    3738:	a0806217 	ldw	r2,392(r20)
    373c:	a5800117 	ldw	r22,4(r20)
    3740:	2084703a 	and	r2,r4,r2
    3744:	10000b26 	beq	r2,zero,3774 <__call_exitprocs+0x14c>
    3748:	a0806317 	ldw	r2,396(r20)
    374c:	2088703a 	and	r4,r4,r2
    3750:	20000c1e 	bne	r4,zero,3784 <__call_exitprocs+0x15c>
    3754:	89400017 	ldw	r5,0(r17)
    3758:	d9000017 	ldw	r4,0(sp)
    375c:	183ee83a 	callr	r3
    3760:	a0800117 	ldw	r2,4(r20)
    3764:	15bfbf1e 	bne	r2,r22,3664 <__alt_mem_onchip_memory+0xf7803664>
    3768:	98800017 	ldw	r2,0(r19)
    376c:	153fcf26 	beq	r2,r20,36ac <__alt_mem_onchip_memory+0xf78036ac>
    3770:	003fbc06 	br	3664 <__alt_mem_onchip_memory+0xf7803664>
    3774:	183ee83a 	callr	r3
    3778:	003ff906 	br	3760 <__alt_mem_onchip_memory+0xf7803760>
    377c:	a5c00115 	stw	r23,4(r20)
    3780:	003feb06 	br	3730 <__alt_mem_onchip_memory+0xf7803730>
    3784:	89000017 	ldw	r4,0(r17)
    3788:	183ee83a 	callr	r3
    378c:	003ff406 	br	3760 <__alt_mem_onchip_memory+0xf7803760>
    3790:	a0800017 	ldw	r2,0(r20)
    3794:	a027883a 	mov	r19,r20
    3798:	1029883a 	mov	r20,r2
    379c:	003fb606 	br	3678 <__alt_mem_onchip_memory+0xf7803678>
    37a0:	0005883a 	mov	r2,zero
    37a4:	003ffb06 	br	3794 <__alt_mem_onchip_memory+0xf7803794>

000037a8 <quorem>:
    37a8:	defff704 	addi	sp,sp,-36
    37ac:	dc800215 	stw	r18,8(sp)
    37b0:	20800417 	ldw	r2,16(r4)
    37b4:	2c800417 	ldw	r18,16(r5)
    37b8:	dfc00815 	stw	ra,32(sp)
    37bc:	ddc00715 	stw	r23,28(sp)
    37c0:	dd800615 	stw	r22,24(sp)
    37c4:	dd400515 	stw	r21,20(sp)
    37c8:	dd000415 	stw	r20,16(sp)
    37cc:	dcc00315 	stw	r19,12(sp)
    37d0:	dc400115 	stw	r17,4(sp)
    37d4:	dc000015 	stw	r16,0(sp)
    37d8:	14807116 	blt	r2,r18,39a0 <quorem+0x1f8>
    37dc:	94bfffc4 	addi	r18,r18,-1
    37e0:	94ad883a 	add	r22,r18,r18
    37e4:	b5ad883a 	add	r22,r22,r22
    37e8:	2c400504 	addi	r17,r5,20
    37ec:	8da9883a 	add	r20,r17,r22
    37f0:	25400504 	addi	r21,r4,20
    37f4:	282f883a 	mov	r23,r5
    37f8:	adad883a 	add	r22,r21,r22
    37fc:	a1400017 	ldw	r5,0(r20)
    3800:	2021883a 	mov	r16,r4
    3804:	b1000017 	ldw	r4,0(r22)
    3808:	29400044 	addi	r5,r5,1
    380c:	000b5100 	call	b510 <__udivsi3>
    3810:	1027883a 	mov	r19,r2
    3814:	10002c26 	beq	r2,zero,38c8 <quorem+0x120>
    3818:	a813883a 	mov	r9,r21
    381c:	880b883a 	mov	r5,r17
    3820:	0009883a 	mov	r4,zero
    3824:	000d883a 	mov	r6,zero
    3828:	2a000017 	ldw	r8,0(r5)
    382c:	49c00017 	ldw	r7,0(r9)
    3830:	29400104 	addi	r5,r5,4
    3834:	40bfffcc 	andi	r2,r8,65535
    3838:	14c5383a 	mul	r2,r2,r19
    383c:	4010d43a 	srli	r8,r8,16
    3840:	38ffffcc 	andi	r3,r7,65535
    3844:	1105883a 	add	r2,r2,r4
    3848:	1008d43a 	srli	r4,r2,16
    384c:	44d1383a 	mul	r8,r8,r19
    3850:	198d883a 	add	r6,r3,r6
    3854:	10ffffcc 	andi	r3,r2,65535
    3858:	30c7c83a 	sub	r3,r6,r3
    385c:	380ed43a 	srli	r7,r7,16
    3860:	4105883a 	add	r2,r8,r4
    3864:	180dd43a 	srai	r6,r3,16
    3868:	113fffcc 	andi	r4,r2,65535
    386c:	390fc83a 	sub	r7,r7,r4
    3870:	398d883a 	add	r6,r7,r6
    3874:	300e943a 	slli	r7,r6,16
    3878:	18ffffcc 	andi	r3,r3,65535
    387c:	1008d43a 	srli	r4,r2,16
    3880:	38ceb03a 	or	r7,r7,r3
    3884:	49c00015 	stw	r7,0(r9)
    3888:	300dd43a 	srai	r6,r6,16
    388c:	4a400104 	addi	r9,r9,4
    3890:	a17fe52e 	bgeu	r20,r5,3828 <__alt_mem_onchip_memory+0xf7803828>
    3894:	b0800017 	ldw	r2,0(r22)
    3898:	10000b1e 	bne	r2,zero,38c8 <quorem+0x120>
    389c:	b0bfff04 	addi	r2,r22,-4
    38a0:	a880082e 	bgeu	r21,r2,38c4 <quorem+0x11c>
    38a4:	b0ffff17 	ldw	r3,-4(r22)
    38a8:	18000326 	beq	r3,zero,38b8 <quorem+0x110>
    38ac:	00000506 	br	38c4 <quorem+0x11c>
    38b0:	10c00017 	ldw	r3,0(r2)
    38b4:	1800031e 	bne	r3,zero,38c4 <quorem+0x11c>
    38b8:	10bfff04 	addi	r2,r2,-4
    38bc:	94bfffc4 	addi	r18,r18,-1
    38c0:	a8bffb36 	bltu	r21,r2,38b0 <__alt_mem_onchip_memory+0xf78038b0>
    38c4:	84800415 	stw	r18,16(r16)
    38c8:	b80b883a 	mov	r5,r23
    38cc:	8009883a 	mov	r4,r16
    38d0:	000790c0 	call	790c <__mcmp>
    38d4:	10002616 	blt	r2,zero,3970 <quorem+0x1c8>
    38d8:	9cc00044 	addi	r19,r19,1
    38dc:	a805883a 	mov	r2,r21
    38e0:	000b883a 	mov	r5,zero
    38e4:	11000017 	ldw	r4,0(r2)
    38e8:	89800017 	ldw	r6,0(r17)
    38ec:	10800104 	addi	r2,r2,4
    38f0:	20ffffcc 	andi	r3,r4,65535
    38f4:	194b883a 	add	r5,r3,r5
    38f8:	30ffffcc 	andi	r3,r6,65535
    38fc:	28c7c83a 	sub	r3,r5,r3
    3900:	300cd43a 	srli	r6,r6,16
    3904:	2008d43a 	srli	r4,r4,16
    3908:	180bd43a 	srai	r5,r3,16
    390c:	18ffffcc 	andi	r3,r3,65535
    3910:	2189c83a 	sub	r4,r4,r6
    3914:	2149883a 	add	r4,r4,r5
    3918:	200c943a 	slli	r6,r4,16
    391c:	8c400104 	addi	r17,r17,4
    3920:	200bd43a 	srai	r5,r4,16
    3924:	30c6b03a 	or	r3,r6,r3
    3928:	10ffff15 	stw	r3,-4(r2)
    392c:	a47fed2e 	bgeu	r20,r17,38e4 <__alt_mem_onchip_memory+0xf78038e4>
    3930:	9485883a 	add	r2,r18,r18
    3934:	1085883a 	add	r2,r2,r2
    3938:	a887883a 	add	r3,r21,r2
    393c:	18800017 	ldw	r2,0(r3)
    3940:	10000b1e 	bne	r2,zero,3970 <quorem+0x1c8>
    3944:	18bfff04 	addi	r2,r3,-4
    3948:	a880082e 	bgeu	r21,r2,396c <quorem+0x1c4>
    394c:	18ffff17 	ldw	r3,-4(r3)
    3950:	18000326 	beq	r3,zero,3960 <quorem+0x1b8>
    3954:	00000506 	br	396c <quorem+0x1c4>
    3958:	10c00017 	ldw	r3,0(r2)
    395c:	1800031e 	bne	r3,zero,396c <quorem+0x1c4>
    3960:	10bfff04 	addi	r2,r2,-4
    3964:	94bfffc4 	addi	r18,r18,-1
    3968:	a8bffb36 	bltu	r21,r2,3958 <__alt_mem_onchip_memory+0xf7803958>
    396c:	84800415 	stw	r18,16(r16)
    3970:	9805883a 	mov	r2,r19
    3974:	dfc00817 	ldw	ra,32(sp)
    3978:	ddc00717 	ldw	r23,28(sp)
    397c:	dd800617 	ldw	r22,24(sp)
    3980:	dd400517 	ldw	r21,20(sp)
    3984:	dd000417 	ldw	r20,16(sp)
    3988:	dcc00317 	ldw	r19,12(sp)
    398c:	dc800217 	ldw	r18,8(sp)
    3990:	dc400117 	ldw	r17,4(sp)
    3994:	dc000017 	ldw	r16,0(sp)
    3998:	dec00904 	addi	sp,sp,36
    399c:	f800283a 	ret
    39a0:	0005883a 	mov	r2,zero
    39a4:	003ff306 	br	3974 <__alt_mem_onchip_memory+0xf7803974>

000039a8 <_dtoa_r>:
    39a8:	20801017 	ldw	r2,64(r4)
    39ac:	deffde04 	addi	sp,sp,-136
    39b0:	df002015 	stw	fp,128(sp)
    39b4:	dcc01b15 	stw	r19,108(sp)
    39b8:	dc801a15 	stw	r18,104(sp)
    39bc:	dc401915 	stw	r17,100(sp)
    39c0:	dc001815 	stw	r16,96(sp)
    39c4:	dfc02115 	stw	ra,132(sp)
    39c8:	ddc01f15 	stw	r23,124(sp)
    39cc:	dd801e15 	stw	r22,120(sp)
    39d0:	dd401d15 	stw	r21,116(sp)
    39d4:	dd001c15 	stw	r20,112(sp)
    39d8:	d9c00315 	stw	r7,12(sp)
    39dc:	2039883a 	mov	fp,r4
    39e0:	3023883a 	mov	r17,r6
    39e4:	2825883a 	mov	r18,r5
    39e8:	dc002417 	ldw	r16,144(sp)
    39ec:	3027883a 	mov	r19,r6
    39f0:	10000826 	beq	r2,zero,3a14 <_dtoa_r+0x6c>
    39f4:	21801117 	ldw	r6,68(r4)
    39f8:	00c00044 	movi	r3,1
    39fc:	100b883a 	mov	r5,r2
    3a00:	1986983a 	sll	r3,r3,r6
    3a04:	11800115 	stw	r6,4(r2)
    3a08:	10c00215 	stw	r3,8(r2)
    3a0c:	00070ec0 	call	70ec <_Bfree>
    3a10:	e0001015 	stw	zero,64(fp)
    3a14:	88002e16 	blt	r17,zero,3ad0 <_dtoa_r+0x128>
    3a18:	80000015 	stw	zero,0(r16)
    3a1c:	889ffc2c 	andhi	r2,r17,32752
    3a20:	00dffc34 	movhi	r3,32752
    3a24:	10c01c26 	beq	r2,r3,3a98 <_dtoa_r+0xf0>
    3a28:	000d883a 	mov	r6,zero
    3a2c:	000f883a 	mov	r7,zero
    3a30:	9009883a 	mov	r4,r18
    3a34:	980b883a 	mov	r5,r19
    3a38:	000c7600 	call	c760 <__eqdf2>
    3a3c:	10002b1e 	bne	r2,zero,3aec <_dtoa_r+0x144>
    3a40:	d9c02317 	ldw	r7,140(sp)
    3a44:	00800044 	movi	r2,1
    3a48:	38800015 	stw	r2,0(r7)
    3a4c:	d8802517 	ldw	r2,148(sp)
    3a50:	10019e26 	beq	r2,zero,40cc <_dtoa_r+0x724>
    3a54:	d8c02517 	ldw	r3,148(sp)
    3a58:	008000b4 	movhi	r2,2
    3a5c:	10b1a244 	addi	r2,r2,-14711
    3a60:	18800015 	stw	r2,0(r3)
    3a64:	10bfffc4 	addi	r2,r2,-1
    3a68:	dfc02117 	ldw	ra,132(sp)
    3a6c:	df002017 	ldw	fp,128(sp)
    3a70:	ddc01f17 	ldw	r23,124(sp)
    3a74:	dd801e17 	ldw	r22,120(sp)
    3a78:	dd401d17 	ldw	r21,116(sp)
    3a7c:	dd001c17 	ldw	r20,112(sp)
    3a80:	dcc01b17 	ldw	r19,108(sp)
    3a84:	dc801a17 	ldw	r18,104(sp)
    3a88:	dc401917 	ldw	r17,100(sp)
    3a8c:	dc001817 	ldw	r16,96(sp)
    3a90:	dec02204 	addi	sp,sp,136
    3a94:	f800283a 	ret
    3a98:	d8c02317 	ldw	r3,140(sp)
    3a9c:	0089c3c4 	movi	r2,9999
    3aa0:	18800015 	stw	r2,0(r3)
    3aa4:	90017726 	beq	r18,zero,4084 <_dtoa_r+0x6dc>
    3aa8:	008000b4 	movhi	r2,2
    3aac:	10b1ae04 	addi	r2,r2,-14664
    3ab0:	d9002517 	ldw	r4,148(sp)
    3ab4:	203fec26 	beq	r4,zero,3a68 <__alt_mem_onchip_memory+0xf7803a68>
    3ab8:	10c000c7 	ldb	r3,3(r2)
    3abc:	1801781e 	bne	r3,zero,40a0 <_dtoa_r+0x6f8>
    3ac0:	10c000c4 	addi	r3,r2,3
    3ac4:	d9802517 	ldw	r6,148(sp)
    3ac8:	30c00015 	stw	r3,0(r6)
    3acc:	003fe606 	br	3a68 <__alt_mem_onchip_memory+0xf7803a68>
    3ad0:	04e00034 	movhi	r19,32768
    3ad4:	9cffffc4 	addi	r19,r19,-1
    3ad8:	00800044 	movi	r2,1
    3adc:	8ce6703a 	and	r19,r17,r19
    3ae0:	80800015 	stw	r2,0(r16)
    3ae4:	9823883a 	mov	r17,r19
    3ae8:	003fcc06 	br	3a1c <__alt_mem_onchip_memory+0xf7803a1c>
    3aec:	d8800204 	addi	r2,sp,8
    3af0:	d8800015 	stw	r2,0(sp)
    3af4:	d9c00104 	addi	r7,sp,4
    3af8:	900b883a 	mov	r5,r18
    3afc:	980d883a 	mov	r6,r19
    3b00:	e009883a 	mov	r4,fp
    3b04:	8820d53a 	srli	r16,r17,20
    3b08:	0007cd80 	call	7cd8 <__d2b>
    3b0c:	d8800915 	stw	r2,36(sp)
    3b10:	8001651e 	bne	r16,zero,40a8 <_dtoa_r+0x700>
    3b14:	dd800217 	ldw	r22,8(sp)
    3b18:	dc000117 	ldw	r16,4(sp)
    3b1c:	00800804 	movi	r2,32
    3b20:	b421883a 	add	r16,r22,r16
    3b24:	80c10c84 	addi	r3,r16,1074
    3b28:	10c2d10e 	bge	r2,r3,4670 <_dtoa_r+0xcc8>
    3b2c:	00801004 	movi	r2,64
    3b30:	81010484 	addi	r4,r16,1042
    3b34:	10c7c83a 	sub	r3,r2,r3
    3b38:	9108d83a 	srl	r4,r18,r4
    3b3c:	88e2983a 	sll	r17,r17,r3
    3b40:	2448b03a 	or	r4,r4,r17
    3b44:	000db280 	call	db28 <__floatunsidf>
    3b48:	017f8434 	movhi	r5,65040
    3b4c:	01800044 	movi	r6,1
    3b50:	1009883a 	mov	r4,r2
    3b54:	194b883a 	add	r5,r3,r5
    3b58:	843fffc4 	addi	r16,r16,-1
    3b5c:	d9801115 	stw	r6,68(sp)
    3b60:	000d883a 	mov	r6,zero
    3b64:	01cffe34 	movhi	r7,16376
    3b68:	000d0d00 	call	d0d0 <__subdf3>
    3b6c:	0198dbf4 	movhi	r6,25455
    3b70:	01cff4f4 	movhi	r7,16339
    3b74:	3190d844 	addi	r6,r6,17249
    3b78:	39e1e9c4 	addi	r7,r7,-30809
    3b7c:	1009883a 	mov	r4,r2
    3b80:	180b883a 	mov	r5,r3
    3b84:	000c9b80 	call	c9b8 <__muldf3>
    3b88:	01a2d874 	movhi	r6,35681
    3b8c:	01cff1f4 	movhi	r7,16327
    3b90:	31b22cc4 	addi	r6,r6,-14157
    3b94:	39e28a04 	addi	r7,r7,-30168
    3b98:	180b883a 	mov	r5,r3
    3b9c:	1009883a 	mov	r4,r2
    3ba0:	000b5cc0 	call	b5cc <__adddf3>
    3ba4:	8009883a 	mov	r4,r16
    3ba8:	1029883a 	mov	r20,r2
    3bac:	1823883a 	mov	r17,r3
    3bb0:	000da4c0 	call	da4c <__floatsidf>
    3bb4:	019427f4 	movhi	r6,20639
    3bb8:	01cff4f4 	movhi	r7,16339
    3bbc:	319e7ec4 	addi	r6,r6,31227
    3bc0:	39d104c4 	addi	r7,r7,17427
    3bc4:	1009883a 	mov	r4,r2
    3bc8:	180b883a 	mov	r5,r3
    3bcc:	000c9b80 	call	c9b8 <__muldf3>
    3bd0:	100d883a 	mov	r6,r2
    3bd4:	180f883a 	mov	r7,r3
    3bd8:	a009883a 	mov	r4,r20
    3bdc:	880b883a 	mov	r5,r17
    3be0:	000b5cc0 	call	b5cc <__adddf3>
    3be4:	1009883a 	mov	r4,r2
    3be8:	180b883a 	mov	r5,r3
    3bec:	1029883a 	mov	r20,r2
    3bf0:	1823883a 	mov	r17,r3
    3bf4:	000d9cc0 	call	d9cc <__fixdfsi>
    3bf8:	000d883a 	mov	r6,zero
    3bfc:	000f883a 	mov	r7,zero
    3c00:	a009883a 	mov	r4,r20
    3c04:	880b883a 	mov	r5,r17
    3c08:	d8800515 	stw	r2,20(sp)
    3c0c:	000c8c40 	call	c8c4 <__ledf2>
    3c10:	10028716 	blt	r2,zero,4630 <_dtoa_r+0xc88>
    3c14:	d8c00517 	ldw	r3,20(sp)
    3c18:	00800584 	movi	r2,22
    3c1c:	10c27536 	bltu	r2,r3,45f4 <_dtoa_r+0xc4c>
    3c20:	180490fa 	slli	r2,r3,3
    3c24:	00c000b4 	movhi	r3,2
    3c28:	18f1c904 	addi	r3,r3,-14556
    3c2c:	1885883a 	add	r2,r3,r2
    3c30:	11000017 	ldw	r4,0(r2)
    3c34:	11400117 	ldw	r5,4(r2)
    3c38:	900d883a 	mov	r6,r18
    3c3c:	980f883a 	mov	r7,r19
    3c40:	000c7e80 	call	c7e8 <__gedf2>
    3c44:	00828d0e 	bge	zero,r2,467c <_dtoa_r+0xcd4>
    3c48:	d9000517 	ldw	r4,20(sp)
    3c4c:	d8000e15 	stw	zero,56(sp)
    3c50:	213fffc4 	addi	r4,r4,-1
    3c54:	d9000515 	stw	r4,20(sp)
    3c58:	b42dc83a 	sub	r22,r22,r16
    3c5c:	b5bfffc4 	addi	r22,r22,-1
    3c60:	b0026f16 	blt	r22,zero,4620 <_dtoa_r+0xc78>
    3c64:	d8000815 	stw	zero,32(sp)
    3c68:	d9c00517 	ldw	r7,20(sp)
    3c6c:	38026416 	blt	r7,zero,4600 <_dtoa_r+0xc58>
    3c70:	b1ed883a 	add	r22,r22,r7
    3c74:	d9c00d15 	stw	r7,52(sp)
    3c78:	d8000a15 	stw	zero,40(sp)
    3c7c:	d9800317 	ldw	r6,12(sp)
    3c80:	00800244 	movi	r2,9
    3c84:	11811436 	bltu	r2,r6,40d8 <_dtoa_r+0x730>
    3c88:	00800144 	movi	r2,5
    3c8c:	1184e10e 	bge	r2,r6,5014 <_dtoa_r+0x166c>
    3c90:	31bfff04 	addi	r6,r6,-4
    3c94:	d9800315 	stw	r6,12(sp)
    3c98:	0023883a 	mov	r17,zero
    3c9c:	d9800317 	ldw	r6,12(sp)
    3ca0:	008000c4 	movi	r2,3
    3ca4:	30836726 	beq	r6,r2,4a44 <_dtoa_r+0x109c>
    3ca8:	1183410e 	bge	r2,r6,49b0 <_dtoa_r+0x1008>
    3cac:	d9c00317 	ldw	r7,12(sp)
    3cb0:	00800104 	movi	r2,4
    3cb4:	38827c26 	beq	r7,r2,46a8 <_dtoa_r+0xd00>
    3cb8:	00800144 	movi	r2,5
    3cbc:	3884c41e 	bne	r7,r2,4fd0 <_dtoa_r+0x1628>
    3cc0:	00800044 	movi	r2,1
    3cc4:	d8800b15 	stw	r2,44(sp)
    3cc8:	d8c00517 	ldw	r3,20(sp)
    3ccc:	d9002217 	ldw	r4,136(sp)
    3cd0:	1907883a 	add	r3,r3,r4
    3cd4:	19800044 	addi	r6,r3,1
    3cd8:	d8c00c15 	stw	r3,48(sp)
    3cdc:	d9800615 	stw	r6,24(sp)
    3ce0:	0183a40e 	bge	zero,r6,4b74 <_dtoa_r+0x11cc>
    3ce4:	d9800617 	ldw	r6,24(sp)
    3ce8:	3021883a 	mov	r16,r6
    3cec:	e0001115 	stw	zero,68(fp)
    3cf0:	008005c4 	movi	r2,23
    3cf4:	1184c92e 	bgeu	r2,r6,501c <_dtoa_r+0x1674>
    3cf8:	00c00044 	movi	r3,1
    3cfc:	00800104 	movi	r2,4
    3d00:	1085883a 	add	r2,r2,r2
    3d04:	11000504 	addi	r4,r2,20
    3d08:	180b883a 	mov	r5,r3
    3d0c:	18c00044 	addi	r3,r3,1
    3d10:	313ffb2e 	bgeu	r6,r4,3d00 <__alt_mem_onchip_memory+0xf7803d00>
    3d14:	e1401115 	stw	r5,68(fp)
    3d18:	e009883a 	mov	r4,fp
    3d1c:	00070440 	call	7044 <_Balloc>
    3d20:	d8800715 	stw	r2,28(sp)
    3d24:	e0801015 	stw	r2,64(fp)
    3d28:	00800384 	movi	r2,14
    3d2c:	1400f736 	bltu	r2,r16,410c <_dtoa_r+0x764>
    3d30:	8800f626 	beq	r17,zero,410c <_dtoa_r+0x764>
    3d34:	d9c00517 	ldw	r7,20(sp)
    3d38:	01c39a0e 	bge	zero,r7,4ba4 <_dtoa_r+0x11fc>
    3d3c:	388003cc 	andi	r2,r7,15
    3d40:	100490fa 	slli	r2,r2,3
    3d44:	382bd13a 	srai	r21,r7,4
    3d48:	00c000b4 	movhi	r3,2
    3d4c:	18f1c904 	addi	r3,r3,-14556
    3d50:	1885883a 	add	r2,r3,r2
    3d54:	a8c0040c 	andi	r3,r21,16
    3d58:	12400017 	ldw	r9,0(r2)
    3d5c:	12000117 	ldw	r8,4(r2)
    3d60:	18037926 	beq	r3,zero,4b48 <_dtoa_r+0x11a0>
    3d64:	008000b4 	movhi	r2,2
    3d68:	10b1bf04 	addi	r2,r2,-14596
    3d6c:	11800817 	ldw	r6,32(r2)
    3d70:	11c00917 	ldw	r7,36(r2)
    3d74:	9009883a 	mov	r4,r18
    3d78:	980b883a 	mov	r5,r19
    3d7c:	da001715 	stw	r8,92(sp)
    3d80:	da401615 	stw	r9,88(sp)
    3d84:	000be780 	call	be78 <__divdf3>
    3d88:	da001717 	ldw	r8,92(sp)
    3d8c:	da401617 	ldw	r9,88(sp)
    3d90:	ad4003cc 	andi	r21,r21,15
    3d94:	040000c4 	movi	r16,3
    3d98:	1023883a 	mov	r17,r2
    3d9c:	1829883a 	mov	r20,r3
    3da0:	a8001126 	beq	r21,zero,3de8 <_dtoa_r+0x440>
    3da4:	05c000b4 	movhi	r23,2
    3da8:	bdf1bf04 	addi	r23,r23,-14596
    3dac:	4805883a 	mov	r2,r9
    3db0:	4007883a 	mov	r3,r8
    3db4:	a980004c 	andi	r6,r21,1
    3db8:	1009883a 	mov	r4,r2
    3dbc:	a82bd07a 	srai	r21,r21,1
    3dc0:	180b883a 	mov	r5,r3
    3dc4:	30000426 	beq	r6,zero,3dd8 <_dtoa_r+0x430>
    3dc8:	b9800017 	ldw	r6,0(r23)
    3dcc:	b9c00117 	ldw	r7,4(r23)
    3dd0:	84000044 	addi	r16,r16,1
    3dd4:	000c9b80 	call	c9b8 <__muldf3>
    3dd8:	bdc00204 	addi	r23,r23,8
    3ddc:	a83ff51e 	bne	r21,zero,3db4 <__alt_mem_onchip_memory+0xf7803db4>
    3de0:	1013883a 	mov	r9,r2
    3de4:	1811883a 	mov	r8,r3
    3de8:	480d883a 	mov	r6,r9
    3dec:	400f883a 	mov	r7,r8
    3df0:	8809883a 	mov	r4,r17
    3df4:	a00b883a 	mov	r5,r20
    3df8:	000be780 	call	be78 <__divdf3>
    3dfc:	d8800f15 	stw	r2,60(sp)
    3e00:	d8c01015 	stw	r3,64(sp)
    3e04:	d8c00e17 	ldw	r3,56(sp)
    3e08:	18000626 	beq	r3,zero,3e24 <_dtoa_r+0x47c>
    3e0c:	d9000f17 	ldw	r4,60(sp)
    3e10:	d9401017 	ldw	r5,64(sp)
    3e14:	000d883a 	mov	r6,zero
    3e18:	01cffc34 	movhi	r7,16368
    3e1c:	000c8c40 	call	c8c4 <__ledf2>
    3e20:	10040b16 	blt	r2,zero,4e50 <_dtoa_r+0x14a8>
    3e24:	8009883a 	mov	r4,r16
    3e28:	000da4c0 	call	da4c <__floatsidf>
    3e2c:	d9800f17 	ldw	r6,60(sp)
    3e30:	d9c01017 	ldw	r7,64(sp)
    3e34:	1009883a 	mov	r4,r2
    3e38:	180b883a 	mov	r5,r3
    3e3c:	000c9b80 	call	c9b8 <__muldf3>
    3e40:	000d883a 	mov	r6,zero
    3e44:	01d00734 	movhi	r7,16412
    3e48:	1009883a 	mov	r4,r2
    3e4c:	180b883a 	mov	r5,r3
    3e50:	000b5cc0 	call	b5cc <__adddf3>
    3e54:	1021883a 	mov	r16,r2
    3e58:	d8800617 	ldw	r2,24(sp)
    3e5c:	047f3034 	movhi	r17,64704
    3e60:	1c63883a 	add	r17,r3,r17
    3e64:	10031826 	beq	r2,zero,4ac8 <_dtoa_r+0x1120>
    3e68:	d8c00517 	ldw	r3,20(sp)
    3e6c:	db000617 	ldw	r12,24(sp)
    3e70:	d8c01315 	stw	r3,76(sp)
    3e74:	d9000b17 	ldw	r4,44(sp)
    3e78:	20038f26 	beq	r4,zero,4cb8 <_dtoa_r+0x1310>
    3e7c:	60bfffc4 	addi	r2,r12,-1
    3e80:	100490fa 	slli	r2,r2,3
    3e84:	00c000b4 	movhi	r3,2
    3e88:	18f1c904 	addi	r3,r3,-14556
    3e8c:	1885883a 	add	r2,r3,r2
    3e90:	11800017 	ldw	r6,0(r2)
    3e94:	11c00117 	ldw	r7,4(r2)
    3e98:	d8800717 	ldw	r2,28(sp)
    3e9c:	0009883a 	mov	r4,zero
    3ea0:	014ff834 	movhi	r5,16352
    3ea4:	db001615 	stw	r12,88(sp)
    3ea8:	15c00044 	addi	r23,r2,1
    3eac:	000be780 	call	be78 <__divdf3>
    3eb0:	800d883a 	mov	r6,r16
    3eb4:	880f883a 	mov	r7,r17
    3eb8:	1009883a 	mov	r4,r2
    3ebc:	180b883a 	mov	r5,r3
    3ec0:	000d0d00 	call	d0d0 <__subdf3>
    3ec4:	d9401017 	ldw	r5,64(sp)
    3ec8:	d9000f17 	ldw	r4,60(sp)
    3ecc:	102b883a 	mov	r21,r2
    3ed0:	d8c01215 	stw	r3,72(sp)
    3ed4:	000d9cc0 	call	d9cc <__fixdfsi>
    3ed8:	1009883a 	mov	r4,r2
    3edc:	1029883a 	mov	r20,r2
    3ee0:	000da4c0 	call	da4c <__floatsidf>
    3ee4:	d9000f17 	ldw	r4,60(sp)
    3ee8:	d9401017 	ldw	r5,64(sp)
    3eec:	100d883a 	mov	r6,r2
    3ef0:	180f883a 	mov	r7,r3
    3ef4:	000d0d00 	call	d0d0 <__subdf3>
    3ef8:	1823883a 	mov	r17,r3
    3efc:	d8c00717 	ldw	r3,28(sp)
    3f00:	d9401217 	ldw	r5,72(sp)
    3f04:	a2000c04 	addi	r8,r20,48
    3f08:	1021883a 	mov	r16,r2
    3f0c:	1a000005 	stb	r8,0(r3)
    3f10:	800d883a 	mov	r6,r16
    3f14:	880f883a 	mov	r7,r17
    3f18:	a809883a 	mov	r4,r21
    3f1c:	4029883a 	mov	r20,r8
    3f20:	000c7e80 	call	c7e8 <__gedf2>
    3f24:	00841d16 	blt	zero,r2,4f9c <_dtoa_r+0x15f4>
    3f28:	800d883a 	mov	r6,r16
    3f2c:	880f883a 	mov	r7,r17
    3f30:	0009883a 	mov	r4,zero
    3f34:	014ffc34 	movhi	r5,16368
    3f38:	000d0d00 	call	d0d0 <__subdf3>
    3f3c:	d9401217 	ldw	r5,72(sp)
    3f40:	100d883a 	mov	r6,r2
    3f44:	180f883a 	mov	r7,r3
    3f48:	a809883a 	mov	r4,r21
    3f4c:	000c7e80 	call	c7e8 <__gedf2>
    3f50:	db001617 	ldw	r12,88(sp)
    3f54:	00840e16 	blt	zero,r2,4f90 <_dtoa_r+0x15e8>
    3f58:	00800044 	movi	r2,1
    3f5c:	13006b0e 	bge	r2,r12,410c <_dtoa_r+0x764>
    3f60:	d9000717 	ldw	r4,28(sp)
    3f64:	dd800f15 	stw	r22,60(sp)
    3f68:	dcc01015 	stw	r19,64(sp)
    3f6c:	2319883a 	add	r12,r4,r12
    3f70:	dcc01217 	ldw	r19,72(sp)
    3f74:	602d883a 	mov	r22,r12
    3f78:	dc801215 	stw	r18,72(sp)
    3f7c:	b825883a 	mov	r18,r23
    3f80:	00000906 	br	3fa8 <_dtoa_r+0x600>
    3f84:	000d0d00 	call	d0d0 <__subdf3>
    3f88:	a80d883a 	mov	r6,r21
    3f8c:	980f883a 	mov	r7,r19
    3f90:	1009883a 	mov	r4,r2
    3f94:	180b883a 	mov	r5,r3
    3f98:	000c8c40 	call	c8c4 <__ledf2>
    3f9c:	1003e816 	blt	r2,zero,4f40 <_dtoa_r+0x1598>
    3fa0:	b825883a 	mov	r18,r23
    3fa4:	bd83e926 	beq	r23,r22,4f4c <_dtoa_r+0x15a4>
    3fa8:	a809883a 	mov	r4,r21
    3fac:	980b883a 	mov	r5,r19
    3fb0:	000d883a 	mov	r6,zero
    3fb4:	01d00934 	movhi	r7,16420
    3fb8:	000c9b80 	call	c9b8 <__muldf3>
    3fbc:	000d883a 	mov	r6,zero
    3fc0:	01d00934 	movhi	r7,16420
    3fc4:	8009883a 	mov	r4,r16
    3fc8:	880b883a 	mov	r5,r17
    3fcc:	102b883a 	mov	r21,r2
    3fd0:	1827883a 	mov	r19,r3
    3fd4:	000c9b80 	call	c9b8 <__muldf3>
    3fd8:	180b883a 	mov	r5,r3
    3fdc:	1009883a 	mov	r4,r2
    3fe0:	1821883a 	mov	r16,r3
    3fe4:	1023883a 	mov	r17,r2
    3fe8:	000d9cc0 	call	d9cc <__fixdfsi>
    3fec:	1009883a 	mov	r4,r2
    3ff0:	1029883a 	mov	r20,r2
    3ff4:	000da4c0 	call	da4c <__floatsidf>
    3ff8:	8809883a 	mov	r4,r17
    3ffc:	800b883a 	mov	r5,r16
    4000:	100d883a 	mov	r6,r2
    4004:	180f883a 	mov	r7,r3
    4008:	000d0d00 	call	d0d0 <__subdf3>
    400c:	a5000c04 	addi	r20,r20,48
    4010:	a80d883a 	mov	r6,r21
    4014:	980f883a 	mov	r7,r19
    4018:	1009883a 	mov	r4,r2
    401c:	180b883a 	mov	r5,r3
    4020:	95000005 	stb	r20,0(r18)
    4024:	1021883a 	mov	r16,r2
    4028:	1823883a 	mov	r17,r3
    402c:	000c8c40 	call	c8c4 <__ledf2>
    4030:	bdc00044 	addi	r23,r23,1
    4034:	800d883a 	mov	r6,r16
    4038:	880f883a 	mov	r7,r17
    403c:	0009883a 	mov	r4,zero
    4040:	014ffc34 	movhi	r5,16368
    4044:	103fcf0e 	bge	r2,zero,3f84 <__alt_mem_onchip_memory+0xf7803f84>
    4048:	d8c01317 	ldw	r3,76(sp)
    404c:	d8c00515 	stw	r3,20(sp)
    4050:	d9400917 	ldw	r5,36(sp)
    4054:	e009883a 	mov	r4,fp
    4058:	00070ec0 	call	70ec <_Bfree>
    405c:	d9000517 	ldw	r4,20(sp)
    4060:	d9802317 	ldw	r6,140(sp)
    4064:	d9c02517 	ldw	r7,148(sp)
    4068:	b8000005 	stb	zero,0(r23)
    406c:	20800044 	addi	r2,r4,1
    4070:	30800015 	stw	r2,0(r6)
    4074:	3802aa26 	beq	r7,zero,4b20 <_dtoa_r+0x1178>
    4078:	3dc00015 	stw	r23,0(r7)
    407c:	d8800717 	ldw	r2,28(sp)
    4080:	003e7906 	br	3a68 <__alt_mem_onchip_memory+0xf7803a68>
    4084:	00800434 	movhi	r2,16
    4088:	10bfffc4 	addi	r2,r2,-1
    408c:	88a2703a 	and	r17,r17,r2
    4090:	883e851e 	bne	r17,zero,3aa8 <__alt_mem_onchip_memory+0xf7803aa8>
    4094:	008000b4 	movhi	r2,2
    4098:	10b1ab04 	addi	r2,r2,-14676
    409c:	003e8406 	br	3ab0 <__alt_mem_onchip_memory+0xf7803ab0>
    40a0:	10c00204 	addi	r3,r2,8
    40a4:	003e8706 	br	3ac4 <__alt_mem_onchip_memory+0xf7803ac4>
    40a8:	01400434 	movhi	r5,16
    40ac:	297fffc4 	addi	r5,r5,-1
    40b0:	994a703a 	and	r5,r19,r5
    40b4:	9009883a 	mov	r4,r18
    40b8:	843f0044 	addi	r16,r16,-1023
    40bc:	294ffc34 	orhi	r5,r5,16368
    40c0:	dd800217 	ldw	r22,8(sp)
    40c4:	d8001115 	stw	zero,68(sp)
    40c8:	003ea506 	br	3b60 <__alt_mem_onchip_memory+0xf7803b60>
    40cc:	008000b4 	movhi	r2,2
    40d0:	10b1a204 	addi	r2,r2,-14712
    40d4:	003e6406 	br	3a68 <__alt_mem_onchip_memory+0xf7803a68>
    40d8:	e0001115 	stw	zero,68(fp)
    40dc:	000b883a 	mov	r5,zero
    40e0:	e009883a 	mov	r4,fp
    40e4:	00070440 	call	7044 <_Balloc>
    40e8:	01bfffc4 	movi	r6,-1
    40ec:	01c00044 	movi	r7,1
    40f0:	d8800715 	stw	r2,28(sp)
    40f4:	d9800c15 	stw	r6,48(sp)
    40f8:	e0801015 	stw	r2,64(fp)
    40fc:	d8000315 	stw	zero,12(sp)
    4100:	d9c00b15 	stw	r7,44(sp)
    4104:	d9800615 	stw	r6,24(sp)
    4108:	d8002215 	stw	zero,136(sp)
    410c:	d8800117 	ldw	r2,4(sp)
    4110:	10008916 	blt	r2,zero,4338 <_dtoa_r+0x990>
    4114:	d9000517 	ldw	r4,20(sp)
    4118:	00c00384 	movi	r3,14
    411c:	19008616 	blt	r3,r4,4338 <_dtoa_r+0x990>
    4120:	200490fa 	slli	r2,r4,3
    4124:	00c000b4 	movhi	r3,2
    4128:	d9802217 	ldw	r6,136(sp)
    412c:	18f1c904 	addi	r3,r3,-14556
    4130:	1885883a 	add	r2,r3,r2
    4134:	14000017 	ldw	r16,0(r2)
    4138:	14400117 	ldw	r17,4(r2)
    413c:	30016316 	blt	r6,zero,46cc <_dtoa_r+0xd24>
    4140:	800d883a 	mov	r6,r16
    4144:	880f883a 	mov	r7,r17
    4148:	9009883a 	mov	r4,r18
    414c:	980b883a 	mov	r5,r19
    4150:	000be780 	call	be78 <__divdf3>
    4154:	180b883a 	mov	r5,r3
    4158:	1009883a 	mov	r4,r2
    415c:	000d9cc0 	call	d9cc <__fixdfsi>
    4160:	1009883a 	mov	r4,r2
    4164:	102b883a 	mov	r21,r2
    4168:	000da4c0 	call	da4c <__floatsidf>
    416c:	800d883a 	mov	r6,r16
    4170:	880f883a 	mov	r7,r17
    4174:	1009883a 	mov	r4,r2
    4178:	180b883a 	mov	r5,r3
    417c:	000c9b80 	call	c9b8 <__muldf3>
    4180:	100d883a 	mov	r6,r2
    4184:	180f883a 	mov	r7,r3
    4188:	9009883a 	mov	r4,r18
    418c:	980b883a 	mov	r5,r19
    4190:	000d0d00 	call	d0d0 <__subdf3>
    4194:	d9c00717 	ldw	r7,28(sp)
    4198:	1009883a 	mov	r4,r2
    419c:	a8800c04 	addi	r2,r21,48
    41a0:	38800005 	stb	r2,0(r7)
    41a4:	3dc00044 	addi	r23,r7,1
    41a8:	d9c00617 	ldw	r7,24(sp)
    41ac:	01800044 	movi	r6,1
    41b0:	180b883a 	mov	r5,r3
    41b4:	2005883a 	mov	r2,r4
    41b8:	39803826 	beq	r7,r6,429c <_dtoa_r+0x8f4>
    41bc:	000d883a 	mov	r6,zero
    41c0:	01d00934 	movhi	r7,16420
    41c4:	000c9b80 	call	c9b8 <__muldf3>
    41c8:	000d883a 	mov	r6,zero
    41cc:	000f883a 	mov	r7,zero
    41d0:	1009883a 	mov	r4,r2
    41d4:	180b883a 	mov	r5,r3
    41d8:	1025883a 	mov	r18,r2
    41dc:	1827883a 	mov	r19,r3
    41e0:	000c7600 	call	c760 <__eqdf2>
    41e4:	103f9a26 	beq	r2,zero,4050 <__alt_mem_onchip_memory+0xf7804050>
    41e8:	d9c00617 	ldw	r7,24(sp)
    41ec:	d8c00717 	ldw	r3,28(sp)
    41f0:	b829883a 	mov	r20,r23
    41f4:	38bfffc4 	addi	r2,r7,-1
    41f8:	18ad883a 	add	r22,r3,r2
    41fc:	00000a06 	br	4228 <_dtoa_r+0x880>
    4200:	000c9b80 	call	c9b8 <__muldf3>
    4204:	000d883a 	mov	r6,zero
    4208:	000f883a 	mov	r7,zero
    420c:	1009883a 	mov	r4,r2
    4210:	180b883a 	mov	r5,r3
    4214:	1025883a 	mov	r18,r2
    4218:	1827883a 	mov	r19,r3
    421c:	b829883a 	mov	r20,r23
    4220:	000c7600 	call	c760 <__eqdf2>
    4224:	103f8a26 	beq	r2,zero,4050 <__alt_mem_onchip_memory+0xf7804050>
    4228:	800d883a 	mov	r6,r16
    422c:	880f883a 	mov	r7,r17
    4230:	9009883a 	mov	r4,r18
    4234:	980b883a 	mov	r5,r19
    4238:	000be780 	call	be78 <__divdf3>
    423c:	180b883a 	mov	r5,r3
    4240:	1009883a 	mov	r4,r2
    4244:	000d9cc0 	call	d9cc <__fixdfsi>
    4248:	1009883a 	mov	r4,r2
    424c:	102b883a 	mov	r21,r2
    4250:	000da4c0 	call	da4c <__floatsidf>
    4254:	800d883a 	mov	r6,r16
    4258:	880f883a 	mov	r7,r17
    425c:	1009883a 	mov	r4,r2
    4260:	180b883a 	mov	r5,r3
    4264:	000c9b80 	call	c9b8 <__muldf3>
    4268:	100d883a 	mov	r6,r2
    426c:	180f883a 	mov	r7,r3
    4270:	9009883a 	mov	r4,r18
    4274:	980b883a 	mov	r5,r19
    4278:	000d0d00 	call	d0d0 <__subdf3>
    427c:	aa000c04 	addi	r8,r21,48
    4280:	a2000005 	stb	r8,0(r20)
    4284:	000d883a 	mov	r6,zero
    4288:	01d00934 	movhi	r7,16420
    428c:	1009883a 	mov	r4,r2
    4290:	180b883a 	mov	r5,r3
    4294:	a5c00044 	addi	r23,r20,1
    4298:	b53fd91e 	bne	r22,r20,4200 <__alt_mem_onchip_memory+0xf7804200>
    429c:	100d883a 	mov	r6,r2
    42a0:	180f883a 	mov	r7,r3
    42a4:	1009883a 	mov	r4,r2
    42a8:	180b883a 	mov	r5,r3
    42ac:	000b5cc0 	call	b5cc <__adddf3>
    42b0:	100d883a 	mov	r6,r2
    42b4:	180f883a 	mov	r7,r3
    42b8:	8009883a 	mov	r4,r16
    42bc:	880b883a 	mov	r5,r17
    42c0:	1027883a 	mov	r19,r2
    42c4:	1825883a 	mov	r18,r3
    42c8:	000c8c40 	call	c8c4 <__ledf2>
    42cc:	10000816 	blt	r2,zero,42f0 <_dtoa_r+0x948>
    42d0:	980d883a 	mov	r6,r19
    42d4:	900f883a 	mov	r7,r18
    42d8:	8009883a 	mov	r4,r16
    42dc:	880b883a 	mov	r5,r17
    42e0:	000c7600 	call	c760 <__eqdf2>
    42e4:	103f5a1e 	bne	r2,zero,4050 <__alt_mem_onchip_memory+0xf7804050>
    42e8:	ad40004c 	andi	r21,r21,1
    42ec:	a83f5826 	beq	r21,zero,4050 <__alt_mem_onchip_memory+0xf7804050>
    42f0:	bd3fffc3 	ldbu	r20,-1(r23)
    42f4:	b8bfffc4 	addi	r2,r23,-1
    42f8:	1007883a 	mov	r3,r2
    42fc:	01400e44 	movi	r5,57
    4300:	d9800717 	ldw	r6,28(sp)
    4304:	00000506 	br	431c <_dtoa_r+0x974>
    4308:	18ffffc4 	addi	r3,r3,-1
    430c:	11824726 	beq	r2,r6,4c2c <_dtoa_r+0x1284>
    4310:	1d000003 	ldbu	r20,0(r3)
    4314:	102f883a 	mov	r23,r2
    4318:	10bfffc4 	addi	r2,r2,-1
    431c:	a1003fcc 	andi	r4,r20,255
    4320:	2100201c 	xori	r4,r4,128
    4324:	213fe004 	addi	r4,r4,-128
    4328:	217ff726 	beq	r4,r5,4308 <__alt_mem_onchip_memory+0xf7804308>
    432c:	a2000044 	addi	r8,r20,1
    4330:	12000005 	stb	r8,0(r2)
    4334:	003f4606 	br	4050 <__alt_mem_onchip_memory+0xf7804050>
    4338:	d9000b17 	ldw	r4,44(sp)
    433c:	2000c826 	beq	r4,zero,4660 <_dtoa_r+0xcb8>
    4340:	d9800317 	ldw	r6,12(sp)
    4344:	00c00044 	movi	r3,1
    4348:	1980f90e 	bge	r3,r6,4730 <_dtoa_r+0xd88>
    434c:	d8800617 	ldw	r2,24(sp)
    4350:	d8c00a17 	ldw	r3,40(sp)
    4354:	157fffc4 	addi	r21,r2,-1
    4358:	1d41f316 	blt	r3,r21,4b28 <_dtoa_r+0x1180>
    435c:	1d6bc83a 	sub	r21,r3,r21
    4360:	d9c00617 	ldw	r7,24(sp)
    4364:	3802aa16 	blt	r7,zero,4e10 <_dtoa_r+0x1468>
    4368:	dd000817 	ldw	r20,32(sp)
    436c:	d8800617 	ldw	r2,24(sp)
    4370:	d8c00817 	ldw	r3,32(sp)
    4374:	01400044 	movi	r5,1
    4378:	e009883a 	mov	r4,fp
    437c:	1887883a 	add	r3,r3,r2
    4380:	d8c00815 	stw	r3,32(sp)
    4384:	b0ad883a 	add	r22,r22,r2
    4388:	00074500 	call	7450 <__i2b>
    438c:	1023883a 	mov	r17,r2
    4390:	a0000826 	beq	r20,zero,43b4 <_dtoa_r+0xa0c>
    4394:	0580070e 	bge	zero,r22,43b4 <_dtoa_r+0xa0c>
    4398:	a005883a 	mov	r2,r20
    439c:	b500b916 	blt	r22,r20,4684 <_dtoa_r+0xcdc>
    43a0:	d9000817 	ldw	r4,32(sp)
    43a4:	a0a9c83a 	sub	r20,r20,r2
    43a8:	b0adc83a 	sub	r22,r22,r2
    43ac:	2089c83a 	sub	r4,r4,r2
    43b0:	d9000815 	stw	r4,32(sp)
    43b4:	d9800a17 	ldw	r6,40(sp)
    43b8:	0181810e 	bge	zero,r6,49c0 <_dtoa_r+0x1018>
    43bc:	d9c00b17 	ldw	r7,44(sp)
    43c0:	3800b326 	beq	r7,zero,4690 <_dtoa_r+0xce8>
    43c4:	a800b226 	beq	r21,zero,4690 <_dtoa_r+0xce8>
    43c8:	880b883a 	mov	r5,r17
    43cc:	a80d883a 	mov	r6,r21
    43d0:	e009883a 	mov	r4,fp
    43d4:	00076840 	call	7684 <__pow5mult>
    43d8:	d9800917 	ldw	r6,36(sp)
    43dc:	100b883a 	mov	r5,r2
    43e0:	e009883a 	mov	r4,fp
    43e4:	1023883a 	mov	r17,r2
    43e8:	000748c0 	call	748c <__multiply>
    43ec:	1021883a 	mov	r16,r2
    43f0:	d8800a17 	ldw	r2,40(sp)
    43f4:	d9400917 	ldw	r5,36(sp)
    43f8:	e009883a 	mov	r4,fp
    43fc:	1545c83a 	sub	r2,r2,r21
    4400:	d8800a15 	stw	r2,40(sp)
    4404:	00070ec0 	call	70ec <_Bfree>
    4408:	d8c00a17 	ldw	r3,40(sp)
    440c:	18009f1e 	bne	r3,zero,468c <_dtoa_r+0xce4>
    4410:	05c00044 	movi	r23,1
    4414:	e009883a 	mov	r4,fp
    4418:	b80b883a 	mov	r5,r23
    441c:	00074500 	call	7450 <__i2b>
    4420:	d9000d17 	ldw	r4,52(sp)
    4424:	102b883a 	mov	r21,r2
    4428:	2000ce26 	beq	r4,zero,4764 <_dtoa_r+0xdbc>
    442c:	200d883a 	mov	r6,r4
    4430:	100b883a 	mov	r5,r2
    4434:	e009883a 	mov	r4,fp
    4438:	00076840 	call	7684 <__pow5mult>
    443c:	d9800317 	ldw	r6,12(sp)
    4440:	102b883a 	mov	r21,r2
    4444:	b981810e 	bge	r23,r6,4a4c <_dtoa_r+0x10a4>
    4448:	0027883a 	mov	r19,zero
    444c:	a8800417 	ldw	r2,16(r21)
    4450:	05c00804 	movi	r23,32
    4454:	10800104 	addi	r2,r2,4
    4458:	1085883a 	add	r2,r2,r2
    445c:	1085883a 	add	r2,r2,r2
    4460:	a885883a 	add	r2,r21,r2
    4464:	11000017 	ldw	r4,0(r2)
    4468:	00073380 	call	7338 <__hi0bits>
    446c:	b885c83a 	sub	r2,r23,r2
    4470:	1585883a 	add	r2,r2,r22
    4474:	108007cc 	andi	r2,r2,31
    4478:	1000b326 	beq	r2,zero,4748 <_dtoa_r+0xda0>
    447c:	00c00804 	movi	r3,32
    4480:	1887c83a 	sub	r3,r3,r2
    4484:	01000104 	movi	r4,4
    4488:	20c2cd0e 	bge	r4,r3,4fc0 <_dtoa_r+0x1618>
    448c:	00c00704 	movi	r3,28
    4490:	1885c83a 	sub	r2,r3,r2
    4494:	d8c00817 	ldw	r3,32(sp)
    4498:	a0a9883a 	add	r20,r20,r2
    449c:	b0ad883a 	add	r22,r22,r2
    44a0:	1887883a 	add	r3,r3,r2
    44a4:	d8c00815 	stw	r3,32(sp)
    44a8:	d9800817 	ldw	r6,32(sp)
    44ac:	0180040e 	bge	zero,r6,44c0 <_dtoa_r+0xb18>
    44b0:	800b883a 	mov	r5,r16
    44b4:	e009883a 	mov	r4,fp
    44b8:	00077c40 	call	77c4 <__lshift>
    44bc:	1021883a 	mov	r16,r2
    44c0:	0580050e 	bge	zero,r22,44d8 <_dtoa_r+0xb30>
    44c4:	a80b883a 	mov	r5,r21
    44c8:	b00d883a 	mov	r6,r22
    44cc:	e009883a 	mov	r4,fp
    44d0:	00077c40 	call	77c4 <__lshift>
    44d4:	102b883a 	mov	r21,r2
    44d8:	d9c00e17 	ldw	r7,56(sp)
    44dc:	3801211e 	bne	r7,zero,4964 <_dtoa_r+0xfbc>
    44e0:	d9800617 	ldw	r6,24(sp)
    44e4:	0181380e 	bge	zero,r6,49c8 <_dtoa_r+0x1020>
    44e8:	d8c00b17 	ldw	r3,44(sp)
    44ec:	1800ab1e 	bne	r3,zero,479c <_dtoa_r+0xdf4>
    44f0:	dc800717 	ldw	r18,28(sp)
    44f4:	dcc00617 	ldw	r19,24(sp)
    44f8:	9029883a 	mov	r20,r18
    44fc:	00000206 	br	4508 <_dtoa_r+0xb60>
    4500:	00071140 	call	7114 <__multadd>
    4504:	1021883a 	mov	r16,r2
    4508:	a80b883a 	mov	r5,r21
    450c:	8009883a 	mov	r4,r16
    4510:	00037a80 	call	37a8 <quorem>
    4514:	10800c04 	addi	r2,r2,48
    4518:	90800005 	stb	r2,0(r18)
    451c:	94800044 	addi	r18,r18,1
    4520:	9507c83a 	sub	r3,r18,r20
    4524:	000f883a 	mov	r7,zero
    4528:	01800284 	movi	r6,10
    452c:	800b883a 	mov	r5,r16
    4530:	e009883a 	mov	r4,fp
    4534:	1cfff216 	blt	r3,r19,4500 <__alt_mem_onchip_memory+0xf7804500>
    4538:	1011883a 	mov	r8,r2
    453c:	d8800617 	ldw	r2,24(sp)
    4540:	0082370e 	bge	zero,r2,4e20 <_dtoa_r+0x1478>
    4544:	d9000717 	ldw	r4,28(sp)
    4548:	0025883a 	mov	r18,zero
    454c:	20af883a 	add	r23,r4,r2
    4550:	01800044 	movi	r6,1
    4554:	800b883a 	mov	r5,r16
    4558:	e009883a 	mov	r4,fp
    455c:	da001715 	stw	r8,92(sp)
    4560:	00077c40 	call	77c4 <__lshift>
    4564:	a80b883a 	mov	r5,r21
    4568:	1009883a 	mov	r4,r2
    456c:	d8800915 	stw	r2,36(sp)
    4570:	000790c0 	call	790c <__mcmp>
    4574:	da001717 	ldw	r8,92(sp)
    4578:	0081800e 	bge	zero,r2,4b7c <_dtoa_r+0x11d4>
    457c:	b93fffc3 	ldbu	r4,-1(r23)
    4580:	b8bfffc4 	addi	r2,r23,-1
    4584:	1007883a 	mov	r3,r2
    4588:	01800e44 	movi	r6,57
    458c:	d9c00717 	ldw	r7,28(sp)
    4590:	00000506 	br	45a8 <_dtoa_r+0xc00>
    4594:	18ffffc4 	addi	r3,r3,-1
    4598:	11c12326 	beq	r2,r7,4a28 <_dtoa_r+0x1080>
    459c:	19000003 	ldbu	r4,0(r3)
    45a0:	102f883a 	mov	r23,r2
    45a4:	10bfffc4 	addi	r2,r2,-1
    45a8:	21403fcc 	andi	r5,r4,255
    45ac:	2940201c 	xori	r5,r5,128
    45b0:	297fe004 	addi	r5,r5,-128
    45b4:	29bff726 	beq	r5,r6,4594 <__alt_mem_onchip_memory+0xf7804594>
    45b8:	21000044 	addi	r4,r4,1
    45bc:	11000005 	stb	r4,0(r2)
    45c0:	a80b883a 	mov	r5,r21
    45c4:	e009883a 	mov	r4,fp
    45c8:	00070ec0 	call	70ec <_Bfree>
    45cc:	883ea026 	beq	r17,zero,4050 <__alt_mem_onchip_memory+0xf7804050>
    45d0:	90000426 	beq	r18,zero,45e4 <_dtoa_r+0xc3c>
    45d4:	94400326 	beq	r18,r17,45e4 <_dtoa_r+0xc3c>
    45d8:	900b883a 	mov	r5,r18
    45dc:	e009883a 	mov	r4,fp
    45e0:	00070ec0 	call	70ec <_Bfree>
    45e4:	880b883a 	mov	r5,r17
    45e8:	e009883a 	mov	r4,fp
    45ec:	00070ec0 	call	70ec <_Bfree>
    45f0:	003e9706 	br	4050 <__alt_mem_onchip_memory+0xf7804050>
    45f4:	01800044 	movi	r6,1
    45f8:	d9800e15 	stw	r6,56(sp)
    45fc:	003d9606 	br	3c58 <__alt_mem_onchip_memory+0xf7803c58>
    4600:	d8800817 	ldw	r2,32(sp)
    4604:	d8c00517 	ldw	r3,20(sp)
    4608:	d8000d15 	stw	zero,52(sp)
    460c:	10c5c83a 	sub	r2,r2,r3
    4610:	00c9c83a 	sub	r4,zero,r3
    4614:	d8800815 	stw	r2,32(sp)
    4618:	d9000a15 	stw	r4,40(sp)
    461c:	003d9706 	br	3c7c <__alt_mem_onchip_memory+0xf7803c7c>
    4620:	05adc83a 	sub	r22,zero,r22
    4624:	dd800815 	stw	r22,32(sp)
    4628:	002d883a 	mov	r22,zero
    462c:	003d8e06 	br	3c68 <__alt_mem_onchip_memory+0xf7803c68>
    4630:	d9000517 	ldw	r4,20(sp)
    4634:	000da4c0 	call	da4c <__floatsidf>
    4638:	100d883a 	mov	r6,r2
    463c:	180f883a 	mov	r7,r3
    4640:	a009883a 	mov	r4,r20
    4644:	880b883a 	mov	r5,r17
    4648:	000c7600 	call	c760 <__eqdf2>
    464c:	103d7126 	beq	r2,zero,3c14 <__alt_mem_onchip_memory+0xf7803c14>
    4650:	d9c00517 	ldw	r7,20(sp)
    4654:	39ffffc4 	addi	r7,r7,-1
    4658:	d9c00515 	stw	r7,20(sp)
    465c:	003d6d06 	br	3c14 <__alt_mem_onchip_memory+0xf7803c14>
    4660:	dd400a17 	ldw	r21,40(sp)
    4664:	dd000817 	ldw	r20,32(sp)
    4668:	0023883a 	mov	r17,zero
    466c:	003f4806 	br	4390 <__alt_mem_onchip_memory+0xf7804390>
    4670:	10e3c83a 	sub	r17,r2,r3
    4674:	9448983a 	sll	r4,r18,r17
    4678:	003d3206 	br	3b44 <__alt_mem_onchip_memory+0xf7803b44>
    467c:	d8000e15 	stw	zero,56(sp)
    4680:	003d7506 	br	3c58 <__alt_mem_onchip_memory+0xf7803c58>
    4684:	b005883a 	mov	r2,r22
    4688:	003f4506 	br	43a0 <__alt_mem_onchip_memory+0xf78043a0>
    468c:	dc000915 	stw	r16,36(sp)
    4690:	d9800a17 	ldw	r6,40(sp)
    4694:	d9400917 	ldw	r5,36(sp)
    4698:	e009883a 	mov	r4,fp
    469c:	00076840 	call	7684 <__pow5mult>
    46a0:	1021883a 	mov	r16,r2
    46a4:	003f5a06 	br	4410 <__alt_mem_onchip_memory+0xf7804410>
    46a8:	01c00044 	movi	r7,1
    46ac:	d9c00b15 	stw	r7,44(sp)
    46b0:	d8802217 	ldw	r2,136(sp)
    46b4:	0081280e 	bge	zero,r2,4b58 <_dtoa_r+0x11b0>
    46b8:	100d883a 	mov	r6,r2
    46bc:	1021883a 	mov	r16,r2
    46c0:	d8800c15 	stw	r2,48(sp)
    46c4:	d8800615 	stw	r2,24(sp)
    46c8:	003d8806 	br	3cec <__alt_mem_onchip_memory+0xf7803cec>
    46cc:	d8800617 	ldw	r2,24(sp)
    46d0:	00be9b16 	blt	zero,r2,4140 <__alt_mem_onchip_memory+0xf7804140>
    46d4:	10010f1e 	bne	r2,zero,4b14 <_dtoa_r+0x116c>
    46d8:	880b883a 	mov	r5,r17
    46dc:	000d883a 	mov	r6,zero
    46e0:	01d00534 	movhi	r7,16404
    46e4:	8009883a 	mov	r4,r16
    46e8:	000c9b80 	call	c9b8 <__muldf3>
    46ec:	900d883a 	mov	r6,r18
    46f0:	980f883a 	mov	r7,r19
    46f4:	1009883a 	mov	r4,r2
    46f8:	180b883a 	mov	r5,r3
    46fc:	000c7e80 	call	c7e8 <__gedf2>
    4700:	002b883a 	mov	r21,zero
    4704:	0023883a 	mov	r17,zero
    4708:	1000bf16 	blt	r2,zero,4a08 <_dtoa_r+0x1060>
    470c:	d9802217 	ldw	r6,136(sp)
    4710:	ddc00717 	ldw	r23,28(sp)
    4714:	018c303a 	nor	r6,zero,r6
    4718:	d9800515 	stw	r6,20(sp)
    471c:	a80b883a 	mov	r5,r21
    4720:	e009883a 	mov	r4,fp
    4724:	00070ec0 	call	70ec <_Bfree>
    4728:	883e4926 	beq	r17,zero,4050 <__alt_mem_onchip_memory+0xf7804050>
    472c:	003fad06 	br	45e4 <__alt_mem_onchip_memory+0xf78045e4>
    4730:	d9c01117 	ldw	r7,68(sp)
    4734:	3801bc26 	beq	r7,zero,4e28 <_dtoa_r+0x1480>
    4738:	10810cc4 	addi	r2,r2,1075
    473c:	dd400a17 	ldw	r21,40(sp)
    4740:	dd000817 	ldw	r20,32(sp)
    4744:	003f0a06 	br	4370 <__alt_mem_onchip_memory+0xf7804370>
    4748:	00800704 	movi	r2,28
    474c:	d9000817 	ldw	r4,32(sp)
    4750:	a0a9883a 	add	r20,r20,r2
    4754:	b0ad883a 	add	r22,r22,r2
    4758:	2089883a 	add	r4,r4,r2
    475c:	d9000815 	stw	r4,32(sp)
    4760:	003f5106 	br	44a8 <__alt_mem_onchip_memory+0xf78044a8>
    4764:	d8c00317 	ldw	r3,12(sp)
    4768:	b8c1fc0e 	bge	r23,r3,4f5c <_dtoa_r+0x15b4>
    476c:	0027883a 	mov	r19,zero
    4770:	b805883a 	mov	r2,r23
    4774:	003f3e06 	br	4470 <__alt_mem_onchip_memory+0xf7804470>
    4778:	880b883a 	mov	r5,r17
    477c:	e009883a 	mov	r4,fp
    4780:	000f883a 	mov	r7,zero
    4784:	01800284 	movi	r6,10
    4788:	00071140 	call	7114 <__multadd>
    478c:	d9000c17 	ldw	r4,48(sp)
    4790:	1023883a 	mov	r17,r2
    4794:	0102040e 	bge	zero,r4,4fa8 <_dtoa_r+0x1600>
    4798:	d9000615 	stw	r4,24(sp)
    479c:	0500050e 	bge	zero,r20,47b4 <_dtoa_r+0xe0c>
    47a0:	880b883a 	mov	r5,r17
    47a4:	a00d883a 	mov	r6,r20
    47a8:	e009883a 	mov	r4,fp
    47ac:	00077c40 	call	77c4 <__lshift>
    47b0:	1023883a 	mov	r17,r2
    47b4:	9801241e 	bne	r19,zero,4c48 <_dtoa_r+0x12a0>
    47b8:	8829883a 	mov	r20,r17
    47bc:	d9000617 	ldw	r4,24(sp)
    47c0:	dcc00717 	ldw	r19,28(sp)
    47c4:	9480004c 	andi	r18,r18,1
    47c8:	20bfffc4 	addi	r2,r4,-1
    47cc:	9885883a 	add	r2,r19,r2
    47d0:	d8800415 	stw	r2,16(sp)
    47d4:	dc800615 	stw	r18,24(sp)
    47d8:	a80b883a 	mov	r5,r21
    47dc:	8009883a 	mov	r4,r16
    47e0:	00037a80 	call	37a8 <quorem>
    47e4:	880b883a 	mov	r5,r17
    47e8:	8009883a 	mov	r4,r16
    47ec:	102f883a 	mov	r23,r2
    47f0:	000790c0 	call	790c <__mcmp>
    47f4:	a80b883a 	mov	r5,r21
    47f8:	a00d883a 	mov	r6,r20
    47fc:	e009883a 	mov	r4,fp
    4800:	102d883a 	mov	r22,r2
    4804:	000796c0 	call	796c <__mdiff>
    4808:	1007883a 	mov	r3,r2
    480c:	10800317 	ldw	r2,12(r2)
    4810:	bc800c04 	addi	r18,r23,48
    4814:	180b883a 	mov	r5,r3
    4818:	10004e1e 	bne	r2,zero,4954 <_dtoa_r+0xfac>
    481c:	8009883a 	mov	r4,r16
    4820:	d8c01615 	stw	r3,88(sp)
    4824:	000790c0 	call	790c <__mcmp>
    4828:	d8c01617 	ldw	r3,88(sp)
    482c:	e009883a 	mov	r4,fp
    4830:	d8801615 	stw	r2,88(sp)
    4834:	180b883a 	mov	r5,r3
    4838:	00070ec0 	call	70ec <_Bfree>
    483c:	d8801617 	ldw	r2,88(sp)
    4840:	1000041e 	bne	r2,zero,4854 <_dtoa_r+0xeac>
    4844:	d9800317 	ldw	r6,12(sp)
    4848:	3000021e 	bne	r6,zero,4854 <_dtoa_r+0xeac>
    484c:	d8c00617 	ldw	r3,24(sp)
    4850:	18003726 	beq	r3,zero,4930 <_dtoa_r+0xf88>
    4854:	b0002016 	blt	r22,zero,48d8 <_dtoa_r+0xf30>
    4858:	b000041e 	bne	r22,zero,486c <_dtoa_r+0xec4>
    485c:	d9000317 	ldw	r4,12(sp)
    4860:	2000021e 	bne	r4,zero,486c <_dtoa_r+0xec4>
    4864:	d8c00617 	ldw	r3,24(sp)
    4868:	18001b26 	beq	r3,zero,48d8 <_dtoa_r+0xf30>
    486c:	00810716 	blt	zero,r2,4c8c <_dtoa_r+0x12e4>
    4870:	d8c00417 	ldw	r3,16(sp)
    4874:	9d800044 	addi	r22,r19,1
    4878:	9c800005 	stb	r18,0(r19)
    487c:	b02f883a 	mov	r23,r22
    4880:	98c10626 	beq	r19,r3,4c9c <_dtoa_r+0x12f4>
    4884:	800b883a 	mov	r5,r16
    4888:	000f883a 	mov	r7,zero
    488c:	01800284 	movi	r6,10
    4890:	e009883a 	mov	r4,fp
    4894:	00071140 	call	7114 <__multadd>
    4898:	1021883a 	mov	r16,r2
    489c:	000f883a 	mov	r7,zero
    48a0:	01800284 	movi	r6,10
    48a4:	880b883a 	mov	r5,r17
    48a8:	e009883a 	mov	r4,fp
    48ac:	8d002526 	beq	r17,r20,4944 <_dtoa_r+0xf9c>
    48b0:	00071140 	call	7114 <__multadd>
    48b4:	a00b883a 	mov	r5,r20
    48b8:	000f883a 	mov	r7,zero
    48bc:	01800284 	movi	r6,10
    48c0:	e009883a 	mov	r4,fp
    48c4:	1023883a 	mov	r17,r2
    48c8:	00071140 	call	7114 <__multadd>
    48cc:	1029883a 	mov	r20,r2
    48d0:	b027883a 	mov	r19,r22
    48d4:	003fc006 	br	47d8 <__alt_mem_onchip_memory+0xf78047d8>
    48d8:	9011883a 	mov	r8,r18
    48dc:	00800e0e 	bge	zero,r2,4918 <_dtoa_r+0xf70>
    48e0:	800b883a 	mov	r5,r16
    48e4:	01800044 	movi	r6,1
    48e8:	e009883a 	mov	r4,fp
    48ec:	da001715 	stw	r8,92(sp)
    48f0:	00077c40 	call	77c4 <__lshift>
    48f4:	a80b883a 	mov	r5,r21
    48f8:	1009883a 	mov	r4,r2
    48fc:	1021883a 	mov	r16,r2
    4900:	000790c0 	call	790c <__mcmp>
    4904:	da001717 	ldw	r8,92(sp)
    4908:	0081960e 	bge	zero,r2,4f64 <_dtoa_r+0x15bc>
    490c:	00800e44 	movi	r2,57
    4910:	40817026 	beq	r8,r2,4ed4 <_dtoa_r+0x152c>
    4914:	ba000c44 	addi	r8,r23,49
    4918:	8825883a 	mov	r18,r17
    491c:	9dc00044 	addi	r23,r19,1
    4920:	9a000005 	stb	r8,0(r19)
    4924:	a023883a 	mov	r17,r20
    4928:	dc000915 	stw	r16,36(sp)
    492c:	003f2406 	br	45c0 <__alt_mem_onchip_memory+0xf78045c0>
    4930:	00800e44 	movi	r2,57
    4934:	9011883a 	mov	r8,r18
    4938:	90816626 	beq	r18,r2,4ed4 <_dtoa_r+0x152c>
    493c:	05bff516 	blt	zero,r22,4914 <__alt_mem_onchip_memory+0xf7804914>
    4940:	003ff506 	br	4918 <__alt_mem_onchip_memory+0xf7804918>
    4944:	00071140 	call	7114 <__multadd>
    4948:	1023883a 	mov	r17,r2
    494c:	1029883a 	mov	r20,r2
    4950:	003fdf06 	br	48d0 <__alt_mem_onchip_memory+0xf78048d0>
    4954:	e009883a 	mov	r4,fp
    4958:	00070ec0 	call	70ec <_Bfree>
    495c:	00800044 	movi	r2,1
    4960:	003fbc06 	br	4854 <__alt_mem_onchip_memory+0xf7804854>
    4964:	a80b883a 	mov	r5,r21
    4968:	8009883a 	mov	r4,r16
    496c:	000790c0 	call	790c <__mcmp>
    4970:	103edb0e 	bge	r2,zero,44e0 <__alt_mem_onchip_memory+0xf78044e0>
    4974:	800b883a 	mov	r5,r16
    4978:	000f883a 	mov	r7,zero
    497c:	01800284 	movi	r6,10
    4980:	e009883a 	mov	r4,fp
    4984:	00071140 	call	7114 <__multadd>
    4988:	1021883a 	mov	r16,r2
    498c:	d8800517 	ldw	r2,20(sp)
    4990:	d8c00b17 	ldw	r3,44(sp)
    4994:	10bfffc4 	addi	r2,r2,-1
    4998:	d8800515 	stw	r2,20(sp)
    499c:	183f761e 	bne	r3,zero,4778 <__alt_mem_onchip_memory+0xf7804778>
    49a0:	d9000c17 	ldw	r4,48(sp)
    49a4:	0101730e 	bge	zero,r4,4f74 <_dtoa_r+0x15cc>
    49a8:	d9000615 	stw	r4,24(sp)
    49ac:	003ed006 	br	44f0 <__alt_mem_onchip_memory+0xf78044f0>
    49b0:	00800084 	movi	r2,2
    49b4:	3081861e 	bne	r6,r2,4fd0 <_dtoa_r+0x1628>
    49b8:	d8000b15 	stw	zero,44(sp)
    49bc:	003f3c06 	br	46b0 <__alt_mem_onchip_memory+0xf78046b0>
    49c0:	dc000917 	ldw	r16,36(sp)
    49c4:	003e9206 	br	4410 <__alt_mem_onchip_memory+0xf7804410>
    49c8:	d9c00317 	ldw	r7,12(sp)
    49cc:	00800084 	movi	r2,2
    49d0:	11fec50e 	bge	r2,r7,44e8 <__alt_mem_onchip_memory+0xf78044e8>
    49d4:	d9000617 	ldw	r4,24(sp)
    49d8:	20013c1e 	bne	r4,zero,4ecc <_dtoa_r+0x1524>
    49dc:	a80b883a 	mov	r5,r21
    49e0:	000f883a 	mov	r7,zero
    49e4:	01800144 	movi	r6,5
    49e8:	e009883a 	mov	r4,fp
    49ec:	00071140 	call	7114 <__multadd>
    49f0:	100b883a 	mov	r5,r2
    49f4:	8009883a 	mov	r4,r16
    49f8:	102b883a 	mov	r21,r2
    49fc:	000790c0 	call	790c <__mcmp>
    4a00:	dc000915 	stw	r16,36(sp)
    4a04:	00bf410e 	bge	zero,r2,470c <__alt_mem_onchip_memory+0xf780470c>
    4a08:	d9c00717 	ldw	r7,28(sp)
    4a0c:	00800c44 	movi	r2,49
    4a10:	38800005 	stb	r2,0(r7)
    4a14:	d8800517 	ldw	r2,20(sp)
    4a18:	3dc00044 	addi	r23,r7,1
    4a1c:	10800044 	addi	r2,r2,1
    4a20:	d8800515 	stw	r2,20(sp)
    4a24:	003f3d06 	br	471c <__alt_mem_onchip_memory+0xf780471c>
    4a28:	d9800517 	ldw	r6,20(sp)
    4a2c:	d9c00717 	ldw	r7,28(sp)
    4a30:	00800c44 	movi	r2,49
    4a34:	31800044 	addi	r6,r6,1
    4a38:	d9800515 	stw	r6,20(sp)
    4a3c:	38800005 	stb	r2,0(r7)
    4a40:	003edf06 	br	45c0 <__alt_mem_onchip_memory+0xf78045c0>
    4a44:	d8000b15 	stw	zero,44(sp)
    4a48:	003c9f06 	br	3cc8 <__alt_mem_onchip_memory+0xf7803cc8>
    4a4c:	903e7e1e 	bne	r18,zero,4448 <__alt_mem_onchip_memory+0xf7804448>
    4a50:	00800434 	movhi	r2,16
    4a54:	10bfffc4 	addi	r2,r2,-1
    4a58:	9884703a 	and	r2,r19,r2
    4a5c:	1000ea1e 	bne	r2,zero,4e08 <_dtoa_r+0x1460>
    4a60:	9cdffc2c 	andhi	r19,r19,32752
    4a64:	9800e826 	beq	r19,zero,4e08 <_dtoa_r+0x1460>
    4a68:	d9c00817 	ldw	r7,32(sp)
    4a6c:	b5800044 	addi	r22,r22,1
    4a70:	04c00044 	movi	r19,1
    4a74:	39c00044 	addi	r7,r7,1
    4a78:	d9c00815 	stw	r7,32(sp)
    4a7c:	d8800d17 	ldw	r2,52(sp)
    4a80:	103e721e 	bne	r2,zero,444c <__alt_mem_onchip_memory+0xf780444c>
    4a84:	00800044 	movi	r2,1
    4a88:	003e7906 	br	4470 <__alt_mem_onchip_memory+0xf7804470>
    4a8c:	8009883a 	mov	r4,r16
    4a90:	000da4c0 	call	da4c <__floatsidf>
    4a94:	d9800f17 	ldw	r6,60(sp)
    4a98:	d9c01017 	ldw	r7,64(sp)
    4a9c:	1009883a 	mov	r4,r2
    4aa0:	180b883a 	mov	r5,r3
    4aa4:	000c9b80 	call	c9b8 <__muldf3>
    4aa8:	000d883a 	mov	r6,zero
    4aac:	01d00734 	movhi	r7,16412
    4ab0:	1009883a 	mov	r4,r2
    4ab4:	180b883a 	mov	r5,r3
    4ab8:	000b5cc0 	call	b5cc <__adddf3>
    4abc:	047f3034 	movhi	r17,64704
    4ac0:	1021883a 	mov	r16,r2
    4ac4:	1c63883a 	add	r17,r3,r17
    4ac8:	d9000f17 	ldw	r4,60(sp)
    4acc:	d9401017 	ldw	r5,64(sp)
    4ad0:	000d883a 	mov	r6,zero
    4ad4:	01d00534 	movhi	r7,16404
    4ad8:	000d0d00 	call	d0d0 <__subdf3>
    4adc:	800d883a 	mov	r6,r16
    4ae0:	880f883a 	mov	r7,r17
    4ae4:	1009883a 	mov	r4,r2
    4ae8:	180b883a 	mov	r5,r3
    4aec:	102b883a 	mov	r21,r2
    4af0:	1829883a 	mov	r20,r3
    4af4:	000c7e80 	call	c7e8 <__gedf2>
    4af8:	00806c16 	blt	zero,r2,4cac <_dtoa_r+0x1304>
    4afc:	89e0003c 	xorhi	r7,r17,32768
    4b00:	800d883a 	mov	r6,r16
    4b04:	a809883a 	mov	r4,r21
    4b08:	a00b883a 	mov	r5,r20
    4b0c:	000c8c40 	call	c8c4 <__ledf2>
    4b10:	103d7e0e 	bge	r2,zero,410c <__alt_mem_onchip_memory+0xf780410c>
    4b14:	002b883a 	mov	r21,zero
    4b18:	0023883a 	mov	r17,zero
    4b1c:	003efb06 	br	470c <__alt_mem_onchip_memory+0xf780470c>
    4b20:	d8800717 	ldw	r2,28(sp)
    4b24:	003bd006 	br	3a68 <__alt_mem_onchip_memory+0xf7803a68>
    4b28:	d9000a17 	ldw	r4,40(sp)
    4b2c:	d9800d17 	ldw	r6,52(sp)
    4b30:	dd400a15 	stw	r21,40(sp)
    4b34:	a905c83a 	sub	r2,r21,r4
    4b38:	308d883a 	add	r6,r6,r2
    4b3c:	d9800d15 	stw	r6,52(sp)
    4b40:	002b883a 	mov	r21,zero
    4b44:	003e0606 	br	4360 <__alt_mem_onchip_memory+0xf7804360>
    4b48:	9023883a 	mov	r17,r18
    4b4c:	9829883a 	mov	r20,r19
    4b50:	04000084 	movi	r16,2
    4b54:	003c9206 	br	3da0 <__alt_mem_onchip_memory+0xf7803da0>
    4b58:	04000044 	movi	r16,1
    4b5c:	dc000c15 	stw	r16,48(sp)
    4b60:	dc000615 	stw	r16,24(sp)
    4b64:	dc002215 	stw	r16,136(sp)
    4b68:	e0001115 	stw	zero,68(fp)
    4b6c:	000b883a 	mov	r5,zero
    4b70:	003c6906 	br	3d18 <__alt_mem_onchip_memory+0xf7803d18>
    4b74:	3021883a 	mov	r16,r6
    4b78:	003ffb06 	br	4b68 <__alt_mem_onchip_memory+0xf7804b68>
    4b7c:	1000021e 	bne	r2,zero,4b88 <_dtoa_r+0x11e0>
    4b80:	4200004c 	andi	r8,r8,1
    4b84:	403e7d1e 	bne	r8,zero,457c <__alt_mem_onchip_memory+0xf780457c>
    4b88:	01000c04 	movi	r4,48
    4b8c:	00000106 	br	4b94 <_dtoa_r+0x11ec>
    4b90:	102f883a 	mov	r23,r2
    4b94:	b8bfffc4 	addi	r2,r23,-1
    4b98:	10c00007 	ldb	r3,0(r2)
    4b9c:	193ffc26 	beq	r3,r4,4b90 <__alt_mem_onchip_memory+0xf7804b90>
    4ba0:	003e8706 	br	45c0 <__alt_mem_onchip_memory+0xf78045c0>
    4ba4:	d8800517 	ldw	r2,20(sp)
    4ba8:	00a3c83a 	sub	r17,zero,r2
    4bac:	8800a426 	beq	r17,zero,4e40 <_dtoa_r+0x1498>
    4bb0:	888003cc 	andi	r2,r17,15
    4bb4:	100490fa 	slli	r2,r2,3
    4bb8:	00c000b4 	movhi	r3,2
    4bbc:	18f1c904 	addi	r3,r3,-14556
    4bc0:	1885883a 	add	r2,r3,r2
    4bc4:	11800017 	ldw	r6,0(r2)
    4bc8:	11c00117 	ldw	r7,4(r2)
    4bcc:	9009883a 	mov	r4,r18
    4bd0:	980b883a 	mov	r5,r19
    4bd4:	8823d13a 	srai	r17,r17,4
    4bd8:	000c9b80 	call	c9b8 <__muldf3>
    4bdc:	d8800f15 	stw	r2,60(sp)
    4be0:	d8c01015 	stw	r3,64(sp)
    4be4:	8800e826 	beq	r17,zero,4f88 <_dtoa_r+0x15e0>
    4be8:	050000b4 	movhi	r20,2
    4bec:	a531bf04 	addi	r20,r20,-14596
    4bf0:	04000084 	movi	r16,2
    4bf4:	8980004c 	andi	r6,r17,1
    4bf8:	1009883a 	mov	r4,r2
    4bfc:	8823d07a 	srai	r17,r17,1
    4c00:	180b883a 	mov	r5,r3
    4c04:	30000426 	beq	r6,zero,4c18 <_dtoa_r+0x1270>
    4c08:	a1800017 	ldw	r6,0(r20)
    4c0c:	a1c00117 	ldw	r7,4(r20)
    4c10:	84000044 	addi	r16,r16,1
    4c14:	000c9b80 	call	c9b8 <__muldf3>
    4c18:	a5000204 	addi	r20,r20,8
    4c1c:	883ff51e 	bne	r17,zero,4bf4 <__alt_mem_onchip_memory+0xf7804bf4>
    4c20:	d8800f15 	stw	r2,60(sp)
    4c24:	d8c01015 	stw	r3,64(sp)
    4c28:	003c7606 	br	3e04 <__alt_mem_onchip_memory+0xf7803e04>
    4c2c:	00c00c04 	movi	r3,48
    4c30:	10c00005 	stb	r3,0(r2)
    4c34:	d8c00517 	ldw	r3,20(sp)
    4c38:	bd3fffc3 	ldbu	r20,-1(r23)
    4c3c:	18c00044 	addi	r3,r3,1
    4c40:	d8c00515 	stw	r3,20(sp)
    4c44:	003db906 	br	432c <__alt_mem_onchip_memory+0xf780432c>
    4c48:	89400117 	ldw	r5,4(r17)
    4c4c:	e009883a 	mov	r4,fp
    4c50:	00070440 	call	7044 <_Balloc>
    4c54:	89800417 	ldw	r6,16(r17)
    4c58:	89400304 	addi	r5,r17,12
    4c5c:	11000304 	addi	r4,r2,12
    4c60:	31800084 	addi	r6,r6,2
    4c64:	318d883a 	add	r6,r6,r6
    4c68:	318d883a 	add	r6,r6,r6
    4c6c:	1027883a 	mov	r19,r2
    4c70:	0006c780 	call	6c78 <memcpy>
    4c74:	01800044 	movi	r6,1
    4c78:	980b883a 	mov	r5,r19
    4c7c:	e009883a 	mov	r4,fp
    4c80:	00077c40 	call	77c4 <__lshift>
    4c84:	1029883a 	mov	r20,r2
    4c88:	003ecc06 	br	47bc <__alt_mem_onchip_memory+0xf78047bc>
    4c8c:	00800e44 	movi	r2,57
