
Real_Time_Clock.elf:     file format elf32-littlenios2
Real_Time_Clock.elf
architecture: nios2:r1, flags 0x00000112:
EXEC_P, HAS_SYMS, D_PAGED
start address 0x00000248

Program Header:
    LOAD off    0x00001000 vaddr 0x00000000 paddr 0x00000000 align 2**12
         filesz 0x00000020 memsz 0x00000020 flags r-x
    LOAD off    0x00001020 vaddr 0x00000020 paddr 0x00000020 align 2**12
         filesz 0x00016f30 memsz 0x00016f30 flags r-x
    LOAD off    0x00017f50 vaddr 0x00016f50 paddr 0x00018dc4 align 2**12
         filesz 0x00001e74 memsz 0x00001e74 flags rw-
    LOAD off    0x0001ac38 vaddr 0x0001ac38 paddr 0x0001ac38 align 2**12
         filesz 0x00000000 memsz 0x00000164 flags rw-

Sections:
Idx Name          Size      VMA       LMA       File off  Algn
  0 .entry        00000020  00000000  00000000  00001000  2**5
                  CONTENTS, ALLOC, LOAD, READONLY, CODE
  1 .exceptions   00000228  00000020  00000020  00001020  2**2
                  CONTENTS, ALLOC, LOAD, READONLY, CODE
  2 .text         0001685c  00000248  00000248  00001248  2**2
                  CONTENTS, ALLOC, LOAD, READONLY, CODE
  3 .rodata       000004ac  00016aa4  00016aa4  00017aa4  2**2
                  CONTENTS, ALLOC, LOAD, READONLY, DATA
  4 .rwdata       00001e74  00016f50  00018dc4  00017f50  2**2
                  CONTENTS, ALLOC, LOAD, DATA, SMALL_DATA
  5 .bss          00000164  0001ac38  0001ac38  0001ac38  2**2
                  ALLOC, SMALL_DATA
  6 .sdram        00000000  0001ad9c  0001ad9c  00019dc4  2**0
                  CONTENTS
  7 .flash_controller 00000000  08000000  08000000  00019dc4  2**0
                  CONTENTS
  8 .onchip_memory 00000000  08800000  08800000  00019dc4  2**0
                  CONTENTS
  9 .comment      00000023  00000000  00000000  00019dc4  2**0
                  CONTENTS, READONLY
 10 .debug_aranges 00001080  00000000  00000000  00019de8  2**3
                  CONTENTS, READONLY, DEBUGGING
 11 .debug_info   00029da1  00000000  00000000  0001ae68  2**0
                  CONTENTS, READONLY, DEBUGGING
 12 .debug_abbrev 0000a298  00000000  00000000  00044c09  2**0
                  CONTENTS, READONLY, DEBUGGING
 13 .debug_line   0000dd77  00000000  00000000  0004eea1  2**0
                  CONTENTS, READONLY, DEBUGGING
 14 .debug_frame  00002ec4  00000000  00000000  0005cc18  2**2
                  CONTENTS, READONLY, DEBUGGING
 15 .debug_str    00004920  00000000  00000000  0005fadc  2**0
                  CONTENTS, READONLY, DEBUGGING
 16 .debug_loc    0001c428  00000000  00000000  000643fc  2**0
                  CONTENTS, READONLY, DEBUGGING
 17 .debug_alt_sim_info 00000060  00000000  00000000  00080824  2**2
                  CONTENTS, READONLY, DEBUGGING
 18 .debug_ranges 00001a58  00000000  00000000  00080888  2**3
                  CONTENTS, READONLY, DEBUGGING
 19 .thread_model 00000003  00000000  00000000  0008671e  2**0
                  CONTENTS, READONLY
 20 .cpu          00000003  00000000  00000000  00086721  2**0
                  CONTENTS, READONLY
 21 .qsys         00000001  00000000  00000000  00086724  2**0
                  CONTENTS, READONLY
 22 .simulation_enabled 00000001  00000000  00000000  00086725  2**0
                  CONTENTS, READONLY
 23 .sysid_hash   00000004  00000000  00000000  00086726  2**0
                  CONTENTS, READONLY
 24 .sysid_base   00000004  00000000  00000000  0008672a  2**0
                  CONTENTS, READONLY
 25 .sysid_time   00000004  00000000  00000000  0008672e  2**0
                  CONTENTS, READONLY
 26 .stderr_dev   00000009  00000000  00000000  00086732  2**0
                  CONTENTS, READONLY
 27 .stdin_dev    00000009  00000000  00000000  0008673b  2**0
                  CONTENTS, READONLY
 28 .stdout_dev   00000009  00000000  00000000  00086744  2**0
                  CONTENTS, READONLY
 29 .sopc_system_name 00000010  00000000  00000000  0008674d  2**0
                  CONTENTS, READONLY
 30 .quartus_project_dir 00000051  00000000  00000000  0008675d  2**0
                  CONTENTS, READONLY
 31 .jdi          00003dbd  00000000  00000000  000867ae  2**0
                  CONTENTS, READONLY
 32 .sopcinfo     000db0b6  00000000  00000000  0008a56b  2**0
                  CONTENTS, READONLY
SYMBOL TABLE:
00000000 l    d  .entry	00000000 .entry
00000020 l    d  .exceptions	00000000 .exceptions
00000248 l    d  .text	00000000 .text
00016aa4 l    d  .rodata	00000000 .rodata
00016f50 l    d  .rwdata	00000000 .rwdata
0001ac38 l    d  .bss	00000000 .bss
0001ad9c l    d  .sdram	00000000 .sdram
08000000 l    d  .flash_controller	00000000 .flash_controller
08800000 l    d  .onchip_memory	00000000 .onchip_memory
00000000 l    d  .comment	00000000 .comment
00000000 l    d  .debug_aranges	00000000 .debug_aranges
00000000 l    d  .debug_info	00000000 .debug_info
00000000 l    d  .debug_abbrev	00000000 .debug_abbrev
00000000 l    d  .debug_line	00000000 .debug_line
00000000 l    d  .debug_frame	00000000 .debug_frame
00000000 l    d  .debug_str	00000000 .debug_str
00000000 l    d  .debug_loc	00000000 .debug_loc
00000000 l    d  .debug_alt_sim_info	00000000 .debug_alt_sim_info
00000000 l    d  .debug_ranges	00000000 .debug_ranges
00000000 l    df *ABS*	00000000 ../Real_Time_Clock_bsp//obj/HAL/src/crt0.o
00000290 l       .text	00000000 alt_after_alt_main
00000000 l    df *ABS*	00000000 alt_irq_handler.c
00000000 l    df *ABS*	00000000 alt_instruction_exception_entry.c
00000000 l    df *ABS*	00000000 Real_Time_Clock.c
00000000 l    df *ABS*	00000000 interval_timer_ISR.c
00000000 l    df *ABS*	00000000 pushbutton_ISR.c
00000000 l    df *ABS*	00000000 lib2-divmod.c
00000000 l    df *ABS*	00000000 memcpy.c
00000000 l    df *ABS*	00000000 printf.c
00000000 l    df *ABS*	00000000 sprintf.c
00000000 l    df *ABS*	00000000 vfprintf.c
00016b26 l     O .rodata	00000010 zeroes.4389
00016b36 l     O .rodata	00000010 blanks.4388
00000000 l    df *ABS*	00000000 vfprintf.c
00016b46 l     O .rodata	00000010 zeroes.4404
00005088 l     F .text	000000bc __sbprintf
00016b56 l     O .rodata	00000010 blanks.4403
00000000 l    df *ABS*	00000000 wsetup.c
00000000 l    df *ABS*	00000000 dtoa.c
00005298 l     F .text	00000200 quorem
00000000 l    df *ABS*	00000000 fflush.c
00000000 l    df *ABS*	00000000 findfp.c
00006dc8 l     F .text	00000008 __fp_unlock
00006ddc l     F .text	0000019c __sinit.part.1
00006f78 l     F .text	00000008 __fp_lock
00000000 l    df *ABS*	00000000 mallocr.c
00000000 l    df *ABS*	00000000 fwalk.c
00000000 l    df *ABS*	00000000 impure.c
00016f50 l     O .rwdata	00000424 impure_data
00000000 l    df *ABS*	00000000 locale.c
00017394 l     O .rwdata	00000020 lc_ctype_charset
00017374 l     O .rwdata	00000020 lc_message_charset
000173b4 l     O .rwdata	00000038 lconv
00000000 l    df *ABS*	00000000 makebuf.c
00000000 l    df *ABS*	00000000 mallocr.c
00000000 l    df *ABS*	00000000 memchr.c
00000000 l    df *ABS*	00000000 memset.c
00000000 l    df *ABS*	00000000 mprec.c
00016b88 l     O .rodata	0000000c p05.2768
00000000 l    df *ABS*	00000000 s_fpclassify.c
00000000 l    df *ABS*	00000000 sbrkr.c
00000000 l    df *ABS*	00000000 stdio.c
00000000 l    df *ABS*	00000000 strcmp.c
00000000 l    df *ABS*	00000000 strlen.c
00000000 l    df *ABS*	00000000 vfprintf.c
00016cbc l     O .rodata	00000010 blanks.4332
00016cac l     O .rodata	00000010 zeroes.4333
00000000 l    df *ABS*	00000000 vfprintf.c
0000ab54 l     F .text	000000fc __sprint_r.part.0
00016cdc l     O .rodata	00000010 blanks.4348
00016ccc l     O .rodata	00000010 zeroes.4349
0000c0e0 l     F .text	000000bc __sbprintf
00000000 l    df *ABS*	00000000 writer.c
00000000 l    df *ABS*	00000000 closer.c
00000000 l    df *ABS*	00000000 mallocr.c
00000000 l    df *ABS*	00000000 fclose.c
00000000 l    df *ABS*	00000000 fputwc.c
00000000 l    df *ABS*	00000000 fstatr.c
00000000 l    df *ABS*	00000000 fvwrite.c
00000000 l    df *ABS*	00000000 int_errno.c
00000000 l    df *ABS*	00000000 isattyr.c
00000000 l    df *ABS*	00000000 lseekr.c
00000000 l    df *ABS*	00000000 memmove.c
00000000 l    df *ABS*	00000000 readr.c
00000000 l    df *ABS*	00000000 mallocr.c
00000000 l    df *ABS*	00000000 wbuf.c
00000000 l    df *ABS*	00000000 wcrtomb.c
00000000 l    df *ABS*	00000000 wctomb_r.c
00000000 l    df *ABS*	00000000 libgcc2.c
00000000 l    df *ABS*	00000000 libgcc2.c
00000000 l    df *ABS*	00000000 adddf3.c
00000000 l    df *ABS*	00000000 divdf3.c
00000000 l    df *ABS*	00000000 eqdf2.c
00000000 l    df *ABS*	00000000 gedf2.c
00000000 l    df *ABS*	00000000 ledf2.c
00000000 l    df *ABS*	00000000 muldf3.c
00000000 l    df *ABS*	00000000 subdf3.c
00000000 l    df *ABS*	00000000 fixdfsi.c
00000000 l    df *ABS*	00000000 floatsidf.c
00000000 l    df *ABS*	00000000 floatunsidf.c
00000000 l    df *ABS*	00000000 libgcc2.c
00000000 l    df *ABS*	00000000 libgcc2.c
00000000 l    df *ABS*	00000000 alt_close.c
00010764 l     F .text	0000003c alt_get_errno
00000000 l    df *ABS*	00000000 alt_dev.c
00010870 l     F .text	0000002c alt_dev_null_write
00000000 l    df *ABS*	00000000 alt_errno.c
00000000 l    df *ABS*	00000000 alt_fstat.c
0001089c l     F .text	0000003c alt_get_errno
00000000 l    df *ABS*	00000000 alt_irq_register.c
00000000 l    df *ABS*	00000000 alt_irq_vars.c
00000000 l    df *ABS*	00000000 alt_isatty.c
00010b08 l     F .text	0000003c alt_get_errno
00000000 l    df *ABS*	00000000 alt_load.c
00010be8 l     F .text	00000068 alt_load_section
00000000 l    df *ABS*	00000000 alt_lseek.c
00010cd4 l     F .text	0000003c alt_get_errno
00000000 l    df *ABS*	00000000 alt_main.c
00000000 l    df *ABS*	00000000 alt_malloc_lock.c
00000000 l    df *ABS*	00000000 alt_read.c
00010ea8 l     F .text	0000003c alt_get_errno
00000000 l    df *ABS*	00000000 alt_release_fd.c
00000000 l    df *ABS*	00000000 alt_sbrk.c
00018db0 l     O .rwdata	00000004 heap_end
00000000 l    df *ABS*	00000000 alt_write.c
000110f4 l     F .text	0000003c alt_get_errno
00000000 l    df *ABS*	00000000 alt_sys_init.c
00011228 l     F .text	00000034 alt_dev_reg
0001799c l     O .rwdata	000000dc flash_controller
00017a78 l     O .rwdata	00001060 jtag_uart
00018ad8 l     O .rwdata	00000030 audio_config
00018b08 l     O .rwdata	00000030 audio
00018b38 l     O .rwdata	0000002c char_lcd
00018b64 l     O .rwdata	0000002c green_leds
00018b90 l     O .rwdata	0000002c pushbuttons
00018bbc l     O .rwdata	0000002c red_leds
00018be8 l     O .rwdata	0000002c switches
00018c14 l     O .rwdata	00000038 ps2_key
00018c4c l     O .rwdata	00000038 ps2_mouse
00018c84 l     O .rwdata	0000002c serial_port
00018cb0 l     O .rwdata	00000048 mtl_char_buffer
00018cf8 l     O .rwdata	00000054 mtl_pixel_buffer_dma
00018d4c l     O .rwdata	0000002c SD_Card
00000000 l    df *ABS*	00000000 altera_avalon_cfi_flash.c
00011638 l     F .text	00000034 alt_flash_device_register
00000000 l    df *ABS*	00000000 altera_avalon_cfi_flash_table.c
00012488 l     F .text	00000080 alt_read_16bit_query_entry
00000000 l    df *ABS*	00000000 altera_avalon_jtag_uart_fd.c
00000000 l    df *ABS*	00000000 altera_avalon_jtag_uart_init.c
00013530 l     F .text	00000210 altera_avalon_jtag_uart_irq
00013740 l     F .text	000000a0 altera_avalon_jtag_uart_timeout
00000000 l    df *ABS*	00000000 altera_avalon_jtag_uart_ioctl.c
00000000 l    df *ABS*	00000000 altera_avalon_jtag_uart_read.c
00000000 l    df *ABS*	00000000 altera_avalon_jtag_uart_write.c
00000000 l    df *ABS*	00000000 altera_up_avalon_character_lcd.c
00000000 l    df *ABS*	00000000 altera_up_avalon_ps2.c
00000000 l    df *ABS*	00000000 altera_up_avalon_rs232.c
00000000 l    df *ABS*	00000000 altera_up_avalon_video_character_buffer_with_dma.c
00000000 l    df *ABS*	00000000 alt_alarm_start.c
00000000 l    df *ABS*	00000000 alt_dcache_flush.c
00000000 l    df *ABS*	00000000 alt_dcache_flush_all.c
00000000 l    df *ABS*	00000000 alt_dev_llist_insert.c
00015178 l     F .text	0000003c alt_get_errno
00000000 l    df *ABS*	00000000 alt_do_ctors.c
00000000 l    df *ABS*	00000000 alt_do_dtors.c
00000000 l    df *ABS*	00000000 alt_find_dev.c
00000000 l    df *ABS*	00000000 alt_flash_dev.c
00000000 l    df *ABS*	00000000 alt_icache_flush_all.c
00000000 l    df *ABS*	00000000 alt_io_redirect.c
00015498 l     F .text	000000c4 alt_open_fd
00000000 l    df *ABS*	00000000 alt_open.c
000155d8 l     F .text	0000003c alt_get_errno
00015614 l     F .text	000000c4 alt_file_locked
00000000 l    df *ABS*	00000000 alt_tick.c
00000000 l    df *ABS*	00000000 altera_nios2_gen2_irq.c
00000000 l    df *ABS*	00000000 altera_avalon_cfi_flash_amd.c
00015d88 l     F .text	000000cc alt_write_word_amd
00015c6c l     F .text	0000011c alt_wait_for_command_to_complete_amd
00000000 l    df *ABS*	00000000 altera_avalon_cfi_flash_intel.c
00016060 l     F .text	0000017c alt_unlock_block_intel
000161dc l     F .text	000000d4 alt_write_word_intel
00000000 l    df *ABS*	00000000 alt_find_file.c
00000000 l    df *ABS*	00000000 alt_get_fd.c
00000000 l    df *ABS*	00000000 alt_icache_flush.c
00000000 l    df *ABS*	00000000 alt_usleep.c
00000000 l    df *ABS*	00000000 alt_busy_sleep.c
00000000 l    df *ABS*	00000000 atexit.c
00000000 l    df *ABS*	00000000 exit.c
00000000 l    df *ABS*	00000000 memcmp.c
00000000 l    df *ABS*	00000000 __atexit.c
00000000 l    df *ABS*	00000000 __call_atexit.c
00000000 l    df *ABS*	00000000 alt_exit.c
0001ac70 g     O .bss	00000004 alt_instruction_exception_handler
00009258 g     F .text	00000074 _mprec_log10
00009344 g     F .text	0000008c __any_on
0000cb38 g     F .text	00000054 _isatty_r
00016b94 g     O .rodata	00000028 __mprec_tinytens
00010de4 g     F .text	0000007c alt_main
00011f4c g     F .text	00000040 alt_read_query_entry_32bit
000144b8 g     F .text	00000060 alt_up_ps2_disable_read_interrupt
0001ac9c g     O .bss	00000100 alt_irq
0000cb8c g     F .text	00000060 _lseek_r
000116fc g     F .text	000002a8 alt_flash_cfi_write
00018dc4 g       *ABS*	00000000 __flash_rwdata_start
00013dec g     F .text	00000040 alt_up_character_lcd_send_cmd
0000f290 g     F .text	00000088 .hidden __eqdf2
0001ad9c g       *ABS*	00000000 __alt_heap_start
00000b9c g     F .text	0000003c printf
0000d464 g     F .text	0000009c _wcrtomb_r
00009570 g     F .text	0000005c __sseek
00007118 g     F .text	00000010 __sinit
00014e34 g     F .text	000000fc alt_up_char_buffer_string
0000d30c g     F .text	00000140 __swbuf_r
000142d0 g     F .text	00000034 read_CE_bit
00007724 g     F .text	0000007c _setlocale_r
00006f80 g     F .text	00000068 __sfmoreglue
00010e84 g     F .text	00000024 __malloc_unlock
00014658 g     F .text	0000009c alt_up_ps2_read_data_byte_timeout
00014b4c g     F .text	00000090 alt_up_rs232_read_fd
00000590 g     F .text	0000006c LCD_cursor
00014d68 g     F .text	000000cc alt_up_char_buffer_draw
0000cbec g     F .text	0000015c memmove
00007100 g     F .text	00000018 _cleanup
000083d4 g     F .text	000000a8 _Balloc
0000f318 g     F .text	000000dc .hidden __gtdf2
000159d0 g     F .text	00000024 altera_nios2_gen2_irq_init
00013d78 g     F .text	00000074 get_DDRAM_addr
000120e4 g     F .text	00000050 alt_write_flash_command_32bit_device_16bit_mode
00000000 g     F .entry	0000001c __reset
00000020 g       *ABS*	00000000 __flash_exceptions_start
0000c620 g     F .text	0000005c _fstat_r
00011bf0 g     F .text	000002e0 alt_flash_program_block
0001ac54 g     O .bss	00000004 errno
000094ec g     F .text	00000008 __seofread
00009918 g     F .text	0000123c ___svfiprintf_internal_r
0001ac60 g     O .bss	00000004 alt_argv
00020d78 g       *ABS*	00000000 _gp
00016588 g     F .text	00000030 usleep
0001781c g     O .rwdata	00000180 alt_fd_list
00015318 g     F .text	00000090 alt_find_dev
00000a24 g     F .text	00000148 memcpy
00013f94 g     F .text	00000050 alt_up_character_lcd_write_fd
00014f30 g     F .text	0000005c alt_up_char_buffer_clear
00006dd0 g     F .text	0000000c _cleanup_r
0001057c g     F .text	000000dc .hidden __floatsidf
0001555c g     F .text	0000007c alt_io_redirect
0000f3f4 g     F .text	000000f4 .hidden __ltdf2
00016aa4 g       *ABS*	00000000 __DTOR_END__
00014ad8 g     F .text	00000074 alt_up_rs232_read_data
000164ec g     F .text	0000009c alt_exception_cause_generated_bad_addr
000093d0 g     F .text	00000074 __fpclassifyd
000091b4 g     F .text	000000a4 __ratio
08000000 g       *ABS*	00000000 __alt_mem_flash_controller
0000c0c4 g     F .text	0000001c __vfiprintf_internal
00013938 g     F .text	0000021c altera_avalon_jtag_uart_read
00000b6c g     F .text	00000030 _printf_r
000005fc g     F .text	0000006c LCD_text
00000968 g     F .text	00000064 .hidden __udivsi3
00010b44 g     F .text	000000a4 isatty
00016be4 g     O .rodata	000000c8 __mprec_tens
000077a0 g     F .text	0000000c __locale_charset
0001645c g     F .text	00000090 alt_icache_flush
0001ac50 g     O .bss	00000004 __malloc_top_pad
00018d84 g     O .rwdata	00000004 __mb_cur_max
000077d0 g     F .text	0000000c _localeconv_r
0000c67c g     F .text	000004bc __sfvwrite_r
000087e0 g     F .text	0000003c __i2b
00009444 g     F .text	00000054 _sbrk_r
00015e54 g     F .text	00000080 alt_program_intel
0000cd48 g     F .text	00000060 _read_r
000150b8 g     F .text	00000078 alt_dcache_flush
00018da4 g     O .rwdata	00000004 alt_max_fd
00014a54 g     F .text	00000044 alt_up_rs232_check_parity
00011ed0 g     F .text	0000003c alt_read_query_entry_8bit
0000c314 g     F .text	000000f0 _fclose_r
00014304 g     F .text	00000030 read_num_bytes_available
00015ed4 g     F .text	0000018c alt_erase_block_intel
00006d98 g     F .text	00000030 fflush
0001ac4c g     O .bss	00000004 __malloc_max_sbrked_mem
00010988 g     F .text	00000180 alt_irq_register
0001426c g     F .text	00000034 read_RI_bit
0000e0fc g     F .text	000008ac .hidden __adddf3
00008f5c g     F .text	0000010c __b2d
0000dbc4 g     F .text	00000538 .hidden __umoddi3
00010d10 g     F .text	000000d4 lseek
00018d7c g     O .rwdata	00000004 _global_impure_ptr
0000cda8 g     F .text	00000564 _realloc_r
0001ad9c g       *ABS*	00000000 __bss_end
000158c8 g     F .text	00000108 alt_tick
0000d64c g     F .text	00000578 .hidden __udivdi3
0000c57c g     F .text	00000024 _fputwc_r
00016bbc g     O .rodata	00000028 __mprec_bigtens
000085c4 g     F .text	00000104 __s2b
00010658 g     F .text	000000a8 .hidden __floatunsidf
00008c9c g     F .text	00000060 __mcmp
00014368 g     F .text	0000002c read_data_byte
00007138 g     F .text	00000018 __fp_lock_all
0001582c g     F .text	0000009c alt_alarm_stop
000142a0 g     F .text	00000030 read_RE_bit
0001ac58 g     O .bss	00000004 alt_irq_active
000000fc g     F .exceptions	000000d8 alt_irq_handler
000177f4 g     O .rwdata	00000028 alt_dev_null
00014234 g     F .text	00000038 alt_up_character_lcd_cursor_blink_on
000123ec g     F .text	0000009c alt_set_flash_algorithm_func
00014518 g     F .text	00000074 alt_up_ps2_write_data_byte
00015130 g     F .text	00000048 alt_dcache_flush_all
000086c8 g     F .text	00000068 __hi0bits
000104fc g     F .text	00000080 .hidden __fixdfsi
00011f8c g     F .text	00000044 alt_write_flash_command_8bit_device_8bit_mode
00018dc4 g       *ABS*	00000000 __ram_rwdata_end
08800000 g       *ABS*	00000000 __alt_mem_onchip_memory
00018d9c g     O .rwdata	00000008 alt_dev_list
00011130 g     F .text	000000f8 write
00016f50 g       *ABS*	00000000 __ram_rodata_end
000108d8 g     F .text	000000b0 fstat
00014bdc g     F .text	00000094 alt_up_rs232_write_fd
0000f3f4 g     F .text	000000f4 .hidden __ledf2
00013240 g     F .text	000000d8 alt_check_primary_table
00008a14 g     F .text	00000140 __pow5mult
0000ac68 g     F .text	0000145c ___vfiprintf_internal_r
0001ac44 g     O .bss	00000004 __nlocale_changed
000009cc g     F .text	00000058 .hidden __umodsi3
00011a30 g     F .text	00000064 alt_flash_cfi_read
00012184 g     F .text	00000038 alt_write_native_8bit
0001ad9c g       *ABS*	00000000 end
00014848 g     F .text	00000098 alt_up_ps2_write_fd
00011fd0 g     F .text	00000078 alt_write_flash_command_16bit_device_8bit_mode
00014cac g     F .text	00000080 alt_up_char_buffer_init
00012508 g     F .text	000005c8 alt_read_cfi_table
0001347c g     F .text	000000b4 altera_avalon_jtag_uart_init
000001d4 g     F .exceptions	00000074 alt_instruction_exception_entry
00016aa4 g       *ABS*	00000000 __CTOR_LIST__
08000000 g       *ABS*	00000000 __alt_stack_pointer
00010700 g     F .text	00000064 .hidden __clzsi2
00013b54 g     F .text	00000224 altera_avalon_jtag_uart_write
0001166c g     F .text	00000090 alt_flash_cfi_init
00007128 g     F .text	00000004 __sfp_lock_acquire
000081c8 g     F .text	000000e4 memchr
00013ea0 g     F .text	0000007c alt_up_character_lcd_write
00002e74 g     F .text	000021f8 ___vfprintf_internal_r
00000bd8 g     F .text	00000058 _sprintf_r
0000728c g     F .text	00000310 _free_r
000077ac g     F .text	00000010 __locale_mb_cur_max
000168f0 g     F .text	00000180 __call_exitprocs
0001ac40 g     O .bss	00000004 __mlocale_changed
00018d88 g     O .rwdata	00000004 __malloc_sbrk_base
00000248 g     F .text	0000004c _start
0001ac68 g     O .bss	00000004 _alt_tick_rate
00008b54 g     F .text	00000148 __lshift
0001ac6c g     O .bss	00000004 _alt_nticks
00010ee4 g     F .text	000000fc read
00011294 g     F .text	000003a4 alt_sys_init
000140e4 g     F .text	0000008c alt_up_character_lcd_shift_display
00009748 g     F .text	000001d0 __ssprint_r
000167d8 g     F .text	00000118 __register_exitproc
00014764 g     F .text	00000058 alt_up_ps2_clear_fifo
00014a18 g     F .text	0000003c alt_up_rs232_get_available_space_in_write_FIFO
00000768 g     F .text	00000078 interval_timer_isr
00011f0c g     F .text	00000040 alt_read_query_entry_16bit
0000881c g     F .text	000001f8 __multiply
00014170 g     F .text	0000008c alt_up_character_lcd_erase_pos
000137e0 g     F .text	00000068 altera_avalon_jtag_uart_close
00016f50 g       *ABS*	00000000 __ram_rwdata_start
00016aa4 g       *ABS*	00000000 __ram_rodata_start
0001ac74 g     O .bss	00000028 __malloc_current_mallinfo
00012228 g     F .text	000001c4 alt_set_flash_width_func
00009068 g     F .text	0000014c __d2b
00013318 g     F .text	00000060 altera_avalon_jtag_uart_read_fd
000163b8 g     F .text	000000a4 alt_get_fd
000165b8 g     F .text	00000158 alt_busy_sleep
0000c1fc g     F .text	00000054 _close_r
00015a5c g     F .text	00000210 alt_erase_block_amd
0001675c g     F .text	0000007c memcmp
000133d8 g     F .text	00000050 altera_avalon_jtag_uart_close_fd
0001ad9c g       *ABS*	00000000 __alt_stack_base
00013428 g     F .text	00000054 altera_avalon_jtag_uart_ioctl_fd
00005144 g     F .text	00000154 __swsetup_r
00012ad0 g     F .text	00000770 alt_read_cfi_width
0000e9a8 g     F .text	000008e8 .hidden __divdf3
00006fe8 g     F .text	00000118 __sfp
000092cc g     F .text	00000078 __copybits
000173ec g     O .rwdata	00000408 __malloc_av_
00007134 g     F .text	00000004 __sinit_lock_release
0000f4e8 g     F .text	00000718 .hidden __muldf3
00009498 g     F .text	00000054 __sread
00018d78 g     O .rwdata	00000004 key_pressed
00014978 g     F .text	00000060 alt_up_rs232_disable_read_interrupt
000162b0 g     F .text	00000108 alt_find_file
000151b4 g     F .text	000000a4 alt_dev_llist_insert
00010e60 g     F .text	00000024 __malloc_lock
00011044 g     F .text	000000b0 sbrk
00000c9c g     F .text	000021d8 ___svfprintf_internal_r
00006d3c g     F .text	0000005c _fflush_r
0000c250 g     F .text	000000c4 _calloc_r
00018db4 g     O .rwdata	00000008 alt_flash_dev_list
00012098 g     F .text	0000004c alt_write_flash_command_16bit_device_16bit_mode
0001ac38 g       *ABS*	00000000 __bss_start
000082ac g     F .text	00000128 memset
00000294 g     F .text	000001e0 main
0001ac64 g     O .bss	00000004 alt_envp
0001ac48 g     O .bss	00000004 __malloc_max_total_mem
00014d2c g     F .text	0000003c alt_up_char_buffer_open_dev
00013378 g     F .text	00000060 altera_avalon_jtag_uart_write_fd
0000d44c g     F .text	00000018 __swbuf
0001ac38 g     O .bss	00000004 msec_counter
00000668 g     F .text	00000038 LCD_cursor_off
00014058 g     F .text	0000008c alt_up_character_lcd_shift_cursor
000095cc g     F .text	00000008 __sclose
08000000 g       *ABS*	00000000 __alt_heap_limit
0000c404 g     F .text	00000014 fclose
000146f4 g     F .text	00000070 alt_up_ps2_read_data_byte
00005498 g     F .text	00001688 _dtoa_r
000079bc g     F .text	0000080c _malloc_r
0000d5c0 g     F .text	00000030 __ascii_wctomb
00018da8 g     O .rwdata	00000004 alt_errno
00012134 g     F .text	00000050 alt_write_flash_command_32bit_device_32bit_mode
0000759c g     F .text	000000c4 _fwalk
00011a94 g     F .text	0000015c alt_write_value_to_flash
000148e0 g     F .text	0000003c alt_up_ps2_open_dev
000121bc g     F .text	00000038 alt_write_native_16bit
00000870 g     F .text	00000084 .hidden __divsi3
00013e64 g     F .text	0000003c alt_up_character_lcd_open_dev
00007168 g     F .text	00000124 _malloc_trim_r
0001445c g     F .text	0000005c alt_up_ps2_enable_read_interrupt
00016aa4 g       *ABS*	00000000 __CTOR_END__
00013e2c g     F .text	00000038 alt_up_character_lcd_init
000095d4 g     F .text	000000dc strcmp
00016aa4 g       *ABS*	00000000 __flash_rodata_start
00016aa4 g       *ABS*	00000000 __DTOR_LIST__
000006a0 g     F .text	000000c8 print_LCD_text
00014c70 g     F .text	0000003c alt_up_rs232_open_dev
0000f290 g     F .text	00000088 .hidden __nedf2
0001125c g     F .text	00000038 alt_irq_init
00010fe0 g     F .text	00000064 alt_release_fd
00014334 g     F .text	00000034 read_data_valid
00000c30 g     F .text	0000006c sprintf
000141fc g     F .text	00000038 alt_up_character_lcd_cursor_off
00016cec g     O .rodata	00000100 .hidden __clz_tab
0001ac3c g     O .bss	00000004 _PathLocale
000145f4 g     F .text	00000064 alt_up_ps2_write_data_byte_with_ack
00016710 g     F .text	00000014 atexit
0000c19c g     F .text	00000060 _write_r
000077dc g     F .text	00000018 setlocale
000007e0 g     F .text	00000090 pushbutton_ISR
00018d80 g     O .rwdata	00000004 _impure_ptr
0001ac5c g     O .bss	00000004 alt_argc
00006b20 g     F .text	0000021c __sflush_r
000152b8 g     F .text	00000060 _do_dtors
000077c8 g     F .text	00000008 __locale_cjk_lang
00000020 g       .exceptions	00000000 alt_irq_entry
00008ef8 g     F .text	00000064 __ulp
00007150 g     F .text	00000018 __fp_unlock_all
00018d94 g     O .rwdata	00000008 alt_fs_list
0001491c g     F .text	0000005c alt_up_rs232_enable_read_interrupt
00012048 g     F .text	00000050 alt_write_flash_command_32bit_device_8bit_mode
00014a98 g     F .text	00000040 alt_up_rs232_write_data
00000474 g     F .text	0000011c print_7_seg_time
00000020 g       *ABS*	00000000 __ram_exceptions_start
000077f4 g     F .text	0000000c localeconv
00018dc4 g       *ABS*	00000000 _edata
0001ad9c g       *ABS*	00000000 _end
000153a8 g     F .text	00000068 alt_flash_open_dev
0000c418 g     F .text	00000164 __fputwc
00000248 g       *ABS*	00000000 __ram_exceptions_end
00013848 g     F .text	000000f0 altera_avalon_jtag_uart_ioctl
000094f4 g     F .text	0000007c __swrite
00018d8c g     O .rwdata	00000004 __malloc_trim_threshold
000077bc g     F .text	0000000c __locale_msgcharset
00016724 g     F .text	00000038 exit
00007660 g     F .text	000000c4 _fwalk_reent
00014394 g     F .text	000000c8 alt_up_ps2_init
00008cfc g     F .text	000001fc __mdiff
00015410 g     F .text	00000054 alt_flash_close_dev
000008f4 g     F .text	00000074 .hidden __modsi3
08000000 g       *ABS*	00000000 __alt_data_end
00000020 g     F .exceptions	00000000 alt_exception
0000712c g     F .text	00000004 __sfp_lock_release
00000000 g       *ABS*	00000000 __alt_mem_sdram
00013f1c g     F .text	00000078 alt_up_character_lcd_string
00016a70 g     F .text	00000034 _exit
00014f8c g     F .text	0000012c alt_alarm_start
00007800 g     F .text	000001bc __smakebuf_r
000121f4 g     F .text	00000034 alt_write_native_32bit
0001458c g     F .text	00000068 alt_up_ps2_wait_for_ack
000096b0 g     F .text	00000098 strlen
000156d8 g     F .text	00000154 open
0000f318 g     F .text	000000dc .hidden __gedf2
000119a4 g     F .text	0000008c alt_flash_cfi_get_info
00018d90 g     O .rwdata	00000004 __wctomb
0000ac50 g     F .text	00000018 __sprint_r
00015464 g     F .text	00000034 alt_icache_flush_all
00013fe4 g     F .text	00000074 alt_up_character_lcd_set_cursor_pos
00018dac g     O .rwdata	00000004 alt_priority_mask
0000506c g     F .text	0000001c __vfprintf_internal
0000d5f0 g     F .text	0000005c _wctomb_r
000147bc g     F .text	0000008c alt_up_ps2_read_fd
0000fc00 g     F .text	000008fc .hidden __subdf3
00008730 g     F .text	000000b0 __lo0bits
00018dbc g     O .rwdata	00000008 alt_alarm_list
00015258 g     F .text	00000060 _do_ctors
000149d8 g     F .text	00000040 alt_up_rs232_get_used_space_in_read_FIFO
0000d500 g     F .text	000000c0 wcrtomb
000107a0 g     F .text	000000d0 close
000159f4 g     F .text	00000068 alt_program_amd
00010c50 g     F .text	00000084 alt_load
0000c5a0 g     F .text	00000080 fputwc
00007130 g     F .text	00000004 __sinit_lock_acquire
000084a4 g     F .text	00000120 __multadd
0000847c g     F .text	00000028 _Bfree



Disassembly of section .entry:

00000000 <__reset>:
#if NIOS2_ICACHE_SIZE > 0 && defined(ALT_ALLOW_CODE_AT_RESET) && (!defined(ALT_SIM_OPTIMIZE) || defined(NIOS2_ECC_PRESENT))
    /* Assume the instruction cache size is always a power of two. */
#if NIOS2_ICACHE_SIZE > 0x8000
    movhi r2, %hi(NIOS2_ICACHE_SIZE)
#else
    movui r2, NIOS2_ICACHE_SIZE
   0:	00840014 	movui	r2,4096
#endif

0:
    initi r2
   4:	1001483a 	initi	r2
    addi r2, r2, -NIOS2_ICACHE_LINE_SIZE
   8:	10bff804 	addi	r2,r2,-32
    bgt r2, zero, 0b
   c:	00bffd16 	blt	zero,r2,4 <__alt_mem_onchip_memory+0xf7800004>
 * Jump to the _start entry point in the .text section if reset code
 * is allowed or if optimizing for RTL simulation.
 */
#if defined(ALT_ALLOW_CODE_AT_RESET) || defined(ALT_SIM_OPTIMIZE)
    /* Jump to the _start entry point in the .text section. */
    movhi r1, %hi(_start)
  10:	00400034 	movhi	at,0
    ori r1, r1, %lo(_start)
  14:	08409214 	ori	at,at,584
    jmp r1
  18:	0800683a 	jmp	at
  1c:	00000000 	call	0 <__reset>

Disassembly of section .exceptions:

00000020 <alt_exception>:

#else /* ALT_EXCEPTION_STACK disabled */
        /* 
         * Reserve space on normal stack for registers about to be pushed.
         */
        addi  sp, sp, -76
  20:	deffed04 	addi	sp,sp,-76
         * documentation for details).
         *
         * Leave a gap in the stack frame at 4(sp) for the muldiv handler to
         * store zero into.
         */
        stw   ra,  0(sp)
  24:	dfc00015 	stw	ra,0(sp)
        stw   r1,   8(sp)
  28:	d8400215 	stw	at,8(sp)
        stw   r2,  12(sp)
  2c:	d8800315 	stw	r2,12(sp)
        stw   r3,  16(sp)
  30:	d8c00415 	stw	r3,16(sp)
        stw   r4,  20(sp)
  34:	d9000515 	stw	r4,20(sp)
        stw   r5,  24(sp)
  38:	d9400615 	stw	r5,24(sp)
        stw   r6,  28(sp)
  3c:	d9800715 	stw	r6,28(sp)
        stw   r7,  32(sp)
  40:	d9c00815 	stw	r7,32(sp)
        rdctl r5, estatus   /* Read early to avoid usage stall */
  44:	000b307a 	rdctl	r5,estatus
        stw   r8,  36(sp)
  48:	da000915 	stw	r8,36(sp)
        stw   r9,  40(sp)
  4c:	da400a15 	stw	r9,40(sp)
        stw   r10, 44(sp)
  50:	da800b15 	stw	r10,44(sp)
        stw   r11, 48(sp)
  54:	dac00c15 	stw	r11,48(sp)
        stw   r12, 52(sp)
  58:	db000d15 	stw	r12,52(sp)
        stw   r13, 56(sp)
  5c:	db400e15 	stw	r13,56(sp)
        stw   r14, 60(sp)
  60:	db800f15 	stw	r14,60(sp)
        stw   r15, 64(sp)
  64:	dbc01015 	stw	r15,64(sp)
        /*
         * ea-4 contains the address of the instruction being executed
         * when the exception occured. For interrupt exceptions, we will
         * will be re-issue the isntruction. Store it in 72(sp)
         */
        stw   r5,  68(sp)  /* estatus */
  68:	d9401115 	stw	r5,68(sp)
        addi  r15, ea, -4  /* instruction that caused exception */
  6c:	ebffff04 	addi	r15,ea,-4
        stw   r15,  72(sp)
  70:	dbc01215 	stw	r15,72(sp)
#else
        /*
         * Test to see if the exception was a software exception or caused 
         * by an external interrupt, and vector accordingly.
         */
        rdctl r4, ipending
  74:	0009313a 	rdctl	r4,ipending
        andi  r2, r5, 1
  78:	2880004c 	andi	r2,r5,1
        beq   r2, zero, .Lnot_irq
  7c:	10000326 	beq	r2,zero,8c <alt_exception+0x6c>
        beq   r4, zero, .Lnot_irq
  80:	20000226 	beq	r4,zero,8c <alt_exception+0x6c>
        /*
         * Now that all necessary registers have been preserved, call 
         * alt_irq_handler() to process the interrupts.
         */

        call alt_irq_handler
  84:	00000fc0 	call	fc <alt_irq_handler>

        .section .exceptions.irqreturn, "xa"

        br    .Lexception_exit
  88:	00000706 	br	a8 <alt_exception+0x88>
         * upon completion, so we write ea (address of instruction *after*
         * the one where the exception occured) into 72(sp). The actual
         * instruction that caused the exception is written in r2, which these
         * handlers will utilize.
         */
        stw ea, 72(sp) /* EA is PC+4 so will skip over instruction causing exception */
  8c:	df401215 	stw	ea,72(sp)
.Lunknown_16bit:
        addi.n r4, r4, 2 /* Need PC+2 to skip over instruction causing exception */
        stw r4, 72(sp)

#else /* CDX is not Enabled and all instructions are 32bits */
        ldw r2, -4(ea) /* Instruction value that caused exception */
  90:	e8bfff17 	ldw	r2,-4(ea)
         * debugger is present) or go into an infinite loop since the
         * handling behavior is undefined; in that case we will not return here.
         */

        /* Load exception-causing address as first argument (r4) */
        addi   r4, ea, -4
  94:	e93fff04 	addi	r4,ea,-4

        /* Call the instruction-exception entry */
        call   alt_instruction_exception_entry
  98:	00001d40 	call	1d4 <alt_instruction_exception_entry>
         * instruction
         *
         * Return code was 0: Skip. The instruction after the exception is
         * already stored in 72(sp).
         */
        bne   r2, r0, .Lexception_exit
  9c:	1000021e 	bne	r2,zero,a8 <alt_exception+0x88>

        /*
         * Otherwise, modify 72(sp) to re-issue the instruction that caused the
         * exception.
         */
        addi  r15, ea, -4  /* instruction that caused exception */
  a0:	ebffff04 	addi	r15,ea,-4
        stw   r15,  72(sp)
  a4:	dbc01215 	stw	r15,72(sp)
        /* 
         * Restore the saved registers, so that all general purpose registers 
         * have been restored to their state at the time the interrupt occured.
         */

        ldw   r5,  68(sp)
  a8:	d9401117 	ldw	r5,68(sp)
        ldw   ea,  72(sp)  /* This becomes the PC once eret is executed */
  ac:	df401217 	ldw	ea,72(sp)
        ldw   ra,   0(sp)
  b0:	dfc00017 	ldw	ra,0(sp)

        wrctl estatus, r5
  b4:	2801707a 	wrctl	estatus,r5

        ldw   r1,   8(sp)
  b8:	d8400217 	ldw	at,8(sp)
        ldw   r2,  12(sp)
  bc:	d8800317 	ldw	r2,12(sp)
        ldw   r3,  16(sp)
  c0:	d8c00417 	ldw	r3,16(sp)
        ldw   r4,  20(sp)
  c4:	d9000517 	ldw	r4,20(sp)
        ldw   r5,  24(sp)
  c8:	d9400617 	ldw	r5,24(sp)
        ldw   r6,  28(sp)
  cc:	d9800717 	ldw	r6,28(sp)
        ldw   r7,  32(sp)
  d0:	d9c00817 	ldw	r7,32(sp)

#if defined(ALT_EXCEPTION_STACK) && defined(ALT_STACK_CHECK)
        ldw   et, %gprel(alt_exception_old_stack_limit)(gp)
#endif

        ldw   r8,  36(sp)
  d4:	da000917 	ldw	r8,36(sp)
        ldw   r9,  40(sp)
  d8:	da400a17 	ldw	r9,40(sp)
        ldw   r10, 44(sp)
  dc:	da800b17 	ldw	r10,44(sp)
        ldw   r11, 48(sp)
  e0:	dac00c17 	ldw	r11,48(sp)
        ldw   r12, 52(sp)
  e4:	db000d17 	ldw	r12,52(sp)
        ldw   r13, 56(sp)
  e8:	db400e17 	ldw	r13,56(sp)
        ldw   r14, 60(sp)
  ec:	db800f17 	ldw	r14,60(sp)
        ldw   r15, 64(sp)
  f0:	dbc01017 	ldw	r15,64(sp)
        stw   et, %gprel(alt_stack_limit_value)(gp)
        stw   zero, %gprel(alt_exception_old_stack_limit)(gp)
#endif /* ALT_STACK_CHECK */
        ldw   sp,  76(sp)
#else /* ALT_EXCEPTION_STACK disabled */
        addi  sp, sp, 76
  f4:	dec01304 	addi	sp,sp,76

        /*
         * Return to the interrupted instruction.
         */

        eret
  f8:	ef80083a 	eret

000000fc <alt_irq_handler>:
 * instruction is present if the macro ALT_CI_INTERRUPT_VECTOR defined.
 */

void alt_irq_handler (void) __attribute__ ((section (".exceptions")));
void alt_irq_handler (void)
{
  fc:	defff904 	addi	sp,sp,-28
 100:	dfc00615 	stw	ra,24(sp)
 104:	df000515 	stw	fp,20(sp)
 108:	df000504 	addi	fp,sp,20
  
  /*
   * Notify the operating system that we are at interrupt level.
   */ 
  
  ALT_OS_INT_ENTER();
 10c:	0001883a 	nop
#ifndef NIOS2_EIC_PRESENT
static ALT_INLINE alt_u32 ALT_ALWAYS_INLINE alt_irq_pending (void)
{
  alt_u32 active;

  NIOS2_READ_IPENDING (active);
 110:	0005313a 	rdctl	r2,ipending
 114:	e0bffe15 	stw	r2,-8(fp)

  return active;
 118:	e0bffe17 	ldw	r2,-8(fp)
   * Consider the case where the high priority interupt is asserted during
   * the interrupt entry sequence for a lower priority interrupt to see why
   * this is the case.
   */

  active = alt_irq_pending ();
 11c:	e0bffb15 	stw	r2,-20(fp)

  do
  {
    i = 0;
 120:	e03ffd15 	stw	zero,-12(fp)
    mask = 1;
 124:	00800044 	movi	r2,1
 128:	e0bffc15 	stw	r2,-16(fp)
     * called to clear the interrupt condition.
     */

    do
    {
      if (active & mask)
 12c:	e0fffb17 	ldw	r3,-20(fp)
 130:	e0bffc17 	ldw	r2,-16(fp)
 134:	1884703a 	and	r2,r3,r2
 138:	10001526 	beq	r2,zero,190 <alt_irq_handler+0x94>
      { 
#ifdef ALT_ENHANCED_INTERRUPT_API_PRESENT
        alt_irq[i].handler(alt_irq[i].context); 
#else
        alt_irq[i].handler(alt_irq[i].context, i); 
 13c:	008000b4 	movhi	r2,2
 140:	10ab2704 	addi	r2,r2,-21348
 144:	e0fffd17 	ldw	r3,-12(fp)
 148:	180690fa 	slli	r3,r3,3
 14c:	10c5883a 	add	r2,r2,r3
 150:	10c00017 	ldw	r3,0(r2)
 154:	008000b4 	movhi	r2,2
 158:	10ab2704 	addi	r2,r2,-21348
 15c:	e13ffd17 	ldw	r4,-12(fp)
 160:	200890fa 	slli	r4,r4,3
 164:	1105883a 	add	r2,r2,r4
 168:	10800104 	addi	r2,r2,4
 16c:	10800017 	ldw	r2,0(r2)
 170:	e17ffd17 	ldw	r5,-12(fp)
 174:	1009883a 	mov	r4,r2
 178:	183ee83a 	callr	r3
#endif
        break;
 17c:	0001883a 	nop
#ifndef NIOS2_EIC_PRESENT
static ALT_INLINE alt_u32 ALT_ALWAYS_INLINE alt_irq_pending (void)
{
  alt_u32 active;

  NIOS2_READ_IPENDING (active);
 180:	0005313a 	rdctl	r2,ipending
 184:	e0bfff15 	stw	r2,-4(fp)

  return active;
 188:	e0bfff17 	ldw	r2,-4(fp)
 18c:	00000706 	br	1ac <alt_irq_handler+0xb0>
      }
      mask <<= 1;
 190:	e0bffc17 	ldw	r2,-16(fp)
 194:	1085883a 	add	r2,r2,r2
 198:	e0bffc15 	stw	r2,-16(fp)
      i++;
 19c:	e0bffd17 	ldw	r2,-12(fp)
 1a0:	10800044 	addi	r2,r2,1
 1a4:	e0bffd15 	stw	r2,-12(fp)

    } while (1);
 1a8:	003fe006 	br	12c <__alt_mem_onchip_memory+0xf780012c>

    active = alt_irq_pending ();
 1ac:	e0bffb15 	stw	r2,-20(fp)
    
  } while (active);
 1b0:	e0bffb17 	ldw	r2,-20(fp)
 1b4:	103fda1e 	bne	r2,zero,120 <__alt_mem_onchip_memory+0xf7800120>

  /*
   * Notify the operating system that interrupt processing is complete.
   */ 

  ALT_OS_INT_EXIT();
 1b8:	0001883a 	nop
}
 1bc:	0001883a 	nop
 1c0:	e037883a 	mov	sp,fp
 1c4:	dfc00117 	ldw	ra,4(sp)
 1c8:	df000017 	ldw	fp,0(sp)
 1cc:	dec00204 	addi	sp,sp,8
 1d0:	f800283a 	ret

000001d4 <alt_instruction_exception_entry>:
 * that handler if it has been registered. Absent a handler, it will
 * break break or hang as discussed below.
 */
int 
alt_instruction_exception_entry (alt_u32 exception_pc)
{
 1d4:	defffb04 	addi	sp,sp,-20
 1d8:	dfc00415 	stw	ra,16(sp)
 1dc:	df000315 	stw	fp,12(sp)
 1e0:	df000304 	addi	fp,sp,12
 1e4:	e13fff15 	stw	r4,-4(fp)
 * NIOS2_EXCEPTION_CAUSE_NOT_PRESENT. Your handling routine should
 * check the validity of the cause argument before proceeding.
 */
#ifdef NIOS2_HAS_EXTRA_EXCEPTION_INFO
  /* Get exception cause & "badaddr" */
  NIOS2_READ_EXCEPTION(cause);
 1e8:	000531fa 	rdctl	r2,exception
 1ec:	e0bffd15 	stw	r2,-12(fp)
  cause = ( (cause & NIOS2_EXCEPTION_REG_CAUSE_MASK) >>
 1f0:	e0bffd17 	ldw	r2,-12(fp)
 1f4:	10801f0c 	andi	r2,r2,124
 1f8:	1004d0ba 	srli	r2,r2,2
 1fc:	e0bffd15 	stw	r2,-12(fp)
              NIOS2_EXCEPTION_REG_CAUSE_OFST );

  NIOS2_READ_BADADDR(badaddr);
 200:	0005333a 	rdctl	r2,badaddr
 204:	e0bffe15 	stw	r2,-8(fp)
#else
  cause = NIOS2_EXCEPTION_CAUSE_NOT_PRESENT;
  badaddr = 0;
#endif /* NIOS2_HAS_EXTRA_EXCEPTION_INFO */

  if(alt_instruction_exception_handler) {
 208:	d0a7be17 	ldw	r2,-24840(gp)
 20c:	10000726 	beq	r2,zero,22c <alt_instruction_exception_entry+0x58>
     * Call handler. Its return value indicates whether the exception-causing
     * instruction should be re-issued. The code that called us,
     * alt_eceptions_entry.S, will look at this value and adjust the ea
     * register as necessary
     */
    return alt_instruction_exception_handler(cause, exception_pc, badaddr);
 210:	d0a7be17 	ldw	r2,-24840(gp)
 214:	e0fffd17 	ldw	r3,-12(fp)
 218:	e1bffe17 	ldw	r6,-8(fp)
 21c:	e17fff17 	ldw	r5,-4(fp)
 220:	1809883a 	mov	r4,r3
 224:	103ee83a 	callr	r2
 228:	00000206 	br	234 <alt_instruction_exception_entry+0x60>
   *    (a peripheral which negates its interrupt output before its
   *    interrupt handler has been executed will cause spurious interrupts)
   */
  else {
#ifdef NIOS2_HAS_DEBUG_STUB
    NIOS2_BREAK();
 22c:	003da03a 	break	0
      ;
#endif /* NIOS2_HAS_DEBUG_STUB */
  }

  /* We should not get here. Remove compiler warning. */
  return NIOS2_EXCEPTION_RETURN_REISSUE_INST;
 230:	0005883a 	mov	r2,zero
}
 234:	e037883a 	mov	sp,fp
 238:	dfc00117 	ldw	ra,4(sp)
 23c:	df000017 	ldw	fp,0(sp)
 240:	dec00204 	addi	sp,sp,8
 244:	f800283a 	ret

Disassembly of section .text:

00000248 <_start>:

    /* Assume the data cache size is always a power of two. */
#if NIOS2_DCACHE_SIZE > 0x8000
    movhi r2, %hi(NIOS2_DCACHE_SIZE)
#else
    movui r2, NIOS2_DCACHE_SIZE
     248:	00820014 	movui	r2,2048
#endif

0:
    initd 0(r2)
     24c:	10000033 	initd	0(r2)
#ifdef NIOS2_ECC_PRESENT
    addi r2, r2, -4
#else
    addi r2, r2, -NIOS2_DCACHE_LINE_SIZE
     250:	10bff804 	addi	r2,r2,-32
#endif
    bgt r2, zero, 0b
     254:	00bffd16 	blt	zero,r2,24c <__alt_mem_onchip_memory+0xf780024c>

    /*
     * Now that the caches are initialized, set up the stack pointer and global pointer.
     * The values provided by the linker are assumed to be correctly aligned.
     */
    movhi sp, %hi(__alt_stack_pointer)
     258:	06c20034 	movhi	sp,2048
    ori sp, sp, %lo(__alt_stack_pointer)
     25c:	dec00014 	ori	sp,sp,0
    movhi gp, %hi(_gp)
     260:	068000b4 	movhi	gp,2
    ori gp, gp, %lo(_gp)
     264:	d6835e14 	ori	gp,gp,3448
 */
#ifndef ALT_SIM_OPTIMIZE
    /* Log that the BSS is about to be cleared. */
    ALT_LOG_PUTS(alt_log_msg_bss)

    movhi r2, %hi(__bss_start)
     268:	00800074 	movhi	r2,1
    ori r2, r2, %lo(__bss_start)
     26c:	10ab0e14 	ori	r2,r2,44088

    movhi r3, %hi(__bss_end)
     270:	00c00074 	movhi	r3,1
    ori r3, r3, %lo(__bss_end)
     274:	18eb6714 	ori	r3,r3,44444

    beq r2, r3, 1f
     278:	10c00326 	beq	r2,r3,288 <_start+0x40>

0:
    stw zero, (r2)
     27c:	10000015 	stw	zero,0(r2)
    addi r2, r2, 4
     280:	10800104 	addi	r2,r2,4
    bltu r2, r3, 0b
     284:	10fffd36 	bltu	r2,r3,27c <__alt_mem_onchip_memory+0xf780027c>
     * section aren't defined until alt_load() has been called).
     */
    mov   et, zero
#endif

    call alt_load
     288:	0010c500 	call	10c50 <alt_load>

    /* Log that alt_main is about to be called. */
    ALT_LOG_PUTS(alt_log_msg_alt_main)

    /* Call the C entry point. It should never return. */
    call alt_main
     28c:	0010de40 	call	10de4 <alt_main>

00000290 <alt_after_alt_main>:

    /* Wait in infinite loop in case alt_main does return. */
alt_after_alt_main:
    br alt_after_alt_main
     290:	003fff06 	br	290 <__alt_mem_onchip_memory+0xf7800290>

00000294 <main>:

volatile int msec_counter = 0;
volatile int key_pressed = -1;

int main(void)
{
     294:	defff804 	addi	sp,sp,-32
     298:	dfc00715 	stw	ra,28(sp)
     29c:	df000615 	stw	fp,24(sp)
     2a0:	df000604 	addi	fp,sp,24
	///*Variable definition*///
	int hour, min, sec = 0; //hacer una variable para cada parte, y no una global
     2a4:	e03ffc15 	stw	zero,-16(fp)
	int on_flag = 1;
     2a8:	00800044 	movi	r2,1
     2ac:	e0bffd15 	stw	r2,-12(fp)

	/* Peripheral handler definitions */
	volatile int * interval_timer_ptr = (int *) AVALON_TIMER_32B_0_BASE;	    // Direccion Temporizador
     2b0:	00840034 	movhi	r2,4096
     2b4:	10840804 	addi	r2,r2,4128
     2b8:	e0bffe15 	stw	r2,-8(fp)
	volatile int * KEY_ptr = (int *) PUSHBUTTONS_BASE;			// Direccion pulsadores KEY
     2bc:	00840034 	movhi	r2,4096
     2c0:	10801404 	addi	r2,r2,80
     2c4:	e0bfff15 	stw	r2,-4(fp)

	/* Configuring timer */
	// 0x2FAF080 -> 50000000 counts -> 1s counter
	*(interval_timer_ptr + 0x0) = ( 0x2FAF080 & 0xFFFFFFFF); // Counter set to 1s
     2c8:	e0fffe17 	ldw	r3,-8(fp)
     2cc:	0080bef4 	movhi	r2,763
     2d0:	10bc2004 	addi	r2,r2,-3968
     2d4:	18800015 	stw	r2,0(r3)
	*(interval_timer_ptr + 0x1) = ( 0x17D7840 & 0xFFFFFFFF); // THR set to 500ms
     2d8:	e0bffe17 	ldw	r2,-8(fp)
     2dc:	10c00104 	addi	r3,r2,4
     2e0:	00805f74 	movhi	r2,381
     2e4:	109e1004 	addi	r2,r2,30784
     2e8:	18800015 	stw	r2,0(r3)


	/* Enabling timer and Interrupt Requests */
	*(interval_timer_ptr + 0x2) = 0x1;	// CLEAR_IRQ = 0, START = 1;
     2ec:	e0bffe17 	ldw	r2,-8(fp)
     2f0:	10800204 	addi	r2,r2,8
     2f4:	00c00044 	movi	r3,1
     2f8:	10c00015 	stw	r3,0(r2)
	alt_irq_register(AVALON_TIMER_32B_0_IRQ, NULL, interval_timer_isr);
     2fc:	01800034 	movhi	r6,0
     300:	3181da04 	addi	r6,r6,1896
     304:	000b883a 	mov	r5,zero
     308:	0009883a 	mov	r4,zero
     30c:	00109880 	call	10988 <alt_irq_register>

	/* Enabling pushbutton IRQs */
	*(KEY_ptr + 2) = 0xE; 		/* Enabling interrupts for KEY1, KEY2 y KEY3*/
     310:	e0bfff17 	ldw	r2,-4(fp)
     314:	10800204 	addi	r2,r2,8
     318:	00c00384 	movi	r3,14
     31c:	10c00015 	stw	r3,0(r2)
	*(KEY_ptr + 3) = 0; /* Edge detect reset */
     320:	e0bfff17 	ldw	r2,-4(fp)
     324:	10800304 	addi	r2,r2,12
     328:	10000015 	stw	zero,0(r2)
	alt_irq_register(PUSHBUTTONS_IRQ, NULL, pushbutton_ISR);
     32c:	01800034 	movhi	r6,0
     330:	3181f804 	addi	r6,r6,2016
     334:	000b883a 	mov	r5,zero
     338:	01000044 	movi	r4,1
     33c:	00109880 	call	10988 <alt_irq_register>

	/* Initialazing 7-segment and LCD*/
	//12H,0min,0seg
	hour = 12;
     340:	00800304 	movi	r2,12
     344:	e0bffa15 	stw	r2,-24(fp)
	min = 0;
     348:	e03ffb15 	stw	zero,-20(fp)
	sec = 0;
     34c:	e03ffc15 	stw	zero,-16(fp)
	print_7_seg_time (hour, min, sec);
     350:	e1bffc17 	ldw	r6,-16(fp)
     354:	e17ffb17 	ldw	r5,-20(fp)
     358:	e13ffa17 	ldw	r4,-24(fp)
     35c:	00004740 	call	474 <print_7_seg_time>
	LCD_cursor_off(); 
     360:	00006680 	call	668 <LCD_cursor_off>
	print_LCD_text (hour, min, sec);
     364:	e1bffc17 	ldw	r6,-16(fp)
     368:	e17ffb17 	ldw	r5,-20(fp)
     36c:	e13ffa17 	ldw	r4,-24(fp)
     370:	00006a00 	call	6a0 <print_LCD_text>

	while(1)
	{
		if(msec_counter == 1)
     374:	d0a7b017 	ldw	r2,-24896(gp)
     378:	10800058 	cmpnei	r2,r2,1
     37c:	1000041e 	bne	r2,zero,390 <main+0xfc>
		{
			msec_counter = 0;
     380:	d027b015 	stw	zero,-24896(gp)
			sec ++;
     384:	e0bffc17 	ldw	r2,-16(fp)
     388:	10800044 	addi	r2,r2,1
     38c:	e0bffc15 	stw	r2,-16(fp)
		}
		if (key_pressed == KEY2)
     390:	d0a00017 	ldw	r2,-32768(gp)
     394:	10800098 	cmpnei	r2,r2,2
     398:	1000051e 	bne	r2,zero,3b0 <main+0x11c>
		{
			key_pressed = -1;
     39c:	00bfffc4 	movi	r2,-1
     3a0:	d0a00015 	stw	r2,-32768(gp)
			min ++;
     3a4:	e0bffb17 	ldw	r2,-20(fp)
     3a8:	10800044 	addi	r2,r2,1
     3ac:	e0bffb15 	stw	r2,-20(fp)
		}
		if (key_pressed == KEY3)
     3b0:	d0a00017 	ldw	r2,-32768(gp)
     3b4:	108000d8 	cmpnei	r2,r2,3
     3b8:	1000051e 	bne	r2,zero,3d0 <main+0x13c>
		{
			key_pressed = -1;
     3bc:	00bfffc4 	movi	r2,-1
     3c0:	d0a00015 	stw	r2,-32768(gp)
			hour ++;
     3c4:	e0bffa17 	ldw	r2,-24(fp)
     3c8:	10800044 	addi	r2,r2,1
     3cc:	e0bffa15 	stw	r2,-24(fp)
		}
		if (sec == 60)
     3d0:	e0bffc17 	ldw	r2,-16(fp)
     3d4:	10800f18 	cmpnei	r2,r2,60
     3d8:	1000041e 	bne	r2,zero,3ec <main+0x158>
		{
			sec = 0;
     3dc:	e03ffc15 	stw	zero,-16(fp)
			min ++;
     3e0:	e0bffb17 	ldw	r2,-20(fp)
     3e4:	10800044 	addi	r2,r2,1
     3e8:	e0bffb15 	stw	r2,-20(fp)
		}
		if (min == 60)
     3ec:	e0bffb17 	ldw	r2,-20(fp)
     3f0:	10800f18 	cmpnei	r2,r2,60
     3f4:	1000041e 	bne	r2,zero,408 <main+0x174>
		{
			min = 0;
     3f8:	e03ffb15 	stw	zero,-20(fp)
			hour ++;
     3fc:	e0bffa17 	ldw	r2,-24(fp)
     400:	10800044 	addi	r2,r2,1
     404:	e0bffa15 	stw	r2,-24(fp)
		}
		if (hour == 24)
     408:	e0bffa17 	ldw	r2,-24(fp)
     40c:	10800618 	cmpnei	r2,r2,24
     410:	1000011e 	bne	r2,zero,418 <main+0x184>
		{
			hour = 0;
     414:	e03ffa15 	stw	zero,-24(fp)
		}	
		print_7_seg_time (hour, min, sec);
     418:	e1bffc17 	ldw	r6,-16(fp)
     41c:	e17ffb17 	ldw	r5,-20(fp)
     420:	e13ffa17 	ldw	r4,-24(fp)
     424:	00004740 	call	474 <print_7_seg_time>
		print_LCD_text (hour, min, sec);
     428:	e1bffc17 	ldw	r6,-16(fp)
     42c:	e17ffb17 	ldw	r5,-20(fp)
     430:	e13ffa17 	ldw	r4,-24(fp)
     434:	00006a00 	call	6a0 <print_LCD_text>
		if(key_pressed == KEY1)
     438:	d0a00017 	ldw	r2,-32768(gp)
     43c:	10800058 	cmpnei	r2,r2,1
     440:	103fcc1e 	bne	r2,zero,374 <__alt_mem_onchip_memory+0xf7800374>
		{
			key_pressed = -1;
     444:	00bfffc4 	movi	r2,-1
     448:	d0a00015 	stw	r2,-32768(gp)
			on_flag = ~(on_flag & 0x1);
     44c:	e0bffd17 	ldw	r2,-12(fp)
     450:	1080004c 	andi	r2,r2,1
     454:	0084303a 	nor	r2,zero,r2
     458:	e0bffd15 	stw	r2,-12(fp)
			*(interval_timer_ptr + 0x2) = (on_flag & 0x1);	// CLEAR_IRQ = 1, START = 1;
     45c:	e0bffe17 	ldw	r2,-8(fp)
     460:	10800204 	addi	r2,r2,8
     464:	e0fffd17 	ldw	r3,-12(fp)
     468:	18c0004c 	andi	r3,r3,1
     46c:	10c00015 	stw	r3,0(r2)
		}
	}
     470:	003fc006 	br	374 <__alt_mem_onchip_memory+0xf7800374>

00000474 <print_7_seg_time>:

/****************************************************************************************
 * show time on 7 segment display
****************************************************************************************/
void print_7_seg_time (int h, int m, int s)
{
     474:	defff604 	addi	sp,sp,-40
     478:	dfc00915 	stw	ra,36(sp)
     47c:	df000815 	stw	fp,32(sp)
     480:	dc000715 	stw	r16,28(sp)
     484:	df000804 	addi	fp,sp,32
     488:	e13ffc15 	stw	r4,-16(fp)
     48c:	e17ffd15 	stw	r5,-12(fp)
     490:	e1bffe15 	stw	r6,-8(fp)
	// 7 segment addresses	
	volatile int * HEX_ptr	= (int *) AVALON_DISPLAYS7SEG_0_BASE;	// Direccin HEX3_HEX0
     494:	00840034 	movhi	r2,4096
     498:	10800804 	addi	r2,r2,32
     49c:	e0bff815 	stw	r2,-32(fp)

	//reg 0 -> hex3_hex0
	//reg 1 -> hex7_hex4
	// Auxiliar variables
	int h_hex, m_hex, s_hex;
	s_hex = (((s / 10) & 0xF)<<4) | ((s%10) & 0xF);
     4a0:	e0bffe17 	ldw	r2,-8(fp)
     4a4:	01400284 	movi	r5,10
     4a8:	1009883a 	mov	r4,r2
     4ac:	00008700 	call	870 <__divsi3>
     4b0:	1004913a 	slli	r2,r2,4
     4b4:	14003fcc 	andi	r16,r2,255
     4b8:	e0bffe17 	ldw	r2,-8(fp)
     4bc:	01400284 	movi	r5,10
     4c0:	1009883a 	mov	r4,r2
     4c4:	00008f40 	call	8f4 <__modsi3>
     4c8:	108003cc 	andi	r2,r2,15
     4cc:	8084b03a 	or	r2,r16,r2
     4d0:	e0bff915 	stw	r2,-28(fp)
	m_hex = (((m / 10) & 0xF)<<4) | ((m%10) & 0xF);
     4d4:	e0bffd17 	ldw	r2,-12(fp)
     4d8:	01400284 	movi	r5,10
     4dc:	1009883a 	mov	r4,r2
     4e0:	00008700 	call	870 <__divsi3>
     4e4:	1004913a 	slli	r2,r2,4
     4e8:	14003fcc 	andi	r16,r2,255
     4ec:	e0bffd17 	ldw	r2,-12(fp)
     4f0:	01400284 	movi	r5,10
     4f4:	1009883a 	mov	r4,r2
     4f8:	00008f40 	call	8f4 <__modsi3>
     4fc:	108003cc 	andi	r2,r2,15
     500:	8084b03a 	or	r2,r16,r2
     504:	e0bffa15 	stw	r2,-24(fp)
	h_hex = (((h / 10) & 0xF)<<4) | ((h%10) & 0xF);
     508:	e0bffc17 	ldw	r2,-16(fp)
     50c:	01400284 	movi	r5,10
     510:	1009883a 	mov	r4,r2
     514:	00008700 	call	870 <__divsi3>
     518:	1004913a 	slli	r2,r2,4
     51c:	14003fcc 	andi	r16,r2,255
     520:	e0bffc17 	ldw	r2,-16(fp)
     524:	01400284 	movi	r5,10
     528:	1009883a 	mov	r4,r2
     52c:	00008f40 	call	8f4 <__modsi3>
     530:	108003cc 	andi	r2,r2,15
     534:	8084b03a 	or	r2,r16,r2
     538:	e0bffb15 	stw	r2,-20(fp)

	// Visualiza el patrn en los displays
	*(HEX_ptr + 0) = (s_hex & 0xFF) << 8;
     53c:	e0bff917 	ldw	r2,-28(fp)
     540:	1004923a 	slli	r2,r2,8
     544:	10ffffcc 	andi	r3,r2,65535
     548:	e0bff817 	ldw	r2,-32(fp)
     54c:	10c00015 	stw	r3,0(r2)
	*(HEX_ptr + 1) = ((h_hex & 0xFF) << 8) | (m_hex & 0xFF);
     550:	e0bff817 	ldw	r2,-32(fp)
     554:	10800104 	addi	r2,r2,4
     558:	e0fffb17 	ldw	r3,-20(fp)
     55c:	1806923a 	slli	r3,r3,8
     560:	193fffcc 	andi	r4,r3,65535
     564:	e0fffa17 	ldw	r3,-24(fp)
     568:	18c03fcc 	andi	r3,r3,255
     56c:	20c6b03a 	or	r3,r4,r3
     570:	10c00015 	stw	r3,0(r2)
}
     574:	0001883a 	nop
     578:	e6ffff04 	addi	sp,fp,-4
     57c:	dfc00217 	ldw	ra,8(sp)
     580:	df000117 	ldw	fp,4(sp)
     584:	dc000017 	ldw	r16,0(sp)
     588:	dec00304 	addi	sp,sp,12
     58c:	f800283a 	ret

00000590 <LCD_cursor>:

/****************************************************************************************
 * Subroutine to move the LCD cursor
****************************************************************************************/
void LCD_cursor(int x, int y)
{
     590:	defffb04 	addi	sp,sp,-20
     594:	df000415 	stw	fp,16(sp)
     598:	df000404 	addi	fp,sp,16
     59c:	e13ffe15 	stw	r4,-8(fp)
     5a0:	e17fff15 	stw	r5,-4(fp)
  	volatile char * LCD_display_ptr = (char *) CHAR_LCD_BASE;	// 16x2 character display
     5a4:	00840034 	movhi	r2,4096
     5a8:	10802404 	addi	r2,r2,144
     5ac:	e0bffd15 	stw	r2,-12(fp)
	char instruction;

	instruction = x;
     5b0:	e0bffe17 	ldw	r2,-8(fp)
     5b4:	e0bffc05 	stb	r2,-16(fp)
	if (y != 0) instruction |= 0x40;				// set bit 6 for bottom row
     5b8:	e0bfff17 	ldw	r2,-4(fp)
     5bc:	10000326 	beq	r2,zero,5cc <LCD_cursor+0x3c>
     5c0:	e0bffc03 	ldbu	r2,-16(fp)
     5c4:	10801014 	ori	r2,r2,64
     5c8:	e0bffc05 	stb	r2,-16(fp)
	instruction |= 0x80;								// need to set bit 7 to set the cursor location
     5cc:	e0fffc03 	ldbu	r3,-16(fp)
     5d0:	00bfe004 	movi	r2,-128
     5d4:	1884b03a 	or	r2,r3,r2
     5d8:	e0bffc05 	stb	r2,-16(fp)
	*(LCD_display_ptr) = instruction;			// write to the LCD instruction register
     5dc:	e0bffd17 	ldw	r2,-12(fp)
     5e0:	e0fffc03 	ldbu	r3,-16(fp)
     5e4:	10c00005 	stb	r3,0(r2)
}
     5e8:	0001883a 	nop
     5ec:	e037883a 	mov	sp,fp
     5f0:	df000017 	ldw	fp,0(sp)
     5f4:	dec00104 	addi	sp,sp,4
     5f8:	f800283a 	ret

000005fc <LCD_text>:

/****************************************************************************************
 * Subroutine to send a string of text to the LCD
****************************************************************************************/
void LCD_text(char * text_ptr)
{
     5fc:	defffd04 	addi	sp,sp,-12
     600:	df000215 	stw	fp,8(sp)
     604:	df000204 	addi	fp,sp,8
     608:	e13fff15 	stw	r4,-4(fp)
  	volatile char * LCD_display_ptr = (char *) CHAR_LCD_BASE;	// 16x2 character display
     60c:	00840034 	movhi	r2,4096
     610:	10802404 	addi	r2,r2,144
     614:	e0bffe15 	stw	r2,-8(fp)

	while ( *(text_ptr) )
     618:	00000806 	br	63c <LCD_text+0x40>
	{
		*(LCD_display_ptr + 1) = *(text_ptr);	// write to the LCD data register
     61c:	e0bffe17 	ldw	r2,-8(fp)
     620:	10800044 	addi	r2,r2,1
     624:	e0ffff17 	ldw	r3,-4(fp)
     628:	18c00003 	ldbu	r3,0(r3)
     62c:	10c00005 	stb	r3,0(r2)
		++text_ptr;
     630:	e0bfff17 	ldw	r2,-4(fp)
     634:	10800044 	addi	r2,r2,1
     638:	e0bfff15 	stw	r2,-4(fp)
****************************************************************************************/
void LCD_text(char * text_ptr)
{
  	volatile char * LCD_display_ptr = (char *) CHAR_LCD_BASE;	// 16x2 character display

	while ( *(text_ptr) )
     63c:	e0bfff17 	ldw	r2,-4(fp)
     640:	10800003 	ldbu	r2,0(r2)
     644:	10803fcc 	andi	r2,r2,255
     648:	1080201c 	xori	r2,r2,128
     64c:	10bfe004 	addi	r2,r2,-128
     650:	103ff21e 	bne	r2,zero,61c <__alt_mem_onchip_memory+0xf780061c>
	{
		*(LCD_display_ptr + 1) = *(text_ptr);	// write to the LCD data register
		++text_ptr;
	}
}
     654:	0001883a 	nop
     658:	e037883a 	mov	sp,fp
     65c:	df000017 	ldw	fp,0(sp)
     660:	dec00104 	addi	sp,sp,4
     664:	f800283a 	ret

00000668 <LCD_cursor_off>:

/****************************************************************************************
 * Subroutine to turn off the LCD cursor
****************************************************************************************/
void LCD_cursor_off(void)
{
     668:	defffe04 	addi	sp,sp,-8
     66c:	df000115 	stw	fp,4(sp)
     670:	df000104 	addi	fp,sp,4
  	volatile char * LCD_display_ptr = (char *) CHAR_LCD_BASE;	// 16x2 character display
     674:	00840034 	movhi	r2,4096
     678:	10802404 	addi	r2,r2,144
     67c:	e0bfff15 	stw	r2,-4(fp)
	*(LCD_display_ptr) = 0x0C;											// turn off the LCD cursor
     680:	e0bfff17 	ldw	r2,-4(fp)
     684:	00c00304 	movi	r3,12
     688:	10c00005 	stb	r3,0(r2)
}
     68c:	0001883a 	nop
     690:	e037883a 	mov	sp,fp
     694:	df000017 	ldw	fp,0(sp)
     698:	dec00104 	addi	sp,sp,4
     69c:	f800283a 	ret

000006a0 <print_LCD_text>:

/****************************************************************************************
 * show text on first row and time on second row of the LCD display
****************************************************************************************/
void print_LCD_text (int h, int m, int s)
{
     6a0:	deffee04 	addi	sp,sp,-72
     6a4:	dfc01115 	stw	ra,68(sp)
     6a8:	df001015 	stw	fp,64(sp)
     6ac:	df001004 	addi	fp,sp,64
     6b0:	e13ffd15 	stw	r4,-12(fp)
     6b4:	e17ffe15 	stw	r5,-8(fp)
     6b8:	e1bfff15 	stw	r6,-4(fp)
	char top_text[2][16] =  {{"  EJERCICIO 3\0"}, // dos espacios para centrar texto
     6bc:	00800074 	movhi	r2,1
     6c0:	109aadc4 	addi	r2,r2,27319
     6c4:	e0fff104 	addi	r3,fp,-60
     6c8:	1009883a 	mov	r4,r2
     6cc:	00800804 	movi	r2,32
     6d0:	100d883a 	mov	r6,r2
     6d4:	200b883a 	mov	r5,r4
     6d8:	1809883a 	mov	r4,r3
     6dc:	0000a240 	call	a24 <memcpy>
							 {"  JL ROCABADO\0"}};
	char bot_text[16];
	sprintf(bot_text, "    %.2d:%.2d:%.2d", h, m, s);
     6e0:	e0fff904 	addi	r3,fp,-28
     6e4:	e0bfff17 	ldw	r2,-4(fp)
     6e8:	d8800015 	stw	r2,0(sp)
     6ec:	e1fffe17 	ldw	r7,-8(fp)
     6f0:	e1bffd17 	ldw	r6,-12(fp)
     6f4:	01400074 	movhi	r5,1
     6f8:	295aa904 	addi	r5,r5,27300
     6fc:	1809883a 	mov	r4,r3
     700:	0000c300 	call	c30 <sprintf>
	LCD_cursor(0, 0);
     704:	000b883a 	mov	r5,zero
     708:	0009883a 	mov	r4,zero
     70c:	00005900 	call	590 <LCD_cursor>
	LCD_text(top_text[((s/5) & 0x1)]); // changing text every 5s
     710:	e0bfff17 	ldw	r2,-4(fp)
     714:	01400144 	movi	r5,5
     718:	1009883a 	mov	r4,r2
     71c:	00008700 	call	870 <__divsi3>
     720:	1080004c 	andi	r2,r2,1
     724:	1004913a 	slli	r2,r2,4
     728:	e0fff104 	addi	r3,fp,-60
     72c:	1885883a 	add	r2,r3,r2
     730:	1009883a 	mov	r4,r2
     734:	00005fc0 	call	5fc <LCD_text>
	LCD_cursor(0, 1);
     738:	01400044 	movi	r5,1
     73c:	0009883a 	mov	r4,zero
     740:	00005900 	call	590 <LCD_cursor>
	LCD_text(bot_text);
     744:	e0bff904 	addi	r2,fp,-28
     748:	1009883a 	mov	r4,r2
     74c:	00005fc0 	call	5fc <LCD_text>
}
     750:	0001883a 	nop
     754:	e037883a 	mov	sp,fp
     758:	dfc00117 	ldw	ra,4(sp)
     75c:	df000017 	ldw	fp,0(sp)
     760:	dec00204 	addi	sp,sp,8
     764:	f800283a 	ret

00000768 <interval_timer_isr>:
#include <stdio.h>

extern volatile int msec_counter;

void interval_timer_isr( )
{ 
     768:	defffd04 	addi	sp,sp,-12
     76c:	dfc00215 	stw	ra,8(sp)
     770:	df000115 	stw	fp,4(sp)
     774:	df000104 	addi	fp,sp,4
	volatile int * interval_timer_ptr = (int *) AVALON_TIMER_32B_0_BASE;
     778:	00840034 	movhi	r2,4096
     77c:	10840804 	addi	r2,r2,4128
     780:	e0bfff15 	stw	r2,-4(fp)

	*(interval_timer_ptr + 0x2) = 0x3;	// CLEAR_IRQ = 1, START = 1;
     784:	e0bfff17 	ldw	r2,-4(fp)
     788:	10800204 	addi	r2,r2,8
     78c:	00c000c4 	movi	r3,3
     790:	10c00015 	stw	r3,0(r2)
	printf("%d test \n", *(interval_timer_ptr + 0x3));
     794:	e0bfff17 	ldw	r2,-4(fp)
     798:	10800304 	addi	r2,r2,12
     79c:	10800017 	ldw	r2,0(r2)
     7a0:	100b883a 	mov	r5,r2
     7a4:	01000074 	movhi	r4,1
     7a8:	211ab604 	addi	r4,r4,27352
     7ac:	0000b9c0 	call	b9c <printf>
	// Setting seconds flag
	msec_counter = 1;
     7b0:	00800044 	movi	r2,1
     7b4:	d0a7b015 	stw	r2,-24896(gp)
	//Enabling interrupt again
	*(interval_timer_ptr + 0x2) = 0x1;	// CLEAR_IRQ = 0, START = 1;
     7b8:	e0bfff17 	ldw	r2,-4(fp)
     7bc:	10800204 	addi	r2,r2,8
     7c0:	00c00044 	movi	r3,1
     7c4:	10c00015 	stw	r3,0(r2)
	return;
     7c8:	0001883a 	nop
}
     7cc:	e037883a 	mov	sp,fp
     7d0:	dfc00117 	ldw	ra,4(sp)
     7d4:	df000017 	ldw	fp,0(sp)
     7d8:	dec00204 	addi	sp,sp,8
     7dc:	f800283a 	ret

000007e0 <pushbutton_ISR>:
#include "sys/alt_irq.h"

extern volatile int key_pressed;

void pushbutton_ISR( )
{
     7e0:	defffd04 	addi	sp,sp,-12
     7e4:	df000215 	stw	fp,8(sp)
     7e8:	df000204 	addi	fp,sp,8
	volatile int * KEY_ptr = (int *) PUSHBUTTONS_BASE;
     7ec:	00840034 	movhi	r2,4096
     7f0:	10801404 	addi	r2,r2,80
     7f4:	e0bffe15 	stw	r2,-8(fp)
	int press;

	press = *(KEY_ptr + 3);					// lee el registro de los pulsadores
     7f8:	e0bffe17 	ldw	r2,-8(fp)
     7fc:	10800317 	ldw	r2,12(r2)
     800:	e0bfff15 	stw	r2,-4(fp)
	*(KEY_ptr + 3) = 0; 					// borra la interrupcion
     804:	e0bffe17 	ldw	r2,-8(fp)
     808:	10800304 	addi	r2,r2,12
     80c:	10000015 	stw	zero,0(r2)

	if (press & 0x2)						// KEY1
     810:	e0bfff17 	ldw	r2,-4(fp)
     814:	1080008c 	andi	r2,r2,2
     818:	10000326 	beq	r2,zero,828 <pushbutton_ISR+0x48>
		key_pressed = KEY1;
     81c:	00800044 	movi	r2,1
     820:	d0a00015 	stw	r2,-32768(gp)
		key_pressed = KEY2;
	else if (press & 0x1)					// KEY0
		key_pressed = KEY0;
	else									// press & 0x8, means KEY3
		key_pressed = KEY3;
	return;
     824:	00000e06 	br	860 <pushbutton_ISR+0x80>
	press = *(KEY_ptr + 3);					// lee el registro de los pulsadores
	*(KEY_ptr + 3) = 0; 					// borra la interrupcion

	if (press & 0x2)						// KEY1
		key_pressed = KEY1;
	else if (press & 0x4)					// KEY2
     828:	e0bfff17 	ldw	r2,-4(fp)
     82c:	1080010c 	andi	r2,r2,4
     830:	10000326 	beq	r2,zero,840 <pushbutton_ISR+0x60>
		key_pressed = KEY2;
     834:	00800084 	movi	r2,2
     838:	d0a00015 	stw	r2,-32768(gp)
	else if (press & 0x1)					// KEY0
		key_pressed = KEY0;
	else									// press & 0x8, means KEY3
		key_pressed = KEY3;
	return;
     83c:	00000806 	br	860 <pushbutton_ISR+0x80>

	if (press & 0x2)						// KEY1
		key_pressed = KEY1;
	else if (press & 0x4)					// KEY2
		key_pressed = KEY2;
	else if (press & 0x1)					// KEY0
     840:	e0bfff17 	ldw	r2,-4(fp)
     844:	1080004c 	andi	r2,r2,1
     848:	10000226 	beq	r2,zero,854 <pushbutton_ISR+0x74>
		key_pressed = KEY0;
     84c:	d0200015 	stw	zero,-32768(gp)
	else									// press & 0x8, means KEY3
		key_pressed = KEY3;
	return;
     850:	00000306 	br	860 <pushbutton_ISR+0x80>
	else if (press & 0x4)					// KEY2
		key_pressed = KEY2;
	else if (press & 0x1)					// KEY0
		key_pressed = KEY0;
	else									// press & 0x8, means KEY3
		key_pressed = KEY3;
     854:	008000c4 	movi	r2,3
     858:	d0a00015 	stw	r2,-32768(gp)
	return;
     85c:	0001883a 	nop
}
     860:	e037883a 	mov	sp,fp
     864:	df000017 	ldw	fp,0(sp)
     868:	dec00104 	addi	sp,sp,4
     86c:	f800283a 	ret

00000870 <__divsi3>:
     870:	20001b16 	blt	r4,zero,8e0 <__divsi3+0x70>
     874:	000f883a 	mov	r7,zero
     878:	28001616 	blt	r5,zero,8d4 <__divsi3+0x64>
     87c:	200d883a 	mov	r6,r4
     880:	29001a2e 	bgeu	r5,r4,8ec <__divsi3+0x7c>
     884:	00800804 	movi	r2,32
     888:	00c00044 	movi	r3,1
     88c:	00000106 	br	894 <__divsi3+0x24>
     890:	10000d26 	beq	r2,zero,8c8 <__divsi3+0x58>
     894:	294b883a 	add	r5,r5,r5
     898:	10bfffc4 	addi	r2,r2,-1
     89c:	18c7883a 	add	r3,r3,r3
     8a0:	293ffb36 	bltu	r5,r4,890 <__alt_mem_onchip_memory+0xf7800890>
     8a4:	0005883a 	mov	r2,zero
     8a8:	18000726 	beq	r3,zero,8c8 <__divsi3+0x58>
     8ac:	0005883a 	mov	r2,zero
     8b0:	31400236 	bltu	r6,r5,8bc <__divsi3+0x4c>
     8b4:	314dc83a 	sub	r6,r6,r5
     8b8:	10c4b03a 	or	r2,r2,r3
     8bc:	1806d07a 	srli	r3,r3,1
     8c0:	280ad07a 	srli	r5,r5,1
     8c4:	183ffa1e 	bne	r3,zero,8b0 <__alt_mem_onchip_memory+0xf78008b0>
     8c8:	38000126 	beq	r7,zero,8d0 <__divsi3+0x60>
     8cc:	0085c83a 	sub	r2,zero,r2
     8d0:	f800283a 	ret
     8d4:	014bc83a 	sub	r5,zero,r5
     8d8:	39c0005c 	xori	r7,r7,1
     8dc:	003fe706 	br	87c <__alt_mem_onchip_memory+0xf780087c>
     8e0:	0109c83a 	sub	r4,zero,r4
     8e4:	01c00044 	movi	r7,1
     8e8:	003fe306 	br	878 <__alt_mem_onchip_memory+0xf7800878>
     8ec:	00c00044 	movi	r3,1
     8f0:	003fee06 	br	8ac <__alt_mem_onchip_memory+0xf78008ac>

000008f4 <__modsi3>:
     8f4:	20001716 	blt	r4,zero,954 <__modsi3+0x60>
     8f8:	000f883a 	mov	r7,zero
     8fc:	2005883a 	mov	r2,r4
     900:	28001216 	blt	r5,zero,94c <__modsi3+0x58>
     904:	2900162e 	bgeu	r5,r4,960 <__modsi3+0x6c>
     908:	01800804 	movi	r6,32
     90c:	00c00044 	movi	r3,1
     910:	00000106 	br	918 <__modsi3+0x24>
     914:	30000a26 	beq	r6,zero,940 <__modsi3+0x4c>
     918:	294b883a 	add	r5,r5,r5
     91c:	31bfffc4 	addi	r6,r6,-1
     920:	18c7883a 	add	r3,r3,r3
     924:	293ffb36 	bltu	r5,r4,914 <__alt_mem_onchip_memory+0xf7800914>
     928:	18000526 	beq	r3,zero,940 <__modsi3+0x4c>
     92c:	1806d07a 	srli	r3,r3,1
     930:	11400136 	bltu	r2,r5,938 <__modsi3+0x44>
     934:	1145c83a 	sub	r2,r2,r5
     938:	280ad07a 	srli	r5,r5,1
     93c:	183ffb1e 	bne	r3,zero,92c <__alt_mem_onchip_memory+0xf780092c>
     940:	38000126 	beq	r7,zero,948 <__modsi3+0x54>
     944:	0085c83a 	sub	r2,zero,r2
     948:	f800283a 	ret
     94c:	014bc83a 	sub	r5,zero,r5
     950:	003fec06 	br	904 <__alt_mem_onchip_memory+0xf7800904>
     954:	0109c83a 	sub	r4,zero,r4
     958:	01c00044 	movi	r7,1
     95c:	003fe706 	br	8fc <__alt_mem_onchip_memory+0xf78008fc>
     960:	00c00044 	movi	r3,1
     964:	003ff106 	br	92c <__alt_mem_onchip_memory+0xf780092c>

00000968 <__udivsi3>:
     968:	200d883a 	mov	r6,r4
     96c:	2900152e 	bgeu	r5,r4,9c4 <__udivsi3+0x5c>
     970:	28001416 	blt	r5,zero,9c4 <__udivsi3+0x5c>
     974:	00800804 	movi	r2,32
     978:	00c00044 	movi	r3,1
     97c:	00000206 	br	988 <__udivsi3+0x20>
     980:	10000e26 	beq	r2,zero,9bc <__udivsi3+0x54>
     984:	28000516 	blt	r5,zero,99c <__udivsi3+0x34>
     988:	294b883a 	add	r5,r5,r5
     98c:	10bfffc4 	addi	r2,r2,-1
     990:	18c7883a 	add	r3,r3,r3
     994:	293ffa36 	bltu	r5,r4,980 <__alt_mem_onchip_memory+0xf7800980>
     998:	18000826 	beq	r3,zero,9bc <__udivsi3+0x54>
     99c:	0005883a 	mov	r2,zero
     9a0:	31400236 	bltu	r6,r5,9ac <__udivsi3+0x44>
     9a4:	314dc83a 	sub	r6,r6,r5
     9a8:	10c4b03a 	or	r2,r2,r3
     9ac:	1806d07a 	srli	r3,r3,1
     9b0:	280ad07a 	srli	r5,r5,1
     9b4:	183ffa1e 	bne	r3,zero,9a0 <__alt_mem_onchip_memory+0xf78009a0>
     9b8:	f800283a 	ret
     9bc:	0005883a 	mov	r2,zero
     9c0:	f800283a 	ret
     9c4:	00c00044 	movi	r3,1
     9c8:	003ff406 	br	99c <__alt_mem_onchip_memory+0xf780099c>

000009cc <__umodsi3>:
     9cc:	2005883a 	mov	r2,r4
     9d0:	2900122e 	bgeu	r5,r4,a1c <__umodsi3+0x50>
     9d4:	28001116 	blt	r5,zero,a1c <__umodsi3+0x50>
     9d8:	01800804 	movi	r6,32
     9dc:	00c00044 	movi	r3,1
     9e0:	00000206 	br	9ec <__umodsi3+0x20>
     9e4:	30000c26 	beq	r6,zero,a18 <__umodsi3+0x4c>
     9e8:	28000516 	blt	r5,zero,a00 <__umodsi3+0x34>
     9ec:	294b883a 	add	r5,r5,r5
     9f0:	31bfffc4 	addi	r6,r6,-1
     9f4:	18c7883a 	add	r3,r3,r3
     9f8:	293ffa36 	bltu	r5,r4,9e4 <__alt_mem_onchip_memory+0xf78009e4>
     9fc:	18000626 	beq	r3,zero,a18 <__umodsi3+0x4c>
     a00:	1806d07a 	srli	r3,r3,1
     a04:	11400136 	bltu	r2,r5,a0c <__umodsi3+0x40>
     a08:	1145c83a 	sub	r2,r2,r5
     a0c:	280ad07a 	srli	r5,r5,1
     a10:	183ffb1e 	bne	r3,zero,a00 <__alt_mem_onchip_memory+0xf7800a00>
     a14:	f800283a 	ret
     a18:	f800283a 	ret
     a1c:	00c00044 	movi	r3,1
     a20:	003ff706 	br	a00 <__alt_mem_onchip_memory+0xf7800a00>

00000a24 <memcpy>:
     a24:	defffd04 	addi	sp,sp,-12
     a28:	dfc00215 	stw	ra,8(sp)
     a2c:	dc400115 	stw	r17,4(sp)
     a30:	dc000015 	stw	r16,0(sp)
     a34:	00c003c4 	movi	r3,15
     a38:	2005883a 	mov	r2,r4
     a3c:	1980452e 	bgeu	r3,r6,b54 <memcpy+0x130>
     a40:	2906b03a 	or	r3,r5,r4
     a44:	18c000cc 	andi	r3,r3,3
     a48:	1800441e 	bne	r3,zero,b5c <memcpy+0x138>
     a4c:	347ffc04 	addi	r17,r6,-16
     a50:	8822d13a 	srli	r17,r17,4
     a54:	28c00104 	addi	r3,r5,4
     a58:	23400104 	addi	r13,r4,4
     a5c:	8820913a 	slli	r16,r17,4
     a60:	2b000204 	addi	r12,r5,8
     a64:	22c00204 	addi	r11,r4,8
     a68:	84000504 	addi	r16,r16,20
     a6c:	2a800304 	addi	r10,r5,12
     a70:	22400304 	addi	r9,r4,12
     a74:	2c21883a 	add	r16,r5,r16
     a78:	2811883a 	mov	r8,r5
     a7c:	200f883a 	mov	r7,r4
     a80:	41000017 	ldw	r4,0(r8)
     a84:	1fc00017 	ldw	ra,0(r3)
     a88:	63c00017 	ldw	r15,0(r12)
     a8c:	39000015 	stw	r4,0(r7)
     a90:	53800017 	ldw	r14,0(r10)
     a94:	6fc00015 	stw	ra,0(r13)
     a98:	5bc00015 	stw	r15,0(r11)
     a9c:	4b800015 	stw	r14,0(r9)
     aa0:	18c00404 	addi	r3,r3,16
     aa4:	39c00404 	addi	r7,r7,16
     aa8:	42000404 	addi	r8,r8,16
     aac:	6b400404 	addi	r13,r13,16
     ab0:	63000404 	addi	r12,r12,16
     ab4:	5ac00404 	addi	r11,r11,16
     ab8:	52800404 	addi	r10,r10,16
     abc:	4a400404 	addi	r9,r9,16
     ac0:	1c3fef1e 	bne	r3,r16,a80 <__alt_mem_onchip_memory+0xf7800a80>
     ac4:	89c00044 	addi	r7,r17,1
     ac8:	380e913a 	slli	r7,r7,4
     acc:	310003cc 	andi	r4,r6,15
     ad0:	02c000c4 	movi	r11,3
     ad4:	11c7883a 	add	r3,r2,r7
     ad8:	29cb883a 	add	r5,r5,r7
     adc:	5900212e 	bgeu	r11,r4,b64 <memcpy+0x140>
     ae0:	1813883a 	mov	r9,r3
     ae4:	2811883a 	mov	r8,r5
     ae8:	200f883a 	mov	r7,r4
     aec:	42800017 	ldw	r10,0(r8)
     af0:	4a400104 	addi	r9,r9,4
     af4:	39ffff04 	addi	r7,r7,-4
     af8:	4abfff15 	stw	r10,-4(r9)
     afc:	42000104 	addi	r8,r8,4
     b00:	59fffa36 	bltu	r11,r7,aec <__alt_mem_onchip_memory+0xf7800aec>
     b04:	213fff04 	addi	r4,r4,-4
     b08:	2008d0ba 	srli	r4,r4,2
     b0c:	318000cc 	andi	r6,r6,3
     b10:	21000044 	addi	r4,r4,1
     b14:	2109883a 	add	r4,r4,r4
     b18:	2109883a 	add	r4,r4,r4
     b1c:	1907883a 	add	r3,r3,r4
     b20:	290b883a 	add	r5,r5,r4
     b24:	30000626 	beq	r6,zero,b40 <memcpy+0x11c>
     b28:	198d883a 	add	r6,r3,r6
     b2c:	29c00003 	ldbu	r7,0(r5)
     b30:	18c00044 	addi	r3,r3,1
     b34:	29400044 	addi	r5,r5,1
     b38:	19ffffc5 	stb	r7,-1(r3)
     b3c:	19bffb1e 	bne	r3,r6,b2c <__alt_mem_onchip_memory+0xf7800b2c>
     b40:	dfc00217 	ldw	ra,8(sp)
     b44:	dc400117 	ldw	r17,4(sp)
     b48:	dc000017 	ldw	r16,0(sp)
     b4c:	dec00304 	addi	sp,sp,12
     b50:	f800283a 	ret
     b54:	2007883a 	mov	r3,r4
     b58:	003ff206 	br	b24 <__alt_mem_onchip_memory+0xf7800b24>
     b5c:	2007883a 	mov	r3,r4
     b60:	003ff106 	br	b28 <__alt_mem_onchip_memory+0xf7800b28>
     b64:	200d883a 	mov	r6,r4
     b68:	003fee06 	br	b24 <__alt_mem_onchip_memory+0xf7800b24>

00000b6c <_printf_r>:
     b6c:	defffd04 	addi	sp,sp,-12
     b70:	2805883a 	mov	r2,r5
     b74:	dfc00015 	stw	ra,0(sp)
     b78:	d9800115 	stw	r6,4(sp)
     b7c:	d9c00215 	stw	r7,8(sp)
     b80:	21400217 	ldw	r5,8(r4)
     b84:	d9c00104 	addi	r7,sp,4
     b88:	100d883a 	mov	r6,r2
     b8c:	0002e740 	call	2e74 <___vfprintf_internal_r>
     b90:	dfc00017 	ldw	ra,0(sp)
     b94:	dec00304 	addi	sp,sp,12
     b98:	f800283a 	ret

00000b9c <printf>:
     b9c:	defffc04 	addi	sp,sp,-16
     ba0:	dfc00015 	stw	ra,0(sp)
     ba4:	d9400115 	stw	r5,4(sp)
     ba8:	d9800215 	stw	r6,8(sp)
     bac:	d9c00315 	stw	r7,12(sp)
     bb0:	008000b4 	movhi	r2,2
     bb4:	10a36004 	addi	r2,r2,-29312
     bb8:	10800017 	ldw	r2,0(r2)
     bbc:	200b883a 	mov	r5,r4
     bc0:	d9800104 	addi	r6,sp,4
     bc4:	11000217 	ldw	r4,8(r2)
     bc8:	000506c0 	call	506c <__vfprintf_internal>
     bcc:	dfc00017 	ldw	ra,0(sp)
     bd0:	dec00404 	addi	sp,sp,16
     bd4:	f800283a 	ret

00000bd8 <_sprintf_r>:
     bd8:	deffe404 	addi	sp,sp,-112
     bdc:	2807883a 	mov	r3,r5
     be0:	dfc01a15 	stw	ra,104(sp)
     be4:	d9c01b15 	stw	r7,108(sp)
     be8:	00a00034 	movhi	r2,32768
     bec:	10bfffc4 	addi	r2,r2,-1
     bf0:	02008204 	movi	r8,520
     bf4:	d8800215 	stw	r2,8(sp)
     bf8:	d8800515 	stw	r2,20(sp)
     bfc:	d9c01b04 	addi	r7,sp,108
     c00:	d80b883a 	mov	r5,sp
     c04:	00bfffc4 	movi	r2,-1
     c08:	d8c00015 	stw	r3,0(sp)
     c0c:	d8c00415 	stw	r3,16(sp)
     c10:	da00030d 	sth	r8,12(sp)
     c14:	d880038d 	sth	r2,14(sp)
     c18:	0000c9c0 	call	c9c <___svfprintf_internal_r>
     c1c:	d8c00017 	ldw	r3,0(sp)
     c20:	18000005 	stb	zero,0(r3)
     c24:	dfc01a17 	ldw	ra,104(sp)
     c28:	dec01c04 	addi	sp,sp,112
     c2c:	f800283a 	ret

00000c30 <sprintf>:
     c30:	deffe304 	addi	sp,sp,-116
     c34:	2007883a 	mov	r3,r4
     c38:	dfc01a15 	stw	ra,104(sp)
     c3c:	d9801b15 	stw	r6,108(sp)
     c40:	d9c01c15 	stw	r7,112(sp)
     c44:	010000b4 	movhi	r4,2
     c48:	21236004 	addi	r4,r4,-29312
     c4c:	21000017 	ldw	r4,0(r4)
     c50:	00a00034 	movhi	r2,32768
     c54:	10bfffc4 	addi	r2,r2,-1
     c58:	280d883a 	mov	r6,r5
     c5c:	02008204 	movi	r8,520
     c60:	d8800215 	stw	r2,8(sp)
     c64:	d8800515 	stw	r2,20(sp)
     c68:	d9c01b04 	addi	r7,sp,108
     c6c:	d80b883a 	mov	r5,sp
     c70:	00bfffc4 	movi	r2,-1
     c74:	d8c00015 	stw	r3,0(sp)
     c78:	d8c00415 	stw	r3,16(sp)
     c7c:	da00030d 	sth	r8,12(sp)
     c80:	d880038d 	sth	r2,14(sp)
     c84:	0000c9c0 	call	c9c <___svfprintf_internal_r>
     c88:	d8c00017 	ldw	r3,0(sp)
     c8c:	18000005 	stb	zero,0(r3)
     c90:	dfc01a17 	ldw	ra,104(sp)
     c94:	dec01d04 	addi	sp,sp,116
     c98:	f800283a 	ret

00000c9c <___svfprintf_internal_r>:
     c9c:	deffb704 	addi	sp,sp,-292
     ca0:	dfc04815 	stw	ra,288(sp)
     ca4:	ddc04615 	stw	r23,280(sp)
     ca8:	d9402c15 	stw	r5,176(sp)
     cac:	d9003915 	stw	r4,228(sp)
     cb0:	302f883a 	mov	r23,r6
     cb4:	d9c02d15 	stw	r7,180(sp)
     cb8:	df004715 	stw	fp,284(sp)
     cbc:	dd804515 	stw	r22,276(sp)
     cc0:	dd404415 	stw	r21,272(sp)
     cc4:	dd004315 	stw	r20,268(sp)
     cc8:	dcc04215 	stw	r19,264(sp)
     ccc:	dc804115 	stw	r18,260(sp)
     cd0:	dc404015 	stw	r17,256(sp)
     cd4:	dc003f15 	stw	r16,252(sp)
     cd8:	00077d00 	call	77d0 <_localeconv_r>
     cdc:	10800017 	ldw	r2,0(r2)
     ce0:	1009883a 	mov	r4,r2
     ce4:	d8803415 	stw	r2,208(sp)
     ce8:	00096b00 	call	96b0 <strlen>
     cec:	d8c02c17 	ldw	r3,176(sp)
     cf0:	d8803815 	stw	r2,224(sp)
     cf4:	1880030b 	ldhu	r2,12(r3)
     cf8:	1080200c 	andi	r2,r2,128
     cfc:	10000226 	beq	r2,zero,d08 <___svfprintf_internal_r+0x6c>
     d00:	18800417 	ldw	r2,16(r3)
     d04:	10067f26 	beq	r2,zero,2704 <___svfprintf_internal_r+0x1a68>
     d08:	dcc03917 	ldw	r19,228(sp)
     d0c:	d8c00404 	addi	r3,sp,16
     d10:	05400074 	movhi	r21,1
     d14:	d9001e04 	addi	r4,sp,120
     d18:	ad5ac984 	addi	r21,r21,27430
     d1c:	d8c01e15 	stw	r3,120(sp)
     d20:	d8002015 	stw	zero,128(sp)
     d24:	d8001f15 	stw	zero,124(sp)
     d28:	d8003315 	stw	zero,204(sp)
     d2c:	d8003615 	stw	zero,216(sp)
     d30:	d8003715 	stw	zero,220(sp)
     d34:	1811883a 	mov	r8,r3
     d38:	d8003a15 	stw	zero,232(sp)
     d3c:	d8003b15 	stw	zero,236(sp)
     d40:	d8002f15 	stw	zero,188(sp)
     d44:	d9002815 	stw	r4,160(sp)
     d48:	b8800007 	ldb	r2,0(r23)
     d4c:	10026726 	beq	r2,zero,16ec <___svfprintf_internal_r+0xa50>
     d50:	00c00944 	movi	r3,37
     d54:	b821883a 	mov	r16,r23
     d58:	10c0021e 	bne	r2,r3,d64 <___svfprintf_internal_r+0xc8>
     d5c:	00001406 	br	db0 <___svfprintf_internal_r+0x114>
     d60:	10c00326 	beq	r2,r3,d70 <___svfprintf_internal_r+0xd4>
     d64:	84000044 	addi	r16,r16,1
     d68:	80800007 	ldb	r2,0(r16)
     d6c:	103ffc1e 	bne	r2,zero,d60 <__alt_mem_onchip_memory+0xf7800d60>
     d70:	85e3c83a 	sub	r17,r16,r23
     d74:	88000e26 	beq	r17,zero,db0 <___svfprintf_internal_r+0x114>
     d78:	d8c02017 	ldw	r3,128(sp)
     d7c:	d8801f17 	ldw	r2,124(sp)
     d80:	45c00015 	stw	r23,0(r8)
     d84:	1c47883a 	add	r3,r3,r17
     d88:	10800044 	addi	r2,r2,1
     d8c:	d8c02015 	stw	r3,128(sp)
     d90:	44400115 	stw	r17,4(r8)
     d94:	d8801f15 	stw	r2,124(sp)
     d98:	00c001c4 	movi	r3,7
     d9c:	18809716 	blt	r3,r2,ffc <___svfprintf_internal_r+0x360>
     da0:	42000204 	addi	r8,r8,8
     da4:	d9402f17 	ldw	r5,188(sp)
     da8:	2c4b883a 	add	r5,r5,r17
     dac:	d9402f15 	stw	r5,188(sp)
     db0:	80800007 	ldb	r2,0(r16)
     db4:	10009826 	beq	r2,zero,1018 <___svfprintf_internal_r+0x37c>
     db8:	84400047 	ldb	r17,1(r16)
     dbc:	00bfffc4 	movi	r2,-1
     dc0:	85c00044 	addi	r23,r16,1
     dc4:	d8002785 	stb	zero,158(sp)
     dc8:	0007883a 	mov	r3,zero
     dcc:	000f883a 	mov	r7,zero
     dd0:	d8802915 	stw	r2,164(sp)
     dd4:	d8003115 	stw	zero,196(sp)
     dd8:	0025883a 	mov	r18,zero
     ddc:	01401604 	movi	r5,88
     de0:	01800244 	movi	r6,9
     de4:	02800a84 	movi	r10,42
     de8:	02401b04 	movi	r9,108
     dec:	bdc00044 	addi	r23,r23,1
     df0:	88bff804 	addi	r2,r17,-32
     df4:	2882f036 	bltu	r5,r2,19b8 <___svfprintf_internal_r+0xd1c>
     df8:	100490ba 	slli	r2,r2,2
     dfc:	01000034 	movhi	r4,0
     e00:	21038404 	addi	r4,r4,3600
     e04:	1105883a 	add	r2,r2,r4
     e08:	10800017 	ldw	r2,0(r2)
     e0c:	1000683a 	jmp	r2
     e10:	00001920 	cmpeqi	zero,zero,100
     e14:	000019b8 	rdprs	zero,zero,102
     e18:	000019b8 	rdprs	zero,zero,102
     e1c:	00001914 	movui	zero,100
     e20:	000019b8 	rdprs	zero,zero,102
     e24:	000019b8 	rdprs	zero,zero,102
     e28:	000019b8 	rdprs	zero,zero,102
     e2c:	000019b8 	rdprs	zero,zero,102
     e30:	000019b8 	rdprs	zero,zero,102
     e34:	000019b8 	rdprs	zero,zero,102
     e38:	00001074 	movhi	zero,65
     e3c:	00001850 	cmplti	zero,zero,97
     e40:	000019b8 	rdprs	zero,zero,102
     e44:	00000f84 	movi	zero,62
     e48:	0000109c 	xori	zero,zero,66
     e4c:	000019b8 	rdprs	zero,zero,102
     e50:	00001110 	cmplti	zero,zero,68
     e54:	000010dc 	xori	zero,zero,67
     e58:	000010dc 	xori	zero,zero,67
     e5c:	000010dc 	xori	zero,zero,67
     e60:	000010dc 	xori	zero,zero,67
     e64:	000010dc 	xori	zero,zero,67
     e68:	000010dc 	xori	zero,zero,67
     e6c:	000010dc 	xori	zero,zero,67
     e70:	000010dc 	xori	zero,zero,67
     e74:	000010dc 	xori	zero,zero,67
     e78:	000019b8 	rdprs	zero,zero,102
     e7c:	000019b8 	rdprs	zero,zero,102
     e80:	000019b8 	rdprs	zero,zero,102
     e84:	000019b8 	rdprs	zero,zero,102
     e88:	000019b8 	rdprs	zero,zero,102
     e8c:	000019b8 	rdprs	zero,zero,102
     e90:	000019b8 	rdprs	zero,zero,102
     e94:	000019b8 	rdprs	zero,zero,102
     e98:	000019b8 	rdprs	zero,zero,102
     e9c:	000019b8 	rdprs	zero,zero,102
     ea0:	000011c8 	cmpgei	zero,zero,71
     ea4:	0000111c 	xori	zero,zero,68
     ea8:	000019b8 	rdprs	zero,zero,102
     eac:	0000111c 	xori	zero,zero,68
     eb0:	000019b8 	rdprs	zero,zero,102
     eb4:	000019b8 	rdprs	zero,zero,102
     eb8:	000019b8 	rdprs	zero,zero,102
     ebc:	000019b8 	rdprs	zero,zero,102
     ec0:	000011bc 	xorhi	zero,zero,70
     ec4:	000019b8 	rdprs	zero,zero,102
     ec8:	000019b8 	rdprs	zero,zero,102
     ecc:	00001284 	movi	zero,74
     ed0:	000019b8 	rdprs	zero,zero,102
     ed4:	000019b8 	rdprs	zero,zero,102
     ed8:	000019b8 	rdprs	zero,zero,102
     edc:	000019b8 	rdprs	zero,zero,102
     ee0:	000019b8 	rdprs	zero,zero,102
     ee4:	000016f4 	movhi	zero,91
     ee8:	000019b8 	rdprs	zero,zero,102
     eec:	000019b8 	rdprs	zero,zero,102
     ef0:	00001754 	movui	zero,93
     ef4:	000019b8 	rdprs	zero,zero,102
     ef8:	000019b8 	rdprs	zero,zero,102
     efc:	000019b8 	rdprs	zero,zero,102
     f00:	000019b8 	rdprs	zero,zero,102
     f04:	000019b8 	rdprs	zero,zero,102
     f08:	000019b8 	rdprs	zero,zero,102
     f0c:	000019b8 	rdprs	zero,zero,102
     f10:	000019b8 	rdprs	zero,zero,102
     f14:	000019b8 	rdprs	zero,zero,102
     f18:	000019b8 	rdprs	zero,zero,102
     f1c:	00001804 	movi	zero,96
     f20:	00001940 	call	194 <alt_irq_handler+0x98>
     f24:	0000111c 	xori	zero,zero,68
     f28:	0000111c 	xori	zero,zero,68
     f2c:	0000111c 	xori	zero,zero,68
     f30:	00001994 	movui	zero,102
     f34:	00001940 	call	194 <alt_irq_handler+0x98>
     f38:	000019b8 	rdprs	zero,zero,102
     f3c:	000019b8 	rdprs	zero,zero,102
     f40:	00001950 	cmplti	zero,zero,101
     f44:	000019b8 	rdprs	zero,zero,102
     f48:	00001960 	cmpeqi	zero,zero,101
     f4c:	00001840 	call	184 <alt_irq_handler+0x88>
     f50:	00000f90 	cmplti	zero,zero,62
     f54:	00001860 	cmpeqi	zero,zero,97
     f58:	000019b8 	rdprs	zero,zero,102
     f5c:	0000186c 	andhi	zero,zero,97
     f60:	000019b8 	rdprs	zero,zero,102
     f64:	000018c8 	cmpgei	zero,zero,99
     f68:	000019b8 	rdprs	zero,zero,102
     f6c:	000019b8 	rdprs	zero,zero,102
     f70:	000018d8 	cmpnei	zero,zero,99
     f74:	d9003117 	ldw	r4,196(sp)
     f78:	d8802d15 	stw	r2,180(sp)
     f7c:	0109c83a 	sub	r4,zero,r4
     f80:	d9003115 	stw	r4,196(sp)
     f84:	94800114 	ori	r18,r18,4
     f88:	bc400007 	ldb	r17,0(r23)
     f8c:	003f9706 	br	dec <__alt_mem_onchip_memory+0xf7800dec>
     f90:	00800c04 	movi	r2,48
     f94:	d9002d17 	ldw	r4,180(sp)
     f98:	d9402917 	ldw	r5,164(sp)
     f9c:	d8802705 	stb	r2,156(sp)
     fa0:	00801e04 	movi	r2,120
     fa4:	d8802745 	stb	r2,157(sp)
     fa8:	d8002785 	stb	zero,158(sp)
     fac:	20c00104 	addi	r3,r4,4
     fb0:	25000017 	ldw	r20,0(r4)
     fb4:	002d883a 	mov	r22,zero
     fb8:	90800094 	ori	r2,r18,2
     fbc:	28028616 	blt	r5,zero,19d8 <___svfprintf_internal_r+0xd3c>
     fc0:	00bfdfc4 	movi	r2,-129
     fc4:	90a4703a 	and	r18,r18,r2
     fc8:	d8c02d15 	stw	r3,180(sp)
     fcc:	94800094 	ori	r18,r18,2
     fd0:	a002731e 	bne	r20,zero,19a0 <___svfprintf_internal_r+0xd04>
     fd4:	00800074 	movhi	r2,1
     fd8:	109ac204 	addi	r2,r2,27400
     fdc:	d8803a15 	stw	r2,232(sp)
     fe0:	04401e04 	movi	r17,120
     fe4:	d8c02917 	ldw	r3,164(sp)
     fe8:	0039883a 	mov	fp,zero
     fec:	1801d526 	beq	r3,zero,1744 <___svfprintf_internal_r+0xaa8>
     ff0:	0029883a 	mov	r20,zero
     ff4:	002d883a 	mov	r22,zero
     ff8:	0001f106 	br	17c0 <___svfprintf_internal_r+0xb24>
     ffc:	d9402c17 	ldw	r5,176(sp)
    1000:	d9801e04 	addi	r6,sp,120
    1004:	9809883a 	mov	r4,r19
    1008:	00097480 	call	9748 <__ssprint_r>
    100c:	1000081e 	bne	r2,zero,1030 <___svfprintf_internal_r+0x394>
    1010:	da000404 	addi	r8,sp,16
    1014:	003f6306 	br	da4 <__alt_mem_onchip_memory+0xf7800da4>
    1018:	d8802017 	ldw	r2,128(sp)
    101c:	10000426 	beq	r2,zero,1030 <___svfprintf_internal_r+0x394>
    1020:	d9402c17 	ldw	r5,176(sp)
    1024:	d9003917 	ldw	r4,228(sp)
    1028:	d9801e04 	addi	r6,sp,120
    102c:	00097480 	call	9748 <__ssprint_r>
    1030:	d8802c17 	ldw	r2,176(sp)
    1034:	10c0030b 	ldhu	r3,12(r2)
    1038:	d8802f17 	ldw	r2,188(sp)
    103c:	18c0100c 	andi	r3,r3,64
    1040:	1805f51e 	bne	r3,zero,2818 <___svfprintf_internal_r+0x1b7c>
    1044:	dfc04817 	ldw	ra,288(sp)
    1048:	df004717 	ldw	fp,284(sp)
    104c:	ddc04617 	ldw	r23,280(sp)
    1050:	dd804517 	ldw	r22,276(sp)
    1054:	dd404417 	ldw	r21,272(sp)
    1058:	dd004317 	ldw	r20,268(sp)
    105c:	dcc04217 	ldw	r19,264(sp)
    1060:	dc804117 	ldw	r18,260(sp)
    1064:	dc404017 	ldw	r17,256(sp)
    1068:	dc003f17 	ldw	r16,252(sp)
    106c:	dec04904 	addi	sp,sp,292
    1070:	f800283a 	ret
    1074:	d8802d17 	ldw	r2,180(sp)
    1078:	d9002d17 	ldw	r4,180(sp)
    107c:	10800017 	ldw	r2,0(r2)
    1080:	d8803115 	stw	r2,196(sp)
    1084:	20800104 	addi	r2,r4,4
    1088:	d9003117 	ldw	r4,196(sp)
    108c:	203fb916 	blt	r4,zero,f74 <__alt_mem_onchip_memory+0xf7800f74>
    1090:	d8802d15 	stw	r2,180(sp)
    1094:	bc400007 	ldb	r17,0(r23)
    1098:	003f5406 	br	dec <__alt_mem_onchip_memory+0xf7800dec>
    109c:	bc400007 	ldb	r17,0(r23)
    10a0:	bac00044 	addi	r11,r23,1
    10a4:	8a873926 	beq	r17,r10,2d8c <___svfprintf_internal_r+0x20f0>
    10a8:	88bff404 	addi	r2,r17,-48
    10ac:	0009883a 	mov	r4,zero
    10b0:	30868836 	bltu	r6,r2,2ad4 <___svfprintf_internal_r+0x1e38>
    10b4:	5c400007 	ldb	r17,0(r11)
    10b8:	210002a4 	muli	r4,r4,10
    10bc:	5dc00044 	addi	r23,r11,1
    10c0:	b817883a 	mov	r11,r23
    10c4:	2089883a 	add	r4,r4,r2
    10c8:	88bff404 	addi	r2,r17,-48
    10cc:	30bff92e 	bgeu	r6,r2,10b4 <__alt_mem_onchip_memory+0xf78010b4>
    10d0:	2005d716 	blt	r4,zero,2830 <___svfprintf_internal_r+0x1b94>
    10d4:	d9002915 	stw	r4,164(sp)
    10d8:	003f4506 	br	df0 <__alt_mem_onchip_memory+0xf7800df0>
    10dc:	b809883a 	mov	r4,r23
    10e0:	d8003115 	stw	zero,196(sp)
    10e4:	88bff404 	addi	r2,r17,-48
    10e8:	0017883a 	mov	r11,zero
    10ec:	24400007 	ldb	r17,0(r4)
    10f0:	5ac002a4 	muli	r11,r11,10
    10f4:	bdc00044 	addi	r23,r23,1
    10f8:	b809883a 	mov	r4,r23
    10fc:	12d7883a 	add	r11,r2,r11
    1100:	88bff404 	addi	r2,r17,-48
    1104:	30bff92e 	bgeu	r6,r2,10ec <__alt_mem_onchip_memory+0xf78010ec>
    1108:	dac03115 	stw	r11,196(sp)
    110c:	003f3806 	br	df0 <__alt_mem_onchip_memory+0xf7800df0>
    1110:	94802014 	ori	r18,r18,128
    1114:	bc400007 	ldb	r17,0(r23)
    1118:	003f3406 	br	dec <__alt_mem_onchip_memory+0xf7800dec>
    111c:	18c03fcc 	andi	r3,r3,255
    1120:	1807471e 	bne	r3,zero,2e40 <___svfprintf_internal_r+0x21a4>
    1124:	9080020c 	andi	r2,r18,8
    1128:	10047d26 	beq	r2,zero,2320 <___svfprintf_internal_r+0x1684>
    112c:	d8c02d17 	ldw	r3,180(sp)
    1130:	d9002d17 	ldw	r4,180(sp)
    1134:	d9402d17 	ldw	r5,180(sp)
    1138:	18c00017 	ldw	r3,0(r3)
    113c:	21000117 	ldw	r4,4(r4)
    1140:	29400204 	addi	r5,r5,8
    1144:	d8c03615 	stw	r3,216(sp)
    1148:	d9003715 	stw	r4,220(sp)
    114c:	d9402d15 	stw	r5,180(sp)
    1150:	d9003617 	ldw	r4,216(sp)
    1154:	d9403717 	ldw	r5,220(sp)
    1158:	da003e15 	stw	r8,248(sp)
    115c:	04000044 	movi	r16,1
    1160:	00093d00 	call	93d0 <__fpclassifyd>
    1164:	da003e17 	ldw	r8,248(sp)
    1168:	14044b1e 	bne	r2,r16,2298 <___svfprintf_internal_r+0x15fc>
    116c:	d9003617 	ldw	r4,216(sp)
    1170:	d9403717 	ldw	r5,220(sp)
    1174:	000d883a 	mov	r6,zero
    1178:	000f883a 	mov	r7,zero
    117c:	000f3f40 	call	f3f4 <__ledf2>
    1180:	da003e17 	ldw	r8,248(sp)
    1184:	1005f316 	blt	r2,zero,2954 <___svfprintf_internal_r+0x1cb8>
    1188:	df002783 	ldbu	fp,158(sp)
    118c:	008011c4 	movi	r2,71
    1190:	1445590e 	bge	r2,r17,26f8 <___svfprintf_internal_r+0x1a5c>
    1194:	04000074 	movhi	r16,1
    1198:	841aba04 	addi	r16,r16,27368
    119c:	00c000c4 	movi	r3,3
    11a0:	00bfdfc4 	movi	r2,-129
    11a4:	d8c02a15 	stw	r3,168(sp)
    11a8:	90a4703a 	and	r18,r18,r2
    11ac:	d8c02e15 	stw	r3,184(sp)
    11b0:	d8002915 	stw	zero,164(sp)
    11b4:	d8003215 	stw	zero,200(sp)
    11b8:	00006606 	br	1354 <___svfprintf_internal_r+0x6b8>
    11bc:	94800214 	ori	r18,r18,8
    11c0:	bc400007 	ldb	r17,0(r23)
    11c4:	003f0906 	br	dec <__alt_mem_onchip_memory+0xf7800dec>
    11c8:	18c03fcc 	andi	r3,r3,255
    11cc:	1807181e 	bne	r3,zero,2e30 <___svfprintf_internal_r+0x2194>
    11d0:	94800414 	ori	r18,r18,16
    11d4:	9080080c 	andi	r2,r18,32
    11d8:	10039626 	beq	r2,zero,2034 <___svfprintf_internal_r+0x1398>
    11dc:	d9402d17 	ldw	r5,180(sp)
    11e0:	28800117 	ldw	r2,4(r5)
    11e4:	2d000017 	ldw	r20,0(r5)
    11e8:	29400204 	addi	r5,r5,8
    11ec:	d9402d15 	stw	r5,180(sp)
    11f0:	102d883a 	mov	r22,r2
    11f4:	10039816 	blt	r2,zero,2058 <___svfprintf_internal_r+0x13bc>
    11f8:	d9402917 	ldw	r5,164(sp)
    11fc:	df002783 	ldbu	fp,158(sp)
    1200:	2803ab16 	blt	r5,zero,20b0 <___svfprintf_internal_r+0x1414>
    1204:	00ffdfc4 	movi	r3,-129
    1208:	a584b03a 	or	r2,r20,r22
    120c:	90e4703a 	and	r18,r18,r3
    1210:	10014a26 	beq	r2,zero,173c <___svfprintf_internal_r+0xaa0>
    1214:	b0034b26 	beq	r22,zero,1f44 <___svfprintf_internal_r+0x12a8>
    1218:	dc402a15 	stw	r17,168(sp)
    121c:	dc001e04 	addi	r16,sp,120
    1220:	b023883a 	mov	r17,r22
    1224:	402d883a 	mov	r22,r8
    1228:	a009883a 	mov	r4,r20
    122c:	880b883a 	mov	r5,r17
    1230:	01800284 	movi	r6,10
    1234:	000f883a 	mov	r7,zero
    1238:	000dbc40 	call	dbc4 <__umoddi3>
    123c:	10800c04 	addi	r2,r2,48
    1240:	843fffc4 	addi	r16,r16,-1
    1244:	a009883a 	mov	r4,r20
    1248:	880b883a 	mov	r5,r17
    124c:	80800005 	stb	r2,0(r16)
    1250:	01800284 	movi	r6,10
    1254:	000f883a 	mov	r7,zero
    1258:	000d64c0 	call	d64c <__udivdi3>
    125c:	1029883a 	mov	r20,r2
    1260:	10c4b03a 	or	r2,r2,r3
    1264:	1823883a 	mov	r17,r3
    1268:	103fef1e 	bne	r2,zero,1228 <__alt_mem_onchip_memory+0xf7801228>
    126c:	d8c02817 	ldw	r3,160(sp)
    1270:	dc402a17 	ldw	r17,168(sp)
    1274:	b011883a 	mov	r8,r22
    1278:	1c07c83a 	sub	r3,r3,r16
    127c:	d8c02e15 	stw	r3,184(sp)
    1280:	00002e06 	br	133c <___svfprintf_internal_r+0x6a0>
    1284:	18c03fcc 	andi	r3,r3,255
    1288:	1806e71e 	bne	r3,zero,2e28 <___svfprintf_internal_r+0x218c>
    128c:	94800414 	ori	r18,r18,16
    1290:	9080080c 	andi	r2,r18,32
    1294:	1002d426 	beq	r2,zero,1de8 <___svfprintf_internal_r+0x114c>
    1298:	d9402d17 	ldw	r5,180(sp)
    129c:	d8c02917 	ldw	r3,164(sp)
    12a0:	d8002785 	stb	zero,158(sp)
    12a4:	28800204 	addi	r2,r5,8
    12a8:	2d000017 	ldw	r20,0(r5)
    12ac:	2d800117 	ldw	r22,4(r5)
    12b0:	18041516 	blt	r3,zero,2308 <___svfprintf_internal_r+0x166c>
    12b4:	013fdfc4 	movi	r4,-129
    12b8:	a586b03a 	or	r3,r20,r22
    12bc:	d8802d15 	stw	r2,180(sp)
    12c0:	9124703a 	and	r18,r18,r4
    12c4:	1802d51e 	bne	r3,zero,1e1c <___svfprintf_internal_r+0x1180>
    12c8:	d9402917 	ldw	r5,164(sp)
    12cc:	0039883a 	mov	fp,zero
    12d0:	2806be26 	beq	r5,zero,2dcc <___svfprintf_internal_r+0x2130>
    12d4:	0029883a 	mov	r20,zero
    12d8:	002d883a 	mov	r22,zero
    12dc:	dc001e04 	addi	r16,sp,120
    12e0:	a006d0fa 	srli	r3,r20,3
    12e4:	b008977a 	slli	r4,r22,29
    12e8:	b02cd0fa 	srli	r22,r22,3
    12ec:	a50001cc 	andi	r20,r20,7
    12f0:	a0800c04 	addi	r2,r20,48
    12f4:	843fffc4 	addi	r16,r16,-1
    12f8:	20e8b03a 	or	r20,r4,r3
    12fc:	80800005 	stb	r2,0(r16)
    1300:	a586b03a 	or	r3,r20,r22
    1304:	183ff61e 	bne	r3,zero,12e0 <__alt_mem_onchip_memory+0xf78012e0>
    1308:	90c0004c 	andi	r3,r18,1
    130c:	18013926 	beq	r3,zero,17f4 <___svfprintf_internal_r+0xb58>
    1310:	10803fcc 	andi	r2,r2,255
    1314:	1080201c 	xori	r2,r2,128
    1318:	10bfe004 	addi	r2,r2,-128
    131c:	00c00c04 	movi	r3,48
    1320:	10c13426 	beq	r2,r3,17f4 <___svfprintf_internal_r+0xb58>
    1324:	80ffffc5 	stb	r3,-1(r16)
    1328:	d8c02817 	ldw	r3,160(sp)
    132c:	80bfffc4 	addi	r2,r16,-1
    1330:	1021883a 	mov	r16,r2
    1334:	1887c83a 	sub	r3,r3,r2
    1338:	d8c02e15 	stw	r3,184(sp)
    133c:	d8802e17 	ldw	r2,184(sp)
    1340:	d9002917 	ldw	r4,164(sp)
    1344:	1100010e 	bge	r2,r4,134c <___svfprintf_internal_r+0x6b0>
    1348:	2005883a 	mov	r2,r4
    134c:	d8802a15 	stw	r2,168(sp)
    1350:	d8003215 	stw	zero,200(sp)
    1354:	e7003fcc 	andi	fp,fp,255
    1358:	e700201c 	xori	fp,fp,128
    135c:	e73fe004 	addi	fp,fp,-128
    1360:	e0000326 	beq	fp,zero,1370 <___svfprintf_internal_r+0x6d4>
    1364:	d8c02a17 	ldw	r3,168(sp)
    1368:	18c00044 	addi	r3,r3,1
    136c:	d8c02a15 	stw	r3,168(sp)
    1370:	90c0008c 	andi	r3,r18,2
    1374:	d8c02b15 	stw	r3,172(sp)
    1378:	18000326 	beq	r3,zero,1388 <___svfprintf_internal_r+0x6ec>
    137c:	d8c02a17 	ldw	r3,168(sp)
    1380:	18c00084 	addi	r3,r3,2
    1384:	d8c02a15 	stw	r3,168(sp)
    1388:	90c0210c 	andi	r3,r18,132
    138c:	d8c03015 	stw	r3,192(sp)
    1390:	1801a11e 	bne	r3,zero,1a18 <___svfprintf_internal_r+0xd7c>
    1394:	d9003117 	ldw	r4,196(sp)
    1398:	d8c02a17 	ldw	r3,168(sp)
    139c:	20e9c83a 	sub	r20,r4,r3
    13a0:	05019d0e 	bge	zero,r20,1a18 <___svfprintf_internal_r+0xd7c>
    13a4:	02400404 	movi	r9,16
    13a8:	d8c02017 	ldw	r3,128(sp)
    13ac:	d8801f17 	ldw	r2,124(sp)
    13b0:	4d051b0e 	bge	r9,r20,2820 <___svfprintf_internal_r+0x1b84>
    13b4:	01400074 	movhi	r5,1
    13b8:	295acd84 	addi	r5,r5,27446
    13bc:	dc403c15 	stw	r17,240(sp)
    13c0:	d9403515 	stw	r5,212(sp)
    13c4:	a023883a 	mov	r17,r20
    13c8:	482d883a 	mov	r22,r9
    13cc:	9029883a 	mov	r20,r18
    13d0:	070001c4 	movi	fp,7
    13d4:	8025883a 	mov	r18,r16
    13d8:	dc002c17 	ldw	r16,176(sp)
    13dc:	00000306 	br	13ec <___svfprintf_internal_r+0x750>
    13e0:	8c7ffc04 	addi	r17,r17,-16
    13e4:	42000204 	addi	r8,r8,8
    13e8:	b440130e 	bge	r22,r17,1438 <___svfprintf_internal_r+0x79c>
    13ec:	01000074 	movhi	r4,1
    13f0:	18c00404 	addi	r3,r3,16
    13f4:	10800044 	addi	r2,r2,1
    13f8:	211acd84 	addi	r4,r4,27446
    13fc:	41000015 	stw	r4,0(r8)
    1400:	45800115 	stw	r22,4(r8)
    1404:	d8c02015 	stw	r3,128(sp)
    1408:	d8801f15 	stw	r2,124(sp)
    140c:	e0bff40e 	bge	fp,r2,13e0 <__alt_mem_onchip_memory+0xf78013e0>
    1410:	d9801e04 	addi	r6,sp,120
    1414:	800b883a 	mov	r5,r16
    1418:	9809883a 	mov	r4,r19
    141c:	00097480 	call	9748 <__ssprint_r>
    1420:	103f031e 	bne	r2,zero,1030 <__alt_mem_onchip_memory+0xf7801030>
    1424:	8c7ffc04 	addi	r17,r17,-16
    1428:	d8c02017 	ldw	r3,128(sp)
    142c:	d8801f17 	ldw	r2,124(sp)
    1430:	da000404 	addi	r8,sp,16
    1434:	b47fed16 	blt	r22,r17,13ec <__alt_mem_onchip_memory+0xf78013ec>
    1438:	9021883a 	mov	r16,r18
    143c:	a025883a 	mov	r18,r20
    1440:	8829883a 	mov	r20,r17
    1444:	dc403c17 	ldw	r17,240(sp)
    1448:	d9403517 	ldw	r5,212(sp)
    144c:	a0c7883a 	add	r3,r20,r3
    1450:	10800044 	addi	r2,r2,1
    1454:	41400015 	stw	r5,0(r8)
    1458:	45000115 	stw	r20,4(r8)
    145c:	d8c02015 	stw	r3,128(sp)
    1460:	d8801f15 	stw	r2,124(sp)
    1464:	010001c4 	movi	r4,7
    1468:	20829f16 	blt	r4,r2,1ee8 <___svfprintf_internal_r+0x124c>
    146c:	df002787 	ldb	fp,158(sp)
    1470:	42000204 	addi	r8,r8,8
    1474:	e0000c26 	beq	fp,zero,14a8 <___svfprintf_internal_r+0x80c>
    1478:	d8801f17 	ldw	r2,124(sp)
    147c:	d9002784 	addi	r4,sp,158
    1480:	18c00044 	addi	r3,r3,1
    1484:	10800044 	addi	r2,r2,1
    1488:	41000015 	stw	r4,0(r8)
    148c:	01000044 	movi	r4,1
    1490:	41000115 	stw	r4,4(r8)
    1494:	d8c02015 	stw	r3,128(sp)
    1498:	d8801f15 	stw	r2,124(sp)
    149c:	010001c4 	movi	r4,7
    14a0:	20823816 	blt	r4,r2,1d84 <___svfprintf_internal_r+0x10e8>
    14a4:	42000204 	addi	r8,r8,8
    14a8:	d8802b17 	ldw	r2,172(sp)
    14ac:	10000c26 	beq	r2,zero,14e0 <___svfprintf_internal_r+0x844>
    14b0:	d8801f17 	ldw	r2,124(sp)
    14b4:	d9002704 	addi	r4,sp,156
    14b8:	18c00084 	addi	r3,r3,2
    14bc:	10800044 	addi	r2,r2,1
    14c0:	41000015 	stw	r4,0(r8)
    14c4:	01000084 	movi	r4,2
    14c8:	41000115 	stw	r4,4(r8)
    14cc:	d8c02015 	stw	r3,128(sp)
    14d0:	d8801f15 	stw	r2,124(sp)
    14d4:	010001c4 	movi	r4,7
    14d8:	20823216 	blt	r4,r2,1da4 <___svfprintf_internal_r+0x1108>
    14dc:	42000204 	addi	r8,r8,8
    14e0:	d9003017 	ldw	r4,192(sp)
    14e4:	00802004 	movi	r2,128
    14e8:	20819726 	beq	r4,r2,1b48 <___svfprintf_internal_r+0xeac>
    14ec:	d9402917 	ldw	r5,164(sp)
    14f0:	d8802e17 	ldw	r2,184(sp)
    14f4:	28adc83a 	sub	r22,r5,r2
    14f8:	05802f0e 	bge	zero,r22,15b8 <___svfprintf_internal_r+0x91c>
    14fc:	07000404 	movi	fp,16
    1500:	d8801f17 	ldw	r2,124(sp)
    1504:	e583c00e 	bge	fp,r22,2408 <___svfprintf_internal_r+0x176c>
    1508:	01400074 	movhi	r5,1
    150c:	295ac984 	addi	r5,r5,27430
    1510:	dc402915 	stw	r17,164(sp)
    1514:	d9402b15 	stw	r5,172(sp)
    1518:	b023883a 	mov	r17,r22
    151c:	050001c4 	movi	r20,7
    1520:	902d883a 	mov	r22,r18
    1524:	8025883a 	mov	r18,r16
    1528:	dc002c17 	ldw	r16,176(sp)
    152c:	00000306 	br	153c <___svfprintf_internal_r+0x8a0>
    1530:	8c7ffc04 	addi	r17,r17,-16
    1534:	42000204 	addi	r8,r8,8
    1538:	e440110e 	bge	fp,r17,1580 <___svfprintf_internal_r+0x8e4>
    153c:	18c00404 	addi	r3,r3,16
    1540:	10800044 	addi	r2,r2,1
    1544:	45400015 	stw	r21,0(r8)
    1548:	47000115 	stw	fp,4(r8)
    154c:	d8c02015 	stw	r3,128(sp)
    1550:	d8801f15 	stw	r2,124(sp)
    1554:	a0bff60e 	bge	r20,r2,1530 <__alt_mem_onchip_memory+0xf7801530>
    1558:	d9801e04 	addi	r6,sp,120
    155c:	800b883a 	mov	r5,r16
    1560:	9809883a 	mov	r4,r19
    1564:	00097480 	call	9748 <__ssprint_r>
    1568:	103eb11e 	bne	r2,zero,1030 <__alt_mem_onchip_memory+0xf7801030>
    156c:	8c7ffc04 	addi	r17,r17,-16
    1570:	d8c02017 	ldw	r3,128(sp)
    1574:	d8801f17 	ldw	r2,124(sp)
    1578:	da000404 	addi	r8,sp,16
    157c:	e47fef16 	blt	fp,r17,153c <__alt_mem_onchip_memory+0xf780153c>
    1580:	9021883a 	mov	r16,r18
    1584:	b025883a 	mov	r18,r22
    1588:	882d883a 	mov	r22,r17
    158c:	dc402917 	ldw	r17,164(sp)
    1590:	d9002b17 	ldw	r4,172(sp)
    1594:	1d87883a 	add	r3,r3,r22
    1598:	10800044 	addi	r2,r2,1
    159c:	41000015 	stw	r4,0(r8)
    15a0:	45800115 	stw	r22,4(r8)
    15a4:	d8c02015 	stw	r3,128(sp)
    15a8:	d8801f15 	stw	r2,124(sp)
    15ac:	010001c4 	movi	r4,7
    15b0:	2081ec16 	blt	r4,r2,1d64 <___svfprintf_internal_r+0x10c8>
    15b4:	42000204 	addi	r8,r8,8
    15b8:	9080400c 	andi	r2,r18,256
    15bc:	1001181e 	bne	r2,zero,1a20 <___svfprintf_internal_r+0xd84>
    15c0:	d9402e17 	ldw	r5,184(sp)
    15c4:	d8801f17 	ldw	r2,124(sp)
    15c8:	44000015 	stw	r16,0(r8)
    15cc:	1947883a 	add	r3,r3,r5
    15d0:	10800044 	addi	r2,r2,1
    15d4:	41400115 	stw	r5,4(r8)
    15d8:	d8c02015 	stw	r3,128(sp)
    15dc:	d8801f15 	stw	r2,124(sp)
    15e0:	010001c4 	movi	r4,7
    15e4:	2081d116 	blt	r4,r2,1d2c <___svfprintf_internal_r+0x1090>
    15e8:	42000204 	addi	r8,r8,8
    15ec:	9480010c 	andi	r18,r18,4
    15f0:	90003226 	beq	r18,zero,16bc <___svfprintf_internal_r+0xa20>
    15f4:	d9403117 	ldw	r5,196(sp)
    15f8:	d8802a17 	ldw	r2,168(sp)
    15fc:	28a1c83a 	sub	r16,r5,r2
    1600:	04002e0e 	bge	zero,r16,16bc <___svfprintf_internal_r+0xa20>
    1604:	04400404 	movi	r17,16
    1608:	d8801f17 	ldw	r2,124(sp)
    160c:	8c04b90e 	bge	r17,r16,28f4 <___svfprintf_internal_r+0x1c58>
    1610:	01400074 	movhi	r5,1
    1614:	295acd84 	addi	r5,r5,27446
    1618:	d9403515 	stw	r5,212(sp)
    161c:	048001c4 	movi	r18,7
    1620:	dd002c17 	ldw	r20,176(sp)
    1624:	00000306 	br	1634 <___svfprintf_internal_r+0x998>
    1628:	843ffc04 	addi	r16,r16,-16
    162c:	42000204 	addi	r8,r8,8
    1630:	8c00130e 	bge	r17,r16,1680 <___svfprintf_internal_r+0x9e4>
    1634:	01000074 	movhi	r4,1
    1638:	18c00404 	addi	r3,r3,16
    163c:	10800044 	addi	r2,r2,1
    1640:	211acd84 	addi	r4,r4,27446
    1644:	41000015 	stw	r4,0(r8)
    1648:	44400115 	stw	r17,4(r8)
    164c:	d8c02015 	stw	r3,128(sp)
    1650:	d8801f15 	stw	r2,124(sp)
    1654:	90bff40e 	bge	r18,r2,1628 <__alt_mem_onchip_memory+0xf7801628>
    1658:	d9801e04 	addi	r6,sp,120
    165c:	a00b883a 	mov	r5,r20
    1660:	9809883a 	mov	r4,r19
    1664:	00097480 	call	9748 <__ssprint_r>
    1668:	103e711e 	bne	r2,zero,1030 <__alt_mem_onchip_memory+0xf7801030>
    166c:	843ffc04 	addi	r16,r16,-16
    1670:	d8c02017 	ldw	r3,128(sp)
    1674:	d8801f17 	ldw	r2,124(sp)
    1678:	da000404 	addi	r8,sp,16
    167c:	8c3fed16 	blt	r17,r16,1634 <__alt_mem_onchip_memory+0xf7801634>
    1680:	d9403517 	ldw	r5,212(sp)
    1684:	1c07883a 	add	r3,r3,r16
    1688:	10800044 	addi	r2,r2,1
    168c:	41400015 	stw	r5,0(r8)
    1690:	44000115 	stw	r16,4(r8)
    1694:	d8c02015 	stw	r3,128(sp)
    1698:	d8801f15 	stw	r2,124(sp)
    169c:	010001c4 	movi	r4,7
    16a0:	2080060e 	bge	r4,r2,16bc <___svfprintf_internal_r+0xa20>
    16a4:	d9402c17 	ldw	r5,176(sp)
    16a8:	d9801e04 	addi	r6,sp,120
    16ac:	9809883a 	mov	r4,r19
    16b0:	00097480 	call	9748 <__ssprint_r>
    16b4:	103e5e1e 	bne	r2,zero,1030 <__alt_mem_onchip_memory+0xf7801030>
    16b8:	d8c02017 	ldw	r3,128(sp)
    16bc:	d8803117 	ldw	r2,196(sp)
    16c0:	d9002a17 	ldw	r4,168(sp)
    16c4:	1100010e 	bge	r2,r4,16cc <___svfprintf_internal_r+0xa30>
    16c8:	2005883a 	mov	r2,r4
    16cc:	d9402f17 	ldw	r5,188(sp)
    16d0:	288b883a 	add	r5,r5,r2
    16d4:	d9402f15 	stw	r5,188(sp)
    16d8:	18019c1e 	bne	r3,zero,1d4c <___svfprintf_internal_r+0x10b0>
    16dc:	b8800007 	ldb	r2,0(r23)
    16e0:	d8001f15 	stw	zero,124(sp)
    16e4:	da000404 	addi	r8,sp,16
    16e8:	103d991e 	bne	r2,zero,d50 <__alt_mem_onchip_memory+0xf7800d50>
    16ec:	b821883a 	mov	r16,r23
    16f0:	003daf06 	br	db0 <__alt_mem_onchip_memory+0xf7800db0>
    16f4:	18c03fcc 	andi	r3,r3,255
    16f8:	1805c71e 	bne	r3,zero,2e18 <___svfprintf_internal_r+0x217c>
    16fc:	94800414 	ori	r18,r18,16
    1700:	9080080c 	andi	r2,r18,32
    1704:	10020126 	beq	r2,zero,1f0c <___svfprintf_internal_r+0x1270>
    1708:	d8802d17 	ldw	r2,180(sp)
    170c:	d9002917 	ldw	r4,164(sp)
    1710:	d8002785 	stb	zero,158(sp)
    1714:	10c00204 	addi	r3,r2,8
    1718:	15000017 	ldw	r20,0(r2)
    171c:	15800117 	ldw	r22,4(r2)
    1720:	20038e16 	blt	r4,zero,255c <___svfprintf_internal_r+0x18c0>
    1724:	013fdfc4 	movi	r4,-129
    1728:	a584b03a 	or	r2,r20,r22
    172c:	d8c02d15 	stw	r3,180(sp)
    1730:	9124703a 	and	r18,r18,r4
    1734:	0039883a 	mov	fp,zero
    1738:	103eb61e 	bne	r2,zero,1214 <__alt_mem_onchip_memory+0xf7801214>
    173c:	d8802917 	ldw	r2,164(sp)
    1740:	1002c81e 	bne	r2,zero,2264 <___svfprintf_internal_r+0x15c8>
    1744:	d8002915 	stw	zero,164(sp)
    1748:	d8002e15 	stw	zero,184(sp)
    174c:	dc001e04 	addi	r16,sp,120
    1750:	003efa06 	br	133c <__alt_mem_onchip_memory+0xf780133c>
    1754:	18c03fcc 	andi	r3,r3,255
    1758:	1805ad1e 	bne	r3,zero,2e10 <___svfprintf_internal_r+0x2174>
    175c:	01400074 	movhi	r5,1
    1760:	295abd04 	addi	r5,r5,27380
    1764:	d9403a15 	stw	r5,232(sp)
    1768:	9080080c 	andi	r2,r18,32
    176c:	10006126 	beq	r2,zero,18f4 <___svfprintf_internal_r+0xc58>
    1770:	d8802d17 	ldw	r2,180(sp)
    1774:	15000017 	ldw	r20,0(r2)
    1778:	15800117 	ldw	r22,4(r2)
    177c:	10800204 	addi	r2,r2,8
    1780:	d8802d15 	stw	r2,180(sp)
    1784:	9080004c 	andi	r2,r18,1
    1788:	10018e26 	beq	r2,zero,1dc4 <___svfprintf_internal_r+0x1128>
    178c:	a584b03a 	or	r2,r20,r22
    1790:	10030926 	beq	r2,zero,23b8 <___svfprintf_internal_r+0x171c>
    1794:	d8c02917 	ldw	r3,164(sp)
    1798:	00800c04 	movi	r2,48
    179c:	d8802705 	stb	r2,156(sp)
    17a0:	dc402745 	stb	r17,157(sp)
    17a4:	d8002785 	stb	zero,158(sp)
    17a8:	90800094 	ori	r2,r18,2
    17ac:	18048716 	blt	r3,zero,29cc <___svfprintf_internal_r+0x1d30>
    17b0:	00bfdfc4 	movi	r2,-129
    17b4:	90a4703a 	and	r18,r18,r2
    17b8:	94800094 	ori	r18,r18,2
    17bc:	0039883a 	mov	fp,zero
    17c0:	d9003a17 	ldw	r4,232(sp)
    17c4:	dc001e04 	addi	r16,sp,120
    17c8:	a08003cc 	andi	r2,r20,15
    17cc:	b006973a 	slli	r3,r22,28
    17d0:	2085883a 	add	r2,r4,r2
    17d4:	a028d13a 	srli	r20,r20,4
    17d8:	10800003 	ldbu	r2,0(r2)
    17dc:	b02cd13a 	srli	r22,r22,4
    17e0:	843fffc4 	addi	r16,r16,-1
    17e4:	1d28b03a 	or	r20,r3,r20
    17e8:	80800005 	stb	r2,0(r16)
    17ec:	a584b03a 	or	r2,r20,r22
    17f0:	103ff51e 	bne	r2,zero,17c8 <__alt_mem_onchip_memory+0xf78017c8>
    17f4:	d8c02817 	ldw	r3,160(sp)
    17f8:	1c07c83a 	sub	r3,r3,r16
    17fc:	d8c02e15 	stw	r3,184(sp)
    1800:	003ece06 	br	133c <__alt_mem_onchip_memory+0xf780133c>
    1804:	d8c02d17 	ldw	r3,180(sp)
    1808:	d9002d17 	ldw	r4,180(sp)
    180c:	d8002785 	stb	zero,158(sp)
    1810:	18800017 	ldw	r2,0(r3)
    1814:	21000104 	addi	r4,r4,4
    1818:	00c00044 	movi	r3,1
    181c:	d8c02a15 	stw	r3,168(sp)
    1820:	d8801405 	stb	r2,80(sp)
    1824:	d9002d15 	stw	r4,180(sp)
    1828:	d8c02e15 	stw	r3,184(sp)
    182c:	d8002915 	stw	zero,164(sp)
    1830:	d8003215 	stw	zero,200(sp)
    1834:	dc001404 	addi	r16,sp,80
    1838:	0039883a 	mov	fp,zero
    183c:	003ecc06 	br	1370 <__alt_mem_onchip_memory+0xf7801370>
    1840:	18c03fcc 	andi	r3,r3,255
    1844:	183e9226 	beq	r3,zero,1290 <__alt_mem_onchip_memory+0xf7801290>
    1848:	d9c02785 	stb	r7,158(sp)
    184c:	003e9006 	br	1290 <__alt_mem_onchip_memory+0xf7801290>
    1850:	00c00044 	movi	r3,1
    1854:	01c00ac4 	movi	r7,43
    1858:	bc400007 	ldb	r17,0(r23)
    185c:	003d6306 	br	dec <__alt_mem_onchip_memory+0xf7800dec>
    1860:	94800814 	ori	r18,r18,32
    1864:	bc400007 	ldb	r17,0(r23)
    1868:	003d6006 	br	dec <__alt_mem_onchip_memory+0xf7800dec>
    186c:	d8c02d17 	ldw	r3,180(sp)
    1870:	d8002785 	stb	zero,158(sp)
    1874:	1c000017 	ldw	r16,0(r3)
    1878:	1d000104 	addi	r20,r3,4
    187c:	80040f26 	beq	r16,zero,28bc <___svfprintf_internal_r+0x1c20>
    1880:	d9002917 	ldw	r4,164(sp)
    1884:	2003dc16 	blt	r4,zero,27f8 <___svfprintf_internal_r+0x1b5c>
    1888:	200d883a 	mov	r6,r4
    188c:	000b883a 	mov	r5,zero
    1890:	8009883a 	mov	r4,r16
    1894:	da003e15 	stw	r8,248(sp)
    1898:	00081c80 	call	81c8 <memchr>
    189c:	da003e17 	ldw	r8,248(sp)
    18a0:	10045826 	beq	r2,zero,2a04 <___svfprintf_internal_r+0x1d68>
    18a4:	1405c83a 	sub	r2,r2,r16
    18a8:	d8802e15 	stw	r2,184(sp)
    18ac:	1003d816 	blt	r2,zero,2810 <___svfprintf_internal_r+0x1b74>
    18b0:	df002783 	ldbu	fp,158(sp)
    18b4:	d8802a15 	stw	r2,168(sp)
    18b8:	dd002d15 	stw	r20,180(sp)
    18bc:	d8002915 	stw	zero,164(sp)
    18c0:	d8003215 	stw	zero,200(sp)
    18c4:	003ea306 	br	1354 <__alt_mem_onchip_memory+0xf7801354>
    18c8:	18c03fcc 	andi	r3,r3,255
    18cc:	183f8c26 	beq	r3,zero,1700 <__alt_mem_onchip_memory+0xf7801700>
    18d0:	d9c02785 	stb	r7,158(sp)
    18d4:	003f8a06 	br	1700 <__alt_mem_onchip_memory+0xf7801700>
    18d8:	18c03fcc 	andi	r3,r3,255
    18dc:	1805631e 	bne	r3,zero,2e6c <___svfprintf_internal_r+0x21d0>
    18e0:	01400074 	movhi	r5,1
    18e4:	295ac204 	addi	r5,r5,27400
    18e8:	d9403a15 	stw	r5,232(sp)
    18ec:	9080080c 	andi	r2,r18,32
    18f0:	103f9f1e 	bne	r2,zero,1770 <__alt_mem_onchip_memory+0xf7801770>
    18f4:	9080040c 	andi	r2,r18,16
    18f8:	10029c26 	beq	r2,zero,236c <___svfprintf_internal_r+0x16d0>
    18fc:	d8c02d17 	ldw	r3,180(sp)
    1900:	002d883a 	mov	r22,zero
    1904:	1d000017 	ldw	r20,0(r3)
    1908:	18c00104 	addi	r3,r3,4
    190c:	d8c02d15 	stw	r3,180(sp)
    1910:	003f9c06 	br	1784 <__alt_mem_onchip_memory+0xf7801784>
    1914:	94800054 	ori	r18,r18,1
    1918:	bc400007 	ldb	r17,0(r23)
    191c:	003d3306 	br	dec <__alt_mem_onchip_memory+0xf7800dec>
    1920:	38803fcc 	andi	r2,r7,255
    1924:	1080201c 	xori	r2,r2,128
    1928:	10bfe004 	addi	r2,r2,-128
    192c:	1002971e 	bne	r2,zero,238c <___svfprintf_internal_r+0x16f0>
    1930:	00c00044 	movi	r3,1
    1934:	01c00804 	movi	r7,32
    1938:	bc400007 	ldb	r17,0(r23)
    193c:	003d2b06 	br	dec <__alt_mem_onchip_memory+0xf7800dec>
    1940:	18c03fcc 	andi	r3,r3,255
    1944:	183e2326 	beq	r3,zero,11d4 <__alt_mem_onchip_memory+0xf78011d4>
    1948:	d9c02785 	stb	r7,158(sp)
    194c:	003e2106 	br	11d4 <__alt_mem_onchip_memory+0xf78011d4>
    1950:	bc400007 	ldb	r17,0(r23)
    1954:	8a430426 	beq	r17,r9,2568 <___svfprintf_internal_r+0x18cc>
    1958:	94800414 	ori	r18,r18,16
    195c:	003d2306 	br	dec <__alt_mem_onchip_memory+0xf7800dec>
    1960:	18c03fcc 	andi	r3,r3,255
    1964:	18053f1e 	bne	r3,zero,2e64 <___svfprintf_internal_r+0x21c8>
    1968:	9080080c 	andi	r2,r18,32
    196c:	10028926 	beq	r2,zero,2394 <___svfprintf_internal_r+0x16f8>
    1970:	d9402d17 	ldw	r5,180(sp)
    1974:	d9002f17 	ldw	r4,188(sp)
    1978:	28800017 	ldw	r2,0(r5)
    197c:	2007d7fa 	srai	r3,r4,31
    1980:	29400104 	addi	r5,r5,4
    1984:	d9402d15 	stw	r5,180(sp)
    1988:	11000015 	stw	r4,0(r2)
    198c:	10c00115 	stw	r3,4(r2)
    1990:	003ced06 	br	d48 <__alt_mem_onchip_memory+0xf7800d48>
    1994:	94801014 	ori	r18,r18,64
    1998:	bc400007 	ldb	r17,0(r23)
    199c:	003d1306 	br	dec <__alt_mem_onchip_memory+0xf7800dec>
    19a0:	01000074 	movhi	r4,1
    19a4:	211ac204 	addi	r4,r4,27400
    19a8:	0039883a 	mov	fp,zero
    19ac:	d9003a15 	stw	r4,232(sp)
    19b0:	04401e04 	movi	r17,120
    19b4:	003f8206 	br	17c0 <__alt_mem_onchip_memory+0xf78017c0>
    19b8:	18c03fcc 	andi	r3,r3,255
    19bc:	1805221e 	bne	r3,zero,2e48 <___svfprintf_internal_r+0x21ac>
    19c0:	883d9526 	beq	r17,zero,1018 <__alt_mem_onchip_memory+0xf7801018>
    19c4:	00c00044 	movi	r3,1
    19c8:	d8c02a15 	stw	r3,168(sp)
    19cc:	dc401405 	stb	r17,80(sp)
    19d0:	d8002785 	stb	zero,158(sp)
    19d4:	003f9406 	br	1828 <__alt_mem_onchip_memory+0xf7801828>
    19d8:	01000074 	movhi	r4,1
    19dc:	211ac204 	addi	r4,r4,27400
    19e0:	d9003a15 	stw	r4,232(sp)
    19e4:	d8c02d15 	stw	r3,180(sp)
    19e8:	1025883a 	mov	r18,r2
    19ec:	04401e04 	movi	r17,120
    19f0:	a584b03a 	or	r2,r20,r22
    19f4:	1000fa1e 	bne	r2,zero,1de0 <___svfprintf_internal_r+0x1144>
    19f8:	0039883a 	mov	fp,zero
    19fc:	00800084 	movi	r2,2
    1a00:	10803fcc 	andi	r2,r2,255
    1a04:	00c00044 	movi	r3,1
    1a08:	10c21626 	beq	r2,r3,2264 <___svfprintf_internal_r+0x15c8>
    1a0c:	00c00084 	movi	r3,2
    1a10:	10fe301e 	bne	r2,r3,12d4 <__alt_mem_onchip_memory+0xf78012d4>
    1a14:	003d7606 	br	ff0 <__alt_mem_onchip_memory+0xf7800ff0>
    1a18:	d8c02017 	ldw	r3,128(sp)
    1a1c:	003e9506 	br	1474 <__alt_mem_onchip_memory+0xf7801474>
    1a20:	00801944 	movi	r2,101
    1a24:	14407c0e 	bge	r2,r17,1c18 <___svfprintf_internal_r+0xf7c>
    1a28:	d9003617 	ldw	r4,216(sp)
    1a2c:	d9403717 	ldw	r5,220(sp)
    1a30:	000d883a 	mov	r6,zero
    1a34:	000f883a 	mov	r7,zero
    1a38:	d8c03d15 	stw	r3,244(sp)
    1a3c:	da003e15 	stw	r8,248(sp)
    1a40:	000f2900 	call	f290 <__eqdf2>
    1a44:	d8c03d17 	ldw	r3,244(sp)
    1a48:	da003e17 	ldw	r8,248(sp)
    1a4c:	1000f51e 	bne	r2,zero,1e24 <___svfprintf_internal_r+0x1188>
    1a50:	d8801f17 	ldw	r2,124(sp)
    1a54:	01000074 	movhi	r4,1
    1a58:	211ac904 	addi	r4,r4,27428
    1a5c:	18c00044 	addi	r3,r3,1
    1a60:	10800044 	addi	r2,r2,1
    1a64:	41000015 	stw	r4,0(r8)
    1a68:	01000044 	movi	r4,1
    1a6c:	41000115 	stw	r4,4(r8)
    1a70:	d8c02015 	stw	r3,128(sp)
    1a74:	d8801f15 	stw	r2,124(sp)
    1a78:	010001c4 	movi	r4,7
    1a7c:	20826616 	blt	r4,r2,2418 <___svfprintf_internal_r+0x177c>
    1a80:	42000204 	addi	r8,r8,8
    1a84:	d8802617 	ldw	r2,152(sp)
    1a88:	d9403317 	ldw	r5,204(sp)
    1a8c:	11400216 	blt	r2,r5,1a98 <___svfprintf_internal_r+0xdfc>
    1a90:	9080004c 	andi	r2,r18,1
    1a94:	103ed526 	beq	r2,zero,15ec <__alt_mem_onchip_memory+0xf78015ec>
    1a98:	d8803817 	ldw	r2,224(sp)
    1a9c:	d9003417 	ldw	r4,208(sp)
    1aa0:	d9403817 	ldw	r5,224(sp)
    1aa4:	1887883a 	add	r3,r3,r2
    1aa8:	d8801f17 	ldw	r2,124(sp)
    1aac:	41000015 	stw	r4,0(r8)
    1ab0:	41400115 	stw	r5,4(r8)
    1ab4:	10800044 	addi	r2,r2,1
    1ab8:	d8c02015 	stw	r3,128(sp)
    1abc:	d8801f15 	stw	r2,124(sp)
    1ac0:	010001c4 	movi	r4,7
    1ac4:	2082af16 	blt	r4,r2,2584 <___svfprintf_internal_r+0x18e8>
    1ac8:	42000204 	addi	r8,r8,8
    1acc:	d8803317 	ldw	r2,204(sp)
    1ad0:	143fffc4 	addi	r16,r2,-1
    1ad4:	043ec50e 	bge	zero,r16,15ec <__alt_mem_onchip_memory+0xf78015ec>
    1ad8:	04400404 	movi	r17,16
    1adc:	d8801f17 	ldw	r2,124(sp)
    1ae0:	8c00860e 	bge	r17,r16,1cfc <___svfprintf_internal_r+0x1060>
    1ae4:	01400074 	movhi	r5,1
    1ae8:	295ac984 	addi	r5,r5,27430
    1aec:	d9402b15 	stw	r5,172(sp)
    1af0:	058001c4 	movi	r22,7
    1af4:	dd002c17 	ldw	r20,176(sp)
    1af8:	00000306 	br	1b08 <___svfprintf_internal_r+0xe6c>
    1afc:	42000204 	addi	r8,r8,8
    1b00:	843ffc04 	addi	r16,r16,-16
    1b04:	8c00800e 	bge	r17,r16,1d08 <___svfprintf_internal_r+0x106c>
    1b08:	18c00404 	addi	r3,r3,16
    1b0c:	10800044 	addi	r2,r2,1
    1b10:	45400015 	stw	r21,0(r8)
    1b14:	44400115 	stw	r17,4(r8)
    1b18:	d8c02015 	stw	r3,128(sp)
    1b1c:	d8801f15 	stw	r2,124(sp)
    1b20:	b0bff60e 	bge	r22,r2,1afc <__alt_mem_onchip_memory+0xf7801afc>
    1b24:	d9801e04 	addi	r6,sp,120
    1b28:	a00b883a 	mov	r5,r20
    1b2c:	9809883a 	mov	r4,r19
    1b30:	00097480 	call	9748 <__ssprint_r>
    1b34:	103d3e1e 	bne	r2,zero,1030 <__alt_mem_onchip_memory+0xf7801030>
    1b38:	d8c02017 	ldw	r3,128(sp)
    1b3c:	d8801f17 	ldw	r2,124(sp)
    1b40:	da000404 	addi	r8,sp,16
    1b44:	003fee06 	br	1b00 <__alt_mem_onchip_memory+0xf7801b00>
    1b48:	d9403117 	ldw	r5,196(sp)
    1b4c:	d8802a17 	ldw	r2,168(sp)
    1b50:	28adc83a 	sub	r22,r5,r2
    1b54:	05be650e 	bge	zero,r22,14ec <__alt_mem_onchip_memory+0xf78014ec>
    1b58:	07000404 	movi	fp,16
    1b5c:	d8801f17 	ldw	r2,124(sp)
    1b60:	e583a20e 	bge	fp,r22,29ec <___svfprintf_internal_r+0x1d50>
    1b64:	01400074 	movhi	r5,1
    1b68:	295ac984 	addi	r5,r5,27430
    1b6c:	dc403015 	stw	r17,192(sp)
    1b70:	d9402b15 	stw	r5,172(sp)
    1b74:	b023883a 	mov	r17,r22
    1b78:	050001c4 	movi	r20,7
    1b7c:	902d883a 	mov	r22,r18
    1b80:	8025883a 	mov	r18,r16
    1b84:	dc002c17 	ldw	r16,176(sp)
    1b88:	00000306 	br	1b98 <___svfprintf_internal_r+0xefc>
    1b8c:	8c7ffc04 	addi	r17,r17,-16
    1b90:	42000204 	addi	r8,r8,8
    1b94:	e440110e 	bge	fp,r17,1bdc <___svfprintf_internal_r+0xf40>
    1b98:	18c00404 	addi	r3,r3,16
    1b9c:	10800044 	addi	r2,r2,1
    1ba0:	45400015 	stw	r21,0(r8)
    1ba4:	47000115 	stw	fp,4(r8)
    1ba8:	d8c02015 	stw	r3,128(sp)
    1bac:	d8801f15 	stw	r2,124(sp)
    1bb0:	a0bff60e 	bge	r20,r2,1b8c <__alt_mem_onchip_memory+0xf7801b8c>
    1bb4:	d9801e04 	addi	r6,sp,120
    1bb8:	800b883a 	mov	r5,r16
    1bbc:	9809883a 	mov	r4,r19
    1bc0:	00097480 	call	9748 <__ssprint_r>
    1bc4:	103d1a1e 	bne	r2,zero,1030 <__alt_mem_onchip_memory+0xf7801030>
    1bc8:	8c7ffc04 	addi	r17,r17,-16
    1bcc:	d8c02017 	ldw	r3,128(sp)
    1bd0:	d8801f17 	ldw	r2,124(sp)
    1bd4:	da000404 	addi	r8,sp,16
    1bd8:	e47fef16 	blt	fp,r17,1b98 <__alt_mem_onchip_memory+0xf7801b98>
    1bdc:	9021883a 	mov	r16,r18
    1be0:	b025883a 	mov	r18,r22
    1be4:	882d883a 	mov	r22,r17
    1be8:	dc403017 	ldw	r17,192(sp)
    1bec:	d9002b17 	ldw	r4,172(sp)
    1bf0:	1d87883a 	add	r3,r3,r22
    1bf4:	10800044 	addi	r2,r2,1
    1bf8:	41000015 	stw	r4,0(r8)
    1bfc:	45800115 	stw	r22,4(r8)
    1c00:	d8c02015 	stw	r3,128(sp)
    1c04:	d8801f15 	stw	r2,124(sp)
    1c08:	010001c4 	movi	r4,7
    1c0c:	20819a16 	blt	r4,r2,2278 <___svfprintf_internal_r+0x15dc>
    1c10:	42000204 	addi	r8,r8,8
    1c14:	003e3506 	br	14ec <__alt_mem_onchip_memory+0xf78014ec>
    1c18:	d9403317 	ldw	r5,204(sp)
    1c1c:	00800044 	movi	r2,1
    1c20:	18c00044 	addi	r3,r3,1
    1c24:	1141710e 	bge	r2,r5,21ec <___svfprintf_internal_r+0x1550>
    1c28:	dc401f17 	ldw	r17,124(sp)
    1c2c:	00800044 	movi	r2,1
    1c30:	40800115 	stw	r2,4(r8)
    1c34:	8c400044 	addi	r17,r17,1
    1c38:	44000015 	stw	r16,0(r8)
    1c3c:	d8c02015 	stw	r3,128(sp)
    1c40:	dc401f15 	stw	r17,124(sp)
    1c44:	008001c4 	movi	r2,7
    1c48:	14417416 	blt	r2,r17,221c <___svfprintf_internal_r+0x1580>
    1c4c:	42000204 	addi	r8,r8,8
    1c50:	d8803817 	ldw	r2,224(sp)
    1c54:	d9003417 	ldw	r4,208(sp)
    1c58:	8c400044 	addi	r17,r17,1
    1c5c:	10c7883a 	add	r3,r2,r3
    1c60:	40800115 	stw	r2,4(r8)
    1c64:	41000015 	stw	r4,0(r8)
    1c68:	d8c02015 	stw	r3,128(sp)
    1c6c:	dc401f15 	stw	r17,124(sp)
    1c70:	008001c4 	movi	r2,7
    1c74:	14417216 	blt	r2,r17,2240 <___svfprintf_internal_r+0x15a4>
    1c78:	45800204 	addi	r22,r8,8
    1c7c:	d9003617 	ldw	r4,216(sp)
    1c80:	d9403717 	ldw	r5,220(sp)
    1c84:	000d883a 	mov	r6,zero
    1c88:	000f883a 	mov	r7,zero
    1c8c:	d8c03d15 	stw	r3,244(sp)
    1c90:	000f2900 	call	f290 <__eqdf2>
    1c94:	d8c03d17 	ldw	r3,244(sp)
    1c98:	1000b326 	beq	r2,zero,1f68 <___svfprintf_internal_r+0x12cc>
    1c9c:	d9403317 	ldw	r5,204(sp)
    1ca0:	84000044 	addi	r16,r16,1
    1ca4:	8c400044 	addi	r17,r17,1
    1ca8:	28bfffc4 	addi	r2,r5,-1
    1cac:	1887883a 	add	r3,r3,r2
    1cb0:	b0800115 	stw	r2,4(r22)
    1cb4:	b4000015 	stw	r16,0(r22)
    1cb8:	d8c02015 	stw	r3,128(sp)
    1cbc:	dc401f15 	stw	r17,124(sp)
    1cc0:	008001c4 	movi	r2,7
    1cc4:	1440d216 	blt	r2,r17,2010 <___svfprintf_internal_r+0x1374>
    1cc8:	b5800204 	addi	r22,r22,8
    1ccc:	d9003b17 	ldw	r4,236(sp)
    1cd0:	df0022c4 	addi	fp,sp,139
    1cd4:	8c400044 	addi	r17,r17,1
    1cd8:	20c7883a 	add	r3,r4,r3
    1cdc:	b7000015 	stw	fp,0(r22)
    1ce0:	b1000115 	stw	r4,4(r22)
    1ce4:	d8c02015 	stw	r3,128(sp)
    1ce8:	dc401f15 	stw	r17,124(sp)
    1cec:	008001c4 	movi	r2,7
    1cf0:	14400e16 	blt	r2,r17,1d2c <___svfprintf_internal_r+0x1090>
    1cf4:	b2000204 	addi	r8,r22,8
    1cf8:	003e3c06 	br	15ec <__alt_mem_onchip_memory+0xf78015ec>
    1cfc:	01000074 	movhi	r4,1
    1d00:	211ac984 	addi	r4,r4,27430
    1d04:	d9002b15 	stw	r4,172(sp)
    1d08:	d9002b17 	ldw	r4,172(sp)
    1d0c:	1c07883a 	add	r3,r3,r16
    1d10:	44000115 	stw	r16,4(r8)
    1d14:	41000015 	stw	r4,0(r8)
    1d18:	10800044 	addi	r2,r2,1
    1d1c:	d8c02015 	stw	r3,128(sp)
    1d20:	d8801f15 	stw	r2,124(sp)
    1d24:	010001c4 	movi	r4,7
    1d28:	20be2f0e 	bge	r4,r2,15e8 <__alt_mem_onchip_memory+0xf78015e8>
    1d2c:	d9402c17 	ldw	r5,176(sp)
    1d30:	d9801e04 	addi	r6,sp,120
    1d34:	9809883a 	mov	r4,r19
    1d38:	00097480 	call	9748 <__ssprint_r>
    1d3c:	103cbc1e 	bne	r2,zero,1030 <__alt_mem_onchip_memory+0xf7801030>
    1d40:	d8c02017 	ldw	r3,128(sp)
    1d44:	da000404 	addi	r8,sp,16
    1d48:	003e2806 	br	15ec <__alt_mem_onchip_memory+0xf78015ec>
    1d4c:	d9402c17 	ldw	r5,176(sp)
    1d50:	d9801e04 	addi	r6,sp,120
    1d54:	9809883a 	mov	r4,r19
    1d58:	00097480 	call	9748 <__ssprint_r>
    1d5c:	103e5f26 	beq	r2,zero,16dc <__alt_mem_onchip_memory+0xf78016dc>
    1d60:	003cb306 	br	1030 <__alt_mem_onchip_memory+0xf7801030>
    1d64:	d9402c17 	ldw	r5,176(sp)
    1d68:	d9801e04 	addi	r6,sp,120
    1d6c:	9809883a 	mov	r4,r19
    1d70:	00097480 	call	9748 <__ssprint_r>
    1d74:	103cae1e 	bne	r2,zero,1030 <__alt_mem_onchip_memory+0xf7801030>
    1d78:	d8c02017 	ldw	r3,128(sp)
    1d7c:	da000404 	addi	r8,sp,16
    1d80:	003e0d06 	br	15b8 <__alt_mem_onchip_memory+0xf78015b8>
    1d84:	d9402c17 	ldw	r5,176(sp)
    1d88:	d9801e04 	addi	r6,sp,120
    1d8c:	9809883a 	mov	r4,r19
    1d90:	00097480 	call	9748 <__ssprint_r>
    1d94:	103ca61e 	bne	r2,zero,1030 <__alt_mem_onchip_memory+0xf7801030>
    1d98:	d8c02017 	ldw	r3,128(sp)
    1d9c:	da000404 	addi	r8,sp,16
    1da0:	003dc106 	br	14a8 <__alt_mem_onchip_memory+0xf78014a8>
    1da4:	d9402c17 	ldw	r5,176(sp)
    1da8:	d9801e04 	addi	r6,sp,120
    1dac:	9809883a 	mov	r4,r19
    1db0:	00097480 	call	9748 <__ssprint_r>
    1db4:	103c9e1e 	bne	r2,zero,1030 <__alt_mem_onchip_memory+0xf7801030>
    1db8:	d8c02017 	ldw	r3,128(sp)
    1dbc:	da000404 	addi	r8,sp,16
    1dc0:	003dc706 	br	14e0 <__alt_mem_onchip_memory+0xf78014e0>
    1dc4:	d8802917 	ldw	r2,164(sp)
    1dc8:	d8002785 	stb	zero,158(sp)
    1dcc:	103f0816 	blt	r2,zero,19f0 <__alt_mem_onchip_memory+0xf78019f0>
    1dd0:	00ffdfc4 	movi	r3,-129
    1dd4:	a584b03a 	or	r2,r20,r22
    1dd8:	90e4703a 	and	r18,r18,r3
    1ddc:	103c8126 	beq	r2,zero,fe4 <__alt_mem_onchip_memory+0xf7800fe4>
    1de0:	0039883a 	mov	fp,zero
    1de4:	003e7606 	br	17c0 <__alt_mem_onchip_memory+0xf78017c0>
    1de8:	9080040c 	andi	r2,r18,16
    1dec:	10013d26 	beq	r2,zero,22e4 <___svfprintf_internal_r+0x1648>
    1df0:	d9002d17 	ldw	r4,180(sp)
    1df4:	d9402917 	ldw	r5,164(sp)
    1df8:	d8002785 	stb	zero,158(sp)
    1dfc:	20800104 	addi	r2,r4,4
    1e00:	25000017 	ldw	r20,0(r4)
    1e04:	002d883a 	mov	r22,zero
    1e08:	28013f16 	blt	r5,zero,2308 <___svfprintf_internal_r+0x166c>
    1e0c:	00ffdfc4 	movi	r3,-129
    1e10:	d8802d15 	stw	r2,180(sp)
    1e14:	90e4703a 	and	r18,r18,r3
    1e18:	a03d2b26 	beq	r20,zero,12c8 <__alt_mem_onchip_memory+0xf78012c8>
    1e1c:	0039883a 	mov	fp,zero
    1e20:	003d2e06 	br	12dc <__alt_mem_onchip_memory+0xf78012dc>
    1e24:	dc402617 	ldw	r17,152(sp)
    1e28:	0441830e 	bge	zero,r17,2438 <___svfprintf_internal_r+0x179c>
    1e2c:	dc403217 	ldw	r17,200(sp)
    1e30:	d8803317 	ldw	r2,204(sp)
    1e34:	1440010e 	bge	r2,r17,1e3c <___svfprintf_internal_r+0x11a0>
    1e38:	1023883a 	mov	r17,r2
    1e3c:	04400a0e 	bge	zero,r17,1e68 <___svfprintf_internal_r+0x11cc>
    1e40:	d8801f17 	ldw	r2,124(sp)
    1e44:	1c47883a 	add	r3,r3,r17
    1e48:	44000015 	stw	r16,0(r8)
    1e4c:	10800044 	addi	r2,r2,1
    1e50:	44400115 	stw	r17,4(r8)
    1e54:	d8c02015 	stw	r3,128(sp)
    1e58:	d8801f15 	stw	r2,124(sp)
    1e5c:	010001c4 	movi	r4,7
    1e60:	20827516 	blt	r4,r2,2838 <___svfprintf_internal_r+0x1b9c>
    1e64:	42000204 	addi	r8,r8,8
    1e68:	88027b16 	blt	r17,zero,2858 <___svfprintf_internal_r+0x1bbc>
    1e6c:	d9003217 	ldw	r4,200(sp)
    1e70:	2463c83a 	sub	r17,r4,r17
    1e74:	0440990e 	bge	zero,r17,20dc <___svfprintf_internal_r+0x1440>
    1e78:	05800404 	movi	r22,16
    1e7c:	d8801f17 	ldw	r2,124(sp)
    1e80:	b441530e 	bge	r22,r17,23d0 <___svfprintf_internal_r+0x1734>
    1e84:	01000074 	movhi	r4,1
    1e88:	211ac984 	addi	r4,r4,27430
    1e8c:	d9002b15 	stw	r4,172(sp)
    1e90:	070001c4 	movi	fp,7
    1e94:	dd002c17 	ldw	r20,176(sp)
    1e98:	00000306 	br	1ea8 <___svfprintf_internal_r+0x120c>
    1e9c:	42000204 	addi	r8,r8,8
    1ea0:	8c7ffc04 	addi	r17,r17,-16
    1ea4:	b4414d0e 	bge	r22,r17,23dc <___svfprintf_internal_r+0x1740>
    1ea8:	18c00404 	addi	r3,r3,16
    1eac:	10800044 	addi	r2,r2,1
    1eb0:	45400015 	stw	r21,0(r8)
    1eb4:	45800115 	stw	r22,4(r8)
    1eb8:	d8c02015 	stw	r3,128(sp)
    1ebc:	d8801f15 	stw	r2,124(sp)
    1ec0:	e0bff60e 	bge	fp,r2,1e9c <__alt_mem_onchip_memory+0xf7801e9c>
    1ec4:	d9801e04 	addi	r6,sp,120
    1ec8:	a00b883a 	mov	r5,r20
    1ecc:	9809883a 	mov	r4,r19
    1ed0:	00097480 	call	9748 <__ssprint_r>
    1ed4:	103c561e 	bne	r2,zero,1030 <__alt_mem_onchip_memory+0xf7801030>
    1ed8:	d8c02017 	ldw	r3,128(sp)
    1edc:	d8801f17 	ldw	r2,124(sp)
    1ee0:	da000404 	addi	r8,sp,16
    1ee4:	003fee06 	br	1ea0 <__alt_mem_onchip_memory+0xf7801ea0>
    1ee8:	d9402c17 	ldw	r5,176(sp)
    1eec:	d9801e04 	addi	r6,sp,120
    1ef0:	9809883a 	mov	r4,r19
    1ef4:	00097480 	call	9748 <__ssprint_r>
    1ef8:	103c4d1e 	bne	r2,zero,1030 <__alt_mem_onchip_memory+0xf7801030>
    1efc:	d8c02017 	ldw	r3,128(sp)
    1f00:	df002787 	ldb	fp,158(sp)
    1f04:	da000404 	addi	r8,sp,16
    1f08:	003d5a06 	br	1474 <__alt_mem_onchip_memory+0xf7801474>
    1f0c:	9080040c 	andi	r2,r18,16
    1f10:	10005c26 	beq	r2,zero,2084 <___svfprintf_internal_r+0x13e8>
    1f14:	d9402d17 	ldw	r5,180(sp)
    1f18:	d8c02917 	ldw	r3,164(sp)
    1f1c:	d8002785 	stb	zero,158(sp)
    1f20:	28800104 	addi	r2,r5,4
    1f24:	2d000017 	ldw	r20,0(r5)
    1f28:	002d883a 	mov	r22,zero
    1f2c:	18005e16 	blt	r3,zero,20a8 <___svfprintf_internal_r+0x140c>
    1f30:	00ffdfc4 	movi	r3,-129
    1f34:	d8802d15 	stw	r2,180(sp)
    1f38:	90e4703a 	and	r18,r18,r3
    1f3c:	0039883a 	mov	fp,zero
    1f40:	a03dfe26 	beq	r20,zero,173c <__alt_mem_onchip_memory+0xf780173c>
    1f44:	00800244 	movi	r2,9
    1f48:	153cb336 	bltu	r2,r20,1218 <__alt_mem_onchip_memory+0xf7801218>
    1f4c:	a5000c04 	addi	r20,r20,48
    1f50:	dc001dc4 	addi	r16,sp,119
    1f54:	dd001dc5 	stb	r20,119(sp)
    1f58:	d8c02817 	ldw	r3,160(sp)
    1f5c:	1c07c83a 	sub	r3,r3,r16
    1f60:	d8c02e15 	stw	r3,184(sp)
    1f64:	003cf506 	br	133c <__alt_mem_onchip_memory+0xf780133c>
    1f68:	d8803317 	ldw	r2,204(sp)
    1f6c:	143fffc4 	addi	r16,r2,-1
    1f70:	043f560e 	bge	zero,r16,1ccc <__alt_mem_onchip_memory+0xf7801ccc>
    1f74:	07000404 	movi	fp,16
    1f78:	e403530e 	bge	fp,r16,2cc8 <___svfprintf_internal_r+0x202c>
    1f7c:	01400074 	movhi	r5,1
    1f80:	295ac984 	addi	r5,r5,27430
    1f84:	d9402b15 	stw	r5,172(sp)
    1f88:	01c001c4 	movi	r7,7
    1f8c:	dd002c17 	ldw	r20,176(sp)
    1f90:	00000306 	br	1fa0 <___svfprintf_internal_r+0x1304>
    1f94:	843ffc04 	addi	r16,r16,-16
    1f98:	b5800204 	addi	r22,r22,8
    1f9c:	e400130e 	bge	fp,r16,1fec <___svfprintf_internal_r+0x1350>
    1fa0:	18c00404 	addi	r3,r3,16
    1fa4:	8c400044 	addi	r17,r17,1
    1fa8:	b5400015 	stw	r21,0(r22)
    1fac:	b7000115 	stw	fp,4(r22)
    1fb0:	d8c02015 	stw	r3,128(sp)
    1fb4:	dc401f15 	stw	r17,124(sp)
    1fb8:	3c7ff60e 	bge	r7,r17,1f94 <__alt_mem_onchip_memory+0xf7801f94>
    1fbc:	d9801e04 	addi	r6,sp,120
    1fc0:	a00b883a 	mov	r5,r20
    1fc4:	9809883a 	mov	r4,r19
    1fc8:	d9c03d15 	stw	r7,244(sp)
    1fcc:	00097480 	call	9748 <__ssprint_r>
    1fd0:	d9c03d17 	ldw	r7,244(sp)
    1fd4:	103c161e 	bne	r2,zero,1030 <__alt_mem_onchip_memory+0xf7801030>
    1fd8:	843ffc04 	addi	r16,r16,-16
    1fdc:	d8c02017 	ldw	r3,128(sp)
    1fe0:	dc401f17 	ldw	r17,124(sp)
    1fe4:	dd800404 	addi	r22,sp,16
    1fe8:	e43fed16 	blt	fp,r16,1fa0 <__alt_mem_onchip_memory+0xf7801fa0>
    1fec:	d8802b17 	ldw	r2,172(sp)
    1ff0:	1c07883a 	add	r3,r3,r16
    1ff4:	8c400044 	addi	r17,r17,1
    1ff8:	b0800015 	stw	r2,0(r22)
    1ffc:	b4000115 	stw	r16,4(r22)
    2000:	d8c02015 	stw	r3,128(sp)
    2004:	dc401f15 	stw	r17,124(sp)
    2008:	008001c4 	movi	r2,7
    200c:	147f2e0e 	bge	r2,r17,1cc8 <__alt_mem_onchip_memory+0xf7801cc8>
    2010:	d9402c17 	ldw	r5,176(sp)
    2014:	d9801e04 	addi	r6,sp,120
    2018:	9809883a 	mov	r4,r19
    201c:	00097480 	call	9748 <__ssprint_r>
    2020:	103c031e 	bne	r2,zero,1030 <__alt_mem_onchip_memory+0xf7801030>
    2024:	d8c02017 	ldw	r3,128(sp)
    2028:	dc401f17 	ldw	r17,124(sp)
    202c:	dd800404 	addi	r22,sp,16
    2030:	003f2606 	br	1ccc <__alt_mem_onchip_memory+0xf7801ccc>
    2034:	9080040c 	andi	r2,r18,16
    2038:	1000c326 	beq	r2,zero,2348 <___svfprintf_internal_r+0x16ac>
    203c:	d8802d17 	ldw	r2,180(sp)
    2040:	15000017 	ldw	r20,0(r2)
    2044:	10800104 	addi	r2,r2,4
    2048:	d8802d15 	stw	r2,180(sp)
    204c:	a02dd7fa 	srai	r22,r20,31
    2050:	b005883a 	mov	r2,r22
    2054:	103c680e 	bge	r2,zero,11f8 <__alt_mem_onchip_memory+0xf78011f8>
    2058:	0529c83a 	sub	r20,zero,r20
    205c:	a004c03a 	cmpne	r2,r20,zero
    2060:	05adc83a 	sub	r22,zero,r22
    2064:	b0adc83a 	sub	r22,r22,r2
    2068:	d8802917 	ldw	r2,164(sp)
    206c:	07000b44 	movi	fp,45
    2070:	df002785 	stb	fp,158(sp)
    2074:	10022e16 	blt	r2,zero,2930 <___svfprintf_internal_r+0x1c94>
    2078:	00bfdfc4 	movi	r2,-129
    207c:	90a4703a 	and	r18,r18,r2
    2080:	003c6406 	br	1214 <__alt_mem_onchip_memory+0xf7801214>
    2084:	9080100c 	andi	r2,r18,64
    2088:	d8002785 	stb	zero,158(sp)
    208c:	10012526 	beq	r2,zero,2524 <___svfprintf_internal_r+0x1888>
    2090:	d9002d17 	ldw	r4,180(sp)
    2094:	d9402917 	ldw	r5,164(sp)
    2098:	002d883a 	mov	r22,zero
    209c:	20800104 	addi	r2,r4,4
    20a0:	2500000b 	ldhu	r20,0(r4)
    20a4:	283fa20e 	bge	r5,zero,1f30 <__alt_mem_onchip_memory+0xf7801f30>
    20a8:	d8802d15 	stw	r2,180(sp)
    20ac:	0039883a 	mov	fp,zero
    20b0:	a584b03a 	or	r2,r20,r22
    20b4:	103c571e 	bne	r2,zero,1214 <__alt_mem_onchip_memory+0xf7801214>
    20b8:	00800044 	movi	r2,1
    20bc:	003e5006 	br	1a00 <__alt_mem_onchip_memory+0xf7801a00>
    20c0:	d9402c17 	ldw	r5,176(sp)
    20c4:	d9801e04 	addi	r6,sp,120
    20c8:	9809883a 	mov	r4,r19
    20cc:	00097480 	call	9748 <__ssprint_r>
    20d0:	103bd71e 	bne	r2,zero,1030 <__alt_mem_onchip_memory+0xf7801030>
    20d4:	d8c02017 	ldw	r3,128(sp)
    20d8:	da000404 	addi	r8,sp,16
    20dc:	d9003217 	ldw	r4,200(sp)
    20e0:	d8802617 	ldw	r2,152(sp)
    20e4:	d9403317 	ldw	r5,204(sp)
    20e8:	8123883a 	add	r17,r16,r4
    20ec:	11400216 	blt	r2,r5,20f8 <___svfprintf_internal_r+0x145c>
    20f0:	9100004c 	andi	r4,r18,1
    20f4:	20000d26 	beq	r4,zero,212c <___svfprintf_internal_r+0x1490>
    20f8:	d9003817 	ldw	r4,224(sp)
    20fc:	d9403417 	ldw	r5,208(sp)
    2100:	1907883a 	add	r3,r3,r4
    2104:	d9001f17 	ldw	r4,124(sp)
    2108:	41400015 	stw	r5,0(r8)
    210c:	d9403817 	ldw	r5,224(sp)
    2110:	21000044 	addi	r4,r4,1
    2114:	d8c02015 	stw	r3,128(sp)
    2118:	41400115 	stw	r5,4(r8)
    211c:	d9001f15 	stw	r4,124(sp)
    2120:	014001c4 	movi	r5,7
    2124:	2901dc16 	blt	r5,r4,2898 <___svfprintf_internal_r+0x1bfc>
    2128:	42000204 	addi	r8,r8,8
    212c:	d9003317 	ldw	r4,204(sp)
    2130:	8121883a 	add	r16,r16,r4
    2134:	2085c83a 	sub	r2,r4,r2
    2138:	8461c83a 	sub	r16,r16,r17
    213c:	1400010e 	bge	r2,r16,2144 <___svfprintf_internal_r+0x14a8>
    2140:	1021883a 	mov	r16,r2
    2144:	04000a0e 	bge	zero,r16,2170 <___svfprintf_internal_r+0x14d4>
    2148:	d9001f17 	ldw	r4,124(sp)
    214c:	1c07883a 	add	r3,r3,r16
    2150:	44400015 	stw	r17,0(r8)
    2154:	21000044 	addi	r4,r4,1
    2158:	44000115 	stw	r16,4(r8)
    215c:	d8c02015 	stw	r3,128(sp)
    2160:	d9001f15 	stw	r4,124(sp)
    2164:	014001c4 	movi	r5,7
    2168:	2901e616 	blt	r5,r4,2904 <___svfprintf_internal_r+0x1c68>
    216c:	42000204 	addi	r8,r8,8
    2170:	8001f616 	blt	r16,zero,294c <___svfprintf_internal_r+0x1cb0>
    2174:	1421c83a 	sub	r16,r2,r16
    2178:	043d1c0e 	bge	zero,r16,15ec <__alt_mem_onchip_memory+0xf78015ec>
    217c:	04400404 	movi	r17,16
    2180:	d8801f17 	ldw	r2,124(sp)
    2184:	8c3edd0e 	bge	r17,r16,1cfc <__alt_mem_onchip_memory+0xf7801cfc>
    2188:	01400074 	movhi	r5,1
    218c:	295ac984 	addi	r5,r5,27430
    2190:	d9402b15 	stw	r5,172(sp)
    2194:	058001c4 	movi	r22,7
    2198:	dd002c17 	ldw	r20,176(sp)
    219c:	00000306 	br	21ac <___svfprintf_internal_r+0x1510>
    21a0:	42000204 	addi	r8,r8,8
    21a4:	843ffc04 	addi	r16,r16,-16
    21a8:	8c3ed70e 	bge	r17,r16,1d08 <__alt_mem_onchip_memory+0xf7801d08>
    21ac:	18c00404 	addi	r3,r3,16
    21b0:	10800044 	addi	r2,r2,1
    21b4:	45400015 	stw	r21,0(r8)
    21b8:	44400115 	stw	r17,4(r8)
    21bc:	d8c02015 	stw	r3,128(sp)
    21c0:	d8801f15 	stw	r2,124(sp)
    21c4:	b0bff60e 	bge	r22,r2,21a0 <__alt_mem_onchip_memory+0xf78021a0>
    21c8:	d9801e04 	addi	r6,sp,120
    21cc:	a00b883a 	mov	r5,r20
    21d0:	9809883a 	mov	r4,r19
    21d4:	00097480 	call	9748 <__ssprint_r>
    21d8:	103b951e 	bne	r2,zero,1030 <__alt_mem_onchip_memory+0xf7801030>
    21dc:	d8c02017 	ldw	r3,128(sp)
    21e0:	d8801f17 	ldw	r2,124(sp)
    21e4:	da000404 	addi	r8,sp,16
    21e8:	003fee06 	br	21a4 <__alt_mem_onchip_memory+0xf78021a4>
    21ec:	9088703a 	and	r4,r18,r2
    21f0:	203e8d1e 	bne	r4,zero,1c28 <__alt_mem_onchip_memory+0xf7801c28>
    21f4:	dc401f17 	ldw	r17,124(sp)
    21f8:	40800115 	stw	r2,4(r8)
    21fc:	44000015 	stw	r16,0(r8)
    2200:	8c400044 	addi	r17,r17,1
    2204:	d8c02015 	stw	r3,128(sp)
    2208:	dc401f15 	stw	r17,124(sp)
    220c:	008001c4 	movi	r2,7
    2210:	147f7f16 	blt	r2,r17,2010 <__alt_mem_onchip_memory+0xf7802010>
    2214:	45800204 	addi	r22,r8,8
    2218:	003eac06 	br	1ccc <__alt_mem_onchip_memory+0xf7801ccc>
    221c:	d9402c17 	ldw	r5,176(sp)
    2220:	d9801e04 	addi	r6,sp,120
    2224:	9809883a 	mov	r4,r19
    2228:	00097480 	call	9748 <__ssprint_r>
    222c:	103b801e 	bne	r2,zero,1030 <__alt_mem_onchip_memory+0xf7801030>
    2230:	d8c02017 	ldw	r3,128(sp)
    2234:	dc401f17 	ldw	r17,124(sp)
    2238:	da000404 	addi	r8,sp,16
    223c:	003e8406 	br	1c50 <__alt_mem_onchip_memory+0xf7801c50>
    2240:	d9402c17 	ldw	r5,176(sp)
    2244:	d9801e04 	addi	r6,sp,120
    2248:	9809883a 	mov	r4,r19
    224c:	00097480 	call	9748 <__ssprint_r>
    2250:	103b771e 	bne	r2,zero,1030 <__alt_mem_onchip_memory+0xf7801030>
    2254:	d8c02017 	ldw	r3,128(sp)
    2258:	dc401f17 	ldw	r17,124(sp)
    225c:	dd800404 	addi	r22,sp,16
    2260:	003e8606 	br	1c7c <__alt_mem_onchip_memory+0xf7801c7c>
    2264:	0029883a 	mov	r20,zero
    2268:	a5000c04 	addi	r20,r20,48
    226c:	dc001dc4 	addi	r16,sp,119
    2270:	dd001dc5 	stb	r20,119(sp)
    2274:	003f3806 	br	1f58 <__alt_mem_onchip_memory+0xf7801f58>
    2278:	d9402c17 	ldw	r5,176(sp)
    227c:	d9801e04 	addi	r6,sp,120
    2280:	9809883a 	mov	r4,r19
    2284:	00097480 	call	9748 <__ssprint_r>
    2288:	103b691e 	bne	r2,zero,1030 <__alt_mem_onchip_memory+0xf7801030>
    228c:	d8c02017 	ldw	r3,128(sp)
    2290:	da000404 	addi	r8,sp,16
    2294:	003c9506 	br	14ec <__alt_mem_onchip_memory+0xf78014ec>
    2298:	d9003617 	ldw	r4,216(sp)
    229c:	d9403717 	ldw	r5,220(sp)
    22a0:	da003e15 	stw	r8,248(sp)
    22a4:	00093d00 	call	93d0 <__fpclassifyd>
    22a8:	da003e17 	ldw	r8,248(sp)
    22ac:	1000bd1e 	bne	r2,zero,25a4 <___svfprintf_internal_r+0x1908>
    22b0:	008011c4 	movi	r2,71
    22b4:	14411e0e 	bge	r2,r17,2730 <___svfprintf_internal_r+0x1a94>
    22b8:	04000074 	movhi	r16,1
    22bc:	841abc04 	addi	r16,r16,27376
    22c0:	00c000c4 	movi	r3,3
    22c4:	00bfdfc4 	movi	r2,-129
    22c8:	d8c02a15 	stw	r3,168(sp)
    22cc:	90a4703a 	and	r18,r18,r2
    22d0:	df002783 	ldbu	fp,158(sp)
    22d4:	d8c02e15 	stw	r3,184(sp)
    22d8:	d8002915 	stw	zero,164(sp)
    22dc:	d8003215 	stw	zero,200(sp)
    22e0:	003c1c06 	br	1354 <__alt_mem_onchip_memory+0xf7801354>
    22e4:	9080100c 	andi	r2,r18,64
    22e8:	d8002785 	stb	zero,158(sp)
    22ec:	10009426 	beq	r2,zero,2540 <___svfprintf_internal_r+0x18a4>
    22f0:	d8c02d17 	ldw	r3,180(sp)
    22f4:	d9002917 	ldw	r4,164(sp)
    22f8:	002d883a 	mov	r22,zero
    22fc:	18800104 	addi	r2,r3,4
    2300:	1d00000b 	ldhu	r20,0(r3)
    2304:	203ec10e 	bge	r4,zero,1e0c <__alt_mem_onchip_memory+0xf7801e0c>
    2308:	a586b03a 	or	r3,r20,r22
    230c:	d8802d15 	stw	r2,180(sp)
    2310:	183ec21e 	bne	r3,zero,1e1c <__alt_mem_onchip_memory+0xf7801e1c>
    2314:	0039883a 	mov	fp,zero
    2318:	0005883a 	mov	r2,zero
    231c:	003db806 	br	1a00 <__alt_mem_onchip_memory+0xf7801a00>
    2320:	d8802d17 	ldw	r2,180(sp)
    2324:	d8c02d17 	ldw	r3,180(sp)
    2328:	d9002d17 	ldw	r4,180(sp)
    232c:	10800017 	ldw	r2,0(r2)
    2330:	18c00117 	ldw	r3,4(r3)
    2334:	21000204 	addi	r4,r4,8
    2338:	d8803615 	stw	r2,216(sp)
    233c:	d8c03715 	stw	r3,220(sp)
    2340:	d9002d15 	stw	r4,180(sp)
    2344:	003b8206 	br	1150 <__alt_mem_onchip_memory+0xf7801150>
    2348:	9080100c 	andi	r2,r18,64
    234c:	10010726 	beq	r2,zero,276c <___svfprintf_internal_r+0x1ad0>
    2350:	d8c02d17 	ldw	r3,180(sp)
    2354:	1d00000f 	ldh	r20,0(r3)
    2358:	18c00104 	addi	r3,r3,4
    235c:	d8c02d15 	stw	r3,180(sp)
    2360:	a02dd7fa 	srai	r22,r20,31
    2364:	b005883a 	mov	r2,r22
    2368:	003ba206 	br	11f4 <__alt_mem_onchip_memory+0xf78011f4>
    236c:	9080100c 	andi	r2,r18,64
    2370:	10010526 	beq	r2,zero,2788 <___svfprintf_internal_r+0x1aec>
    2374:	d9002d17 	ldw	r4,180(sp)
    2378:	002d883a 	mov	r22,zero
    237c:	2500000b 	ldhu	r20,0(r4)
    2380:	21000104 	addi	r4,r4,4
    2384:	d9002d15 	stw	r4,180(sp)
    2388:	003cfe06 	br	1784 <__alt_mem_onchip_memory+0xf7801784>
    238c:	bc400007 	ldb	r17,0(r23)
    2390:	003a9606 	br	dec <__alt_mem_onchip_memory+0xf7800dec>
    2394:	9080040c 	andi	r2,r18,16
    2398:	10010126 	beq	r2,zero,27a0 <___svfprintf_internal_r+0x1b04>
    239c:	d9402d17 	ldw	r5,180(sp)
    23a0:	d8c02f17 	ldw	r3,188(sp)
    23a4:	28800017 	ldw	r2,0(r5)
    23a8:	29400104 	addi	r5,r5,4
    23ac:	d9402d15 	stw	r5,180(sp)
    23b0:	10c00015 	stw	r3,0(r2)
    23b4:	003a6406 	br	d48 <__alt_mem_onchip_memory+0xf7800d48>
    23b8:	d9002917 	ldw	r4,164(sp)
    23bc:	d8002785 	stb	zero,158(sp)
    23c0:	203d8d16 	blt	r4,zero,19f8 <__alt_mem_onchip_memory+0xf78019f8>
    23c4:	00bfdfc4 	movi	r2,-129
    23c8:	90a4703a 	and	r18,r18,r2
    23cc:	003b0506 	br	fe4 <__alt_mem_onchip_memory+0xf7800fe4>
    23d0:	01400074 	movhi	r5,1
    23d4:	295ac984 	addi	r5,r5,27430
    23d8:	d9402b15 	stw	r5,172(sp)
    23dc:	d9402b17 	ldw	r5,172(sp)
    23e0:	1c47883a 	add	r3,r3,r17
    23e4:	10800044 	addi	r2,r2,1
    23e8:	41400015 	stw	r5,0(r8)
    23ec:	44400115 	stw	r17,4(r8)
    23f0:	d8c02015 	stw	r3,128(sp)
    23f4:	d8801f15 	stw	r2,124(sp)
    23f8:	010001c4 	movi	r4,7
    23fc:	20bf3016 	blt	r4,r2,20c0 <__alt_mem_onchip_memory+0xf78020c0>
    2400:	42000204 	addi	r8,r8,8
    2404:	003f3506 	br	20dc <__alt_mem_onchip_memory+0xf78020dc>
    2408:	01000074 	movhi	r4,1
    240c:	211ac984 	addi	r4,r4,27430
    2410:	d9002b15 	stw	r4,172(sp)
    2414:	003c5e06 	br	1590 <__alt_mem_onchip_memory+0xf7801590>
    2418:	d9402c17 	ldw	r5,176(sp)
    241c:	d9801e04 	addi	r6,sp,120
    2420:	9809883a 	mov	r4,r19
    2424:	00097480 	call	9748 <__ssprint_r>
    2428:	103b011e 	bne	r2,zero,1030 <__alt_mem_onchip_memory+0xf7801030>
    242c:	d8c02017 	ldw	r3,128(sp)
    2430:	da000404 	addi	r8,sp,16
    2434:	003d9306 	br	1a84 <__alt_mem_onchip_memory+0xf7801a84>
    2438:	d8801f17 	ldw	r2,124(sp)
    243c:	01400074 	movhi	r5,1
    2440:	01000044 	movi	r4,1
    2444:	18c00044 	addi	r3,r3,1
    2448:	10800044 	addi	r2,r2,1
    244c:	295ac904 	addi	r5,r5,27428
    2450:	41000115 	stw	r4,4(r8)
    2454:	41400015 	stw	r5,0(r8)
    2458:	d8c02015 	stw	r3,128(sp)
    245c:	d8801f15 	stw	r2,124(sp)
    2460:	010001c4 	movi	r4,7
    2464:	2080b516 	blt	r4,r2,273c <___svfprintf_internal_r+0x1aa0>
    2468:	42000204 	addi	r8,r8,8
    246c:	8800041e 	bne	r17,zero,2480 <___svfprintf_internal_r+0x17e4>
    2470:	d8803317 	ldw	r2,204(sp)
    2474:	1000021e 	bne	r2,zero,2480 <___svfprintf_internal_r+0x17e4>
    2478:	9080004c 	andi	r2,r18,1
    247c:	103c5b26 	beq	r2,zero,15ec <__alt_mem_onchip_memory+0xf78015ec>
    2480:	d9003817 	ldw	r4,224(sp)
    2484:	d8801f17 	ldw	r2,124(sp)
    2488:	d9403417 	ldw	r5,208(sp)
    248c:	20c7883a 	add	r3,r4,r3
    2490:	10800044 	addi	r2,r2,1
    2494:	41000115 	stw	r4,4(r8)
    2498:	41400015 	stw	r5,0(r8)
    249c:	d8c02015 	stw	r3,128(sp)
    24a0:	d8801f15 	stw	r2,124(sp)
    24a4:	010001c4 	movi	r4,7
    24a8:	20818016 	blt	r4,r2,2aac <___svfprintf_internal_r+0x1e10>
    24ac:	42000204 	addi	r8,r8,8
    24b0:	0463c83a 	sub	r17,zero,r17
    24b4:	0440cb0e 	bge	zero,r17,27e4 <___svfprintf_internal_r+0x1b48>
    24b8:	05800404 	movi	r22,16
    24bc:	b440e80e 	bge	r22,r17,2860 <___svfprintf_internal_r+0x1bc4>
    24c0:	01400074 	movhi	r5,1
    24c4:	295ac984 	addi	r5,r5,27430
    24c8:	d9402b15 	stw	r5,172(sp)
    24cc:	070001c4 	movi	fp,7
    24d0:	dd002c17 	ldw	r20,176(sp)
    24d4:	00000306 	br	24e4 <___svfprintf_internal_r+0x1848>
    24d8:	42000204 	addi	r8,r8,8
    24dc:	8c7ffc04 	addi	r17,r17,-16
    24e0:	b440e20e 	bge	r22,r17,286c <___svfprintf_internal_r+0x1bd0>
    24e4:	18c00404 	addi	r3,r3,16
    24e8:	10800044 	addi	r2,r2,1
    24ec:	45400015 	stw	r21,0(r8)
    24f0:	45800115 	stw	r22,4(r8)
    24f4:	d8c02015 	stw	r3,128(sp)
    24f8:	d8801f15 	stw	r2,124(sp)
    24fc:	e0bff60e 	bge	fp,r2,24d8 <__alt_mem_onchip_memory+0xf78024d8>
    2500:	d9801e04 	addi	r6,sp,120
    2504:	a00b883a 	mov	r5,r20
    2508:	9809883a 	mov	r4,r19
    250c:	00097480 	call	9748 <__ssprint_r>
    2510:	103ac71e 	bne	r2,zero,1030 <__alt_mem_onchip_memory+0xf7801030>
    2514:	d8c02017 	ldw	r3,128(sp)
    2518:	d8801f17 	ldw	r2,124(sp)
    251c:	da000404 	addi	r8,sp,16
    2520:	003fee06 	br	24dc <__alt_mem_onchip_memory+0xf78024dc>
    2524:	d8c02d17 	ldw	r3,180(sp)
    2528:	d9002917 	ldw	r4,164(sp)
    252c:	002d883a 	mov	r22,zero
    2530:	18800104 	addi	r2,r3,4
    2534:	1d000017 	ldw	r20,0(r3)
    2538:	203e7d0e 	bge	r4,zero,1f30 <__alt_mem_onchip_memory+0xf7801f30>
    253c:	003eda06 	br	20a8 <__alt_mem_onchip_memory+0xf78020a8>
    2540:	d9402d17 	ldw	r5,180(sp)
    2544:	d8c02917 	ldw	r3,164(sp)
    2548:	002d883a 	mov	r22,zero
    254c:	28800104 	addi	r2,r5,4
    2550:	2d000017 	ldw	r20,0(r5)
    2554:	183e2d0e 	bge	r3,zero,1e0c <__alt_mem_onchip_memory+0xf7801e0c>
    2558:	003f6b06 	br	2308 <__alt_mem_onchip_memory+0xf7802308>
    255c:	d8c02d15 	stw	r3,180(sp)
    2560:	0039883a 	mov	fp,zero
    2564:	003ed206 	br	20b0 <__alt_mem_onchip_memory+0xf78020b0>
    2568:	bc400043 	ldbu	r17,1(r23)
    256c:	94800814 	ori	r18,r18,32
    2570:	bdc00044 	addi	r23,r23,1
    2574:	8c403fcc 	andi	r17,r17,255
    2578:	8c40201c 	xori	r17,r17,128
    257c:	8c7fe004 	addi	r17,r17,-128
    2580:	003a1a06 	br	dec <__alt_mem_onchip_memory+0xf7800dec>
    2584:	d9402c17 	ldw	r5,176(sp)
    2588:	d9801e04 	addi	r6,sp,120
    258c:	9809883a 	mov	r4,r19
    2590:	00097480 	call	9748 <__ssprint_r>
    2594:	103aa61e 	bne	r2,zero,1030 <__alt_mem_onchip_memory+0xf7801030>
    2598:	d8c02017 	ldw	r3,128(sp)
    259c:	da000404 	addi	r8,sp,16
    25a0:	003d4a06 	br	1acc <__alt_mem_onchip_memory+0xf7801acc>
    25a4:	d9002917 	ldw	r4,164(sp)
    25a8:	05bff7c4 	movi	r22,-33
    25ac:	00bfffc4 	movi	r2,-1
    25b0:	8dac703a 	and	r22,r17,r22
    25b4:	20806a26 	beq	r4,r2,2760 <___svfprintf_internal_r+0x1ac4>
    25b8:	008011c4 	movi	r2,71
    25bc:	b0813726 	beq	r22,r2,2a9c <___svfprintf_internal_r+0x1e00>
    25c0:	d9003717 	ldw	r4,220(sp)
    25c4:	90c04014 	ori	r3,r18,256
    25c8:	d8c02b15 	stw	r3,172(sp)
    25cc:	20015d16 	blt	r4,zero,2b44 <___svfprintf_internal_r+0x1ea8>
    25d0:	dd003717 	ldw	r20,220(sp)
    25d4:	d8002a05 	stb	zero,168(sp)
    25d8:	00801984 	movi	r2,102
    25dc:	88814026 	beq	r17,r2,2ae0 <___svfprintf_internal_r+0x1e44>
    25e0:	00801184 	movi	r2,70
    25e4:	88817126 	beq	r17,r2,2bac <___svfprintf_internal_r+0x1f10>
    25e8:	00801144 	movi	r2,69
    25ec:	b0816226 	beq	r22,r2,2b78 <___svfprintf_internal_r+0x1edc>
    25f0:	d8c02917 	ldw	r3,164(sp)
    25f4:	d8802104 	addi	r2,sp,132
    25f8:	d8800315 	stw	r2,12(sp)
    25fc:	d9403617 	ldw	r5,216(sp)
    2600:	d8802504 	addi	r2,sp,148
    2604:	d8800215 	stw	r2,8(sp)
    2608:	d8802604 	addi	r2,sp,152
    260c:	d8c00015 	stw	r3,0(sp)
    2610:	d8800115 	stw	r2,4(sp)
    2614:	01c00084 	movi	r7,2
    2618:	a00d883a 	mov	r6,r20
    261c:	9809883a 	mov	r4,r19
    2620:	d8c03d15 	stw	r3,244(sp)
    2624:	da003e15 	stw	r8,248(sp)
    2628:	00054980 	call	5498 <_dtoa_r>
    262c:	1021883a 	mov	r16,r2
    2630:	008019c4 	movi	r2,103
    2634:	d8c03d17 	ldw	r3,244(sp)
    2638:	da003e17 	ldw	r8,248(sp)
    263c:	8880e726 	beq	r17,r2,29dc <___svfprintf_internal_r+0x1d40>
    2640:	008011c4 	movi	r2,71
    2644:	8880d426 	beq	r17,r2,2998 <___svfprintf_internal_r+0x1cfc>
    2648:	80f9883a 	add	fp,r16,r3
    264c:	d9003617 	ldw	r4,216(sp)
    2650:	000d883a 	mov	r6,zero
    2654:	000f883a 	mov	r7,zero
    2658:	a00b883a 	mov	r5,r20
    265c:	da003e15 	stw	r8,248(sp)
    2660:	000f2900 	call	f290 <__eqdf2>
    2664:	da003e17 	ldw	r8,248(sp)
    2668:	1000e426 	beq	r2,zero,29fc <___svfprintf_internal_r+0x1d60>
    266c:	d8802117 	ldw	r2,132(sp)
    2670:	1700062e 	bgeu	r2,fp,268c <___svfprintf_internal_r+0x19f0>
    2674:	01000c04 	movi	r4,48
    2678:	10c00044 	addi	r3,r2,1
    267c:	d8c02115 	stw	r3,132(sp)
    2680:	11000005 	stb	r4,0(r2)
    2684:	d8802117 	ldw	r2,132(sp)
    2688:	173ffb36 	bltu	r2,fp,2678 <__alt_mem_onchip_memory+0xf7802678>
    268c:	1405c83a 	sub	r2,r2,r16
    2690:	d8803315 	stw	r2,204(sp)
    2694:	008011c4 	movi	r2,71
    2698:	b080c526 	beq	r22,r2,29b0 <___svfprintf_internal_r+0x1d14>
    269c:	00801944 	movi	r2,101
    26a0:	1441d90e 	bge	r2,r17,2e08 <___svfprintf_internal_r+0x216c>
    26a4:	d8c02617 	ldw	r3,152(sp)
    26a8:	00801984 	movi	r2,102
    26ac:	d8c03215 	stw	r3,200(sp)
    26b0:	88813426 	beq	r17,r2,2b84 <___svfprintf_internal_r+0x1ee8>
    26b4:	d8c03217 	ldw	r3,200(sp)
    26b8:	d9003317 	ldw	r4,204(sp)
    26bc:	19012516 	blt	r3,r4,2b54 <___svfprintf_internal_r+0x1eb8>
    26c0:	9480004c 	andi	r18,r18,1
    26c4:	9001841e 	bne	r18,zero,2cd8 <___svfprintf_internal_r+0x203c>
    26c8:	1805883a 	mov	r2,r3
    26cc:	1801cc16 	blt	r3,zero,2e00 <___svfprintf_internal_r+0x2164>
    26d0:	d8c03217 	ldw	r3,200(sp)
    26d4:	044019c4 	movi	r17,103
    26d8:	d8c02e15 	stw	r3,184(sp)
    26dc:	df002a07 	ldb	fp,168(sp)
    26e0:	e000a61e 	bne	fp,zero,297c <___svfprintf_internal_r+0x1ce0>
    26e4:	df002783 	ldbu	fp,158(sp)
    26e8:	d8802a15 	stw	r2,168(sp)
    26ec:	dc802b17 	ldw	r18,172(sp)
    26f0:	d8002915 	stw	zero,164(sp)
    26f4:	003b1706 	br	1354 <__alt_mem_onchip_memory+0xf7801354>
    26f8:	04000074 	movhi	r16,1
    26fc:	841ab904 	addi	r16,r16,27364
    2700:	003aa606 	br	119c <__alt_mem_onchip_memory+0xf780119c>
    2704:	d9003917 	ldw	r4,228(sp)
    2708:	04001004 	movi	r16,64
    270c:	800b883a 	mov	r5,r16
    2710:	00079bc0 	call	79bc <_malloc_r>
    2714:	d9002c17 	ldw	r4,176(sp)
    2718:	20800015 	stw	r2,0(r4)
    271c:	20800415 	stw	r2,16(r4)
    2720:	1001cb26 	beq	r2,zero,2e50 <___svfprintf_internal_r+0x21b4>
    2724:	d8802c17 	ldw	r2,176(sp)
    2728:	14000515 	stw	r16,20(r2)
    272c:	00397606 	br	d08 <__alt_mem_onchip_memory+0xf7800d08>
    2730:	04000074 	movhi	r16,1
    2734:	841abb04 	addi	r16,r16,27372
    2738:	003ee106 	br	22c0 <__alt_mem_onchip_memory+0xf78022c0>
    273c:	d9402c17 	ldw	r5,176(sp)
    2740:	d9801e04 	addi	r6,sp,120
    2744:	9809883a 	mov	r4,r19
    2748:	00097480 	call	9748 <__ssprint_r>
    274c:	103a381e 	bne	r2,zero,1030 <__alt_mem_onchip_memory+0xf7801030>
    2750:	dc402617 	ldw	r17,152(sp)
    2754:	d8c02017 	ldw	r3,128(sp)
    2758:	da000404 	addi	r8,sp,16
    275c:	003f4306 	br	246c <__alt_mem_onchip_memory+0xf780246c>
    2760:	01400184 	movi	r5,6
    2764:	d9402915 	stw	r5,164(sp)
    2768:	003f9506 	br	25c0 <__alt_mem_onchip_memory+0xf78025c0>
    276c:	d9002d17 	ldw	r4,180(sp)
    2770:	25000017 	ldw	r20,0(r4)
    2774:	21000104 	addi	r4,r4,4
    2778:	d9002d15 	stw	r4,180(sp)
    277c:	a02dd7fa 	srai	r22,r20,31
    2780:	b005883a 	mov	r2,r22
    2784:	003a9b06 	br	11f4 <__alt_mem_onchip_memory+0xf78011f4>
    2788:	d9402d17 	ldw	r5,180(sp)
    278c:	002d883a 	mov	r22,zero
    2790:	2d000017 	ldw	r20,0(r5)
    2794:	29400104 	addi	r5,r5,4
    2798:	d9402d15 	stw	r5,180(sp)
    279c:	003bf906 	br	1784 <__alt_mem_onchip_memory+0xf7801784>
    27a0:	9480100c 	andi	r18,r18,64
    27a4:	90006e26 	beq	r18,zero,2960 <___svfprintf_internal_r+0x1cc4>
    27a8:	d9002d17 	ldw	r4,180(sp)
    27ac:	d9402f17 	ldw	r5,188(sp)
    27b0:	20800017 	ldw	r2,0(r4)
    27b4:	21000104 	addi	r4,r4,4
    27b8:	d9002d15 	stw	r4,180(sp)
    27bc:	1140000d 	sth	r5,0(r2)
    27c0:	00396106 	br	d48 <__alt_mem_onchip_memory+0xf7800d48>
    27c4:	d9402c17 	ldw	r5,176(sp)
    27c8:	d9801e04 	addi	r6,sp,120
    27cc:	9809883a 	mov	r4,r19
    27d0:	00097480 	call	9748 <__ssprint_r>
    27d4:	103a161e 	bne	r2,zero,1030 <__alt_mem_onchip_memory+0xf7801030>
    27d8:	d8c02017 	ldw	r3,128(sp)
    27dc:	d8801f17 	ldw	r2,124(sp)
    27e0:	da000404 	addi	r8,sp,16
    27e4:	d9403317 	ldw	r5,204(sp)
    27e8:	10800044 	addi	r2,r2,1
    27ec:	44000015 	stw	r16,0(r8)
    27f0:	28c7883a 	add	r3,r5,r3
    27f4:	003b7706 	br	15d4 <__alt_mem_onchip_memory+0xf78015d4>
    27f8:	8009883a 	mov	r4,r16
    27fc:	da003e15 	stw	r8,248(sp)
    2800:	00096b00 	call	96b0 <strlen>
    2804:	d8802e15 	stw	r2,184(sp)
    2808:	da003e17 	ldw	r8,248(sp)
    280c:	103c280e 	bge	r2,zero,18b0 <__alt_mem_onchip_memory+0xf78018b0>
    2810:	0005883a 	mov	r2,zero
    2814:	003c2606 	br	18b0 <__alt_mem_onchip_memory+0xf78018b0>
    2818:	00bfffc4 	movi	r2,-1
    281c:	003a0906 	br	1044 <__alt_mem_onchip_memory+0xf7801044>
    2820:	01000074 	movhi	r4,1
    2824:	211acd84 	addi	r4,r4,27446
    2828:	d9003515 	stw	r4,212(sp)
    282c:	003b0606 	br	1448 <__alt_mem_onchip_memory+0xf7801448>
    2830:	013fffc4 	movi	r4,-1
    2834:	003a2706 	br	10d4 <__alt_mem_onchip_memory+0xf78010d4>
    2838:	d9402c17 	ldw	r5,176(sp)
    283c:	d9801e04 	addi	r6,sp,120
    2840:	9809883a 	mov	r4,r19
    2844:	00097480 	call	9748 <__ssprint_r>
    2848:	1039f91e 	bne	r2,zero,1030 <__alt_mem_onchip_memory+0xf7801030>
    284c:	d8c02017 	ldw	r3,128(sp)
    2850:	da000404 	addi	r8,sp,16
    2854:	003d8406 	br	1e68 <__alt_mem_onchip_memory+0xf7801e68>
    2858:	0023883a 	mov	r17,zero
    285c:	003d8306 	br	1e6c <__alt_mem_onchip_memory+0xf7801e6c>
    2860:	01000074 	movhi	r4,1
    2864:	211ac984 	addi	r4,r4,27430
    2868:	d9002b15 	stw	r4,172(sp)
    286c:	d9002b17 	ldw	r4,172(sp)
    2870:	1c47883a 	add	r3,r3,r17
    2874:	10800044 	addi	r2,r2,1
    2878:	41000015 	stw	r4,0(r8)
    287c:	44400115 	stw	r17,4(r8)
    2880:	d8c02015 	stw	r3,128(sp)
    2884:	d8801f15 	stw	r2,124(sp)
    2888:	010001c4 	movi	r4,7
    288c:	20bfcd16 	blt	r4,r2,27c4 <__alt_mem_onchip_memory+0xf78027c4>
    2890:	42000204 	addi	r8,r8,8
    2894:	003fd306 	br	27e4 <__alt_mem_onchip_memory+0xf78027e4>
    2898:	d9402c17 	ldw	r5,176(sp)
    289c:	d9801e04 	addi	r6,sp,120
    28a0:	9809883a 	mov	r4,r19
    28a4:	00097480 	call	9748 <__ssprint_r>
    28a8:	1039e11e 	bne	r2,zero,1030 <__alt_mem_onchip_memory+0xf7801030>
    28ac:	d8802617 	ldw	r2,152(sp)
    28b0:	d8c02017 	ldw	r3,128(sp)
    28b4:	da000404 	addi	r8,sp,16
    28b8:	003e1c06 	br	212c <__alt_mem_onchip_memory+0xf780212c>
    28bc:	d8802917 	ldw	r2,164(sp)
    28c0:	00c00184 	movi	r3,6
    28c4:	1880012e 	bgeu	r3,r2,28cc <___svfprintf_internal_r+0x1c30>
    28c8:	1805883a 	mov	r2,r3
    28cc:	d8802e15 	stw	r2,184(sp)
    28d0:	1000f316 	blt	r2,zero,2ca0 <___svfprintf_internal_r+0x2004>
    28d4:	04000074 	movhi	r16,1
    28d8:	d8802a15 	stw	r2,168(sp)
    28dc:	dd002d15 	stw	r20,180(sp)
    28e0:	d8002915 	stw	zero,164(sp)
    28e4:	d8003215 	stw	zero,200(sp)
    28e8:	841ac704 	addi	r16,r16,27420
    28ec:	0039883a 	mov	fp,zero
    28f0:	003a9f06 	br	1370 <__alt_mem_onchip_memory+0xf7801370>
    28f4:	01000074 	movhi	r4,1
    28f8:	211acd84 	addi	r4,r4,27446
    28fc:	d9003515 	stw	r4,212(sp)
    2900:	003b5f06 	br	1680 <__alt_mem_onchip_memory+0xf7801680>
    2904:	d9402c17 	ldw	r5,176(sp)
    2908:	d9801e04 	addi	r6,sp,120
    290c:	9809883a 	mov	r4,r19
    2910:	00097480 	call	9748 <__ssprint_r>
    2914:	1039c61e 	bne	r2,zero,1030 <__alt_mem_onchip_memory+0xf7801030>
    2918:	d8802617 	ldw	r2,152(sp)
    291c:	d9403317 	ldw	r5,204(sp)
    2920:	d8c02017 	ldw	r3,128(sp)
    2924:	da000404 	addi	r8,sp,16
    2928:	2885c83a 	sub	r2,r5,r2
    292c:	003e1006 	br	2170 <__alt_mem_onchip_memory+0xf7802170>
    2930:	00800044 	movi	r2,1
    2934:	10803fcc 	andi	r2,r2,255
    2938:	00c00044 	movi	r3,1
    293c:	10fa3526 	beq	r2,r3,1214 <__alt_mem_onchip_memory+0xf7801214>
    2940:	00c00084 	movi	r3,2
    2944:	10fb9e26 	beq	r2,r3,17c0 <__alt_mem_onchip_memory+0xf78017c0>
    2948:	003a6406 	br	12dc <__alt_mem_onchip_memory+0xf78012dc>
    294c:	0021883a 	mov	r16,zero
    2950:	003e0806 	br	2174 <__alt_mem_onchip_memory+0xf7802174>
    2954:	07000b44 	movi	fp,45
    2958:	df002785 	stb	fp,158(sp)
    295c:	003a0b06 	br	118c <__alt_mem_onchip_memory+0xf780118c>
    2960:	d8c02d17 	ldw	r3,180(sp)
    2964:	d9002f17 	ldw	r4,188(sp)
    2968:	18800017 	ldw	r2,0(r3)
    296c:	18c00104 	addi	r3,r3,4
    2970:	d8c02d15 	stw	r3,180(sp)
    2974:	11000015 	stw	r4,0(r2)
    2978:	0038f306 	br	d48 <__alt_mem_onchip_memory+0xf7800d48>
    297c:	00c00b44 	movi	r3,45
    2980:	d8c02785 	stb	r3,158(sp)
    2984:	d8802a15 	stw	r2,168(sp)
    2988:	dc802b17 	ldw	r18,172(sp)
    298c:	d8002915 	stw	zero,164(sp)
    2990:	07000b44 	movi	fp,45
    2994:	003a7306 	br	1364 <__alt_mem_onchip_memory+0xf7801364>
    2998:	9080004c 	andi	r2,r18,1
    299c:	1000941e 	bne	r2,zero,2bf0 <___svfprintf_internal_r+0x1f54>
    29a0:	d8802117 	ldw	r2,132(sp)
    29a4:	1405c83a 	sub	r2,r2,r16
    29a8:	d8803315 	stw	r2,204(sp)
    29ac:	b441161e 	bne	r22,r17,2e08 <___svfprintf_internal_r+0x216c>
    29b0:	dd802617 	ldw	r22,152(sp)
    29b4:	00bfff44 	movi	r2,-3
    29b8:	b0801a16 	blt	r22,r2,2a24 <___svfprintf_internal_r+0x1d88>
    29bc:	d9402917 	ldw	r5,164(sp)
    29c0:	2d801816 	blt	r5,r22,2a24 <___svfprintf_internal_r+0x1d88>
    29c4:	dd803215 	stw	r22,200(sp)
    29c8:	003f3a06 	br	26b4 <__alt_mem_onchip_memory+0xf78026b4>
    29cc:	1025883a 	mov	r18,r2
    29d0:	0039883a 	mov	fp,zero
    29d4:	00800084 	movi	r2,2
    29d8:	003fd606 	br	2934 <__alt_mem_onchip_memory+0xf7802934>
    29dc:	9080004c 	andi	r2,r18,1
    29e0:	103f191e 	bne	r2,zero,2648 <__alt_mem_onchip_memory+0xf7802648>
    29e4:	d8802117 	ldw	r2,132(sp)
    29e8:	003f2806 	br	268c <__alt_mem_onchip_memory+0xf780268c>
    29ec:	01000074 	movhi	r4,1
    29f0:	211ac984 	addi	r4,r4,27430
    29f4:	d9002b15 	stw	r4,172(sp)
    29f8:	003c7c06 	br	1bec <__alt_mem_onchip_memory+0xf7801bec>
    29fc:	e005883a 	mov	r2,fp
    2a00:	003f2206 	br	268c <__alt_mem_onchip_memory+0xf780268c>
    2a04:	d9402917 	ldw	r5,164(sp)
    2a08:	df002783 	ldbu	fp,158(sp)
    2a0c:	dd002d15 	stw	r20,180(sp)
    2a10:	d9402a15 	stw	r5,168(sp)
    2a14:	d9402e15 	stw	r5,184(sp)
    2a18:	d8002915 	stw	zero,164(sp)
    2a1c:	d8003215 	stw	zero,200(sp)
    2a20:	003a4c06 	br	1354 <__alt_mem_onchip_memory+0xf7801354>
    2a24:	8c7fff84 	addi	r17,r17,-2
    2a28:	b5bfffc4 	addi	r22,r22,-1
    2a2c:	dd802615 	stw	r22,152(sp)
    2a30:	dc4022c5 	stb	r17,139(sp)
    2a34:	b000c316 	blt	r22,zero,2d44 <___svfprintf_internal_r+0x20a8>
    2a38:	00800ac4 	movi	r2,43
    2a3c:	d8802305 	stb	r2,140(sp)
    2a40:	00800244 	movi	r2,9
    2a44:	15806e16 	blt	r2,r22,2c00 <___svfprintf_internal_r+0x1f64>
    2a48:	00800c04 	movi	r2,48
    2a4c:	b5800c04 	addi	r22,r22,48
    2a50:	d8802345 	stb	r2,141(sp)
    2a54:	dd802385 	stb	r22,142(sp)
    2a58:	d88023c4 	addi	r2,sp,143
    2a5c:	df0022c4 	addi	fp,sp,139
    2a60:	d8c03317 	ldw	r3,204(sp)
    2a64:	1739c83a 	sub	fp,r2,fp
    2a68:	d9003317 	ldw	r4,204(sp)
    2a6c:	e0c7883a 	add	r3,fp,r3
    2a70:	df003b15 	stw	fp,236(sp)
    2a74:	d8c02e15 	stw	r3,184(sp)
    2a78:	00800044 	movi	r2,1
    2a7c:	1100b70e 	bge	r2,r4,2d5c <___svfprintf_internal_r+0x20c0>
    2a80:	d8c02e17 	ldw	r3,184(sp)
    2a84:	18c00044 	addi	r3,r3,1
    2a88:	d8c02e15 	stw	r3,184(sp)
    2a8c:	1805883a 	mov	r2,r3
    2a90:	1800b016 	blt	r3,zero,2d54 <___svfprintf_internal_r+0x20b8>
    2a94:	d8003215 	stw	zero,200(sp)
    2a98:	003f1006 	br	26dc <__alt_mem_onchip_memory+0xf78026dc>
    2a9c:	d8802917 	ldw	r2,164(sp)
    2aa0:	103ec71e 	bne	r2,zero,25c0 <__alt_mem_onchip_memory+0xf78025c0>
    2aa4:	dc002915 	stw	r16,164(sp)
    2aa8:	003ec506 	br	25c0 <__alt_mem_onchip_memory+0xf78025c0>
    2aac:	d9402c17 	ldw	r5,176(sp)
    2ab0:	d9801e04 	addi	r6,sp,120
    2ab4:	9809883a 	mov	r4,r19
    2ab8:	00097480 	call	9748 <__ssprint_r>
    2abc:	10395c1e 	bne	r2,zero,1030 <__alt_mem_onchip_memory+0xf7801030>
    2ac0:	dc402617 	ldw	r17,152(sp)
    2ac4:	d8c02017 	ldw	r3,128(sp)
    2ac8:	d8801f17 	ldw	r2,124(sp)
    2acc:	da000404 	addi	r8,sp,16
    2ad0:	003e7706 	br	24b0 <__alt_mem_onchip_memory+0xf78024b0>
    2ad4:	582f883a 	mov	r23,r11
    2ad8:	d8002915 	stw	zero,164(sp)
    2adc:	0038c406 	br	df0 <__alt_mem_onchip_memory+0xf7800df0>
    2ae0:	d8c02917 	ldw	r3,164(sp)
    2ae4:	d8802104 	addi	r2,sp,132
    2ae8:	d8800315 	stw	r2,12(sp)
    2aec:	d9403617 	ldw	r5,216(sp)
    2af0:	d8802504 	addi	r2,sp,148
    2af4:	d8800215 	stw	r2,8(sp)
    2af8:	d8802604 	addi	r2,sp,152
    2afc:	d8c00015 	stw	r3,0(sp)
    2b00:	9809883a 	mov	r4,r19
    2b04:	d8800115 	stw	r2,4(sp)
    2b08:	01c000c4 	movi	r7,3
    2b0c:	a00d883a 	mov	r6,r20
    2b10:	da003e15 	stw	r8,248(sp)
    2b14:	00054980 	call	5498 <_dtoa_r>
    2b18:	d9002917 	ldw	r4,164(sp)
    2b1c:	da003e17 	ldw	r8,248(sp)
    2b20:	1021883a 	mov	r16,r2
    2b24:	1139883a 	add	fp,r2,r4
    2b28:	2007883a 	mov	r3,r4
    2b2c:	81000007 	ldb	r4,0(r16)
    2b30:	00800c04 	movi	r2,48
    2b34:	20806f26 	beq	r4,r2,2cf4 <___svfprintf_internal_r+0x2058>
    2b38:	d8c02617 	ldw	r3,152(sp)
    2b3c:	e0f9883a 	add	fp,fp,r3
    2b40:	003ec206 	br	264c <__alt_mem_onchip_memory+0xf780264c>
    2b44:	00c00b44 	movi	r3,45
    2b48:	2520003c 	xorhi	r20,r4,32768
    2b4c:	d8c02a05 	stb	r3,168(sp)
    2b50:	003ea106 	br	25d8 <__alt_mem_onchip_memory+0xf78025d8>
    2b54:	d8c03217 	ldw	r3,200(sp)
    2b58:	00c0890e 	bge	zero,r3,2d80 <___svfprintf_internal_r+0x20e4>
    2b5c:	00800044 	movi	r2,1
    2b60:	d9003317 	ldw	r4,204(sp)
    2b64:	1105883a 	add	r2,r2,r4
    2b68:	d8802e15 	stw	r2,184(sp)
    2b6c:	10005f16 	blt	r2,zero,2cec <___svfprintf_internal_r+0x2050>
    2b70:	044019c4 	movi	r17,103
    2b74:	003ed906 	br	26dc <__alt_mem_onchip_memory+0xf78026dc>
    2b78:	d9002917 	ldw	r4,164(sp)
    2b7c:	20c00044 	addi	r3,r4,1
    2b80:	003e9c06 	br	25f4 <__alt_mem_onchip_memory+0xf78025f4>
    2b84:	d9002917 	ldw	r4,164(sp)
    2b88:	00c0680e 	bge	zero,r3,2d2c <___svfprintf_internal_r+0x2090>
    2b8c:	2000461e 	bne	r4,zero,2ca8 <___svfprintf_internal_r+0x200c>
    2b90:	9480004c 	andi	r18,r18,1
    2b94:	9000441e 	bne	r18,zero,2ca8 <___svfprintf_internal_r+0x200c>
    2b98:	1805883a 	mov	r2,r3
    2b9c:	1800a016 	blt	r3,zero,2e20 <___svfprintf_internal_r+0x2184>
    2ba0:	d8c03217 	ldw	r3,200(sp)
    2ba4:	d8c02e15 	stw	r3,184(sp)
    2ba8:	003ecc06 	br	26dc <__alt_mem_onchip_memory+0xf78026dc>
    2bac:	d9402917 	ldw	r5,164(sp)
    2bb0:	d8802104 	addi	r2,sp,132
    2bb4:	d8800315 	stw	r2,12(sp)
    2bb8:	d9400015 	stw	r5,0(sp)
    2bbc:	d8802504 	addi	r2,sp,148
    2bc0:	d9403617 	ldw	r5,216(sp)
    2bc4:	d8800215 	stw	r2,8(sp)
    2bc8:	d8802604 	addi	r2,sp,152
    2bcc:	d8800115 	stw	r2,4(sp)
    2bd0:	01c000c4 	movi	r7,3
    2bd4:	a00d883a 	mov	r6,r20
    2bd8:	9809883a 	mov	r4,r19
    2bdc:	da003e15 	stw	r8,248(sp)
    2be0:	00054980 	call	5498 <_dtoa_r>
    2be4:	d8c02917 	ldw	r3,164(sp)
    2be8:	da003e17 	ldw	r8,248(sp)
    2bec:	1021883a 	mov	r16,r2
    2bf0:	00801184 	movi	r2,70
    2bf4:	80f9883a 	add	fp,r16,r3
    2bf8:	88bfcc26 	beq	r17,r2,2b2c <__alt_mem_onchip_memory+0xf7802b2c>
    2bfc:	003e9306 	br	264c <__alt_mem_onchip_memory+0xf780264c>
    2c00:	df0022c4 	addi	fp,sp,139
    2c04:	dc002915 	stw	r16,164(sp)
    2c08:	9829883a 	mov	r20,r19
    2c0c:	e021883a 	mov	r16,fp
    2c10:	4027883a 	mov	r19,r8
    2c14:	b009883a 	mov	r4,r22
    2c18:	01400284 	movi	r5,10
    2c1c:	00008f40 	call	8f4 <__modsi3>
    2c20:	10800c04 	addi	r2,r2,48
    2c24:	843fffc4 	addi	r16,r16,-1
    2c28:	b009883a 	mov	r4,r22
    2c2c:	01400284 	movi	r5,10
    2c30:	80800005 	stb	r2,0(r16)
    2c34:	00008700 	call	870 <__divsi3>
    2c38:	102d883a 	mov	r22,r2
    2c3c:	00800244 	movi	r2,9
    2c40:	15bff416 	blt	r2,r22,2c14 <__alt_mem_onchip_memory+0xf7802c14>
    2c44:	9811883a 	mov	r8,r19
    2c48:	b0800c04 	addi	r2,r22,48
    2c4c:	a027883a 	mov	r19,r20
    2c50:	8029883a 	mov	r20,r16
    2c54:	a17fffc4 	addi	r5,r20,-1
    2c58:	a0bfffc5 	stb	r2,-1(r20)
    2c5c:	dc002917 	ldw	r16,164(sp)
    2c60:	2f00752e 	bgeu	r5,fp,2e38 <___svfprintf_internal_r+0x219c>
    2c64:	d9c02384 	addi	r7,sp,142
    2c68:	3d0fc83a 	sub	r7,r7,r20
    2c6c:	d9002344 	addi	r4,sp,141
    2c70:	e1cf883a 	add	r7,fp,r7
    2c74:	00000106 	br	2c7c <___svfprintf_internal_r+0x1fe0>
    2c78:	28800003 	ldbu	r2,0(r5)
    2c7c:	20800005 	stb	r2,0(r4)
    2c80:	21000044 	addi	r4,r4,1
    2c84:	29400044 	addi	r5,r5,1
    2c88:	21fffb1e 	bne	r4,r7,2c78 <__alt_mem_onchip_memory+0xf7802c78>
    2c8c:	d8802304 	addi	r2,sp,140
    2c90:	1505c83a 	sub	r2,r2,r20
    2c94:	d8c02344 	addi	r3,sp,141
    2c98:	1885883a 	add	r2,r3,r2
    2c9c:	003f7006 	br	2a60 <__alt_mem_onchip_memory+0xf7802a60>
    2ca0:	0005883a 	mov	r2,zero
    2ca4:	003f0b06 	br	28d4 <__alt_mem_onchip_memory+0xf78028d4>
    2ca8:	d9002917 	ldw	r4,164(sp)
    2cac:	d8c03217 	ldw	r3,200(sp)
    2cb0:	20800044 	addi	r2,r4,1
    2cb4:	1885883a 	add	r2,r3,r2
    2cb8:	d8802e15 	stw	r2,184(sp)
    2cbc:	103e870e 	bge	r2,zero,26dc <__alt_mem_onchip_memory+0xf78026dc>
    2cc0:	0005883a 	mov	r2,zero
    2cc4:	003e8506 	br	26dc <__alt_mem_onchip_memory+0xf78026dc>
    2cc8:	01000074 	movhi	r4,1
    2ccc:	211ac984 	addi	r4,r4,27430
    2cd0:	d9002b15 	stw	r4,172(sp)
    2cd4:	003cc506 	br	1fec <__alt_mem_onchip_memory+0xf7801fec>
    2cd8:	d8c03217 	ldw	r3,200(sp)
    2cdc:	18c00044 	addi	r3,r3,1
    2ce0:	d8c02e15 	stw	r3,184(sp)
    2ce4:	1805883a 	mov	r2,r3
    2ce8:	183fa10e 	bge	r3,zero,2b70 <__alt_mem_onchip_memory+0xf7802b70>
    2cec:	0005883a 	mov	r2,zero
    2cf0:	003f9f06 	br	2b70 <__alt_mem_onchip_memory+0xf7802b70>
    2cf4:	d9003617 	ldw	r4,216(sp)
    2cf8:	000d883a 	mov	r6,zero
    2cfc:	000f883a 	mov	r7,zero
    2d00:	a00b883a 	mov	r5,r20
    2d04:	d8c03d15 	stw	r3,244(sp)
    2d08:	da003e15 	stw	r8,248(sp)
    2d0c:	000f2900 	call	f290 <__eqdf2>
    2d10:	d8c03d17 	ldw	r3,244(sp)
    2d14:	da003e17 	ldw	r8,248(sp)
    2d18:	103f8726 	beq	r2,zero,2b38 <__alt_mem_onchip_memory+0xf7802b38>
    2d1c:	00800044 	movi	r2,1
    2d20:	10c7c83a 	sub	r3,r2,r3
    2d24:	d8c02615 	stw	r3,152(sp)
    2d28:	003f8406 	br	2b3c <__alt_mem_onchip_memory+0xf7802b3c>
    2d2c:	20000e1e 	bne	r4,zero,2d68 <___svfprintf_internal_r+0x20cc>
    2d30:	9480004c 	andi	r18,r18,1
    2d34:	90000c1e 	bne	r18,zero,2d68 <___svfprintf_internal_r+0x20cc>
    2d38:	00800044 	movi	r2,1
    2d3c:	d8802e15 	stw	r2,184(sp)
    2d40:	003e6606 	br	26dc <__alt_mem_onchip_memory+0xf78026dc>
    2d44:	00800b44 	movi	r2,45
    2d48:	05adc83a 	sub	r22,zero,r22
    2d4c:	d8802305 	stb	r2,140(sp)
    2d50:	003f3b06 	br	2a40 <__alt_mem_onchip_memory+0xf7802a40>
    2d54:	0005883a 	mov	r2,zero
    2d58:	003f4e06 	br	2a94 <__alt_mem_onchip_memory+0xf7802a94>
    2d5c:	90a4703a 	and	r18,r18,r2
    2d60:	903f4a26 	beq	r18,zero,2a8c <__alt_mem_onchip_memory+0xf7802a8c>
    2d64:	003f4606 	br	2a80 <__alt_mem_onchip_memory+0xf7802a80>
    2d68:	d8c02917 	ldw	r3,164(sp)
    2d6c:	18c00084 	addi	r3,r3,2
    2d70:	d8c02e15 	stw	r3,184(sp)
    2d74:	1805883a 	mov	r2,r3
    2d78:	183e580e 	bge	r3,zero,26dc <__alt_mem_onchip_memory+0xf78026dc>
    2d7c:	003fd006 	br	2cc0 <__alt_mem_onchip_memory+0xf7802cc0>
    2d80:	00800084 	movi	r2,2
    2d84:	10c5c83a 	sub	r2,r2,r3
    2d88:	003f7506 	br	2b60 <__alt_mem_onchip_memory+0xf7802b60>
    2d8c:	d8802d17 	ldw	r2,180(sp)
    2d90:	d9002d17 	ldw	r4,180(sp)
    2d94:	bc400043 	ldbu	r17,1(r23)
    2d98:	10800017 	ldw	r2,0(r2)
    2d9c:	582f883a 	mov	r23,r11
    2da0:	d8802915 	stw	r2,164(sp)
    2da4:	20800104 	addi	r2,r4,4
    2da8:	d9002917 	ldw	r4,164(sp)
    2dac:	d8802d15 	stw	r2,180(sp)
    2db0:	203df00e 	bge	r4,zero,2574 <__alt_mem_onchip_memory+0xf7802574>
    2db4:	8c403fcc 	andi	r17,r17,255
    2db8:	00bfffc4 	movi	r2,-1
    2dbc:	8c40201c 	xori	r17,r17,128
    2dc0:	d8802915 	stw	r2,164(sp)
    2dc4:	8c7fe004 	addi	r17,r17,-128
    2dc8:	00380806 	br	dec <__alt_mem_onchip_memory+0xf7800dec>
    2dcc:	9080004c 	andi	r2,r18,1
    2dd0:	0039883a 	mov	fp,zero
    2dd4:	10000726 	beq	r2,zero,2df4 <___svfprintf_internal_r+0x2158>
    2dd8:	d8c02817 	ldw	r3,160(sp)
    2ddc:	dc001dc4 	addi	r16,sp,119
    2de0:	00800c04 	movi	r2,48
    2de4:	1c07c83a 	sub	r3,r3,r16
    2de8:	d8801dc5 	stb	r2,119(sp)
    2dec:	d8c02e15 	stw	r3,184(sp)
    2df0:	00395206 	br	133c <__alt_mem_onchip_memory+0xf780133c>
    2df4:	d8002e15 	stw	zero,184(sp)
    2df8:	dc001e04 	addi	r16,sp,120
    2dfc:	00394f06 	br	133c <__alt_mem_onchip_memory+0xf780133c>
    2e00:	0005883a 	mov	r2,zero
    2e04:	003e3206 	br	26d0 <__alt_mem_onchip_memory+0xf78026d0>
    2e08:	dd802617 	ldw	r22,152(sp)
    2e0c:	003f0606 	br	2a28 <__alt_mem_onchip_memory+0xf7802a28>
    2e10:	d9c02785 	stb	r7,158(sp)
    2e14:	003a5106 	br	175c <__alt_mem_onchip_memory+0xf780175c>
    2e18:	d9c02785 	stb	r7,158(sp)
    2e1c:	003a3706 	br	16fc <__alt_mem_onchip_memory+0xf78016fc>
    2e20:	0005883a 	mov	r2,zero
    2e24:	003f5e06 	br	2ba0 <__alt_mem_onchip_memory+0xf7802ba0>
    2e28:	d9c02785 	stb	r7,158(sp)
    2e2c:	00391706 	br	128c <__alt_mem_onchip_memory+0xf780128c>
    2e30:	d9c02785 	stb	r7,158(sp)
    2e34:	0038e606 	br	11d0 <__alt_mem_onchip_memory+0xf78011d0>
    2e38:	d8802344 	addi	r2,sp,141
    2e3c:	003f0806 	br	2a60 <__alt_mem_onchip_memory+0xf7802a60>
    2e40:	d9c02785 	stb	r7,158(sp)
    2e44:	0038b706 	br	1124 <__alt_mem_onchip_memory+0xf7801124>
    2e48:	d9c02785 	stb	r7,158(sp)
    2e4c:	003adc06 	br	19c0 <__alt_mem_onchip_memory+0xf78019c0>
    2e50:	d9403917 	ldw	r5,228(sp)
    2e54:	00800304 	movi	r2,12
    2e58:	28800015 	stw	r2,0(r5)
    2e5c:	00bfffc4 	movi	r2,-1
    2e60:	00387806 	br	1044 <__alt_mem_onchip_memory+0xf7801044>
    2e64:	d9c02785 	stb	r7,158(sp)
    2e68:	003abf06 	br	1968 <__alt_mem_onchip_memory+0xf7801968>
    2e6c:	d9c02785 	stb	r7,158(sp)
    2e70:	003a9b06 	br	18e0 <__alt_mem_onchip_memory+0xf78018e0>

00002e74 <___vfprintf_internal_r>:
    2e74:	deffb804 	addi	sp,sp,-288
    2e78:	dfc04715 	stw	ra,284(sp)
    2e7c:	ddc04515 	stw	r23,276(sp)
    2e80:	dd404315 	stw	r21,268(sp)
    2e84:	d9002c15 	stw	r4,176(sp)
    2e88:	282f883a 	mov	r23,r5
    2e8c:	302b883a 	mov	r21,r6
    2e90:	d9c02d15 	stw	r7,180(sp)
    2e94:	df004615 	stw	fp,280(sp)
    2e98:	dd804415 	stw	r22,272(sp)
    2e9c:	dd004215 	stw	r20,264(sp)
    2ea0:	dcc04115 	stw	r19,260(sp)
    2ea4:	dc804015 	stw	r18,256(sp)
    2ea8:	dc403f15 	stw	r17,252(sp)
    2eac:	dc003e15 	stw	r16,248(sp)
    2eb0:	00077d00 	call	77d0 <_localeconv_r>
    2eb4:	10800017 	ldw	r2,0(r2)
    2eb8:	1009883a 	mov	r4,r2
    2ebc:	d8803415 	stw	r2,208(sp)
    2ec0:	00096b00 	call	96b0 <strlen>
    2ec4:	d8803715 	stw	r2,220(sp)
    2ec8:	d8802c17 	ldw	r2,176(sp)
    2ecc:	10000226 	beq	r2,zero,2ed8 <___vfprintf_internal_r+0x64>
    2ed0:	10800e17 	ldw	r2,56(r2)
    2ed4:	1000f926 	beq	r2,zero,32bc <___vfprintf_internal_r+0x448>
    2ed8:	b880030b 	ldhu	r2,12(r23)
    2edc:	10c8000c 	andi	r3,r2,8192
    2ee0:	1800061e 	bne	r3,zero,2efc <___vfprintf_internal_r+0x88>
    2ee4:	b9001917 	ldw	r4,100(r23)
    2ee8:	00f7ffc4 	movi	r3,-8193
    2eec:	10880014 	ori	r2,r2,8192
    2ef0:	20c6703a 	and	r3,r4,r3
    2ef4:	b880030d 	sth	r2,12(r23)
    2ef8:	b8c01915 	stw	r3,100(r23)
    2efc:	10c0020c 	andi	r3,r2,8
    2f00:	1800c126 	beq	r3,zero,3208 <___vfprintf_internal_r+0x394>
    2f04:	b8c00417 	ldw	r3,16(r23)
    2f08:	1800bf26 	beq	r3,zero,3208 <___vfprintf_internal_r+0x394>
    2f0c:	1080068c 	andi	r2,r2,26
    2f10:	00c00284 	movi	r3,10
    2f14:	10c0c426 	beq	r2,r3,3228 <___vfprintf_internal_r+0x3b4>
    2f18:	d8c00404 	addi	r3,sp,16
    2f1c:	05000074 	movhi	r20,1
    2f20:	d9001e04 	addi	r4,sp,120
    2f24:	a51ad184 	addi	r20,r20,27462
    2f28:	d8c01e15 	stw	r3,120(sp)
    2f2c:	d8002015 	stw	zero,128(sp)
    2f30:	d8001f15 	stw	zero,124(sp)
    2f34:	d8003315 	stw	zero,204(sp)
    2f38:	d8003615 	stw	zero,216(sp)
    2f3c:	d8003815 	stw	zero,224(sp)
    2f40:	1811883a 	mov	r8,r3
    2f44:	d8003915 	stw	zero,228(sp)
    2f48:	d8003a15 	stw	zero,232(sp)
    2f4c:	d8002f15 	stw	zero,188(sp)
    2f50:	d9002815 	stw	r4,160(sp)
    2f54:	a8800007 	ldb	r2,0(r21)
    2f58:	10027b26 	beq	r2,zero,3948 <___vfprintf_internal_r+0xad4>
    2f5c:	00c00944 	movi	r3,37
    2f60:	a821883a 	mov	r16,r21
    2f64:	10c0021e 	bne	r2,r3,2f70 <___vfprintf_internal_r+0xfc>
    2f68:	00001406 	br	2fbc <___vfprintf_internal_r+0x148>
    2f6c:	10c00326 	beq	r2,r3,2f7c <___vfprintf_internal_r+0x108>
    2f70:	84000044 	addi	r16,r16,1
    2f74:	80800007 	ldb	r2,0(r16)
    2f78:	103ffc1e 	bne	r2,zero,2f6c <__alt_mem_onchip_memory+0xf7802f6c>
    2f7c:	8563c83a 	sub	r17,r16,r21
    2f80:	88000e26 	beq	r17,zero,2fbc <___vfprintf_internal_r+0x148>
    2f84:	d8c02017 	ldw	r3,128(sp)
    2f88:	d8801f17 	ldw	r2,124(sp)
    2f8c:	45400015 	stw	r21,0(r8)
    2f90:	1c47883a 	add	r3,r3,r17
    2f94:	10800044 	addi	r2,r2,1
    2f98:	d8c02015 	stw	r3,128(sp)
    2f9c:	44400115 	stw	r17,4(r8)
    2fa0:	d8801f15 	stw	r2,124(sp)
    2fa4:	00c001c4 	movi	r3,7
    2fa8:	1880a716 	blt	r3,r2,3248 <___vfprintf_internal_r+0x3d4>
    2fac:	42000204 	addi	r8,r8,8
    2fb0:	d9402f17 	ldw	r5,188(sp)
    2fb4:	2c4b883a 	add	r5,r5,r17
    2fb8:	d9402f15 	stw	r5,188(sp)
    2fbc:	80800007 	ldb	r2,0(r16)
    2fc0:	1000a826 	beq	r2,zero,3264 <___vfprintf_internal_r+0x3f0>
    2fc4:	84400047 	ldb	r17,1(r16)
    2fc8:	00bfffc4 	movi	r2,-1
    2fcc:	85400044 	addi	r21,r16,1
    2fd0:	d8002785 	stb	zero,158(sp)
    2fd4:	0007883a 	mov	r3,zero
    2fd8:	000f883a 	mov	r7,zero
    2fdc:	d8802915 	stw	r2,164(sp)
    2fe0:	d8003115 	stw	zero,196(sp)
    2fe4:	0025883a 	mov	r18,zero
    2fe8:	01401604 	movi	r5,88
    2fec:	01800244 	movi	r6,9
    2ff0:	02800a84 	movi	r10,42
    2ff4:	02401b04 	movi	r9,108
    2ff8:	ad400044 	addi	r21,r21,1
    2ffc:	88bff804 	addi	r2,r17,-32
    3000:	28830436 	bltu	r5,r2,3c14 <___vfprintf_internal_r+0xda0>
    3004:	100490ba 	slli	r2,r2,2
    3008:	01000034 	movhi	r4,0
    300c:	210c0704 	addi	r4,r4,12316
    3010:	1105883a 	add	r2,r2,r4
    3014:	10800017 	ldw	r2,0(r2)
    3018:	1000683a 	jmp	r2
    301c:	00003b34 	movhi	zero,236
    3020:	00003c14 	movui	zero,240
    3024:	00003c14 	movui	zero,240
    3028:	00003b54 	movui	zero,237
    302c:	00003c14 	movui	zero,240
    3030:	00003c14 	movui	zero,240
    3034:	00003c14 	movui	zero,240
    3038:	00003c14 	movui	zero,240
    303c:	00003c14 	movui	zero,240
    3040:	00003c14 	movui	zero,240
    3044:	000032c8 	cmpgei	zero,zero,203
    3048:	00003a70 	cmpltui	zero,zero,233
    304c:	00003c14 	movui	zero,240
    3050:	00003190 	cmplti	zero,zero,198
    3054:	000032f0 	cmpltui	zero,zero,203
    3058:	00003c14 	movui	zero,240
    305c:	00003330 	cmpltui	zero,zero,204
    3060:	0000333c 	xorhi	zero,zero,204
    3064:	0000333c 	xorhi	zero,zero,204
    3068:	0000333c 	xorhi	zero,zero,204
    306c:	0000333c 	xorhi	zero,zero,204
    3070:	0000333c 	xorhi	zero,zero,204
    3074:	0000333c 	xorhi	zero,zero,204
    3078:	0000333c 	xorhi	zero,zero,204
    307c:	0000333c 	xorhi	zero,zero,204
    3080:	0000333c 	xorhi	zero,zero,204
    3084:	00003c14 	movui	zero,240
    3088:	00003c14 	movui	zero,240
    308c:	00003c14 	movui	zero,240
    3090:	00003c14 	movui	zero,240
    3094:	00003c14 	movui	zero,240
    3098:	00003c14 	movui	zero,240
    309c:	00003c14 	movui	zero,240
    30a0:	00003c14 	movui	zero,240
    30a4:	00003c14 	movui	zero,240
    30a8:	00003c14 	movui	zero,240
    30ac:	00003370 	cmpltui	zero,zero,205
    30b0:	0000342c 	andhi	zero,zero,208
    30b4:	00003c14 	movui	zero,240
    30b8:	0000342c 	andhi	zero,zero,208
    30bc:	00003c14 	movui	zero,240
    30c0:	00003c14 	movui	zero,240
    30c4:	00003c14 	movui	zero,240
    30c8:	00003c14 	movui	zero,240
    30cc:	000034cc 	andi	zero,zero,211
    30d0:	00003c14 	movui	zero,240
    30d4:	00003c14 	movui	zero,240
    30d8:	000034d8 	cmpnei	zero,zero,211
    30dc:	00003c14 	movui	zero,240
    30e0:	00003c14 	movui	zero,240
    30e4:	00003c14 	movui	zero,240
    30e8:	00003c14 	movui	zero,240
    30ec:	00003c14 	movui	zero,240
    30f0:	00003950 	cmplti	zero,zero,229
    30f4:	00003c14 	movui	zero,240
    30f8:	00003c14 	movui	zero,240
    30fc:	000039b0 	cmpltui	zero,zero,230
    3100:	00003c14 	movui	zero,240
    3104:	00003c14 	movui	zero,240
    3108:	00003c14 	movui	zero,240
    310c:	00003c14 	movui	zero,240
    3110:	00003c14 	movui	zero,240
    3114:	00003c14 	movui	zero,240
    3118:	00003c14 	movui	zero,240
    311c:	00003c14 	movui	zero,240
    3120:	00003c14 	movui	zero,240
    3124:	00003c14 	movui	zero,240
    3128:	00003bc0 	call	3bc <main+0x128>
    312c:	00003b60 	cmpeqi	zero,zero,237
    3130:	0000342c 	andhi	zero,zero,208
    3134:	0000342c 	andhi	zero,zero,208
    3138:	0000342c 	andhi	zero,zero,208
    313c:	00003b70 	cmpltui	zero,zero,237
    3140:	00003b60 	cmpeqi	zero,zero,237
    3144:	00003c14 	movui	zero,240
    3148:	00003c14 	movui	zero,240
    314c:	00003b7c 	xorhi	zero,zero,237
    3150:	00003c14 	movui	zero,240
    3154:	00003b8c 	andi	zero,zero,238
    3158:	00003a60 	cmpeqi	zero,zero,233
    315c:	0000319c 	xori	zero,zero,198
    3160:	00003a80 	call	3a8 <main+0x114>
    3164:	00003c14 	movui	zero,240
    3168:	00003a8c 	andi	zero,zero,234
    316c:	00003c14 	movui	zero,240
    3170:	00003ae8 	cmpgeui	zero,zero,235
    3174:	00003c14 	movui	zero,240
    3178:	00003c14 	movui	zero,240
    317c:	00003af8 	rdprs	zero,zero,235
    3180:	d9003117 	ldw	r4,196(sp)
    3184:	d8802d15 	stw	r2,180(sp)
    3188:	0109c83a 	sub	r4,zero,r4
    318c:	d9003115 	stw	r4,196(sp)
    3190:	94800114 	ori	r18,r18,4
    3194:	ac400007 	ldb	r17,0(r21)
    3198:	003f9706 	br	2ff8 <__alt_mem_onchip_memory+0xf7802ff8>
    319c:	00800c04 	movi	r2,48
    31a0:	d9002d17 	ldw	r4,180(sp)
    31a4:	d9402917 	ldw	r5,164(sp)
    31a8:	d8802705 	stb	r2,156(sp)
    31ac:	00801e04 	movi	r2,120
    31b0:	d8802745 	stb	r2,157(sp)
    31b4:	d8002785 	stb	zero,158(sp)
    31b8:	20c00104 	addi	r3,r4,4
    31bc:	24c00017 	ldw	r19,0(r4)
    31c0:	002d883a 	mov	r22,zero
    31c4:	90800094 	ori	r2,r18,2
    31c8:	28029a16 	blt	r5,zero,3c34 <___vfprintf_internal_r+0xdc0>
    31cc:	00bfdfc4 	movi	r2,-129
    31d0:	90a4703a 	and	r18,r18,r2
    31d4:	d8c02d15 	stw	r3,180(sp)
    31d8:	94800094 	ori	r18,r18,2
    31dc:	9802871e 	bne	r19,zero,3bfc <___vfprintf_internal_r+0xd88>
    31e0:	00800074 	movhi	r2,1
    31e4:	109ac204 	addi	r2,r2,27400
    31e8:	d8803915 	stw	r2,228(sp)
    31ec:	04401e04 	movi	r17,120
    31f0:	d8802917 	ldw	r2,164(sp)
    31f4:	0039883a 	mov	fp,zero
    31f8:	1001e926 	beq	r2,zero,39a0 <___vfprintf_internal_r+0xb2c>
    31fc:	0027883a 	mov	r19,zero
    3200:	002d883a 	mov	r22,zero
    3204:	00020506 	br	3a1c <___vfprintf_internal_r+0xba8>
    3208:	d9002c17 	ldw	r4,176(sp)
    320c:	b80b883a 	mov	r5,r23
    3210:	00051440 	call	5144 <__swsetup_r>
    3214:	1005ac1e 	bne	r2,zero,48c8 <___vfprintf_internal_r+0x1a54>
    3218:	b880030b 	ldhu	r2,12(r23)
    321c:	00c00284 	movi	r3,10
    3220:	1080068c 	andi	r2,r2,26
    3224:	10ff3c1e 	bne	r2,r3,2f18 <__alt_mem_onchip_memory+0xf7802f18>
    3228:	b880038f 	ldh	r2,14(r23)
    322c:	103f3a16 	blt	r2,zero,2f18 <__alt_mem_onchip_memory+0xf7802f18>
    3230:	d9c02d17 	ldw	r7,180(sp)
    3234:	d9002c17 	ldw	r4,176(sp)
    3238:	a80d883a 	mov	r6,r21
    323c:	b80b883a 	mov	r5,r23
    3240:	00050880 	call	5088 <__sbprintf>
    3244:	00001106 	br	328c <___vfprintf_internal_r+0x418>
    3248:	d9002c17 	ldw	r4,176(sp)
    324c:	d9801e04 	addi	r6,sp,120
    3250:	b80b883a 	mov	r5,r23
    3254:	000ac500 	call	ac50 <__sprint_r>
    3258:	1000081e 	bne	r2,zero,327c <___vfprintf_internal_r+0x408>
    325c:	da000404 	addi	r8,sp,16
    3260:	003f5306 	br	2fb0 <__alt_mem_onchip_memory+0xf7802fb0>
    3264:	d8802017 	ldw	r2,128(sp)
    3268:	10000426 	beq	r2,zero,327c <___vfprintf_internal_r+0x408>
    326c:	d9002c17 	ldw	r4,176(sp)
    3270:	d9801e04 	addi	r6,sp,120
    3274:	b80b883a 	mov	r5,r23
    3278:	000ac500 	call	ac50 <__sprint_r>
    327c:	b880030b 	ldhu	r2,12(r23)
    3280:	1080100c 	andi	r2,r2,64
    3284:	1005901e 	bne	r2,zero,48c8 <___vfprintf_internal_r+0x1a54>
    3288:	d8802f17 	ldw	r2,188(sp)
    328c:	dfc04717 	ldw	ra,284(sp)
    3290:	df004617 	ldw	fp,280(sp)
    3294:	ddc04517 	ldw	r23,276(sp)
    3298:	dd804417 	ldw	r22,272(sp)
    329c:	dd404317 	ldw	r21,268(sp)
    32a0:	dd004217 	ldw	r20,264(sp)
    32a4:	dcc04117 	ldw	r19,260(sp)
    32a8:	dc804017 	ldw	r18,256(sp)
    32ac:	dc403f17 	ldw	r17,252(sp)
    32b0:	dc003e17 	ldw	r16,248(sp)
    32b4:	dec04804 	addi	sp,sp,288
    32b8:	f800283a 	ret
    32bc:	d9002c17 	ldw	r4,176(sp)
    32c0:	00071180 	call	7118 <__sinit>
    32c4:	003f0406 	br	2ed8 <__alt_mem_onchip_memory+0xf7802ed8>
    32c8:	d8802d17 	ldw	r2,180(sp)
    32cc:	d9002d17 	ldw	r4,180(sp)
    32d0:	10800017 	ldw	r2,0(r2)
    32d4:	d8803115 	stw	r2,196(sp)
    32d8:	20800104 	addi	r2,r4,4
    32dc:	d9003117 	ldw	r4,196(sp)
    32e0:	203fa716 	blt	r4,zero,3180 <__alt_mem_onchip_memory+0xf7803180>
    32e4:	d8802d15 	stw	r2,180(sp)
    32e8:	ac400007 	ldb	r17,0(r21)
    32ec:	003f4206 	br	2ff8 <__alt_mem_onchip_memory+0xf7802ff8>
    32f0:	ac400007 	ldb	r17,0(r21)
    32f4:	aac00044 	addi	r11,r21,1
    32f8:	8a872826 	beq	r17,r10,4f9c <___vfprintf_internal_r+0x2128>
    32fc:	88bff404 	addi	r2,r17,-48
    3300:	0009883a 	mov	r4,zero
    3304:	30867d36 	bltu	r6,r2,4cfc <___vfprintf_internal_r+0x1e88>
    3308:	5c400007 	ldb	r17,0(r11)
    330c:	210002a4 	muli	r4,r4,10
    3310:	5d400044 	addi	r21,r11,1
    3314:	a817883a 	mov	r11,r21
    3318:	2089883a 	add	r4,r4,r2
    331c:	88bff404 	addi	r2,r17,-48
    3320:	30bff92e 	bgeu	r6,r2,3308 <__alt_mem_onchip_memory+0xf7803308>
    3324:	2005c916 	blt	r4,zero,4a4c <___vfprintf_internal_r+0x1bd8>
    3328:	d9002915 	stw	r4,164(sp)
    332c:	003f3306 	br	2ffc <__alt_mem_onchip_memory+0xf7802ffc>
    3330:	94802014 	ori	r18,r18,128
    3334:	ac400007 	ldb	r17,0(r21)
    3338:	003f2f06 	br	2ff8 <__alt_mem_onchip_memory+0xf7802ff8>
    333c:	a809883a 	mov	r4,r21
    3340:	d8003115 	stw	zero,196(sp)
    3344:	88bff404 	addi	r2,r17,-48
    3348:	0017883a 	mov	r11,zero
    334c:	24400007 	ldb	r17,0(r4)
    3350:	5ac002a4 	muli	r11,r11,10
    3354:	ad400044 	addi	r21,r21,1
    3358:	a809883a 	mov	r4,r21
    335c:	12d7883a 	add	r11,r2,r11
    3360:	88bff404 	addi	r2,r17,-48
    3364:	30bff92e 	bgeu	r6,r2,334c <__alt_mem_onchip_memory+0xf780334c>
    3368:	dac03115 	stw	r11,196(sp)
    336c:	003f2306 	br	2ffc <__alt_mem_onchip_memory+0xf7802ffc>
    3370:	18c03fcc 	andi	r3,r3,255
    3374:	18072b1e 	bne	r3,zero,5024 <___vfprintf_internal_r+0x21b0>
    3378:	94800414 	ori	r18,r18,16
    337c:	9080080c 	andi	r2,r18,32
    3380:	10037b26 	beq	r2,zero,4170 <___vfprintf_internal_r+0x12fc>
    3384:	d9402d17 	ldw	r5,180(sp)
    3388:	28800117 	ldw	r2,4(r5)
    338c:	2cc00017 	ldw	r19,0(r5)
    3390:	29400204 	addi	r5,r5,8
    3394:	d9402d15 	stw	r5,180(sp)
    3398:	102d883a 	mov	r22,r2
    339c:	10044b16 	blt	r2,zero,44cc <___vfprintf_internal_r+0x1658>
    33a0:	d9402917 	ldw	r5,164(sp)
    33a4:	df002783 	ldbu	fp,158(sp)
    33a8:	2803bc16 	blt	r5,zero,429c <___vfprintf_internal_r+0x1428>
    33ac:	00ffdfc4 	movi	r3,-129
    33b0:	9d84b03a 	or	r2,r19,r22
    33b4:	90e4703a 	and	r18,r18,r3
    33b8:	10017726 	beq	r2,zero,3998 <___vfprintf_internal_r+0xb24>
    33bc:	b0038326 	beq	r22,zero,41cc <___vfprintf_internal_r+0x1358>
    33c0:	dc402a15 	stw	r17,168(sp)
    33c4:	dc001e04 	addi	r16,sp,120
    33c8:	b023883a 	mov	r17,r22
    33cc:	402d883a 	mov	r22,r8
    33d0:	9809883a 	mov	r4,r19
    33d4:	880b883a 	mov	r5,r17
    33d8:	01800284 	movi	r6,10
    33dc:	000f883a 	mov	r7,zero
    33e0:	000dbc40 	call	dbc4 <__umoddi3>
    33e4:	10800c04 	addi	r2,r2,48
    33e8:	843fffc4 	addi	r16,r16,-1
    33ec:	9809883a 	mov	r4,r19
    33f0:	880b883a 	mov	r5,r17
    33f4:	80800005 	stb	r2,0(r16)
    33f8:	01800284 	movi	r6,10
    33fc:	000f883a 	mov	r7,zero
    3400:	000d64c0 	call	d64c <__udivdi3>
    3404:	1027883a 	mov	r19,r2
    3408:	10c4b03a 	or	r2,r2,r3
    340c:	1823883a 	mov	r17,r3
    3410:	103fef1e 	bne	r2,zero,33d0 <__alt_mem_onchip_memory+0xf78033d0>
    3414:	d8c02817 	ldw	r3,160(sp)
    3418:	dc402a17 	ldw	r17,168(sp)
    341c:	b011883a 	mov	r8,r22
    3420:	1c07c83a 	sub	r3,r3,r16
    3424:	d8c02e15 	stw	r3,184(sp)
    3428:	00005906 	br	3590 <___vfprintf_internal_r+0x71c>
    342c:	18c03fcc 	andi	r3,r3,255
    3430:	1806fa1e 	bne	r3,zero,501c <___vfprintf_internal_r+0x21a8>
    3434:	9080020c 	andi	r2,r18,8
    3438:	10048a26 	beq	r2,zero,4664 <___vfprintf_internal_r+0x17f0>
    343c:	d8c02d17 	ldw	r3,180(sp)
    3440:	d9002d17 	ldw	r4,180(sp)
    3444:	d9402d17 	ldw	r5,180(sp)
    3448:	18c00017 	ldw	r3,0(r3)
    344c:	21000117 	ldw	r4,4(r4)
    3450:	29400204 	addi	r5,r5,8
    3454:	d8c03615 	stw	r3,216(sp)
    3458:	d9003815 	stw	r4,224(sp)
    345c:	d9402d15 	stw	r5,180(sp)
    3460:	d9003617 	ldw	r4,216(sp)
    3464:	d9403817 	ldw	r5,224(sp)
    3468:	da003d15 	stw	r8,244(sp)
    346c:	04000044 	movi	r16,1
    3470:	00093d00 	call	93d0 <__fpclassifyd>
    3474:	da003d17 	ldw	r8,244(sp)
    3478:	14041f1e 	bne	r2,r16,44f8 <___vfprintf_internal_r+0x1684>
    347c:	d9003617 	ldw	r4,216(sp)
    3480:	d9403817 	ldw	r5,224(sp)
    3484:	000d883a 	mov	r6,zero
    3488:	000f883a 	mov	r7,zero
    348c:	000f3f40 	call	f3f4 <__ledf2>
    3490:	da003d17 	ldw	r8,244(sp)
    3494:	1005be16 	blt	r2,zero,4b90 <___vfprintf_internal_r+0x1d1c>
    3498:	df002783 	ldbu	fp,158(sp)
    349c:	008011c4 	movi	r2,71
    34a0:	1445330e 	bge	r2,r17,4970 <___vfprintf_internal_r+0x1afc>
    34a4:	04000074 	movhi	r16,1
    34a8:	841aba04 	addi	r16,r16,27368
    34ac:	00c000c4 	movi	r3,3
    34b0:	00bfdfc4 	movi	r2,-129
    34b4:	d8c02a15 	stw	r3,168(sp)
    34b8:	90a4703a 	and	r18,r18,r2
    34bc:	d8c02e15 	stw	r3,184(sp)
    34c0:	d8002915 	stw	zero,164(sp)
    34c4:	d8003215 	stw	zero,200(sp)
    34c8:	00003706 	br	35a8 <___vfprintf_internal_r+0x734>
    34cc:	94800214 	ori	r18,r18,8
    34d0:	ac400007 	ldb	r17,0(r21)
    34d4:	003ec806 	br	2ff8 <__alt_mem_onchip_memory+0xf7802ff8>
    34d8:	18c03fcc 	andi	r3,r3,255
    34dc:	1806db1e 	bne	r3,zero,504c <___vfprintf_internal_r+0x21d8>
    34e0:	94800414 	ori	r18,r18,16
    34e4:	9080080c 	andi	r2,r18,32
    34e8:	1002d826 	beq	r2,zero,404c <___vfprintf_internal_r+0x11d8>
    34ec:	d9402d17 	ldw	r5,180(sp)
    34f0:	d8c02917 	ldw	r3,164(sp)
    34f4:	d8002785 	stb	zero,158(sp)
    34f8:	28800204 	addi	r2,r5,8
    34fc:	2cc00017 	ldw	r19,0(r5)
    3500:	2d800117 	ldw	r22,4(r5)
    3504:	18048f16 	blt	r3,zero,4744 <___vfprintf_internal_r+0x18d0>
    3508:	013fdfc4 	movi	r4,-129
    350c:	9d86b03a 	or	r3,r19,r22
    3510:	d8802d15 	stw	r2,180(sp)
    3514:	9124703a 	and	r18,r18,r4
    3518:	1802d91e 	bne	r3,zero,4080 <___vfprintf_internal_r+0x120c>
    351c:	d8c02917 	ldw	r3,164(sp)
    3520:	0039883a 	mov	fp,zero
    3524:	1805c326 	beq	r3,zero,4c34 <___vfprintf_internal_r+0x1dc0>
    3528:	0027883a 	mov	r19,zero
    352c:	002d883a 	mov	r22,zero
    3530:	dc001e04 	addi	r16,sp,120
    3534:	9806d0fa 	srli	r3,r19,3
    3538:	b008977a 	slli	r4,r22,29
    353c:	b02cd0fa 	srli	r22,r22,3
    3540:	9cc001cc 	andi	r19,r19,7
    3544:	98800c04 	addi	r2,r19,48
    3548:	843fffc4 	addi	r16,r16,-1
    354c:	20e6b03a 	or	r19,r4,r3
    3550:	80800005 	stb	r2,0(r16)
    3554:	9d86b03a 	or	r3,r19,r22
    3558:	183ff61e 	bne	r3,zero,3534 <__alt_mem_onchip_memory+0xf7803534>
    355c:	90c0004c 	andi	r3,r18,1
    3560:	18013b26 	beq	r3,zero,3a50 <___vfprintf_internal_r+0xbdc>
    3564:	10803fcc 	andi	r2,r2,255
    3568:	1080201c 	xori	r2,r2,128
    356c:	10bfe004 	addi	r2,r2,-128
    3570:	00c00c04 	movi	r3,48
    3574:	10c13626 	beq	r2,r3,3a50 <___vfprintf_internal_r+0xbdc>
    3578:	80ffffc5 	stb	r3,-1(r16)
    357c:	d8c02817 	ldw	r3,160(sp)
    3580:	80bfffc4 	addi	r2,r16,-1
    3584:	1021883a 	mov	r16,r2
    3588:	1887c83a 	sub	r3,r3,r2
    358c:	d8c02e15 	stw	r3,184(sp)
    3590:	d8802e17 	ldw	r2,184(sp)
    3594:	d9002917 	ldw	r4,164(sp)
    3598:	1100010e 	bge	r2,r4,35a0 <___vfprintf_internal_r+0x72c>
    359c:	2005883a 	mov	r2,r4
    35a0:	d8802a15 	stw	r2,168(sp)
    35a4:	d8003215 	stw	zero,200(sp)
    35a8:	e7003fcc 	andi	fp,fp,255
    35ac:	e700201c 	xori	fp,fp,128
    35b0:	e73fe004 	addi	fp,fp,-128
    35b4:	e0000326 	beq	fp,zero,35c4 <___vfprintf_internal_r+0x750>
    35b8:	d8c02a17 	ldw	r3,168(sp)
    35bc:	18c00044 	addi	r3,r3,1
    35c0:	d8c02a15 	stw	r3,168(sp)
    35c4:	90c0008c 	andi	r3,r18,2
    35c8:	d8c02b15 	stw	r3,172(sp)
    35cc:	18000326 	beq	r3,zero,35dc <___vfprintf_internal_r+0x768>
    35d0:	d8c02a17 	ldw	r3,168(sp)
    35d4:	18c00084 	addi	r3,r3,2
    35d8:	d8c02a15 	stw	r3,168(sp)
    35dc:	90c0210c 	andi	r3,r18,132
    35e0:	d8c03015 	stw	r3,192(sp)
    35e4:	1801a31e 	bne	r3,zero,3c74 <___vfprintf_internal_r+0xe00>
    35e8:	d9003117 	ldw	r4,196(sp)
    35ec:	d8c02a17 	ldw	r3,168(sp)
    35f0:	20e7c83a 	sub	r19,r4,r3
    35f4:	04c19f0e 	bge	zero,r19,3c74 <___vfprintf_internal_r+0xe00>
    35f8:	02400404 	movi	r9,16
    35fc:	d8c02017 	ldw	r3,128(sp)
    3600:	d8801f17 	ldw	r2,124(sp)
    3604:	4cc50d0e 	bge	r9,r19,4a3c <___vfprintf_internal_r+0x1bc8>
    3608:	01400074 	movhi	r5,1
    360c:	295ad584 	addi	r5,r5,27478
    3610:	dc403b15 	stw	r17,236(sp)
    3614:	d9403515 	stw	r5,212(sp)
    3618:	9823883a 	mov	r17,r19
    361c:	482d883a 	mov	r22,r9
    3620:	9027883a 	mov	r19,r18
    3624:	070001c4 	movi	fp,7
    3628:	8025883a 	mov	r18,r16
    362c:	dc002c17 	ldw	r16,176(sp)
    3630:	00000306 	br	3640 <___vfprintf_internal_r+0x7cc>
    3634:	8c7ffc04 	addi	r17,r17,-16
    3638:	42000204 	addi	r8,r8,8
    363c:	b440130e 	bge	r22,r17,368c <___vfprintf_internal_r+0x818>
    3640:	01000074 	movhi	r4,1
    3644:	18c00404 	addi	r3,r3,16
    3648:	10800044 	addi	r2,r2,1
    364c:	211ad584 	addi	r4,r4,27478
    3650:	41000015 	stw	r4,0(r8)
    3654:	45800115 	stw	r22,4(r8)
    3658:	d8c02015 	stw	r3,128(sp)
    365c:	d8801f15 	stw	r2,124(sp)
    3660:	e0bff40e 	bge	fp,r2,3634 <__alt_mem_onchip_memory+0xf7803634>
    3664:	d9801e04 	addi	r6,sp,120
    3668:	b80b883a 	mov	r5,r23
    366c:	8009883a 	mov	r4,r16
    3670:	000ac500 	call	ac50 <__sprint_r>
    3674:	103f011e 	bne	r2,zero,327c <__alt_mem_onchip_memory+0xf780327c>
    3678:	8c7ffc04 	addi	r17,r17,-16
    367c:	d8c02017 	ldw	r3,128(sp)
    3680:	d8801f17 	ldw	r2,124(sp)
    3684:	da000404 	addi	r8,sp,16
    3688:	b47fed16 	blt	r22,r17,3640 <__alt_mem_onchip_memory+0xf7803640>
    368c:	9021883a 	mov	r16,r18
    3690:	9825883a 	mov	r18,r19
    3694:	8827883a 	mov	r19,r17
    3698:	dc403b17 	ldw	r17,236(sp)
    369c:	d9403517 	ldw	r5,212(sp)
    36a0:	98c7883a 	add	r3,r19,r3
    36a4:	10800044 	addi	r2,r2,1
    36a8:	41400015 	stw	r5,0(r8)
    36ac:	44c00115 	stw	r19,4(r8)
    36b0:	d8c02015 	stw	r3,128(sp)
    36b4:	d8801f15 	stw	r2,124(sp)
    36b8:	010001c4 	movi	r4,7
    36bc:	2082a316 	blt	r4,r2,414c <___vfprintf_internal_r+0x12d8>
    36c0:	df002787 	ldb	fp,158(sp)
    36c4:	42000204 	addi	r8,r8,8
    36c8:	e0000c26 	beq	fp,zero,36fc <___vfprintf_internal_r+0x888>
    36cc:	d8801f17 	ldw	r2,124(sp)
    36d0:	d9002784 	addi	r4,sp,158
    36d4:	18c00044 	addi	r3,r3,1
    36d8:	10800044 	addi	r2,r2,1
    36dc:	41000015 	stw	r4,0(r8)
    36e0:	01000044 	movi	r4,1
    36e4:	41000115 	stw	r4,4(r8)
    36e8:	d8c02015 	stw	r3,128(sp)
    36ec:	d8801f15 	stw	r2,124(sp)
    36f0:	010001c4 	movi	r4,7
    36f4:	20823c16 	blt	r4,r2,3fe8 <___vfprintf_internal_r+0x1174>
    36f8:	42000204 	addi	r8,r8,8
    36fc:	d8802b17 	ldw	r2,172(sp)
    3700:	10000c26 	beq	r2,zero,3734 <___vfprintf_internal_r+0x8c0>
    3704:	d8801f17 	ldw	r2,124(sp)
    3708:	d9002704 	addi	r4,sp,156
    370c:	18c00084 	addi	r3,r3,2
    3710:	10800044 	addi	r2,r2,1
    3714:	41000015 	stw	r4,0(r8)
    3718:	01000084 	movi	r4,2
    371c:	41000115 	stw	r4,4(r8)
    3720:	d8c02015 	stw	r3,128(sp)
    3724:	d8801f15 	stw	r2,124(sp)
    3728:	010001c4 	movi	r4,7
    372c:	20823616 	blt	r4,r2,4008 <___vfprintf_internal_r+0x1194>
    3730:	42000204 	addi	r8,r8,8
    3734:	d9003017 	ldw	r4,192(sp)
    3738:	00802004 	movi	r2,128
    373c:	20819926 	beq	r4,r2,3da4 <___vfprintf_internal_r+0xf30>
    3740:	d9402917 	ldw	r5,164(sp)
    3744:	d8802e17 	ldw	r2,184(sp)
    3748:	28adc83a 	sub	r22,r5,r2
    374c:	0580310e 	bge	zero,r22,3814 <___vfprintf_internal_r+0x9a0>
    3750:	07000404 	movi	fp,16
    3754:	d8801f17 	ldw	r2,124(sp)
    3758:	e584140e 	bge	fp,r22,47ac <___vfprintf_internal_r+0x1938>
    375c:	01400074 	movhi	r5,1
    3760:	295ad184 	addi	r5,r5,27462
    3764:	dc402915 	stw	r17,164(sp)
    3768:	d9402b15 	stw	r5,172(sp)
    376c:	b023883a 	mov	r17,r22
    3770:	04c001c4 	movi	r19,7
    3774:	a82d883a 	mov	r22,r21
    3778:	902b883a 	mov	r21,r18
    377c:	8025883a 	mov	r18,r16
    3780:	dc002c17 	ldw	r16,176(sp)
    3784:	00000306 	br	3794 <___vfprintf_internal_r+0x920>
    3788:	8c7ffc04 	addi	r17,r17,-16
    378c:	42000204 	addi	r8,r8,8
    3790:	e440110e 	bge	fp,r17,37d8 <___vfprintf_internal_r+0x964>
    3794:	18c00404 	addi	r3,r3,16
    3798:	10800044 	addi	r2,r2,1
    379c:	45000015 	stw	r20,0(r8)
    37a0:	47000115 	stw	fp,4(r8)
    37a4:	d8c02015 	stw	r3,128(sp)
    37a8:	d8801f15 	stw	r2,124(sp)
    37ac:	98bff60e 	bge	r19,r2,3788 <__alt_mem_onchip_memory+0xf7803788>
    37b0:	d9801e04 	addi	r6,sp,120
    37b4:	b80b883a 	mov	r5,r23
    37b8:	8009883a 	mov	r4,r16
    37bc:	000ac500 	call	ac50 <__sprint_r>
    37c0:	103eae1e 	bne	r2,zero,327c <__alt_mem_onchip_memory+0xf780327c>
    37c4:	8c7ffc04 	addi	r17,r17,-16
    37c8:	d8c02017 	ldw	r3,128(sp)
    37cc:	d8801f17 	ldw	r2,124(sp)
    37d0:	da000404 	addi	r8,sp,16
    37d4:	e47fef16 	blt	fp,r17,3794 <__alt_mem_onchip_memory+0xf7803794>
    37d8:	9021883a 	mov	r16,r18
    37dc:	a825883a 	mov	r18,r21
    37e0:	b02b883a 	mov	r21,r22
    37e4:	882d883a 	mov	r22,r17
    37e8:	dc402917 	ldw	r17,164(sp)
    37ec:	d9002b17 	ldw	r4,172(sp)
    37f0:	1d87883a 	add	r3,r3,r22
    37f4:	10800044 	addi	r2,r2,1
    37f8:	41000015 	stw	r4,0(r8)
    37fc:	45800115 	stw	r22,4(r8)
    3800:	d8c02015 	stw	r3,128(sp)
    3804:	d8801f15 	stw	r2,124(sp)
    3808:	010001c4 	movi	r4,7
    380c:	2081ee16 	blt	r4,r2,3fc8 <___vfprintf_internal_r+0x1154>
    3810:	42000204 	addi	r8,r8,8
    3814:	9080400c 	andi	r2,r18,256
    3818:	1001181e 	bne	r2,zero,3c7c <___vfprintf_internal_r+0xe08>
    381c:	d9402e17 	ldw	r5,184(sp)
    3820:	d8801f17 	ldw	r2,124(sp)
    3824:	44000015 	stw	r16,0(r8)
    3828:	1947883a 	add	r3,r3,r5
    382c:	10800044 	addi	r2,r2,1
    3830:	41400115 	stw	r5,4(r8)
    3834:	d8c02015 	stw	r3,128(sp)
    3838:	d8801f15 	stw	r2,124(sp)
    383c:	010001c4 	movi	r4,7
    3840:	2081d316 	blt	r4,r2,3f90 <___vfprintf_internal_r+0x111c>
    3844:	42000204 	addi	r8,r8,8
    3848:	9480010c 	andi	r18,r18,4
    384c:	90003226 	beq	r18,zero,3918 <___vfprintf_internal_r+0xaa4>
    3850:	d9403117 	ldw	r5,196(sp)
    3854:	d8802a17 	ldw	r2,168(sp)
    3858:	28a1c83a 	sub	r16,r5,r2
    385c:	04002e0e 	bge	zero,r16,3918 <___vfprintf_internal_r+0xaa4>
    3860:	04400404 	movi	r17,16
    3864:	d8801f17 	ldw	r2,124(sp)
    3868:	8c04a20e 	bge	r17,r16,4af4 <___vfprintf_internal_r+0x1c80>
    386c:	01400074 	movhi	r5,1
    3870:	295ad584 	addi	r5,r5,27478
    3874:	d9403515 	stw	r5,212(sp)
    3878:	048001c4 	movi	r18,7
    387c:	dcc02c17 	ldw	r19,176(sp)
    3880:	00000306 	br	3890 <___vfprintf_internal_r+0xa1c>
    3884:	843ffc04 	addi	r16,r16,-16
    3888:	42000204 	addi	r8,r8,8
    388c:	8c00130e 	bge	r17,r16,38dc <___vfprintf_internal_r+0xa68>
    3890:	01000074 	movhi	r4,1
    3894:	18c00404 	addi	r3,r3,16
    3898:	10800044 	addi	r2,r2,1
    389c:	211ad584 	addi	r4,r4,27478
    38a0:	41000015 	stw	r4,0(r8)
    38a4:	44400115 	stw	r17,4(r8)
    38a8:	d8c02015 	stw	r3,128(sp)
    38ac:	d8801f15 	stw	r2,124(sp)
    38b0:	90bff40e 	bge	r18,r2,3884 <__alt_mem_onchip_memory+0xf7803884>
    38b4:	d9801e04 	addi	r6,sp,120
    38b8:	b80b883a 	mov	r5,r23
    38bc:	9809883a 	mov	r4,r19
    38c0:	000ac500 	call	ac50 <__sprint_r>
    38c4:	103e6d1e 	bne	r2,zero,327c <__alt_mem_onchip_memory+0xf780327c>
    38c8:	843ffc04 	addi	r16,r16,-16
    38cc:	d8c02017 	ldw	r3,128(sp)
    38d0:	d8801f17 	ldw	r2,124(sp)
    38d4:	da000404 	addi	r8,sp,16
    38d8:	8c3fed16 	blt	r17,r16,3890 <__alt_mem_onchip_memory+0xf7803890>
    38dc:	d9403517 	ldw	r5,212(sp)
    38e0:	1c07883a 	add	r3,r3,r16
    38e4:	10800044 	addi	r2,r2,1
    38e8:	41400015 	stw	r5,0(r8)
    38ec:	44000115 	stw	r16,4(r8)
    38f0:	d8c02015 	stw	r3,128(sp)
    38f4:	d8801f15 	stw	r2,124(sp)
    38f8:	010001c4 	movi	r4,7
    38fc:	2080060e 	bge	r4,r2,3918 <___vfprintf_internal_r+0xaa4>
    3900:	d9002c17 	ldw	r4,176(sp)
    3904:	d9801e04 	addi	r6,sp,120
    3908:	b80b883a 	mov	r5,r23
    390c:	000ac500 	call	ac50 <__sprint_r>
    3910:	103e5a1e 	bne	r2,zero,327c <__alt_mem_onchip_memory+0xf780327c>
    3914:	d8c02017 	ldw	r3,128(sp)
    3918:	d8803117 	ldw	r2,196(sp)
    391c:	d9002a17 	ldw	r4,168(sp)
    3920:	1100010e 	bge	r2,r4,3928 <___vfprintf_internal_r+0xab4>
    3924:	2005883a 	mov	r2,r4
    3928:	d9402f17 	ldw	r5,188(sp)
    392c:	288b883a 	add	r5,r5,r2
    3930:	d9402f15 	stw	r5,188(sp)
    3934:	18019e1e 	bne	r3,zero,3fb0 <___vfprintf_internal_r+0x113c>
    3938:	a8800007 	ldb	r2,0(r21)
    393c:	d8001f15 	stw	zero,124(sp)
    3940:	da000404 	addi	r8,sp,16
    3944:	103d851e 	bne	r2,zero,2f5c <__alt_mem_onchip_memory+0xf7802f5c>
    3948:	a821883a 	mov	r16,r21
    394c:	003d9b06 	br	2fbc <__alt_mem_onchip_memory+0xf7802fbc>
    3950:	18c03fcc 	andi	r3,r3,255
    3954:	1805c11e 	bne	r3,zero,505c <___vfprintf_internal_r+0x21e8>
    3958:	94800414 	ori	r18,r18,16
    395c:	9080080c 	andi	r2,r18,32
    3960:	10020c26 	beq	r2,zero,4194 <___vfprintf_internal_r+0x1320>
    3964:	d8802d17 	ldw	r2,180(sp)
    3968:	d9002917 	ldw	r4,164(sp)
    396c:	d8002785 	stb	zero,158(sp)
    3970:	10c00204 	addi	r3,r2,8
    3974:	14c00017 	ldw	r19,0(r2)
    3978:	15800117 	ldw	r22,4(r2)
    397c:	20040f16 	blt	r4,zero,49bc <___vfprintf_internal_r+0x1b48>
    3980:	013fdfc4 	movi	r4,-129
    3984:	9d84b03a 	or	r2,r19,r22
    3988:	d8c02d15 	stw	r3,180(sp)
    398c:	9124703a 	and	r18,r18,r4
    3990:	0039883a 	mov	fp,zero
    3994:	103e891e 	bne	r2,zero,33bc <__alt_mem_onchip_memory+0xf78033bc>
    3998:	d9002917 	ldw	r4,164(sp)
    399c:	2002c11e 	bne	r4,zero,44a4 <___vfprintf_internal_r+0x1630>
    39a0:	d8002915 	stw	zero,164(sp)
    39a4:	d8002e15 	stw	zero,184(sp)
    39a8:	dc001e04 	addi	r16,sp,120
    39ac:	003ef806 	br	3590 <__alt_mem_onchip_memory+0xf7803590>
    39b0:	18c03fcc 	andi	r3,r3,255
    39b4:	18059d1e 	bne	r3,zero,502c <___vfprintf_internal_r+0x21b8>
    39b8:	01400074 	movhi	r5,1
    39bc:	295abd04 	addi	r5,r5,27380
    39c0:	d9403915 	stw	r5,228(sp)
    39c4:	9080080c 	andi	r2,r18,32
    39c8:	10005226 	beq	r2,zero,3b14 <___vfprintf_internal_r+0xca0>
    39cc:	d8802d17 	ldw	r2,180(sp)
    39d0:	14c00017 	ldw	r19,0(r2)
    39d4:	15800117 	ldw	r22,4(r2)
    39d8:	10800204 	addi	r2,r2,8
    39dc:	d8802d15 	stw	r2,180(sp)
    39e0:	9080004c 	andi	r2,r18,1
    39e4:	10019026 	beq	r2,zero,4028 <___vfprintf_internal_r+0x11b4>
    39e8:	9d84b03a 	or	r2,r19,r22
    39ec:	10036926 	beq	r2,zero,4794 <___vfprintf_internal_r+0x1920>
    39f0:	d8c02917 	ldw	r3,164(sp)
    39f4:	00800c04 	movi	r2,48
    39f8:	d8802705 	stb	r2,156(sp)
    39fc:	dc402745 	stb	r17,157(sp)
    3a00:	d8002785 	stb	zero,158(sp)
    3a04:	90800094 	ori	r2,r18,2
    3a08:	18045d16 	blt	r3,zero,4b80 <___vfprintf_internal_r+0x1d0c>
    3a0c:	00bfdfc4 	movi	r2,-129
    3a10:	90a4703a 	and	r18,r18,r2
    3a14:	94800094 	ori	r18,r18,2
    3a18:	0039883a 	mov	fp,zero
    3a1c:	d9003917 	ldw	r4,228(sp)
    3a20:	dc001e04 	addi	r16,sp,120
    3a24:	988003cc 	andi	r2,r19,15
    3a28:	b006973a 	slli	r3,r22,28
    3a2c:	2085883a 	add	r2,r4,r2
    3a30:	9826d13a 	srli	r19,r19,4
    3a34:	10800003 	ldbu	r2,0(r2)
    3a38:	b02cd13a 	srli	r22,r22,4
    3a3c:	843fffc4 	addi	r16,r16,-1
    3a40:	1ce6b03a 	or	r19,r3,r19
    3a44:	80800005 	stb	r2,0(r16)
    3a48:	9d84b03a 	or	r2,r19,r22
    3a4c:	103ff51e 	bne	r2,zero,3a24 <__alt_mem_onchip_memory+0xf7803a24>
    3a50:	d8c02817 	ldw	r3,160(sp)
    3a54:	1c07c83a 	sub	r3,r3,r16
    3a58:	d8c02e15 	stw	r3,184(sp)
    3a5c:	003ecc06 	br	3590 <__alt_mem_onchip_memory+0xf7803590>
    3a60:	18c03fcc 	andi	r3,r3,255
    3a64:	183e9f26 	beq	r3,zero,34e4 <__alt_mem_onchip_memory+0xf78034e4>
    3a68:	d9c02785 	stb	r7,158(sp)
    3a6c:	003e9d06 	br	34e4 <__alt_mem_onchip_memory+0xf78034e4>
    3a70:	00c00044 	movi	r3,1
    3a74:	01c00ac4 	movi	r7,43
    3a78:	ac400007 	ldb	r17,0(r21)
    3a7c:	003d5e06 	br	2ff8 <__alt_mem_onchip_memory+0xf7802ff8>
    3a80:	94800814 	ori	r18,r18,32
    3a84:	ac400007 	ldb	r17,0(r21)
    3a88:	003d5b06 	br	2ff8 <__alt_mem_onchip_memory+0xf7802ff8>
    3a8c:	d8c02d17 	ldw	r3,180(sp)
    3a90:	d8002785 	stb	zero,158(sp)
    3a94:	1c000017 	ldw	r16,0(r3)
    3a98:	1cc00104 	addi	r19,r3,4
    3a9c:	80041926 	beq	r16,zero,4b04 <___vfprintf_internal_r+0x1c90>
    3aa0:	d9002917 	ldw	r4,164(sp)
    3aa4:	2003d016 	blt	r4,zero,49e8 <___vfprintf_internal_r+0x1b74>
    3aa8:	200d883a 	mov	r6,r4
    3aac:	000b883a 	mov	r5,zero
    3ab0:	8009883a 	mov	r4,r16
    3ab4:	da003d15 	stw	r8,244(sp)
    3ab8:	00081c80 	call	81c8 <memchr>
    3abc:	da003d17 	ldw	r8,244(sp)
    3ac0:	10045426 	beq	r2,zero,4c14 <___vfprintf_internal_r+0x1da0>
    3ac4:	1405c83a 	sub	r2,r2,r16
    3ac8:	d8802e15 	stw	r2,184(sp)
    3acc:	1003cc16 	blt	r2,zero,4a00 <___vfprintf_internal_r+0x1b8c>
    3ad0:	df002783 	ldbu	fp,158(sp)
    3ad4:	d8802a15 	stw	r2,168(sp)
    3ad8:	dcc02d15 	stw	r19,180(sp)
    3adc:	d8002915 	stw	zero,164(sp)
    3ae0:	d8003215 	stw	zero,200(sp)
    3ae4:	003eb006 	br	35a8 <__alt_mem_onchip_memory+0xf78035a8>
    3ae8:	18c03fcc 	andi	r3,r3,255
    3aec:	183f9b26 	beq	r3,zero,395c <__alt_mem_onchip_memory+0xf780395c>
    3af0:	d9c02785 	stb	r7,158(sp)
    3af4:	003f9906 	br	395c <__alt_mem_onchip_memory+0xf780395c>
    3af8:	18c03fcc 	andi	r3,r3,255
    3afc:	1805551e 	bne	r3,zero,5054 <___vfprintf_internal_r+0x21e0>
    3b00:	01400074 	movhi	r5,1
    3b04:	295ac204 	addi	r5,r5,27400
    3b08:	d9403915 	stw	r5,228(sp)
    3b0c:	9080080c 	andi	r2,r18,32
    3b10:	103fae1e 	bne	r2,zero,39cc <__alt_mem_onchip_memory+0xf78039cc>
    3b14:	9080040c 	andi	r2,r18,16
    3b18:	1002de26 	beq	r2,zero,4694 <___vfprintf_internal_r+0x1820>
    3b1c:	d8c02d17 	ldw	r3,180(sp)
    3b20:	002d883a 	mov	r22,zero
    3b24:	1cc00017 	ldw	r19,0(r3)
    3b28:	18c00104 	addi	r3,r3,4
    3b2c:	d8c02d15 	stw	r3,180(sp)
    3b30:	003fab06 	br	39e0 <__alt_mem_onchip_memory+0xf78039e0>
    3b34:	38803fcc 	andi	r2,r7,255
    3b38:	1080201c 	xori	r2,r2,128
    3b3c:	10bfe004 	addi	r2,r2,-128
    3b40:	1002d21e 	bne	r2,zero,468c <___vfprintf_internal_r+0x1818>
    3b44:	00c00044 	movi	r3,1
    3b48:	01c00804 	movi	r7,32
    3b4c:	ac400007 	ldb	r17,0(r21)
    3b50:	003d2906 	br	2ff8 <__alt_mem_onchip_memory+0xf7802ff8>
    3b54:	94800054 	ori	r18,r18,1
    3b58:	ac400007 	ldb	r17,0(r21)
    3b5c:	003d2606 	br	2ff8 <__alt_mem_onchip_memory+0xf7802ff8>
    3b60:	18c03fcc 	andi	r3,r3,255
    3b64:	183e0526 	beq	r3,zero,337c <__alt_mem_onchip_memory+0xf780337c>
    3b68:	d9c02785 	stb	r7,158(sp)
    3b6c:	003e0306 	br	337c <__alt_mem_onchip_memory+0xf780337c>
    3b70:	94801014 	ori	r18,r18,64
    3b74:	ac400007 	ldb	r17,0(r21)
    3b78:	003d1f06 	br	2ff8 <__alt_mem_onchip_memory+0xf7802ff8>
    3b7c:	ac400007 	ldb	r17,0(r21)
    3b80:	8a438726 	beq	r17,r9,49a0 <___vfprintf_internal_r+0x1b2c>
    3b84:	94800414 	ori	r18,r18,16
    3b88:	003d1b06 	br	2ff8 <__alt_mem_onchip_memory+0xf7802ff8>
    3b8c:	18c03fcc 	andi	r3,r3,255
    3b90:	1805341e 	bne	r3,zero,5064 <___vfprintf_internal_r+0x21f0>
    3b94:	9080080c 	andi	r2,r18,32
    3b98:	1002cd26 	beq	r2,zero,46d0 <___vfprintf_internal_r+0x185c>
    3b9c:	d9402d17 	ldw	r5,180(sp)
    3ba0:	d9002f17 	ldw	r4,188(sp)
    3ba4:	28800017 	ldw	r2,0(r5)
    3ba8:	2007d7fa 	srai	r3,r4,31
    3bac:	29400104 	addi	r5,r5,4
    3bb0:	d9402d15 	stw	r5,180(sp)
    3bb4:	11000015 	stw	r4,0(r2)
    3bb8:	10c00115 	stw	r3,4(r2)
    3bbc:	003ce506 	br	2f54 <__alt_mem_onchip_memory+0xf7802f54>
    3bc0:	d8c02d17 	ldw	r3,180(sp)
    3bc4:	d9002d17 	ldw	r4,180(sp)
    3bc8:	d8002785 	stb	zero,158(sp)
    3bcc:	18800017 	ldw	r2,0(r3)
    3bd0:	21000104 	addi	r4,r4,4
    3bd4:	00c00044 	movi	r3,1
    3bd8:	d8c02a15 	stw	r3,168(sp)
    3bdc:	d8801405 	stb	r2,80(sp)
    3be0:	d9002d15 	stw	r4,180(sp)
    3be4:	d8c02e15 	stw	r3,184(sp)
    3be8:	d8002915 	stw	zero,164(sp)
    3bec:	d8003215 	stw	zero,200(sp)
    3bf0:	dc001404 	addi	r16,sp,80
    3bf4:	0039883a 	mov	fp,zero
    3bf8:	003e7206 	br	35c4 <__alt_mem_onchip_memory+0xf78035c4>
    3bfc:	01000074 	movhi	r4,1
    3c00:	211ac204 	addi	r4,r4,27400
    3c04:	0039883a 	mov	fp,zero
    3c08:	d9003915 	stw	r4,228(sp)
    3c0c:	04401e04 	movi	r17,120
    3c10:	003f8206 	br	3a1c <__alt_mem_onchip_memory+0xf7803a1c>
    3c14:	18c03fcc 	andi	r3,r3,255
    3c18:	1805061e 	bne	r3,zero,5034 <___vfprintf_internal_r+0x21c0>
    3c1c:	883d9126 	beq	r17,zero,3264 <__alt_mem_onchip_memory+0xf7803264>
    3c20:	00c00044 	movi	r3,1
    3c24:	d8c02a15 	stw	r3,168(sp)
    3c28:	dc401405 	stb	r17,80(sp)
    3c2c:	d8002785 	stb	zero,158(sp)
    3c30:	003fec06 	br	3be4 <__alt_mem_onchip_memory+0xf7803be4>
    3c34:	01400074 	movhi	r5,1
    3c38:	295ac204 	addi	r5,r5,27400
    3c3c:	d9403915 	stw	r5,228(sp)
    3c40:	d8c02d15 	stw	r3,180(sp)
    3c44:	1025883a 	mov	r18,r2
    3c48:	04401e04 	movi	r17,120
    3c4c:	9d84b03a 	or	r2,r19,r22
    3c50:	1000fc1e 	bne	r2,zero,4044 <___vfprintf_internal_r+0x11d0>
    3c54:	0039883a 	mov	fp,zero
    3c58:	00800084 	movi	r2,2
    3c5c:	10803fcc 	andi	r2,r2,255
    3c60:	00c00044 	movi	r3,1
    3c64:	10c20f26 	beq	r2,r3,44a4 <___vfprintf_internal_r+0x1630>
    3c68:	00c00084 	movi	r3,2
    3c6c:	10fd6326 	beq	r2,r3,31fc <__alt_mem_onchip_memory+0xf78031fc>
    3c70:	003e2d06 	br	3528 <__alt_mem_onchip_memory+0xf7803528>
    3c74:	d8c02017 	ldw	r3,128(sp)
    3c78:	003e9306 	br	36c8 <__alt_mem_onchip_memory+0xf78036c8>
    3c7c:	00801944 	movi	r2,101
    3c80:	14407e0e 	bge	r2,r17,3e7c <___vfprintf_internal_r+0x1008>
    3c84:	d9003617 	ldw	r4,216(sp)
    3c88:	d9403817 	ldw	r5,224(sp)
    3c8c:	000d883a 	mov	r6,zero
    3c90:	000f883a 	mov	r7,zero
    3c94:	d8c03c15 	stw	r3,240(sp)
    3c98:	da003d15 	stw	r8,244(sp)
    3c9c:	000f2900 	call	f290 <__eqdf2>
    3ca0:	d8c03c17 	ldw	r3,240(sp)
    3ca4:	da003d17 	ldw	r8,244(sp)
    3ca8:	1000f71e 	bne	r2,zero,4088 <___vfprintf_internal_r+0x1214>
    3cac:	d8801f17 	ldw	r2,124(sp)
    3cb0:	01000074 	movhi	r4,1
    3cb4:	211ac904 	addi	r4,r4,27428
    3cb8:	18c00044 	addi	r3,r3,1
    3cbc:	10800044 	addi	r2,r2,1
    3cc0:	41000015 	stw	r4,0(r8)
    3cc4:	01000044 	movi	r4,1
    3cc8:	41000115 	stw	r4,4(r8)
    3ccc:	d8c02015 	stw	r3,128(sp)
    3cd0:	d8801f15 	stw	r2,124(sp)
    3cd4:	010001c4 	movi	r4,7
    3cd8:	2082b816 	blt	r4,r2,47bc <___vfprintf_internal_r+0x1948>
    3cdc:	42000204 	addi	r8,r8,8
    3ce0:	d8802617 	ldw	r2,152(sp)
    3ce4:	d9403317 	ldw	r5,204(sp)
    3ce8:	11400216 	blt	r2,r5,3cf4 <___vfprintf_internal_r+0xe80>
    3cec:	9080004c 	andi	r2,r18,1
    3cf0:	103ed526 	beq	r2,zero,3848 <__alt_mem_onchip_memory+0xf7803848>
    3cf4:	d8803717 	ldw	r2,220(sp)
    3cf8:	d9003417 	ldw	r4,208(sp)
    3cfc:	d9403717 	ldw	r5,220(sp)
    3d00:	1887883a 	add	r3,r3,r2
    3d04:	d8801f17 	ldw	r2,124(sp)
    3d08:	41000015 	stw	r4,0(r8)
    3d0c:	41400115 	stw	r5,4(r8)
    3d10:	10800044 	addi	r2,r2,1
    3d14:	d8c02015 	stw	r3,128(sp)
    3d18:	d8801f15 	stw	r2,124(sp)
    3d1c:	010001c4 	movi	r4,7
    3d20:	20832916 	blt	r4,r2,49c8 <___vfprintf_internal_r+0x1b54>
    3d24:	42000204 	addi	r8,r8,8
    3d28:	d8803317 	ldw	r2,204(sp)
    3d2c:	143fffc4 	addi	r16,r2,-1
    3d30:	043ec50e 	bge	zero,r16,3848 <__alt_mem_onchip_memory+0xf7803848>
    3d34:	04400404 	movi	r17,16
    3d38:	d8801f17 	ldw	r2,124(sp)
    3d3c:	8c00880e 	bge	r17,r16,3f60 <___vfprintf_internal_r+0x10ec>
    3d40:	01400074 	movhi	r5,1
    3d44:	295ad184 	addi	r5,r5,27462
    3d48:	d9402b15 	stw	r5,172(sp)
    3d4c:	058001c4 	movi	r22,7
    3d50:	dcc02c17 	ldw	r19,176(sp)
    3d54:	00000306 	br	3d64 <___vfprintf_internal_r+0xef0>
    3d58:	42000204 	addi	r8,r8,8
    3d5c:	843ffc04 	addi	r16,r16,-16
    3d60:	8c00820e 	bge	r17,r16,3f6c <___vfprintf_internal_r+0x10f8>
    3d64:	18c00404 	addi	r3,r3,16
    3d68:	10800044 	addi	r2,r2,1
    3d6c:	45000015 	stw	r20,0(r8)
    3d70:	44400115 	stw	r17,4(r8)
    3d74:	d8c02015 	stw	r3,128(sp)
    3d78:	d8801f15 	stw	r2,124(sp)
    3d7c:	b0bff60e 	bge	r22,r2,3d58 <__alt_mem_onchip_memory+0xf7803d58>
    3d80:	d9801e04 	addi	r6,sp,120
    3d84:	b80b883a 	mov	r5,r23
    3d88:	9809883a 	mov	r4,r19
    3d8c:	000ac500 	call	ac50 <__sprint_r>
    3d90:	103d3a1e 	bne	r2,zero,327c <__alt_mem_onchip_memory+0xf780327c>
    3d94:	d8c02017 	ldw	r3,128(sp)
    3d98:	d8801f17 	ldw	r2,124(sp)
    3d9c:	da000404 	addi	r8,sp,16
    3da0:	003fee06 	br	3d5c <__alt_mem_onchip_memory+0xf7803d5c>
    3da4:	d9403117 	ldw	r5,196(sp)
    3da8:	d8802a17 	ldw	r2,168(sp)
    3dac:	28adc83a 	sub	r22,r5,r2
    3db0:	05be630e 	bge	zero,r22,3740 <__alt_mem_onchip_memory+0xf7803740>
    3db4:	07000404 	movi	fp,16
    3db8:	d8801f17 	ldw	r2,124(sp)
    3dbc:	e5838f0e 	bge	fp,r22,4bfc <___vfprintf_internal_r+0x1d88>
    3dc0:	01400074 	movhi	r5,1
    3dc4:	295ad184 	addi	r5,r5,27462
    3dc8:	dc403015 	stw	r17,192(sp)
    3dcc:	d9402b15 	stw	r5,172(sp)
    3dd0:	b023883a 	mov	r17,r22
    3dd4:	04c001c4 	movi	r19,7
    3dd8:	a82d883a 	mov	r22,r21
    3ddc:	902b883a 	mov	r21,r18
    3de0:	8025883a 	mov	r18,r16
    3de4:	dc002c17 	ldw	r16,176(sp)
    3de8:	00000306 	br	3df8 <___vfprintf_internal_r+0xf84>
    3dec:	8c7ffc04 	addi	r17,r17,-16
    3df0:	42000204 	addi	r8,r8,8
    3df4:	e440110e 	bge	fp,r17,3e3c <___vfprintf_internal_r+0xfc8>
    3df8:	18c00404 	addi	r3,r3,16
    3dfc:	10800044 	addi	r2,r2,1
    3e00:	45000015 	stw	r20,0(r8)
    3e04:	47000115 	stw	fp,4(r8)
    3e08:	d8c02015 	stw	r3,128(sp)
    3e0c:	d8801f15 	stw	r2,124(sp)
    3e10:	98bff60e 	bge	r19,r2,3dec <__alt_mem_onchip_memory+0xf7803dec>
    3e14:	d9801e04 	addi	r6,sp,120
    3e18:	b80b883a 	mov	r5,r23
    3e1c:	8009883a 	mov	r4,r16
    3e20:	000ac500 	call	ac50 <__sprint_r>
    3e24:	103d151e 	bne	r2,zero,327c <__alt_mem_onchip_memory+0xf780327c>
    3e28:	8c7ffc04 	addi	r17,r17,-16
    3e2c:	d8c02017 	ldw	r3,128(sp)
    3e30:	d8801f17 	ldw	r2,124(sp)
    3e34:	da000404 	addi	r8,sp,16
    3e38:	e47fef16 	blt	fp,r17,3df8 <__alt_mem_onchip_memory+0xf7803df8>
    3e3c:	9021883a 	mov	r16,r18
    3e40:	a825883a 	mov	r18,r21
    3e44:	b02b883a 	mov	r21,r22
    3e48:	882d883a 	mov	r22,r17
    3e4c:	dc403017 	ldw	r17,192(sp)
    3e50:	d9002b17 	ldw	r4,172(sp)
    3e54:	1d87883a 	add	r3,r3,r22
    3e58:	10800044 	addi	r2,r2,1
    3e5c:	41000015 	stw	r4,0(r8)
    3e60:	45800115 	stw	r22,4(r8)
    3e64:	d8c02015 	stw	r3,128(sp)
    3e68:	d8801f15 	stw	r2,124(sp)
    3e6c:	010001c4 	movi	r4,7
    3e70:	20818e16 	blt	r4,r2,44ac <___vfprintf_internal_r+0x1638>
    3e74:	42000204 	addi	r8,r8,8
    3e78:	003e3106 	br	3740 <__alt_mem_onchip_memory+0xf7803740>
    3e7c:	d9403317 	ldw	r5,204(sp)
    3e80:	00800044 	movi	r2,1
    3e84:	18c00044 	addi	r3,r3,1
    3e88:	1141530e 	bge	r2,r5,43d8 <___vfprintf_internal_r+0x1564>
    3e8c:	dc401f17 	ldw	r17,124(sp)
    3e90:	00800044 	movi	r2,1
    3e94:	40800115 	stw	r2,4(r8)
    3e98:	8c400044 	addi	r17,r17,1
    3e9c:	44000015 	stw	r16,0(r8)
    3ea0:	d8c02015 	stw	r3,128(sp)
    3ea4:	dc401f15 	stw	r17,124(sp)
    3ea8:	008001c4 	movi	r2,7
    3eac:	14416b16 	blt	r2,r17,445c <___vfprintf_internal_r+0x15e8>
    3eb0:	42000204 	addi	r8,r8,8
    3eb4:	d8803717 	ldw	r2,220(sp)
    3eb8:	d9003417 	ldw	r4,208(sp)
    3ebc:	8c400044 	addi	r17,r17,1
    3ec0:	10c7883a 	add	r3,r2,r3
    3ec4:	40800115 	stw	r2,4(r8)
    3ec8:	41000015 	stw	r4,0(r8)
    3ecc:	d8c02015 	stw	r3,128(sp)
    3ed0:	dc401f15 	stw	r17,124(sp)
    3ed4:	008001c4 	movi	r2,7
    3ed8:	14416916 	blt	r2,r17,4480 <___vfprintf_internal_r+0x160c>
    3edc:	45800204 	addi	r22,r8,8
    3ee0:	d9003617 	ldw	r4,216(sp)
    3ee4:	d9403817 	ldw	r5,224(sp)
    3ee8:	000d883a 	mov	r6,zero
    3eec:	000f883a 	mov	r7,zero
    3ef0:	d8c03c15 	stw	r3,240(sp)
    3ef4:	000f2900 	call	f290 <__eqdf2>
    3ef8:	d8c03c17 	ldw	r3,240(sp)
    3efc:	1000bc26 	beq	r2,zero,41f0 <___vfprintf_internal_r+0x137c>
    3f00:	d9403317 	ldw	r5,204(sp)
    3f04:	84000044 	addi	r16,r16,1
    3f08:	8c400044 	addi	r17,r17,1
    3f0c:	28bfffc4 	addi	r2,r5,-1
    3f10:	1887883a 	add	r3,r3,r2
    3f14:	b0800115 	stw	r2,4(r22)
    3f18:	b4000015 	stw	r16,0(r22)
    3f1c:	d8c02015 	stw	r3,128(sp)
    3f20:	dc401f15 	stw	r17,124(sp)
    3f24:	008001c4 	movi	r2,7
    3f28:	14414316 	blt	r2,r17,4438 <___vfprintf_internal_r+0x15c4>
    3f2c:	b5800204 	addi	r22,r22,8
    3f30:	d9003a17 	ldw	r4,232(sp)
    3f34:	df0022c4 	addi	fp,sp,139
    3f38:	8c400044 	addi	r17,r17,1
    3f3c:	20c7883a 	add	r3,r4,r3
    3f40:	b7000015 	stw	fp,0(r22)
    3f44:	b1000115 	stw	r4,4(r22)
    3f48:	d8c02015 	stw	r3,128(sp)
    3f4c:	dc401f15 	stw	r17,124(sp)
    3f50:	008001c4 	movi	r2,7
    3f54:	14400e16 	blt	r2,r17,3f90 <___vfprintf_internal_r+0x111c>
    3f58:	b2000204 	addi	r8,r22,8
    3f5c:	003e3a06 	br	3848 <__alt_mem_onchip_memory+0xf7803848>
    3f60:	01000074 	movhi	r4,1
    3f64:	211ad184 	addi	r4,r4,27462
    3f68:	d9002b15 	stw	r4,172(sp)
    3f6c:	d9002b17 	ldw	r4,172(sp)
    3f70:	1c07883a 	add	r3,r3,r16
    3f74:	44000115 	stw	r16,4(r8)
    3f78:	41000015 	stw	r4,0(r8)
    3f7c:	10800044 	addi	r2,r2,1
    3f80:	d8c02015 	stw	r3,128(sp)
    3f84:	d8801f15 	stw	r2,124(sp)
    3f88:	010001c4 	movi	r4,7
    3f8c:	20be2d0e 	bge	r4,r2,3844 <__alt_mem_onchip_memory+0xf7803844>
    3f90:	d9002c17 	ldw	r4,176(sp)
    3f94:	d9801e04 	addi	r6,sp,120
    3f98:	b80b883a 	mov	r5,r23
    3f9c:	000ac500 	call	ac50 <__sprint_r>
    3fa0:	103cb61e 	bne	r2,zero,327c <__alt_mem_onchip_memory+0xf780327c>
    3fa4:	d8c02017 	ldw	r3,128(sp)
    3fa8:	da000404 	addi	r8,sp,16
    3fac:	003e2606 	br	3848 <__alt_mem_onchip_memory+0xf7803848>
    3fb0:	d9002c17 	ldw	r4,176(sp)
    3fb4:	d9801e04 	addi	r6,sp,120
    3fb8:	b80b883a 	mov	r5,r23
    3fbc:	000ac500 	call	ac50 <__sprint_r>
    3fc0:	103e5d26 	beq	r2,zero,3938 <__alt_mem_onchip_memory+0xf7803938>
    3fc4:	003cad06 	br	327c <__alt_mem_onchip_memory+0xf780327c>
    3fc8:	d9002c17 	ldw	r4,176(sp)
    3fcc:	d9801e04 	addi	r6,sp,120
    3fd0:	b80b883a 	mov	r5,r23
    3fd4:	000ac500 	call	ac50 <__sprint_r>
    3fd8:	103ca81e 	bne	r2,zero,327c <__alt_mem_onchip_memory+0xf780327c>
    3fdc:	d8c02017 	ldw	r3,128(sp)
    3fe0:	da000404 	addi	r8,sp,16
    3fe4:	003e0b06 	br	3814 <__alt_mem_onchip_memory+0xf7803814>
    3fe8:	d9002c17 	ldw	r4,176(sp)
    3fec:	d9801e04 	addi	r6,sp,120
    3ff0:	b80b883a 	mov	r5,r23
    3ff4:	000ac500 	call	ac50 <__sprint_r>
    3ff8:	103ca01e 	bne	r2,zero,327c <__alt_mem_onchip_memory+0xf780327c>
    3ffc:	d8c02017 	ldw	r3,128(sp)
    4000:	da000404 	addi	r8,sp,16
    4004:	003dbd06 	br	36fc <__alt_mem_onchip_memory+0xf78036fc>
    4008:	d9002c17 	ldw	r4,176(sp)
    400c:	d9801e04 	addi	r6,sp,120
    4010:	b80b883a 	mov	r5,r23
    4014:	000ac500 	call	ac50 <__sprint_r>
    4018:	103c981e 	bne	r2,zero,327c <__alt_mem_onchip_memory+0xf780327c>
    401c:	d8c02017 	ldw	r3,128(sp)
    4020:	da000404 	addi	r8,sp,16
    4024:	003dc306 	br	3734 <__alt_mem_onchip_memory+0xf7803734>
    4028:	d8802917 	ldw	r2,164(sp)
    402c:	d8002785 	stb	zero,158(sp)
    4030:	103f0616 	blt	r2,zero,3c4c <__alt_mem_onchip_memory+0xf7803c4c>
    4034:	00ffdfc4 	movi	r3,-129
    4038:	9d84b03a 	or	r2,r19,r22
    403c:	90e4703a 	and	r18,r18,r3
    4040:	103c6b26 	beq	r2,zero,31f0 <__alt_mem_onchip_memory+0xf78031f0>
    4044:	0039883a 	mov	fp,zero
    4048:	003e7406 	br	3a1c <__alt_mem_onchip_memory+0xf7803a1c>
    404c:	9080040c 	andi	r2,r18,16
    4050:	1001b326 	beq	r2,zero,4720 <___vfprintf_internal_r+0x18ac>
    4054:	d9002d17 	ldw	r4,180(sp)
    4058:	d9402917 	ldw	r5,164(sp)
    405c:	d8002785 	stb	zero,158(sp)
    4060:	20800104 	addi	r2,r4,4
    4064:	24c00017 	ldw	r19,0(r4)
    4068:	002d883a 	mov	r22,zero
    406c:	2801b516 	blt	r5,zero,4744 <___vfprintf_internal_r+0x18d0>
    4070:	00ffdfc4 	movi	r3,-129
    4074:	d8802d15 	stw	r2,180(sp)
    4078:	90e4703a 	and	r18,r18,r3
    407c:	983d2726 	beq	r19,zero,351c <__alt_mem_onchip_memory+0xf780351c>
    4080:	0039883a 	mov	fp,zero
    4084:	003d2a06 	br	3530 <__alt_mem_onchip_memory+0xf7803530>
    4088:	dc402617 	ldw	r17,152(sp)
    408c:	0441d30e 	bge	zero,r17,47dc <___vfprintf_internal_r+0x1968>
    4090:	dc403217 	ldw	r17,200(sp)
    4094:	d8803317 	ldw	r2,204(sp)
    4098:	1440010e 	bge	r2,r17,40a0 <___vfprintf_internal_r+0x122c>
    409c:	1023883a 	mov	r17,r2
    40a0:	04400a0e 	bge	zero,r17,40cc <___vfprintf_internal_r+0x1258>
    40a4:	d8801f17 	ldw	r2,124(sp)
    40a8:	1c47883a 	add	r3,r3,r17
    40ac:	44000015 	stw	r16,0(r8)
    40b0:	10800044 	addi	r2,r2,1
    40b4:	44400115 	stw	r17,4(r8)
    40b8:	d8c02015 	stw	r3,128(sp)
    40bc:	d8801f15 	stw	r2,124(sp)
    40c0:	010001c4 	movi	r4,7
    40c4:	20826516 	blt	r4,r2,4a5c <___vfprintf_internal_r+0x1be8>
    40c8:	42000204 	addi	r8,r8,8
    40cc:	88026116 	blt	r17,zero,4a54 <___vfprintf_internal_r+0x1be0>
    40d0:	d9003217 	ldw	r4,200(sp)
    40d4:	2463c83a 	sub	r17,r4,r17
    40d8:	04407b0e 	bge	zero,r17,42c8 <___vfprintf_internal_r+0x1454>
    40dc:	05800404 	movi	r22,16
    40e0:	d8801f17 	ldw	r2,124(sp)
    40e4:	b4419d0e 	bge	r22,r17,475c <___vfprintf_internal_r+0x18e8>
    40e8:	01000074 	movhi	r4,1
    40ec:	211ad184 	addi	r4,r4,27462
    40f0:	d9002b15 	stw	r4,172(sp)
    40f4:	070001c4 	movi	fp,7
    40f8:	dcc02c17 	ldw	r19,176(sp)
    40fc:	00000306 	br	410c <___vfprintf_internal_r+0x1298>
    4100:	42000204 	addi	r8,r8,8
    4104:	8c7ffc04 	addi	r17,r17,-16
    4108:	b441970e 	bge	r22,r17,4768 <___vfprintf_internal_r+0x18f4>
    410c:	18c00404 	addi	r3,r3,16
    4110:	10800044 	addi	r2,r2,1
    4114:	45000015 	stw	r20,0(r8)
    4118:	45800115 	stw	r22,4(r8)
    411c:	d8c02015 	stw	r3,128(sp)
    4120:	d8801f15 	stw	r2,124(sp)
    4124:	e0bff60e 	bge	fp,r2,4100 <__alt_mem_onchip_memory+0xf7804100>
    4128:	d9801e04 	addi	r6,sp,120
    412c:	b80b883a 	mov	r5,r23
    4130:	9809883a 	mov	r4,r19
    4134:	000ac500 	call	ac50 <__sprint_r>
    4138:	103c501e 	bne	r2,zero,327c <__alt_mem_onchip_memory+0xf780327c>
    413c:	d8c02017 	ldw	r3,128(sp)
    4140:	d8801f17 	ldw	r2,124(sp)
    4144:	da000404 	addi	r8,sp,16
    4148:	003fee06 	br	4104 <__alt_mem_onchip_memory+0xf7804104>
    414c:	d9002c17 	ldw	r4,176(sp)
    4150:	d9801e04 	addi	r6,sp,120
    4154:	b80b883a 	mov	r5,r23
    4158:	000ac500 	call	ac50 <__sprint_r>
    415c:	103c471e 	bne	r2,zero,327c <__alt_mem_onchip_memory+0xf780327c>
    4160:	d8c02017 	ldw	r3,128(sp)
    4164:	df002787 	ldb	fp,158(sp)
    4168:	da000404 	addi	r8,sp,16
    416c:	003d5606 	br	36c8 <__alt_mem_onchip_memory+0xf78036c8>
    4170:	9080040c 	andi	r2,r18,16
    4174:	10016126 	beq	r2,zero,46fc <___vfprintf_internal_r+0x1888>
    4178:	d8802d17 	ldw	r2,180(sp)
    417c:	14c00017 	ldw	r19,0(r2)
    4180:	10800104 	addi	r2,r2,4
    4184:	d8802d15 	stw	r2,180(sp)
    4188:	982dd7fa 	srai	r22,r19,31
    418c:	b005883a 	mov	r2,r22
    4190:	003c8206 	br	339c <__alt_mem_onchip_memory+0xf780339c>
    4194:	9080040c 	andi	r2,r18,16
    4198:	10003526 	beq	r2,zero,4270 <___vfprintf_internal_r+0x13fc>
    419c:	d9402d17 	ldw	r5,180(sp)
    41a0:	d8c02917 	ldw	r3,164(sp)
    41a4:	d8002785 	stb	zero,158(sp)
    41a8:	28800104 	addi	r2,r5,4
    41ac:	2cc00017 	ldw	r19,0(r5)
    41b0:	002d883a 	mov	r22,zero
    41b4:	18003716 	blt	r3,zero,4294 <___vfprintf_internal_r+0x1420>
    41b8:	00ffdfc4 	movi	r3,-129
    41bc:	d8802d15 	stw	r2,180(sp)
    41c0:	90e4703a 	and	r18,r18,r3
    41c4:	0039883a 	mov	fp,zero
    41c8:	983df326 	beq	r19,zero,3998 <__alt_mem_onchip_memory+0xf7803998>
    41cc:	00800244 	movi	r2,9
    41d0:	14fc7b36 	bltu	r2,r19,33c0 <__alt_mem_onchip_memory+0xf78033c0>
    41d4:	d8c02817 	ldw	r3,160(sp)
    41d8:	dc001dc4 	addi	r16,sp,119
    41dc:	9cc00c04 	addi	r19,r19,48
    41e0:	1c07c83a 	sub	r3,r3,r16
    41e4:	dcc01dc5 	stb	r19,119(sp)
    41e8:	d8c02e15 	stw	r3,184(sp)
    41ec:	003ce806 	br	3590 <__alt_mem_onchip_memory+0xf7803590>
    41f0:	d8803317 	ldw	r2,204(sp)
    41f4:	143fffc4 	addi	r16,r2,-1
    41f8:	043f4d0e 	bge	zero,r16,3f30 <__alt_mem_onchip_memory+0xf7803f30>
    41fc:	07000404 	movi	fp,16
    4200:	e400810e 	bge	fp,r16,4408 <___vfprintf_internal_r+0x1594>
    4204:	01400074 	movhi	r5,1
    4208:	295ad184 	addi	r5,r5,27462
    420c:	d9402b15 	stw	r5,172(sp)
    4210:	01c001c4 	movi	r7,7
    4214:	dcc02c17 	ldw	r19,176(sp)
    4218:	00000306 	br	4228 <___vfprintf_internal_r+0x13b4>
    421c:	b5800204 	addi	r22,r22,8
    4220:	843ffc04 	addi	r16,r16,-16
    4224:	e4007b0e 	bge	fp,r16,4414 <___vfprintf_internal_r+0x15a0>
    4228:	18c00404 	addi	r3,r3,16
    422c:	8c400044 	addi	r17,r17,1
    4230:	b5000015 	stw	r20,0(r22)
    4234:	b7000115 	stw	fp,4(r22)
    4238:	d8c02015 	stw	r3,128(sp)
    423c:	dc401f15 	stw	r17,124(sp)
    4240:	3c7ff60e 	bge	r7,r17,421c <__alt_mem_onchip_memory+0xf780421c>
    4244:	d9801e04 	addi	r6,sp,120
    4248:	b80b883a 	mov	r5,r23
    424c:	9809883a 	mov	r4,r19
    4250:	d9c03c15 	stw	r7,240(sp)
    4254:	000ac500 	call	ac50 <__sprint_r>
    4258:	d9c03c17 	ldw	r7,240(sp)
    425c:	103c071e 	bne	r2,zero,327c <__alt_mem_onchip_memory+0xf780327c>
    4260:	d8c02017 	ldw	r3,128(sp)
    4264:	dc401f17 	ldw	r17,124(sp)
    4268:	dd800404 	addi	r22,sp,16
    426c:	003fec06 	br	4220 <__alt_mem_onchip_memory+0xf7804220>
    4270:	9080100c 	andi	r2,r18,64
    4274:	d8002785 	stb	zero,158(sp)
    4278:	10010e26 	beq	r2,zero,46b4 <___vfprintf_internal_r+0x1840>
    427c:	d9002d17 	ldw	r4,180(sp)
    4280:	d9402917 	ldw	r5,164(sp)
    4284:	002d883a 	mov	r22,zero
    4288:	20800104 	addi	r2,r4,4
    428c:	24c0000b 	ldhu	r19,0(r4)
    4290:	283fc90e 	bge	r5,zero,41b8 <__alt_mem_onchip_memory+0xf78041b8>
    4294:	d8802d15 	stw	r2,180(sp)
    4298:	0039883a 	mov	fp,zero
    429c:	9d84b03a 	or	r2,r19,r22
    42a0:	103c461e 	bne	r2,zero,33bc <__alt_mem_onchip_memory+0xf78033bc>
    42a4:	00800044 	movi	r2,1
    42a8:	003e6c06 	br	3c5c <__alt_mem_onchip_memory+0xf7803c5c>
    42ac:	d9002c17 	ldw	r4,176(sp)
    42b0:	d9801e04 	addi	r6,sp,120
    42b4:	b80b883a 	mov	r5,r23
    42b8:	000ac500 	call	ac50 <__sprint_r>
    42bc:	103bef1e 	bne	r2,zero,327c <__alt_mem_onchip_memory+0xf780327c>
    42c0:	d8c02017 	ldw	r3,128(sp)
    42c4:	da000404 	addi	r8,sp,16
    42c8:	d9003217 	ldw	r4,200(sp)
    42cc:	d8802617 	ldw	r2,152(sp)
    42d0:	d9403317 	ldw	r5,204(sp)
    42d4:	8123883a 	add	r17,r16,r4
    42d8:	11400216 	blt	r2,r5,42e4 <___vfprintf_internal_r+0x1470>
    42dc:	9100004c 	andi	r4,r18,1
    42e0:	20000d26 	beq	r4,zero,4318 <___vfprintf_internal_r+0x14a4>
    42e4:	d9003717 	ldw	r4,220(sp)
    42e8:	d9403417 	ldw	r5,208(sp)
    42ec:	1907883a 	add	r3,r3,r4
    42f0:	d9001f17 	ldw	r4,124(sp)
    42f4:	41400015 	stw	r5,0(r8)
    42f8:	d9403717 	ldw	r5,220(sp)
    42fc:	21000044 	addi	r4,r4,1
    4300:	d8c02015 	stw	r3,128(sp)
    4304:	41400115 	stw	r5,4(r8)
    4308:	d9001f15 	stw	r4,124(sp)
    430c:	014001c4 	movi	r5,7
    4310:	2901e816 	blt	r5,r4,4ab4 <___vfprintf_internal_r+0x1c40>
    4314:	42000204 	addi	r8,r8,8
    4318:	d9003317 	ldw	r4,204(sp)
    431c:	8121883a 	add	r16,r16,r4
    4320:	2085c83a 	sub	r2,r4,r2
    4324:	8461c83a 	sub	r16,r16,r17
    4328:	1400010e 	bge	r2,r16,4330 <___vfprintf_internal_r+0x14bc>
    432c:	1021883a 	mov	r16,r2
    4330:	04000a0e 	bge	zero,r16,435c <___vfprintf_internal_r+0x14e8>
    4334:	d9001f17 	ldw	r4,124(sp)
    4338:	1c07883a 	add	r3,r3,r16
    433c:	44400015 	stw	r17,0(r8)
    4340:	21000044 	addi	r4,r4,1
    4344:	44000115 	stw	r16,4(r8)
    4348:	d8c02015 	stw	r3,128(sp)
    434c:	d9001f15 	stw	r4,124(sp)
    4350:	014001c4 	movi	r5,7
    4354:	2901fb16 	blt	r5,r4,4b44 <___vfprintf_internal_r+0x1cd0>
    4358:	42000204 	addi	r8,r8,8
    435c:	8001f716 	blt	r16,zero,4b3c <___vfprintf_internal_r+0x1cc8>
    4360:	1421c83a 	sub	r16,r2,r16
    4364:	043d380e 	bge	zero,r16,3848 <__alt_mem_onchip_memory+0xf7803848>
    4368:	04400404 	movi	r17,16
    436c:	d8801f17 	ldw	r2,124(sp)
    4370:	8c3efb0e 	bge	r17,r16,3f60 <__alt_mem_onchip_memory+0xf7803f60>
    4374:	01400074 	movhi	r5,1
    4378:	295ad184 	addi	r5,r5,27462
    437c:	d9402b15 	stw	r5,172(sp)
    4380:	058001c4 	movi	r22,7
    4384:	dcc02c17 	ldw	r19,176(sp)
    4388:	00000306 	br	4398 <___vfprintf_internal_r+0x1524>
    438c:	42000204 	addi	r8,r8,8
    4390:	843ffc04 	addi	r16,r16,-16
    4394:	8c3ef50e 	bge	r17,r16,3f6c <__alt_mem_onchip_memory+0xf7803f6c>
    4398:	18c00404 	addi	r3,r3,16
    439c:	10800044 	addi	r2,r2,1
    43a0:	45000015 	stw	r20,0(r8)
    43a4:	44400115 	stw	r17,4(r8)
    43a8:	d8c02015 	stw	r3,128(sp)
    43ac:	d8801f15 	stw	r2,124(sp)
    43b0:	b0bff60e 	bge	r22,r2,438c <__alt_mem_onchip_memory+0xf780438c>
    43b4:	d9801e04 	addi	r6,sp,120
    43b8:	b80b883a 	mov	r5,r23
    43bc:	9809883a 	mov	r4,r19
    43c0:	000ac500 	call	ac50 <__sprint_r>
    43c4:	103bad1e 	bne	r2,zero,327c <__alt_mem_onchip_memory+0xf780327c>
    43c8:	d8c02017 	ldw	r3,128(sp)
    43cc:	d8801f17 	ldw	r2,124(sp)
    43d0:	da000404 	addi	r8,sp,16
    43d4:	003fee06 	br	4390 <__alt_mem_onchip_memory+0xf7804390>
    43d8:	9088703a 	and	r4,r18,r2
    43dc:	203eab1e 	bne	r4,zero,3e8c <__alt_mem_onchip_memory+0xf7803e8c>
    43e0:	dc401f17 	ldw	r17,124(sp)
    43e4:	40800115 	stw	r2,4(r8)
    43e8:	44000015 	stw	r16,0(r8)
    43ec:	8c400044 	addi	r17,r17,1
    43f0:	d8c02015 	stw	r3,128(sp)
    43f4:	dc401f15 	stw	r17,124(sp)
    43f8:	008001c4 	movi	r2,7
    43fc:	14400e16 	blt	r2,r17,4438 <___vfprintf_internal_r+0x15c4>
    4400:	45800204 	addi	r22,r8,8
    4404:	003eca06 	br	3f30 <__alt_mem_onchip_memory+0xf7803f30>
    4408:	01000074 	movhi	r4,1
    440c:	211ad184 	addi	r4,r4,27462
    4410:	d9002b15 	stw	r4,172(sp)
    4414:	d8802b17 	ldw	r2,172(sp)
    4418:	1c07883a 	add	r3,r3,r16
    441c:	8c400044 	addi	r17,r17,1
    4420:	b0800015 	stw	r2,0(r22)
    4424:	b4000115 	stw	r16,4(r22)
    4428:	d8c02015 	stw	r3,128(sp)
    442c:	dc401f15 	stw	r17,124(sp)
    4430:	008001c4 	movi	r2,7
    4434:	147ebd0e 	bge	r2,r17,3f2c <__alt_mem_onchip_memory+0xf7803f2c>
    4438:	d9002c17 	ldw	r4,176(sp)
    443c:	d9801e04 	addi	r6,sp,120
    4440:	b80b883a 	mov	r5,r23
    4444:	000ac500 	call	ac50 <__sprint_r>
    4448:	103b8c1e 	bne	r2,zero,327c <__alt_mem_onchip_memory+0xf780327c>
    444c:	d8c02017 	ldw	r3,128(sp)
    4450:	dc401f17 	ldw	r17,124(sp)
    4454:	dd800404 	addi	r22,sp,16
    4458:	003eb506 	br	3f30 <__alt_mem_onchip_memory+0xf7803f30>
    445c:	d9002c17 	ldw	r4,176(sp)
    4460:	d9801e04 	addi	r6,sp,120
    4464:	b80b883a 	mov	r5,r23
    4468:	000ac500 	call	ac50 <__sprint_r>
    446c:	103b831e 	bne	r2,zero,327c <__alt_mem_onchip_memory+0xf780327c>
    4470:	d8c02017 	ldw	r3,128(sp)
    4474:	dc401f17 	ldw	r17,124(sp)
    4478:	da000404 	addi	r8,sp,16
    447c:	003e8d06 	br	3eb4 <__alt_mem_onchip_memory+0xf7803eb4>
    4480:	d9002c17 	ldw	r4,176(sp)
    4484:	d9801e04 	addi	r6,sp,120
    4488:	b80b883a 	mov	r5,r23
    448c:	000ac500 	call	ac50 <__sprint_r>
    4490:	103b7a1e 	bne	r2,zero,327c <__alt_mem_onchip_memory+0xf780327c>
    4494:	d8c02017 	ldw	r3,128(sp)
    4498:	dc401f17 	ldw	r17,124(sp)
    449c:	dd800404 	addi	r22,sp,16
    44a0:	003e8f06 	br	3ee0 <__alt_mem_onchip_memory+0xf7803ee0>
    44a4:	0027883a 	mov	r19,zero
    44a8:	003f4a06 	br	41d4 <__alt_mem_onchip_memory+0xf78041d4>
    44ac:	d9002c17 	ldw	r4,176(sp)
    44b0:	d9801e04 	addi	r6,sp,120
    44b4:	b80b883a 	mov	r5,r23
    44b8:	000ac500 	call	ac50 <__sprint_r>
    44bc:	103b6f1e 	bne	r2,zero,327c <__alt_mem_onchip_memory+0xf780327c>
    44c0:	d8c02017 	ldw	r3,128(sp)
    44c4:	da000404 	addi	r8,sp,16
    44c8:	003c9d06 	br	3740 <__alt_mem_onchip_memory+0xf7803740>
    44cc:	04e7c83a 	sub	r19,zero,r19
    44d0:	9804c03a 	cmpne	r2,r19,zero
    44d4:	05adc83a 	sub	r22,zero,r22
    44d8:	b0adc83a 	sub	r22,r22,r2
    44dc:	d8802917 	ldw	r2,164(sp)
    44e0:	07000b44 	movi	fp,45
    44e4:	df002785 	stb	fp,158(sp)
    44e8:	10017b16 	blt	r2,zero,4ad8 <___vfprintf_internal_r+0x1c64>
    44ec:	00bfdfc4 	movi	r2,-129
    44f0:	90a4703a 	and	r18,r18,r2
    44f4:	003bb106 	br	33bc <__alt_mem_onchip_memory+0xf78033bc>
    44f8:	d9003617 	ldw	r4,216(sp)
    44fc:	d9403817 	ldw	r5,224(sp)
    4500:	da003d15 	stw	r8,244(sp)
    4504:	00093d00 	call	93d0 <__fpclassifyd>
    4508:	da003d17 	ldw	r8,244(sp)
    450c:	1000f026 	beq	r2,zero,48d0 <___vfprintf_internal_r+0x1a5c>
    4510:	d9002917 	ldw	r4,164(sp)
    4514:	05bff7c4 	movi	r22,-33
    4518:	00bfffc4 	movi	r2,-1
    451c:	8dac703a 	and	r22,r17,r22
    4520:	20820026 	beq	r4,r2,4d24 <___vfprintf_internal_r+0x1eb0>
    4524:	008011c4 	movi	r2,71
    4528:	b081f726 	beq	r22,r2,4d08 <___vfprintf_internal_r+0x1e94>
    452c:	d9003817 	ldw	r4,224(sp)
    4530:	90c04014 	ori	r3,r18,256
    4534:	d8c02b15 	stw	r3,172(sp)
    4538:	20021516 	blt	r4,zero,4d90 <___vfprintf_internal_r+0x1f1c>
    453c:	dcc03817 	ldw	r19,224(sp)
    4540:	d8002a05 	stb	zero,168(sp)
    4544:	00801984 	movi	r2,102
    4548:	8881f926 	beq	r17,r2,4d30 <___vfprintf_internal_r+0x1ebc>
    454c:	00801184 	movi	r2,70
    4550:	88821c26 	beq	r17,r2,4dc4 <___vfprintf_internal_r+0x1f50>
    4554:	00801144 	movi	r2,69
    4558:	b081ef26 	beq	r22,r2,4d18 <___vfprintf_internal_r+0x1ea4>
    455c:	d8c02917 	ldw	r3,164(sp)
    4560:	d8802104 	addi	r2,sp,132
    4564:	d8800315 	stw	r2,12(sp)
    4568:	d9403617 	ldw	r5,216(sp)
    456c:	d8802504 	addi	r2,sp,148
    4570:	d9002c17 	ldw	r4,176(sp)
    4574:	d8800215 	stw	r2,8(sp)
    4578:	d8802604 	addi	r2,sp,152
    457c:	d8c00015 	stw	r3,0(sp)
    4580:	d8800115 	stw	r2,4(sp)
    4584:	01c00084 	movi	r7,2
    4588:	980d883a 	mov	r6,r19
    458c:	d8c03c15 	stw	r3,240(sp)
    4590:	da003d15 	stw	r8,244(sp)
    4594:	00054980 	call	5498 <_dtoa_r>
    4598:	1021883a 	mov	r16,r2
    459c:	008019c4 	movi	r2,103
    45a0:	d8c03c17 	ldw	r3,240(sp)
    45a4:	da003d17 	ldw	r8,244(sp)
    45a8:	88817126 	beq	r17,r2,4b70 <___vfprintf_internal_r+0x1cfc>
    45ac:	008011c4 	movi	r2,71
    45b0:	88829226 	beq	r17,r2,4ffc <___vfprintf_internal_r+0x2188>
    45b4:	80f9883a 	add	fp,r16,r3
    45b8:	d9003617 	ldw	r4,216(sp)
    45bc:	000d883a 	mov	r6,zero
    45c0:	000f883a 	mov	r7,zero
    45c4:	980b883a 	mov	r5,r19
    45c8:	da003d15 	stw	r8,244(sp)
    45cc:	000f2900 	call	f290 <__eqdf2>
    45d0:	da003d17 	ldw	r8,244(sp)
    45d4:	10018d26 	beq	r2,zero,4c0c <___vfprintf_internal_r+0x1d98>
    45d8:	d8802117 	ldw	r2,132(sp)
    45dc:	1700062e 	bgeu	r2,fp,45f8 <___vfprintf_internal_r+0x1784>
    45e0:	01000c04 	movi	r4,48
    45e4:	10c00044 	addi	r3,r2,1
    45e8:	d8c02115 	stw	r3,132(sp)
    45ec:	11000005 	stb	r4,0(r2)
    45f0:	d8802117 	ldw	r2,132(sp)
    45f4:	173ffb36 	bltu	r2,fp,45e4 <__alt_mem_onchip_memory+0xf78045e4>
    45f8:	1405c83a 	sub	r2,r2,r16
    45fc:	d8803315 	stw	r2,204(sp)
    4600:	008011c4 	movi	r2,71
    4604:	b0817626 	beq	r22,r2,4be0 <___vfprintf_internal_r+0x1d6c>
    4608:	00801944 	movi	r2,101
    460c:	1442810e 	bge	r2,r17,5014 <___vfprintf_internal_r+0x21a0>
    4610:	d8c02617 	ldw	r3,152(sp)
    4614:	00801984 	movi	r2,102
    4618:	d8c03215 	stw	r3,200(sp)
    461c:	8881fe26 	beq	r17,r2,4e18 <___vfprintf_internal_r+0x1fa4>
    4620:	d8c03217 	ldw	r3,200(sp)
    4624:	d9003317 	ldw	r4,204(sp)
    4628:	1901dd16 	blt	r3,r4,4da0 <___vfprintf_internal_r+0x1f2c>
    462c:	9480004c 	andi	r18,r18,1
    4630:	90022b1e 	bne	r18,zero,4ee0 <___vfprintf_internal_r+0x206c>
    4634:	1805883a 	mov	r2,r3
    4638:	18028016 	blt	r3,zero,503c <___vfprintf_internal_r+0x21c8>
    463c:	d8c03217 	ldw	r3,200(sp)
    4640:	044019c4 	movi	r17,103
    4644:	d8c02e15 	stw	r3,184(sp)
    4648:	df002a07 	ldb	fp,168(sp)
    464c:	e001531e 	bne	fp,zero,4b9c <___vfprintf_internal_r+0x1d28>
    4650:	df002783 	ldbu	fp,158(sp)
    4654:	d8802a15 	stw	r2,168(sp)
    4658:	dc802b17 	ldw	r18,172(sp)
    465c:	d8002915 	stw	zero,164(sp)
    4660:	003bd106 	br	35a8 <__alt_mem_onchip_memory+0xf78035a8>
    4664:	d8802d17 	ldw	r2,180(sp)
    4668:	d8c02d17 	ldw	r3,180(sp)
    466c:	d9002d17 	ldw	r4,180(sp)
    4670:	10800017 	ldw	r2,0(r2)
    4674:	18c00117 	ldw	r3,4(r3)
    4678:	21000204 	addi	r4,r4,8
    467c:	d8803615 	stw	r2,216(sp)
    4680:	d8c03815 	stw	r3,224(sp)
    4684:	d9002d15 	stw	r4,180(sp)
    4688:	003b7506 	br	3460 <__alt_mem_onchip_memory+0xf7803460>
    468c:	ac400007 	ldb	r17,0(r21)
    4690:	003a5906 	br	2ff8 <__alt_mem_onchip_memory+0xf7802ff8>
    4694:	9080100c 	andi	r2,r18,64
    4698:	1000a826 	beq	r2,zero,493c <___vfprintf_internal_r+0x1ac8>
    469c:	d9002d17 	ldw	r4,180(sp)
    46a0:	002d883a 	mov	r22,zero
    46a4:	24c0000b 	ldhu	r19,0(r4)
    46a8:	21000104 	addi	r4,r4,4
    46ac:	d9002d15 	stw	r4,180(sp)
    46b0:	003ccb06 	br	39e0 <__alt_mem_onchip_memory+0xf78039e0>
    46b4:	d8c02d17 	ldw	r3,180(sp)
    46b8:	d9002917 	ldw	r4,164(sp)
    46bc:	002d883a 	mov	r22,zero
    46c0:	18800104 	addi	r2,r3,4
    46c4:	1cc00017 	ldw	r19,0(r3)
    46c8:	203ebb0e 	bge	r4,zero,41b8 <__alt_mem_onchip_memory+0xf78041b8>
    46cc:	003ef106 	br	4294 <__alt_mem_onchip_memory+0xf7804294>
    46d0:	9080040c 	andi	r2,r18,16
    46d4:	1000921e 	bne	r2,zero,4920 <___vfprintf_internal_r+0x1aac>
    46d8:	9480100c 	andi	r18,r18,64
    46dc:	90013926 	beq	r18,zero,4bc4 <___vfprintf_internal_r+0x1d50>
    46e0:	d9002d17 	ldw	r4,180(sp)
    46e4:	d9402f17 	ldw	r5,188(sp)
    46e8:	20800017 	ldw	r2,0(r4)
    46ec:	21000104 	addi	r4,r4,4
    46f0:	d9002d15 	stw	r4,180(sp)
    46f4:	1140000d 	sth	r5,0(r2)
    46f8:	003a1606 	br	2f54 <__alt_mem_onchip_memory+0xf7802f54>
    46fc:	9080100c 	andi	r2,r18,64
    4700:	10008026 	beq	r2,zero,4904 <___vfprintf_internal_r+0x1a90>
    4704:	d8c02d17 	ldw	r3,180(sp)
    4708:	1cc0000f 	ldh	r19,0(r3)
    470c:	18c00104 	addi	r3,r3,4
    4710:	d8c02d15 	stw	r3,180(sp)
    4714:	982dd7fa 	srai	r22,r19,31
    4718:	b005883a 	mov	r2,r22
    471c:	003b1f06 	br	339c <__alt_mem_onchip_memory+0xf780339c>
    4720:	9080100c 	andi	r2,r18,64
    4724:	d8002785 	stb	zero,158(sp)
    4728:	10008a1e 	bne	r2,zero,4954 <___vfprintf_internal_r+0x1ae0>
    472c:	d9402d17 	ldw	r5,180(sp)
    4730:	d8c02917 	ldw	r3,164(sp)
    4734:	002d883a 	mov	r22,zero
    4738:	28800104 	addi	r2,r5,4
    473c:	2cc00017 	ldw	r19,0(r5)
    4740:	183e4b0e 	bge	r3,zero,4070 <__alt_mem_onchip_memory+0xf7804070>
    4744:	9d86b03a 	or	r3,r19,r22
    4748:	d8802d15 	stw	r2,180(sp)
    474c:	183e4c1e 	bne	r3,zero,4080 <__alt_mem_onchip_memory+0xf7804080>
    4750:	0039883a 	mov	fp,zero
    4754:	0005883a 	mov	r2,zero
    4758:	003d4006 	br	3c5c <__alt_mem_onchip_memory+0xf7803c5c>
    475c:	01400074 	movhi	r5,1
    4760:	295ad184 	addi	r5,r5,27462
    4764:	d9402b15 	stw	r5,172(sp)
    4768:	d9402b17 	ldw	r5,172(sp)
    476c:	1c47883a 	add	r3,r3,r17
    4770:	10800044 	addi	r2,r2,1
    4774:	41400015 	stw	r5,0(r8)
    4778:	44400115 	stw	r17,4(r8)
    477c:	d8c02015 	stw	r3,128(sp)
    4780:	d8801f15 	stw	r2,124(sp)
    4784:	010001c4 	movi	r4,7
    4788:	20bec816 	blt	r4,r2,42ac <__alt_mem_onchip_memory+0xf78042ac>
    478c:	42000204 	addi	r8,r8,8
    4790:	003ecd06 	br	42c8 <__alt_mem_onchip_memory+0xf78042c8>
    4794:	d9002917 	ldw	r4,164(sp)
    4798:	d8002785 	stb	zero,158(sp)
    479c:	203d2d16 	blt	r4,zero,3c54 <__alt_mem_onchip_memory+0xf7803c54>
    47a0:	00bfdfc4 	movi	r2,-129
    47a4:	90a4703a 	and	r18,r18,r2
    47a8:	003a9106 	br	31f0 <__alt_mem_onchip_memory+0xf78031f0>
    47ac:	01000074 	movhi	r4,1
    47b0:	211ad184 	addi	r4,r4,27462
    47b4:	d9002b15 	stw	r4,172(sp)
    47b8:	003c0c06 	br	37ec <__alt_mem_onchip_memory+0xf78037ec>
    47bc:	d9002c17 	ldw	r4,176(sp)
    47c0:	d9801e04 	addi	r6,sp,120
    47c4:	b80b883a 	mov	r5,r23
    47c8:	000ac500 	call	ac50 <__sprint_r>
    47cc:	103aab1e 	bne	r2,zero,327c <__alt_mem_onchip_memory+0xf780327c>
    47d0:	d8c02017 	ldw	r3,128(sp)
    47d4:	da000404 	addi	r8,sp,16
    47d8:	003d4106 	br	3ce0 <__alt_mem_onchip_memory+0xf7803ce0>
    47dc:	d8801f17 	ldw	r2,124(sp)
    47e0:	01400074 	movhi	r5,1
    47e4:	01000044 	movi	r4,1
    47e8:	18c00044 	addi	r3,r3,1
    47ec:	10800044 	addi	r2,r2,1
    47f0:	295ac904 	addi	r5,r5,27428
    47f4:	41000115 	stw	r4,4(r8)
    47f8:	41400015 	stw	r5,0(r8)
    47fc:	d8c02015 	stw	r3,128(sp)
    4800:	d8801f15 	stw	r2,124(sp)
    4804:	010001c4 	movi	r4,7
    4808:	20805c16 	blt	r4,r2,497c <___vfprintf_internal_r+0x1b08>
    480c:	42000204 	addi	r8,r8,8
    4810:	8800041e 	bne	r17,zero,4824 <___vfprintf_internal_r+0x19b0>
    4814:	d8803317 	ldw	r2,204(sp)
    4818:	1000021e 	bne	r2,zero,4824 <___vfprintf_internal_r+0x19b0>
    481c:	9080004c 	andi	r2,r18,1
    4820:	103c0926 	beq	r2,zero,3848 <__alt_mem_onchip_memory+0xf7803848>
    4824:	d9003717 	ldw	r4,220(sp)
    4828:	d8801f17 	ldw	r2,124(sp)
    482c:	d9403417 	ldw	r5,208(sp)
    4830:	20c7883a 	add	r3,r4,r3
    4834:	10800044 	addi	r2,r2,1
    4838:	41000115 	stw	r4,4(r8)
    483c:	41400015 	stw	r5,0(r8)
    4840:	d8c02015 	stw	r3,128(sp)
    4844:	d8801f15 	stw	r2,124(sp)
    4848:	010001c4 	movi	r4,7
    484c:	20812116 	blt	r4,r2,4cd4 <___vfprintf_internal_r+0x1e60>
    4850:	42000204 	addi	r8,r8,8
    4854:	0463c83a 	sub	r17,zero,r17
    4858:	0440730e 	bge	zero,r17,4a28 <___vfprintf_internal_r+0x1bb4>
    485c:	05800404 	movi	r22,16
    4860:	b440860e 	bge	r22,r17,4a7c <___vfprintf_internal_r+0x1c08>
    4864:	01400074 	movhi	r5,1
    4868:	295ad184 	addi	r5,r5,27462
    486c:	d9402b15 	stw	r5,172(sp)
    4870:	070001c4 	movi	fp,7
    4874:	dcc02c17 	ldw	r19,176(sp)
    4878:	00000306 	br	4888 <___vfprintf_internal_r+0x1a14>
    487c:	42000204 	addi	r8,r8,8
    4880:	8c7ffc04 	addi	r17,r17,-16
    4884:	b440800e 	bge	r22,r17,4a88 <___vfprintf_internal_r+0x1c14>
    4888:	18c00404 	addi	r3,r3,16
    488c:	10800044 	addi	r2,r2,1
    4890:	45000015 	stw	r20,0(r8)
    4894:	45800115 	stw	r22,4(r8)
    4898:	d8c02015 	stw	r3,128(sp)
    489c:	d8801f15 	stw	r2,124(sp)
    48a0:	e0bff60e 	bge	fp,r2,487c <__alt_mem_onchip_memory+0xf780487c>
    48a4:	d9801e04 	addi	r6,sp,120
    48a8:	b80b883a 	mov	r5,r23
    48ac:	9809883a 	mov	r4,r19
    48b0:	000ac500 	call	ac50 <__sprint_r>
    48b4:	103a711e 	bne	r2,zero,327c <__alt_mem_onchip_memory+0xf780327c>
    48b8:	d8c02017 	ldw	r3,128(sp)
    48bc:	d8801f17 	ldw	r2,124(sp)
    48c0:	da000404 	addi	r8,sp,16
    48c4:	003fee06 	br	4880 <__alt_mem_onchip_memory+0xf7804880>
    48c8:	00bfffc4 	movi	r2,-1
    48cc:	003a6f06 	br	328c <__alt_mem_onchip_memory+0xf780328c>
    48d0:	008011c4 	movi	r2,71
    48d4:	1440b816 	blt	r2,r17,4bb8 <___vfprintf_internal_r+0x1d44>
    48d8:	04000074 	movhi	r16,1
    48dc:	841abb04 	addi	r16,r16,27372
    48e0:	00c000c4 	movi	r3,3
    48e4:	00bfdfc4 	movi	r2,-129
    48e8:	d8c02a15 	stw	r3,168(sp)
    48ec:	90a4703a 	and	r18,r18,r2
    48f0:	df002783 	ldbu	fp,158(sp)
    48f4:	d8c02e15 	stw	r3,184(sp)
    48f8:	d8002915 	stw	zero,164(sp)
    48fc:	d8003215 	stw	zero,200(sp)
    4900:	003b2906 	br	35a8 <__alt_mem_onchip_memory+0xf78035a8>
    4904:	d9002d17 	ldw	r4,180(sp)
    4908:	24c00017 	ldw	r19,0(r4)
    490c:	21000104 	addi	r4,r4,4
    4910:	d9002d15 	stw	r4,180(sp)
    4914:	982dd7fa 	srai	r22,r19,31
    4918:	b005883a 	mov	r2,r22
    491c:	003a9f06 	br	339c <__alt_mem_onchip_memory+0xf780339c>
    4920:	d9402d17 	ldw	r5,180(sp)
    4924:	d8c02f17 	ldw	r3,188(sp)
    4928:	28800017 	ldw	r2,0(r5)
    492c:	29400104 	addi	r5,r5,4
    4930:	d9402d15 	stw	r5,180(sp)
    4934:	10c00015 	stw	r3,0(r2)
    4938:	00398606 	br	2f54 <__alt_mem_onchip_memory+0xf7802f54>
    493c:	d9402d17 	ldw	r5,180(sp)
    4940:	002d883a 	mov	r22,zero
    4944:	2cc00017 	ldw	r19,0(r5)
    4948:	29400104 	addi	r5,r5,4
    494c:	d9402d15 	stw	r5,180(sp)
    4950:	003c2306 	br	39e0 <__alt_mem_onchip_memory+0xf78039e0>
    4954:	d8c02d17 	ldw	r3,180(sp)
    4958:	d9002917 	ldw	r4,164(sp)
    495c:	002d883a 	mov	r22,zero
    4960:	18800104 	addi	r2,r3,4
    4964:	1cc0000b 	ldhu	r19,0(r3)
    4968:	203dc10e 	bge	r4,zero,4070 <__alt_mem_onchip_memory+0xf7804070>
    496c:	003f7506 	br	4744 <__alt_mem_onchip_memory+0xf7804744>
    4970:	04000074 	movhi	r16,1
    4974:	841ab904 	addi	r16,r16,27364
    4978:	003acc06 	br	34ac <__alt_mem_onchip_memory+0xf78034ac>
    497c:	d9002c17 	ldw	r4,176(sp)
    4980:	d9801e04 	addi	r6,sp,120
    4984:	b80b883a 	mov	r5,r23
    4988:	000ac500 	call	ac50 <__sprint_r>
    498c:	103a3b1e 	bne	r2,zero,327c <__alt_mem_onchip_memory+0xf780327c>
    4990:	dc402617 	ldw	r17,152(sp)
    4994:	d8c02017 	ldw	r3,128(sp)
    4998:	da000404 	addi	r8,sp,16
    499c:	003f9c06 	br	4810 <__alt_mem_onchip_memory+0xf7804810>
    49a0:	ac400043 	ldbu	r17,1(r21)
    49a4:	94800814 	ori	r18,r18,32
    49a8:	ad400044 	addi	r21,r21,1
    49ac:	8c403fcc 	andi	r17,r17,255
    49b0:	8c40201c 	xori	r17,r17,128
    49b4:	8c7fe004 	addi	r17,r17,-128
    49b8:	00398f06 	br	2ff8 <__alt_mem_onchip_memory+0xf7802ff8>
    49bc:	d8c02d15 	stw	r3,180(sp)
    49c0:	0039883a 	mov	fp,zero
    49c4:	003e3506 	br	429c <__alt_mem_onchip_memory+0xf780429c>
    49c8:	d9002c17 	ldw	r4,176(sp)
    49cc:	d9801e04 	addi	r6,sp,120
    49d0:	b80b883a 	mov	r5,r23
    49d4:	000ac500 	call	ac50 <__sprint_r>
    49d8:	103a281e 	bne	r2,zero,327c <__alt_mem_onchip_memory+0xf780327c>
    49dc:	d8c02017 	ldw	r3,128(sp)
    49e0:	da000404 	addi	r8,sp,16
    49e4:	003cd006 	br	3d28 <__alt_mem_onchip_memory+0xf7803d28>
    49e8:	8009883a 	mov	r4,r16
    49ec:	da003d15 	stw	r8,244(sp)
    49f0:	00096b00 	call	96b0 <strlen>
    49f4:	d8802e15 	stw	r2,184(sp)
    49f8:	da003d17 	ldw	r8,244(sp)
    49fc:	103c340e 	bge	r2,zero,3ad0 <__alt_mem_onchip_memory+0xf7803ad0>
    4a00:	0005883a 	mov	r2,zero
    4a04:	003c3206 	br	3ad0 <__alt_mem_onchip_memory+0xf7803ad0>
    4a08:	d9002c17 	ldw	r4,176(sp)
    4a0c:	d9801e04 	addi	r6,sp,120
    4a10:	b80b883a 	mov	r5,r23
    4a14:	000ac500 	call	ac50 <__sprint_r>
    4a18:	103a181e 	bne	r2,zero,327c <__alt_mem_onchip_memory+0xf780327c>
    4a1c:	d8c02017 	ldw	r3,128(sp)
    4a20:	d8801f17 	ldw	r2,124(sp)
    4a24:	da000404 	addi	r8,sp,16
    4a28:	d9403317 	ldw	r5,204(sp)
    4a2c:	10800044 	addi	r2,r2,1
    4a30:	44000015 	stw	r16,0(r8)
    4a34:	28c7883a 	add	r3,r5,r3
    4a38:	003b7d06 	br	3830 <__alt_mem_onchip_memory+0xf7803830>
    4a3c:	01000074 	movhi	r4,1
    4a40:	211ad584 	addi	r4,r4,27478
    4a44:	d9003515 	stw	r4,212(sp)
    4a48:	003b1406 	br	369c <__alt_mem_onchip_memory+0xf780369c>
    4a4c:	013fffc4 	movi	r4,-1
    4a50:	003a3506 	br	3328 <__alt_mem_onchip_memory+0xf7803328>
    4a54:	0023883a 	mov	r17,zero
    4a58:	003d9d06 	br	40d0 <__alt_mem_onchip_memory+0xf78040d0>
    4a5c:	d9002c17 	ldw	r4,176(sp)
    4a60:	d9801e04 	addi	r6,sp,120
    4a64:	b80b883a 	mov	r5,r23
    4a68:	000ac500 	call	ac50 <__sprint_r>
    4a6c:	103a031e 	bne	r2,zero,327c <__alt_mem_onchip_memory+0xf780327c>
    4a70:	d8c02017 	ldw	r3,128(sp)
    4a74:	da000404 	addi	r8,sp,16
    4a78:	003d9406 	br	40cc <__alt_mem_onchip_memory+0xf78040cc>
    4a7c:	01000074 	movhi	r4,1
    4a80:	211ad184 	addi	r4,r4,27462
    4a84:	d9002b15 	stw	r4,172(sp)
    4a88:	d9002b17 	ldw	r4,172(sp)
    4a8c:	1c47883a 	add	r3,r3,r17
    4a90:	10800044 	addi	r2,r2,1
    4a94:	41000015 	stw	r4,0(r8)
    4a98:	44400115 	stw	r17,4(r8)
    4a9c:	d8c02015 	stw	r3,128(sp)
    4aa0:	d8801f15 	stw	r2,124(sp)
    4aa4:	010001c4 	movi	r4,7
    4aa8:	20bfd716 	blt	r4,r2,4a08 <__alt_mem_onchip_memory+0xf7804a08>
    4aac:	42000204 	addi	r8,r8,8
    4ab0:	003fdd06 	br	4a28 <__alt_mem_onchip_memory+0xf7804a28>
    4ab4:	d9002c17 	ldw	r4,176(sp)
    4ab8:	d9801e04 	addi	r6,sp,120
    4abc:	b80b883a 	mov	r5,r23
    4ac0:	000ac500 	call	ac50 <__sprint_r>
    4ac4:	1039ed1e 	bne	r2,zero,327c <__alt_mem_onchip_memory+0xf780327c>
    4ac8:	d8802617 	ldw	r2,152(sp)
    4acc:	d8c02017 	ldw	r3,128(sp)
    4ad0:	da000404 	addi	r8,sp,16
    4ad4:	003e1006 	br	4318 <__alt_mem_onchip_memory+0xf7804318>
    4ad8:	00800044 	movi	r2,1
    4adc:	10803fcc 	andi	r2,r2,255
    4ae0:	00c00044 	movi	r3,1
    4ae4:	10fa3526 	beq	r2,r3,33bc <__alt_mem_onchip_memory+0xf78033bc>
    4ae8:	00c00084 	movi	r3,2
    4aec:	10fbcb26 	beq	r2,r3,3a1c <__alt_mem_onchip_memory+0xf7803a1c>
    4af0:	003a8f06 	br	3530 <__alt_mem_onchip_memory+0xf7803530>
    4af4:	01000074 	movhi	r4,1
    4af8:	211ad584 	addi	r4,r4,27478
    4afc:	d9003515 	stw	r4,212(sp)
    4b00:	003b7606 	br	38dc <__alt_mem_onchip_memory+0xf78038dc>
    4b04:	d8802917 	ldw	r2,164(sp)
    4b08:	00c00184 	movi	r3,6
    4b0c:	1880012e 	bgeu	r3,r2,4b14 <___vfprintf_internal_r+0x1ca0>
    4b10:	1805883a 	mov	r2,r3
    4b14:	d8802e15 	stw	r2,184(sp)
    4b18:	1000ef16 	blt	r2,zero,4ed8 <___vfprintf_internal_r+0x2064>
    4b1c:	04000074 	movhi	r16,1
    4b20:	d8802a15 	stw	r2,168(sp)
    4b24:	dcc02d15 	stw	r19,180(sp)
    4b28:	d8002915 	stw	zero,164(sp)
    4b2c:	d8003215 	stw	zero,200(sp)
    4b30:	841ac704 	addi	r16,r16,27420
    4b34:	0039883a 	mov	fp,zero
    4b38:	003aa206 	br	35c4 <__alt_mem_onchip_memory+0xf78035c4>
    4b3c:	0021883a 	mov	r16,zero
    4b40:	003e0706 	br	4360 <__alt_mem_onchip_memory+0xf7804360>
    4b44:	d9002c17 	ldw	r4,176(sp)
    4b48:	d9801e04 	addi	r6,sp,120
    4b4c:	b80b883a 	mov	r5,r23
    4b50:	000ac500 	call	ac50 <__sprint_r>
    4b54:	1039c91e 	bne	r2,zero,327c <__alt_mem_onchip_memory+0xf780327c>
    4b58:	d8802617 	ldw	r2,152(sp)
    4b5c:	d9403317 	ldw	r5,204(sp)
    4b60:	d8c02017 	ldw	r3,128(sp)
    4b64:	da000404 	addi	r8,sp,16
    4b68:	2885c83a 	sub	r2,r5,r2
    4b6c:	003dfb06 	br	435c <__alt_mem_onchip_memory+0xf780435c>
    4b70:	9080004c 	andi	r2,r18,1
    4b74:	103e8f1e 	bne	r2,zero,45b4 <__alt_mem_onchip_memory+0xf78045b4>
    4b78:	d8802117 	ldw	r2,132(sp)
    4b7c:	003e9e06 	br	45f8 <__alt_mem_onchip_memory+0xf78045f8>
    4b80:	1025883a 	mov	r18,r2
    4b84:	0039883a 	mov	fp,zero
    4b88:	00800084 	movi	r2,2
    4b8c:	003fd306 	br	4adc <__alt_mem_onchip_memory+0xf7804adc>
    4b90:	07000b44 	movi	fp,45
    4b94:	df002785 	stb	fp,158(sp)
    4b98:	003a4006 	br	349c <__alt_mem_onchip_memory+0xf780349c>
    4b9c:	00c00b44 	movi	r3,45
    4ba0:	d8c02785 	stb	r3,158(sp)
    4ba4:	d8802a15 	stw	r2,168(sp)
    4ba8:	dc802b17 	ldw	r18,172(sp)
    4bac:	d8002915 	stw	zero,164(sp)
    4bb0:	07000b44 	movi	fp,45
    4bb4:	003a8006 	br	35b8 <__alt_mem_onchip_memory+0xf78035b8>
    4bb8:	04000074 	movhi	r16,1
    4bbc:	841abc04 	addi	r16,r16,27376
    4bc0:	003f4706 	br	48e0 <__alt_mem_onchip_memory+0xf78048e0>
    4bc4:	d8c02d17 	ldw	r3,180(sp)
    4bc8:	d9002f17 	ldw	r4,188(sp)
    4bcc:	18800017 	ldw	r2,0(r3)
    4bd0:	18c00104 	addi	r3,r3,4
    4bd4:	d8c02d15 	stw	r3,180(sp)
    4bd8:	11000015 	stw	r4,0(r2)
    4bdc:	0038dd06 	br	2f54 <__alt_mem_onchip_memory+0xf7802f54>
    4be0:	dd802617 	ldw	r22,152(sp)
    4be4:	00bfff44 	movi	r2,-3
    4be8:	b0801c16 	blt	r22,r2,4c5c <___vfprintf_internal_r+0x1de8>
    4bec:	d9402917 	ldw	r5,164(sp)
    4bf0:	2d801a16 	blt	r5,r22,4c5c <___vfprintf_internal_r+0x1de8>
    4bf4:	dd803215 	stw	r22,200(sp)
    4bf8:	003e8906 	br	4620 <__alt_mem_onchip_memory+0xf7804620>
    4bfc:	01000074 	movhi	r4,1
    4c00:	211ad184 	addi	r4,r4,27462
    4c04:	d9002b15 	stw	r4,172(sp)
    4c08:	003c9106 	br	3e50 <__alt_mem_onchip_memory+0xf7803e50>
    4c0c:	e005883a 	mov	r2,fp
    4c10:	003e7906 	br	45f8 <__alt_mem_onchip_memory+0xf78045f8>
    4c14:	d9402917 	ldw	r5,164(sp)
    4c18:	df002783 	ldbu	fp,158(sp)
    4c1c:	dcc02d15 	stw	r19,180(sp)
    4c20:	d9402a15 	stw	r5,168(sp)
    4c24:	d9402e15 	stw	r5,184(sp)
    4c28:	d8002915 	stw	zero,164(sp)
    4c2c:	d8003215 	stw	zero,200(sp)
    4c30:	003a5d06 	br	35a8 <__alt_mem_onchip_memory+0xf78035a8>
    4c34:	9080004c 	andi	r2,r18,1
    4c38:	0039883a 	mov	fp,zero
    4c3c:	10000426 	beq	r2,zero,4c50 <___vfprintf_internal_r+0x1ddc>
    4c40:	00800c04 	movi	r2,48
    4c44:	dc001dc4 	addi	r16,sp,119
    4c48:	d8801dc5 	stb	r2,119(sp)
    4c4c:	003b8006 	br	3a50 <__alt_mem_onchip_memory+0xf7803a50>
    4c50:	d8002e15 	stw	zero,184(sp)
    4c54:	dc001e04 	addi	r16,sp,120
    4c58:	003a4d06 	br	3590 <__alt_mem_onchip_memory+0xf7803590>
    4c5c:	8c7fff84 	addi	r17,r17,-2
    4c60:	b5bfffc4 	addi	r22,r22,-1
    4c64:	dd802615 	stw	r22,152(sp)
    4c68:	dc4022c5 	stb	r17,139(sp)
    4c6c:	b000bf16 	blt	r22,zero,4f6c <___vfprintf_internal_r+0x20f8>
    4c70:	00800ac4 	movi	r2,43
    4c74:	d8802305 	stb	r2,140(sp)
    4c78:	00800244 	movi	r2,9
    4c7c:	15807016 	blt	r2,r22,4e40 <___vfprintf_internal_r+0x1fcc>
    4c80:	00800c04 	movi	r2,48
    4c84:	b5800c04 	addi	r22,r22,48
    4c88:	d8802345 	stb	r2,141(sp)
    4c8c:	dd802385 	stb	r22,142(sp)
    4c90:	d88023c4 	addi	r2,sp,143
    4c94:	df0022c4 	addi	fp,sp,139
    4c98:	d8c03317 	ldw	r3,204(sp)
    4c9c:	1739c83a 	sub	fp,r2,fp
    4ca0:	d9003317 	ldw	r4,204(sp)
    4ca4:	e0c7883a 	add	r3,fp,r3
    4ca8:	df003a15 	stw	fp,232(sp)
    4cac:	d8c02e15 	stw	r3,184(sp)
    4cb0:	00800044 	movi	r2,1
    4cb4:	1100b30e 	bge	r2,r4,4f84 <___vfprintf_internal_r+0x2110>
    4cb8:	d8c02e17 	ldw	r3,184(sp)
    4cbc:	18c00044 	addi	r3,r3,1
    4cc0:	d8c02e15 	stw	r3,184(sp)
    4cc4:	1805883a 	mov	r2,r3
    4cc8:	1800ac16 	blt	r3,zero,4f7c <___vfprintf_internal_r+0x2108>
    4ccc:	d8003215 	stw	zero,200(sp)
    4cd0:	003e5d06 	br	4648 <__alt_mem_onchip_memory+0xf7804648>
    4cd4:	d9002c17 	ldw	r4,176(sp)
    4cd8:	d9801e04 	addi	r6,sp,120
    4cdc:	b80b883a 	mov	r5,r23
    4ce0:	000ac500 	call	ac50 <__sprint_r>
    4ce4:	1039651e 	bne	r2,zero,327c <__alt_mem_onchip_memory+0xf780327c>
    4ce8:	dc402617 	ldw	r17,152(sp)
    4cec:	d8c02017 	ldw	r3,128(sp)
    4cf0:	d8801f17 	ldw	r2,124(sp)
    4cf4:	da000404 	addi	r8,sp,16
    4cf8:	003ed606 	br	4854 <__alt_mem_onchip_memory+0xf7804854>
    4cfc:	582b883a 	mov	r21,r11
    4d00:	d8002915 	stw	zero,164(sp)
    4d04:	0038bd06 	br	2ffc <__alt_mem_onchip_memory+0xf7802ffc>
    4d08:	d8802917 	ldw	r2,164(sp)
    4d0c:	103e071e 	bne	r2,zero,452c <__alt_mem_onchip_memory+0xf780452c>
    4d10:	dc002915 	stw	r16,164(sp)
    4d14:	003e0506 	br	452c <__alt_mem_onchip_memory+0xf780452c>
    4d18:	d9002917 	ldw	r4,164(sp)
    4d1c:	20c00044 	addi	r3,r4,1
    4d20:	003e0f06 	br	4560 <__alt_mem_onchip_memory+0xf7804560>
    4d24:	01400184 	movi	r5,6
    4d28:	d9402915 	stw	r5,164(sp)
    4d2c:	003dff06 	br	452c <__alt_mem_onchip_memory+0xf780452c>
    4d30:	d8802104 	addi	r2,sp,132
    4d34:	d8800315 	stw	r2,12(sp)
    4d38:	d8802504 	addi	r2,sp,148
    4d3c:	d8800215 	stw	r2,8(sp)
    4d40:	d8802604 	addi	r2,sp,152
    4d44:	d8800115 	stw	r2,4(sp)
    4d48:	d8802917 	ldw	r2,164(sp)
    4d4c:	d9403617 	ldw	r5,216(sp)
    4d50:	d9002c17 	ldw	r4,176(sp)
    4d54:	d8800015 	stw	r2,0(sp)
    4d58:	01c000c4 	movi	r7,3
    4d5c:	980d883a 	mov	r6,r19
    4d60:	da003d15 	stw	r8,244(sp)
    4d64:	00054980 	call	5498 <_dtoa_r>
    4d68:	d8c02917 	ldw	r3,164(sp)
    4d6c:	da003d17 	ldw	r8,244(sp)
    4d70:	1021883a 	mov	r16,r2
    4d74:	10f9883a 	add	fp,r2,r3
    4d78:	81000007 	ldb	r4,0(r16)
    4d7c:	00800c04 	movi	r2,48
    4d80:	20805e26 	beq	r4,r2,4efc <___vfprintf_internal_r+0x2088>
    4d84:	d8c02617 	ldw	r3,152(sp)
    4d88:	e0f9883a 	add	fp,fp,r3
    4d8c:	003e0a06 	br	45b8 <__alt_mem_onchip_memory+0xf78045b8>
    4d90:	00c00b44 	movi	r3,45
    4d94:	24e0003c 	xorhi	r19,r4,32768
    4d98:	d8c02a05 	stb	r3,168(sp)
    4d9c:	003de906 	br	4544 <__alt_mem_onchip_memory+0xf7804544>
    4da0:	d8c03217 	ldw	r3,200(sp)
    4da4:	00c07a0e 	bge	zero,r3,4f90 <___vfprintf_internal_r+0x211c>
    4da8:	00800044 	movi	r2,1
    4dac:	d9003317 	ldw	r4,204(sp)
    4db0:	1105883a 	add	r2,r2,r4
    4db4:	d8802e15 	stw	r2,184(sp)
    4db8:	10004e16 	blt	r2,zero,4ef4 <___vfprintf_internal_r+0x2080>
    4dbc:	044019c4 	movi	r17,103
    4dc0:	003e2106 	br	4648 <__alt_mem_onchip_memory+0xf7804648>
    4dc4:	d9002917 	ldw	r4,164(sp)
    4dc8:	d8802104 	addi	r2,sp,132
    4dcc:	d8800315 	stw	r2,12(sp)
    4dd0:	d9000015 	stw	r4,0(sp)
    4dd4:	d8802504 	addi	r2,sp,148
    4dd8:	d9403617 	ldw	r5,216(sp)
    4ddc:	d9002c17 	ldw	r4,176(sp)
    4de0:	d8800215 	stw	r2,8(sp)
    4de4:	d8802604 	addi	r2,sp,152
    4de8:	d8800115 	stw	r2,4(sp)
    4dec:	01c000c4 	movi	r7,3
    4df0:	980d883a 	mov	r6,r19
    4df4:	da003d15 	stw	r8,244(sp)
    4df8:	00054980 	call	5498 <_dtoa_r>
    4dfc:	d8c02917 	ldw	r3,164(sp)
    4e00:	da003d17 	ldw	r8,244(sp)
    4e04:	1021883a 	mov	r16,r2
    4e08:	00801184 	movi	r2,70
    4e0c:	80f9883a 	add	fp,r16,r3
    4e10:	88bfd926 	beq	r17,r2,4d78 <__alt_mem_onchip_memory+0xf7804d78>
    4e14:	003de806 	br	45b8 <__alt_mem_onchip_memory+0xf78045b8>
    4e18:	d9002917 	ldw	r4,164(sp)
    4e1c:	00c04d0e 	bge	zero,r3,4f54 <___vfprintf_internal_r+0x20e0>
    4e20:	2000441e 	bne	r4,zero,4f34 <___vfprintf_internal_r+0x20c0>
    4e24:	9480004c 	andi	r18,r18,1
    4e28:	9000421e 	bne	r18,zero,4f34 <___vfprintf_internal_r+0x20c0>
    4e2c:	1805883a 	mov	r2,r3
    4e30:	18007016 	blt	r3,zero,4ff4 <___vfprintf_internal_r+0x2180>
    4e34:	d8c03217 	ldw	r3,200(sp)
    4e38:	d8c02e15 	stw	r3,184(sp)
    4e3c:	003e0206 	br	4648 <__alt_mem_onchip_memory+0xf7804648>
    4e40:	df0022c4 	addi	fp,sp,139
    4e44:	dc002915 	stw	r16,164(sp)
    4e48:	4027883a 	mov	r19,r8
    4e4c:	e021883a 	mov	r16,fp
    4e50:	b009883a 	mov	r4,r22
    4e54:	01400284 	movi	r5,10
    4e58:	00008f40 	call	8f4 <__modsi3>
    4e5c:	10800c04 	addi	r2,r2,48
    4e60:	843fffc4 	addi	r16,r16,-1
    4e64:	b009883a 	mov	r4,r22
    4e68:	01400284 	movi	r5,10
    4e6c:	80800005 	stb	r2,0(r16)
    4e70:	00008700 	call	870 <__divsi3>
    4e74:	102d883a 	mov	r22,r2
    4e78:	00800244 	movi	r2,9
    4e7c:	15bff416 	blt	r2,r22,4e50 <__alt_mem_onchip_memory+0xf7804e50>
    4e80:	9811883a 	mov	r8,r19
    4e84:	b0800c04 	addi	r2,r22,48
    4e88:	8027883a 	mov	r19,r16
    4e8c:	997fffc4 	addi	r5,r19,-1
    4e90:	98bfffc5 	stb	r2,-1(r19)
    4e94:	dc002917 	ldw	r16,164(sp)
    4e98:	2f006a2e 	bgeu	r5,fp,5044 <___vfprintf_internal_r+0x21d0>
    4e9c:	d9c02384 	addi	r7,sp,142
    4ea0:	3ccfc83a 	sub	r7,r7,r19
    4ea4:	d9002344 	addi	r4,sp,141
    4ea8:	e1cf883a 	add	r7,fp,r7
    4eac:	00000106 	br	4eb4 <___vfprintf_internal_r+0x2040>
    4eb0:	28800003 	ldbu	r2,0(r5)
    4eb4:	20800005 	stb	r2,0(r4)
    4eb8:	21000044 	addi	r4,r4,1
    4ebc:	29400044 	addi	r5,r5,1
    4ec0:	393ffb1e 	bne	r7,r4,4eb0 <__alt_mem_onchip_memory+0xf7804eb0>
    4ec4:	d8802304 	addi	r2,sp,140
    4ec8:	14c5c83a 	sub	r2,r2,r19
    4ecc:	d8c02344 	addi	r3,sp,141
    4ed0:	1885883a 	add	r2,r3,r2
    4ed4:	003f7006 	br	4c98 <__alt_mem_onchip_memory+0xf7804c98>
    4ed8:	0005883a 	mov	r2,zero
    4edc:	003f0f06 	br	4b1c <__alt_mem_onchip_memory+0xf7804b1c>
    4ee0:	d8c03217 	ldw	r3,200(sp)
    4ee4:	18c00044 	addi	r3,r3,1
    4ee8:	d8c02e15 	stw	r3,184(sp)
    4eec:	1805883a 	mov	r2,r3
    4ef0:	183fb20e 	bge	r3,zero,4dbc <__alt_mem_onchip_memory+0xf7804dbc>
    4ef4:	0005883a 	mov	r2,zero
    4ef8:	003fb006 	br	4dbc <__alt_mem_onchip_memory+0xf7804dbc>
    4efc:	d9003617 	ldw	r4,216(sp)
    4f00:	000d883a 	mov	r6,zero
    4f04:	000f883a 	mov	r7,zero
    4f08:	980b883a 	mov	r5,r19
    4f0c:	d8c03c15 	stw	r3,240(sp)
    4f10:	da003d15 	stw	r8,244(sp)
    4f14:	000f2900 	call	f290 <__eqdf2>
    4f18:	d8c03c17 	ldw	r3,240(sp)
    4f1c:	da003d17 	ldw	r8,244(sp)
    4f20:	103f9826 	beq	r2,zero,4d84 <__alt_mem_onchip_memory+0xf7804d84>
    4f24:	00800044 	movi	r2,1
    4f28:	10c7c83a 	sub	r3,r2,r3
    4f2c:	d8c02615 	stw	r3,152(sp)
    4f30:	003f9506 	br	4d88 <__alt_mem_onchip_memory+0xf7804d88>
    4f34:	d9002917 	ldw	r4,164(sp)
    4f38:	d8c03217 	ldw	r3,200(sp)
    4f3c:	20800044 	addi	r2,r4,1
    4f40:	1885883a 	add	r2,r3,r2
    4f44:	d8802e15 	stw	r2,184(sp)
    4f48:	103dbf0e 	bge	r2,zero,4648 <__alt_mem_onchip_memory+0xf7804648>
    4f4c:	0005883a 	mov	r2,zero
    4f50:	003dbd06 	br	4648 <__alt_mem_onchip_memory+0xf7804648>
    4f54:	2000211e 	bne	r4,zero,4fdc <___vfprintf_internal_r+0x2168>
    4f58:	9480004c 	andi	r18,r18,1
    4f5c:	90001f1e 	bne	r18,zero,4fdc <___vfprintf_internal_r+0x2168>
    4f60:	00800044 	movi	r2,1
    4f64:	d8802e15 	stw	r2,184(sp)
