
Comm_2020.elf:     file format elf32-littlenios2
Comm_2020.elf
architecture: nios2:r1, flags 0x00000112:
EXEC_P, HAS_SYMS, D_PAGED
start address 0x00000248

Program Header:
    LOAD off    0x00001000 vaddr 0x00000000 paddr 0x00000000 align 2**12
         filesz 0x00000020 memsz 0x00000020 flags r-x
    LOAD off    0x00001020 vaddr 0x00000020 paddr 0x00000020 align 2**12
         filesz 0x000226e0 memsz 0x000226e0 flags r-x
    LOAD off    0x00023700 vaddr 0x00022700 paddr 0x00024710 align 2**12
         filesz 0x00002010 memsz 0x00002010 flags rw-
    LOAD off    0x00025720 vaddr 0x00026720 paddr 0x00026720 align 2**12
         filesz 0x00000000 memsz 0x0001b910 flags rw-

Sections:
Idx Name          Size      VMA       LMA       File off  Algn
  0 .entry        00000020  00000000  00000000  00001000  2**5
                  CONTENTS, ALLOC, LOAD, READONLY, CODE
  1 .exceptions   00000228  00000020  00000020  00001020  2**2
                  CONTENTS, ALLOC, LOAD, READONLY, CODE
  2 .text         00021560  00000248  00000248  00001248  2**2
                  CONTENTS, ALLOC, LOAD, READONLY, CODE
  3 .rodata       00000f58  000217a8  000217a8  000227a8  2**2
                  CONTENTS, ALLOC, LOAD, READONLY, DATA
  4 .rwdata       00002010  00022700  00024710  00023700  2**2
                  CONTENTS, ALLOC, LOAD, DATA, SMALL_DATA
  5 .bss          0001b910  00026720  00026720  00025720  2**2
                  ALLOC, SMALL_DATA
  6 .sdram        00000000  00042030  00042030  00025710  2**0
                  CONTENTS
  7 .flash_controller 00000000  08000000  08000000  00025710  2**0
                  CONTENTS
  8 .onchip_memory 00000000  08800000  08800000  00025710  2**0
                  CONTENTS
  9 .comment      00000023  00000000  00000000  00025710  2**0
                  CONTENTS, READONLY
 10 .debug_aranges 00001318  00000000  00000000  00025738  2**3
                  CONTENTS, READONLY, DEBUGGING
 11 .debug_info   0003817b  00000000  00000000  00026a50  2**0
                  CONTENTS, READONLY, DEBUGGING
 12 .debug_abbrev 0000cc5d  00000000  00000000  0005ebcb  2**0
                  CONTENTS, READONLY, DEBUGGING
 13 .debug_line   00011849  00000000  00000000  0006b828  2**0
                  CONTENTS, READONLY, DEBUGGING
 14 .debug_frame  000043b8  00000000  00000000  0007d074  2**2
                  CONTENTS, READONLY, DEBUGGING
 15 .debug_str    000060ee  00000000  00000000  0008142c  2**0
                  CONTENTS, READONLY, DEBUGGING
 16 .debug_loc    0001c906  00000000  00000000  0008751a  2**0
                  CONTENTS, READONLY, DEBUGGING
 17 .debug_alt_sim_info 00000060  00000000  00000000  000a3e20  2**2
                  CONTENTS, READONLY, DEBUGGING
 18 .debug_ranges 00001ad0  00000000  00000000  000a3e80  2**3
                  CONTENTS, READONLY, DEBUGGING
 19 .thread_model 00000006  00000000  00000000  000abfba  2**0
                  CONTENTS, READONLY
 20 .cpu          00000003  00000000  00000000  000abfc0  2**0
                  CONTENTS, READONLY
 21 .qsys         00000001  00000000  00000000  000abfc3  2**0
                  CONTENTS, READONLY
 22 .simulation_enabled 00000001  00000000  00000000  000abfc4  2**0
                  CONTENTS, READONLY
 23 .sysid_hash   00000004  00000000  00000000  000abfc5  2**0
                  CONTENTS, READONLY
 24 .sysid_base   00000004  00000000  00000000  000abfc9  2**0
                  CONTENTS, READONLY
 25 .sysid_time   00000004  00000000  00000000  000abfcd  2**0
                  CONTENTS, READONLY
 26 .stderr_dev   00000009  00000000  00000000  000abfd1  2**0
                  CONTENTS, READONLY
 27 .stdin_dev    00000009  00000000  00000000  000abfda  2**0
                  CONTENTS, READONLY
 28 .stdout_dev   00000009  00000000  00000000  000abfe3  2**0
                  CONTENTS, READONLY
 29 .sopc_system_name 00000014  00000000  00000000  000abfec  2**0
                  CONTENTS, READONLY
 30 .quartus_project_dir 0000002b  00000000  00000000  000ac000  2**0
                  CONTENTS, READONLY
 31 .jdi          000040b5  00000000  00000000  000ac02b  2**0
                  CONTENTS, READONLY
 32 .sopcinfo     000ed2af  00000000  00000000  000b00e0  2**0
                  CONTENTS, READONLY
SYMBOL TABLE:
00000000 l    d  .entry	00000000 .entry
00000020 l    d  .exceptions	00000000 .exceptions
00000248 l    d  .text	00000000 .text
000217a8 l    d  .rodata	00000000 .rodata
00022700 l    d  .rwdata	00000000 .rwdata
00026720 l    d  .bss	00000000 .bss
00042030 l    d  .sdram	00000000 .sdram
08000000 l    d  .flash_controller	00000000 .flash_controller
08800000 l    d  .onchip_memory	00000000 .onchip_memory
00000000 l    d  .comment	00000000 .comment
00000000 l    d  .debug_aranges	00000000 .debug_aranges
00000000 l    d  .debug_info	00000000 .debug_info
00000000 l    d  .debug_abbrev	00000000 .debug_abbrev
00000000 l    d  .debug_line	00000000 .debug_line
00000000 l    d  .debug_frame	00000000 .debug_frame
00000000 l    d  .debug_str	00000000 .debug_str
00000000 l    d  .debug_loc	00000000 .debug_loc
00000000 l    d  .debug_alt_sim_info	00000000 .debug_alt_sim_info
00000000 l    d  .debug_ranges	00000000 .debug_ranges
00000000 l    df *ABS*	00000000 ../Comm_2020_bsp//obj/HAL/src/crt0.o
00000290 l       .text	00000000 alt_after_alt_main
00000000 l    df *ABS*	00000000 alt_irq_handler.c
00000000 l    df *ABS*	00000000 alt_instruction_exception_entry.c
00000000 l    df *ABS*	00000000 Chs_Comm.c
00000000 l    df *ABS*	00000000 MTL.c
00000000 l    df *ABS*	00000000 alt_ucosii_simple_error_check.c
00000000 l    df *ABS*	00000000 app_config.c
00000000 l    df *ABS*	00000000 isr.c
0002672c l     O .bss	00000004 num_int.3396
00000000 l    df *ABS*	00000000 lcd.c
00000000 l    df *ABS*	00000000 ledg.c
00000000 l    df *ABS*	00000000 task_config.c
00000000 l    df *ABS*	00000000 exit.c
00000000 l    df *ABS*	00000000 fprintf.c
00000000 l    df *ABS*	00000000 fwrite.c
00000000 l    df *ABS*	00000000 impure.c
00022790 l     O .rwdata	00000424 impure_data
00000000 l    df *ABS*	00000000 memcpy.c
00000000 l    df *ABS*	00000000 memset.c
00000000 l    df *ABS*	00000000 printf.c
00000000 l    df *ABS*	00000000 puts.c
00000000 l    df *ABS*	00000000 sprintf.c
00000000 l    df *ABS*	00000000 strcmp.c
00000000 l    df *ABS*	00000000 strlen.c
00000000 l    df *ABS*	00000000 vfprintf.c
00022196 l     O .rodata	00000010 zeroes.4389
000221a6 l     O .rodata	00000010 blanks.4388
00000000 l    df *ABS*	00000000 vfprintf.c
000221b6 l     O .rodata	00000010 zeroes.4404
00007b88 l     F .text	000000bc __sbprintf
000221c6 l     O .rodata	00000010 blanks.4403
00000000 l    df *ABS*	00000000 wsetup.c
00000000 l    df *ABS*	00000000 __call_atexit.c
00000000 l    df *ABS*	00000000 dtoa.c
00007f18 l     F .text	00000200 quorem
00000000 l    df *ABS*	00000000 fflush.c
00000000 l    df *ABS*	00000000 findfp.c
00009a48 l     F .text	00000008 __fp_unlock
00009a5c l     F .text	0000019c __sinit.part.1
00009bf8 l     F .text	00000008 __fp_lock
00000000 l    df *ABS*	00000000 mallocr.c
00000000 l    df *ABS*	00000000 fvwrite.c
00000000 l    df *ABS*	00000000 fwalk.c
00000000 l    df *ABS*	00000000 locale.c
00022bd4 l     O .rwdata	00000020 lc_ctype_charset
00022bb4 l     O .rwdata	00000020 lc_message_charset
00022bf4 l     O .rwdata	00000038 lconv
00000000 l    df *ABS*	00000000 makebuf.c
00000000 l    df *ABS*	00000000 mallocr.c
00000000 l    df *ABS*	00000000 memchr.c
00000000 l    df *ABS*	00000000 memmove.c
00000000 l    df *ABS*	00000000 mprec.c
000221f4 l     O .rodata	0000000c p05.2768
00000000 l    df *ABS*	00000000 mallocr.c
00000000 l    df *ABS*	00000000 s_fpclassify.c
00000000 l    df *ABS*	00000000 sbrkr.c
00000000 l    df *ABS*	00000000 stdio.c
00000000 l    df *ABS*	00000000 vfprintf.c
00022328 l     O .rodata	00000010 blanks.4332
00022318 l     O .rodata	00000010 zeroes.4333
00000000 l    df *ABS*	00000000 vfprintf.c
0000e0b4 l     F .text	000000fc __sprint_r.part.0
00022348 l     O .rodata	00000010 blanks.4348
00022338 l     O .rodata	00000010 zeroes.4349
0000f640 l     F .text	000000bc __sbprintf
00000000 l    df *ABS*	00000000 writer.c
00000000 l    df *ABS*	00000000 closer.c
00000000 l    df *ABS*	00000000 mallocr.c
00000000 l    df *ABS*	00000000 fclose.c
00000000 l    df *ABS*	00000000 fputwc.c
00000000 l    df *ABS*	00000000 fstatr.c
00000000 l    df *ABS*	00000000 int_errno.c
00000000 l    df *ABS*	00000000 isattyr.c
00000000 l    df *ABS*	00000000 lseekr.c
00000000 l    df *ABS*	00000000 readr.c
00000000 l    df *ABS*	00000000 wbuf.c
00000000 l    df *ABS*	00000000 wcrtomb.c
00000000 l    df *ABS*	00000000 wctomb_r.c
00000000 l    df *ABS*	00000000 libgcc2.c
00000000 l    df *ABS*	00000000 libgcc2.c
00000000 l    df *ABS*	00000000 lib2-divmod.c
00000000 l    df *ABS*	00000000 adddf3.c
00000000 l    df *ABS*	00000000 divdf3.c
00000000 l    df *ABS*	00000000 eqdf2.c
00000000 l    df *ABS*	00000000 gedf2.c
00000000 l    df *ABS*	00000000 ledf2.c
00000000 l    df *ABS*	00000000 muldf3.c
00000000 l    df *ABS*	00000000 subdf3.c
00000000 l    df *ABS*	00000000 fixdfsi.c
00000000 l    df *ABS*	00000000 floatsidf.c
00000000 l    df *ABS*	00000000 floatunsidf.c
00000000 l    df *ABS*	00000000 libgcc2.c
00000000 l    df *ABS*	00000000 libgcc2.c
00000000 l    df *ABS*	00000000 alt_close.c
000132fc l     F .text	0000003c alt_get_errno
00000000 l    df *ABS*	00000000 alt_dev.c
00013408 l     F .text	0000002c alt_dev_null_write
00000000 l    df *ABS*	00000000 alt_errno.c
00000000 l    df *ABS*	00000000 alt_exit.c
00000000 l    df *ABS*	00000000 alt_fstat.c
00013468 l     F .text	0000003c alt_get_errno
00000000 l    df *ABS*	00000000 alt_irq_register.c
00000000 l    df *ABS*	00000000 alt_irq_vars.c
00000000 l    df *ABS*	00000000 alt_isatty.c
000136d4 l     F .text	0000003c alt_get_errno
00000000 l    df *ABS*	00000000 alt_load.c
000137b4 l     F .text	00000068 alt_load_section
00000000 l    df *ABS*	00000000 alt_lseek.c
000138a0 l     F .text	0000003c alt_get_errno
00000000 l    df *ABS*	00000000 alt_main.c
00000000 l    df *ABS*	00000000 alt_read.c
00013a6c l     F .text	0000003c alt_get_errno
00000000 l    df *ABS*	00000000 alt_release_fd.c
00000000 l    df *ABS*	00000000 alt_sbrk.c
00024680 l     O .rwdata	00000004 heap_end
00000000 l    df *ABS*	00000000 alt_write.c
00013cb8 l     F .text	0000003c alt_get_errno
00000000 l    df *ABS*	00000000 alt_env_lock.c
00024684 l     O .rwdata	00000004 lockid
00026788 l     O .bss	00000004 locks
00000000 l    df *ABS*	00000000 alt_malloc_lock.c
00024688 l     O .rwdata	00000004 lockid
00026790 l     O .bss	00000004 locks
00000000 l    df *ABS*	00000000 os_core.c
000156e8 l     F .text	00000048 OS_InitMisc
00015730 l     F .text	0000006c OS_InitRdyList
0001589c l     F .text	000000e4 OS_InitTCBList
00015608 l     F .text	000000e0 OS_InitEventList
0001579c l     F .text	00000080 OS_InitTaskIdle
0001581c l     F .text	00000080 OS_InitTaskStat
00015b0c l     F .text	00000074 OS_SchedNew
00000000 l    df *ABS*	00000000 os_dbg.c
00000000 l    df *ABS*	00000000 os_flag.c
0001781c l     F .text	000000f4 OS_FlagTaskRdy
000175dc l     F .text	00000160 OS_FlagBlock
00000000 l    df *ABS*	00000000 os_mem.c
00000000 l    df *ABS*	00000000 os_q.c
00000000 l    df *ABS*	00000000 os_sem.c
00000000 l    df *ABS*	00000000 os_task.c
00000000 l    df *ABS*	00000000 os_time.c
00000000 l    df *ABS*	00000000 alt_sys_init.c
0001b8c0 l     F .text	00000034 alt_dev_reg
000231dc l     O .rwdata	000000dc flash_controller
000232b8 l     O .rwdata	0000106c jtag_uart
00024324 l     O .rwdata	00000030 audio_config
00024354 l     O .rwdata	00000030 audio
00024384 l     O .rwdata	0000002c char_lcd
000243b0 l     O .rwdata	0000002c green_leds
000243dc l     O .rwdata	0000002c HEX3_HEX0
00024408 l     O .rwdata	0000002c HEX7_HEX4
00024434 l     O .rwdata	0000002c pushbuttons
00024460 l     O .rwdata	0000002c red_leds
0002448c l     O .rwdata	0000002c switches
000244b8 l     O .rwdata	00000038 ps2_key
000244f0 l     O .rwdata	00000038 ps2_mouse
00024528 l     O .rwdata	0000002c serial_port
00024554 l     O .rwdata	00000048 mtl_char_buffer
0002459c l     O .rwdata	00000054 mtl_pixel_buffer_dma
000245f0 l     O .rwdata	0000002c SD_Card
00000000 l    df *ABS*	00000000 altera_avalon_cfi_flash.c
0001bd00 l     F .text	00000034 alt_flash_device_register
00000000 l    df *ABS*	00000000 altera_avalon_cfi_flash_table.c
0001cb50 l     F .text	00000080 alt_read_16bit_query_entry
00000000 l    df *ABS*	00000000 altera_avalon_jtag_uart_fd.c
00000000 l    df *ABS*	00000000 altera_avalon_jtag_uart_init.c
0001dc80 l     F .text	000002a8 altera_avalon_jtag_uart_irq
0001df28 l     F .text	00000104 altera_avalon_jtag_uart_timeout
00000000 l    df *ABS*	00000000 altera_avalon_jtag_uart_ioctl.c
00000000 l    df *ABS*	00000000 altera_avalon_jtag_uart_read.c
00000000 l    df *ABS*	00000000 altera_avalon_jtag_uart_write.c
00000000 l    df *ABS*	00000000 altera_avalon_timer_sc.c
0001e704 l     F .text	0000007c alt_avalon_timer_sc_irq
00000000 l    df *ABS*	00000000 altera_up_avalon_character_lcd.c
00000000 l    df *ABS*	00000000 altera_up_avalon_ps2.c
00000000 l    df *ABS*	00000000 altera_up_avalon_rs232.c
00000000 l    df *ABS*	00000000 altera_up_avalon_video_character_buffer_with_dma.c
00000000 l    df *ABS*	00000000 alt_alarm_start.c
00000000 l    df *ABS*	00000000 alt_dcache_flush.c
00000000 l    df *ABS*	00000000 alt_dcache_flush_all.c
00000000 l    df *ABS*	00000000 alt_dev_llist_insert.c
0001fbf4 l     F .text	0000003c alt_get_errno
00000000 l    df *ABS*	00000000 alt_do_ctors.c
00000000 l    df *ABS*	00000000 alt_do_dtors.c
00000000 l    df *ABS*	00000000 alt_find_dev.c
00000000 l    df *ABS*	00000000 alt_flash_dev.c
00000000 l    df *ABS*	00000000 alt_icache_flush_all.c
00000000 l    df *ABS*	00000000 alt_io_redirect.c
0001ff14 l     F .text	000000c4 alt_open_fd
00000000 l    df *ABS*	00000000 alt_open.c
00020054 l     F .text	0000003c alt_get_errno
00020090 l     F .text	000000c4 alt_file_locked
00000000 l    df *ABS*	00000000 alt_tick.c
00000000 l    df *ABS*	00000000 altera_nios2_gen2_irq.c
00000000 l    df *ABS*	00000000 os_cpu_a.o
00000040 l       *ABS*	00000000 OSCtxSw_SWITCH_PC
00000000 l    df *ABS*	00000000 os_cpu_c.c
00000014 l       *ABS*	00000000 OSTCBNext_OFFSET
00000032 l       *ABS*	00000000 OSTCBPrio_OFFSET
00000000 l       *ABS*	00000000 OSTCBStkPtr_OFFSET
00000000 l    df *ABS*	00000000 altera_avalon_cfi_flash_amd.c
00020b5c l     F .text	000000cc alt_write_word_amd
00020a40 l     F .text	0000011c alt_wait_for_command_to_complete_amd
00000000 l    df *ABS*	00000000 altera_avalon_cfi_flash_intel.c
00020e34 l     F .text	0000017c alt_unlock_block_intel
00020fb0 l     F .text	000000d4 alt_write_word_intel
00000000 l    df *ABS*	00000000 alt_find_file.c
00000000 l    df *ABS*	00000000 alt_get_fd.c
00000000 l    df *ABS*	00000000 alt_icache_flush.c
00000000 l    df *ABS*	00000000 alt_usleep.c
00000000 l    df *ABS*	00000000 alt_busy_sleep.c
00000000 l    df *ABS*	00000000 atexit.c
00000000 l    df *ABS*	00000000 memcmp.c
00000000 l    df *ABS*	00000000 __atexit.c
000267f4 g     O .bss	00000004 alt_instruction_exception_handler
0002463c g     O .rwdata	00000004 SW_switch_ptr
0000c3c8 g     F .text	00000074 _mprec_log10
0002673c g     O .bss	00000004 getsem_task1_got_sem
000246d6 g     O .rwdata	00000002 OSTaskNameSize
000023c4 g     F .text	000000d8 getsem_task3
0000c4b4 g     F .text	0000008c __any_on
0000fbdc g     F .text	00000054 _isatty_r
00022200 g     O .rodata	00000028 __mprec_tinytens
000139b0 g     F .text	000000bc alt_main
0000266c g     F .text	00000090 CHEQUEO_MOTOR
00003490 g     F .text	000000c0 _puts_r
0001c614 g     F .text	00000040 alt_read_query_entry_32bit
0001ef34 g     F .text	00000060 alt_up_ps2_disable_read_interrupt
00041f30 g     O .bss	00000100 alt_irq
0000fc30 g     F .text	00000060 _lseek_r
0001803c g     F .text	000000cc OS_MemInit
0001bdc4 g     F .text	000002a8 alt_flash_cfi_write
00024710 g       *ABS*	00000000 __flash_rwdata_start
0001b860 g     F .text	00000060 OSTimeSet
0001e868 g     F .text	00000040 alt_up_character_lcd_send_cmd
00011e28 g     F .text	00000088 .hidden __eqdf2
00026820 g     O .bss	00002000 send_task_stk
0001435c g     F .text	00000610 OSEventPendMulti
00028820 g     O .bss	00002000 getsem_task1_stk
00042030 g       *ABS*	00000000 __alt_heap_start
0002069c g     F .text	00000024 OSTaskCreateHook
00026720 g     O .bss	00000004 msgqueue
00003454 g     F .text	0000003c printf
000246ae g     O .rwdata	00000002 OSMboxEn
000149c4 g     F .text	0000004c OSIntEnter
0000fe48 g     F .text	0000009c _wcrtomb_r
00026730 g     O .bss	00000004 number_of_messages_sent
0000cc44 g     F .text	0000005c __sseek
00009d98 g     F .text	00000010 __sinit
0001f8b0 g     F .text	000000fc alt_up_char_buffer_string
0000fcf0 g     F .text	00000140 __swbuf_r
0001ed4c g     F .text	00000034 read_CE_bit
000246be g     O .rwdata	00000002 OSQEn
0000a860 g     F .text	0000007c _setlocale_r
00009c00 g     F .text	00000068 __sfmoreglue
00014030 g     F .text	000000cc __malloc_unlock
00020704 g     F .text	00000020 OSTaskStatHook
0001f0d4 g     F .text	0000009c alt_up_ps2_read_data_byte_timeout
0001f5c8 g     F .text	00000090 alt_up_rs232_read_fd
00001630 g     F .text	00000be4 read_switches
00000d1c g     F .text	00000074 ledg_OFF
00026798 g     O .bss	00000001 OSLockNesting
00000bc0 g     F .text	00000060 LCD_cursor
000246fc g     O .rwdata	00000002 OSDataSize
00026799 g     O .bss	00000001 OSRunning
0001f7e4 g     F .text	000000cc alt_up_char_buffer_draw
0000b3e8 g     F .text	0000015c memmove
00020744 g     F .text	00000020 OSInitHookBegin
000246f4 g     O .rwdata	00000002 OSTmrSize
00009d80 g     F .text	00000018 _cleanup
0000b544 g     F .text	000000a8 _Balloc
0002a820 g     O .bss	00002000 print_status_task_stk
0002679c g     O .bss	00000004 OSIdleCtr
00011eb0 g     F .text	000000dc .hidden __gtdf2
00026738 g     O .bss	00000004 number_of_messages_received_task2
0002044c g     F .text	00000024 altera_nios2_gen2_irq_init
0002051c g       .text	00000000 OSStartTsk
0001e7f4 g     F .text	00000074 get_DDRAM_addr
00015e3c g     F .text	000002d4 OS_TCBInit
0001c7ac g     F .text	00000050 alt_write_flash_command_32bit_device_16bit_mode
00000000 g     F .entry	0000001c __reset
000246fa g     O .rwdata	00000002 OSTmrWheelTblSize
00000020 g       *ABS*	00000000 __flash_exceptions_start
0002469a g     O .rwdata	00000002 OSEventSize
0002c820 g     O .bss	00002000 read_switches_stk
000267a0 g     O .bss	00000001 OSPrioHighRdy
0000fb80 g     F .text	0000005c _fstat_r
000206c0 g     F .text	00000024 OSTaskDelHook
0001c2b8 g     F .text	000002e0 alt_flash_program_block
00026770 g     O .bss	00000004 errno
0000cbc0 g     F .text	00000008 __seofread
000204fc g       .text	00000000 OSStartHighRdy
0000249c g     F .text	00000114 getsem_task4
0001a308 g     F .text	000001e4 OSTaskCreateExt
0000ce78 g     F .text	0000123c ___svfiprintf_internal_r
00017124 g     F .text	00000060 OSFlagPendGetFlagsRdy
000246da g     O .rwdata	00000002 OSTaskStatStkSize
000162a0 g     F .text	00000308 OSFlagAccept
00018674 g     F .text	000000b8 OSQFlush
00018108 g     F .text	00000140 OSQAccept
00026780 g     O .bss	00000004 alt_argv
0002c61c g       *ABS*	00000000 _gp
00021394 g     F .text	00000114 usleep
00024640 g     O .rwdata	00000004 LCD_display_ptr
0001a15c g     F .text	000001ac OSTaskCreate
00019c6c g     F .text	000004f0 OSTaskChangePrio
00026794 g     O .bss	00000004 alt_heapsem
00016110 g     F .text	00000190 OSDebugInit
0001a4ec g     F .text	00000344 OSTaskDel
00022700 g     O .rwdata	00000032 texto_up
0002305c g     O .rwdata	00000180 alt_fd_list
0003e8ac g     O .bss	00000370 OSFlagTbl
000009a4 g     F .text	000000e8 Init_App
000153e8 g     F .text	000000b8 OS_EventTaskRemove
0001fd94 g     F .text	00000090 alt_find_dev
000031b4 g     F .text	00000148 memcpy
000246c4 g     O .rwdata	00000002 OSRdyTblSize
0001ea10 g     F .text	00000050 alt_up_character_lcd_write_fd
0001f9ac g     F .text	0000005c alt_up_char_buffer_clear
00009a50 g     F .text	0000000c _cleanup_r
00013114 g     F .text	000000dc .hidden __floatsidf
0001ffd8 g     F .text	0000007c alt_io_redirect
00011f8c g     F .text	000000f4 .hidden __ltdf2
000217a8 g       *ABS*	00000000 __DTOR_END__
0001f554 g     F .text	00000074 alt_up_rs232_read_data
00003550 g     F .text	00000014 puts
000212f8 g     F .text	0000009c alt_exception_cause_generated_bad_addr
000140fc g     F .text	00000120 OSEventNameGet
000246a8 g     O .rwdata	00000002 OSFlagMax
0000caa4 g     F .text	00000074 __fpclassifyd
00024628 g     O .rwdata	00000004 red_LED_ptr
0000c324 g     F .text	000000a4 __ratio
00014a10 g     F .text	000000f8 OSIntExit
00024634 g     O .rwdata	00000004 HEX7_HEX4_ptr
08000000 g       *ABS*	00000000 __alt_mem_flash_controller
0000f624 g     F .text	0000001c __vfiprintf_internal
000246e2 g     O .rwdata	00000002 OSTCBSize
000267a1 g     O .bss	00000001 OSPrioCur
0001e184 g     F .text	000002bc altera_avalon_jtag_uart_read
00003424 g     F .text	00000030 _printf_r
00000c20 g     F .text	00000060 LCD_text
00010bd8 g     F .text	00000064 .hidden __udivsi3
00013710 g     F .text	000000a4 isatty
000246c8 g     O .rwdata	00000002 OSStkWidth
00022250 g     O .rodata	000000c8 __mprec_tens
000246bc g     O .rwdata	00000002 OSPtrSize
0000a8dc g     F .text	0000000c __locale_charset
0002469c g     O .rwdata	00000002 OSEventTblSize
00020470 g       .text	00000000 OSCtxSw
00021268 g     F .text	00000090 alt_icache_flush
00000400 g     F .text	00000100 borra_lineas_pantalla
0002676c g     O .bss	00000004 __malloc_top_pad
000267a4 g     O .bss	00000004 OSTCBList
00026774 g     O .bss	00000004 alt_fd_list_lock
00024654 g     O .rwdata	00000004 __mb_cur_max
0000a90c g     F .text	0000000c _localeconv_r
0000b950 g     F .text	0000003c __i2b
0000a21c g     F .text	000004bc __sfvwrite_r
0003ec1c g     O .bss	00000c30 OSMemTbl
000267a8 g     O .bss	00000001 OSTickStepState
0000cb18 g     F .text	00000054 _sbrk_r
00020c28 g     F .text	00000080 alt_program_intel
000246c0 g     O .rwdata	00000002 OSQMax
0003f84c g     O .bss	00000800 OSTaskStatStk
00017c78 g     F .text	000000f0 OSMemNameGet
000246a0 g     O .rwdata	00000002 OSFlagEn
0000fc90 g     F .text	00000060 _read_r
000246e6 g     O .rwdata	00000002 OSTimeTickHookEn
0001fb34 g     F .text	00000078 alt_dcache_flush
00018b24 g     F .text	00000168 OSQPost
00017910 g     F .text	000000a4 OS_FlagUnlink
00024674 g     O .rwdata	00000004 alt_max_fd
0001f4d0 g     F .text	00000044 alt_up_rs232_check_parity
0001c598 g     F .text	0000003c alt_read_query_entry_8bit
000159d4 g     F .text	00000068 OS_MemCopy
00015a3c g     F .text	000000d0 OS_Sched
0000f874 g     F .text	000000f0 _fclose_r
00017b88 g     F .text	000000f0 OSMemGet
0001ab18 g     F .text	000001b4 OSTaskNameSet
0001ed80 g     F .text	00000030 read_num_bytes_available
00020ca8 g     F .text	0000018c alt_erase_block_intel
00009a18 g     F .text	00000030 fflush
00026768 g     O .bss	00000004 __malloc_max_sbrked_mem
000267ac g     O .bss	00000004 OSCtxSwCtr
00020724 g     F .text	00000020 OSTimeTickHook
00013554 g     F .text	00000180 alt_irq_register
000246aa g     O .rwdata	00000002 OSFlagNameSize
0001ece8 g     F .text	00000034 read_RI_bit
000154a0 g     F .text	00000100 OS_EventTaskRemoveMulti
00010c94 g     F .text	000008ac .hidden __adddf3
00015298 g     F .text	00000150 OS_EventTaskWaitMulti
0000c0cc g     F .text	0000010c __b2d
000246c2 g     O .rwdata	00000002 OSQSize
000105a8 g     F .text	00000538 .hidden __umoddi3
000138dc g     F .text	000000d4 lseek
000195d4 g     F .text	0000020c OSSemPend
0002464c g     O .rwdata	00000004 _global_impure_ptr
0000c540 g     F .text	00000564 _realloc_r
000246ac g     O .rwdata	00000002 OSLowestPrio
00042030 g       *ABS*	00000000 __bss_end
000207a4 g     F .text	00000024 OSTCBInitHook
000246f2 g     O .rwdata	00000002 OSTmrCfgTicksPerSec
00020344 g     F .text	00000108 alt_tick
00010030 g     F .text	00000578 .hidden __udivdi3
0000fadc g     F .text	00000024 _fputwc_r
00024694 g     O .rwdata	00000002 OSEventEn
00022228 g     O .rodata	00000028 __mprec_bigtens
0000b734 g     F .text	00000104 __s2b
000246ee g     O .rwdata	00000002 OSTmrCfgNameSize
000131f0 g     F .text	000000a8 .hidden __floatunsidf
0000be0c g     F .text	00000060 __mcmp
0001ede4 g     F .text	0000002c read_data_byte
00024620 g     O .rwdata	00000004 primera_linea
00009db8 g     F .text	00000018 __fp_lock_all
0001773c g     F .text	000000e0 OS_FlagInit
000202a8 g     F .text	0000009c alt_alarm_stop
00024638 g     O .rwdata	00000004 KEY_ptr
0001ed1c g     F .text	00000030 read_RE_bit
000246d0 g     O .rwdata	00000002 OSTaskIdleStkSize
00022734 g     O .rwdata	00000032 texto_down
00026778 g     O .bss	00000004 alt_irq_active
0001920c g     F .text	000000b0 OSSemAccept
00017e7c g     F .text	000000d8 OSMemPut
000179b4 g     F .text	000001d4 OSMemCreate
000267b0 g     O .bss	00000004 OSIdleCtrMax
000000fc g     F .exceptions	000000d8 alt_irq_handler
00023034 g     O .rwdata	00000028 alt_dev_null
000246e4 g     O .rwdata	00000002 OSTicksPerSec
00024648 g     O .rwdata	00000004 character_buffer
0001ecb0 g     F .text	00000038 alt_up_character_lcd_cursor_blink_on
0001cab4 g     F .text	0000009c alt_set_flash_algorithm_func
0002e820 g     O .bss	00000078 msgqueueTbl
00020470 g       .text	00000000 OSIntCtxSw
0001ef94 g     F .text	00000074 alt_up_ps2_write_data_byte
000022ec g     F .text	000000d8 getsem_task2
0001fbac g     F .text	00000048 alt_dcache_flush_all
0000b838 g     F .text	00000068 __hi0bits
0002e898 g     O .bss	00002000 getsem_task4_stk
00024630 g     O .rwdata	00000004 HEX3_HEX0_ptr
00013094 g     F .text	00000080 .hidden __fixdfsi
0001c654 g     F .text	00000044 alt_write_flash_command_8bit_device_8bit_mode
000267b4 g     O .bss	00000004 OSTCBFreeList
00024710 g       *ABS*	00000000 __ram_rwdata_end
000197e0 g     F .text	0000016c OSSemPendAbort
08800000 g       *ABS*	00000000 __alt_mem_onchip_memory
0002466c g     O .rwdata	00000008 alt_dev_list
00013cf4 g     F .text	000000f8 write
000246e8 g     O .rwdata	00000002 OSVersionNbr
00030898 g     O .bss	00002000 getsem_task2_stk
00002d00 g     F .text	000000a8 TaskInit
00022700 g       *ABS*	00000000 __ram_rodata_end
000134a4 g     F .text	000000b0 fstat
00003090 g     F .text	00000024 fprintf
0001f658 g     F .text	00000094 alt_up_rs232_write_fd
00011f8c g     F .text	000000f4 .hidden __ledf2
0001d908 g     F .text	000000d8 alt_check_primary_table
00024690 g     O .rwdata	00000004 OSEndiannessTest
0000bb84 g     F .text	00000140 __pow5mult
0000e1c8 g     F .text	0000145c ___vfiprintf_internal_r
00026760 g     O .bss	00000004 __nlocale_changed
00024624 g     O .rwdata	00000004 ultima_linea
00010c3c g     F .text	00000058 .hidden __umodsi3
0001c0f8 g     F .text	00000064 alt_flash_cfi_read
0001c84c g     F .text	00000038 alt_write_native_8bit
00000eb0 g     F .text	00000780 print_status_task
00000374 g     F .text	0000008c MTL_text
000246a2 g     O .rwdata	00000002 OSFlagGrpSize
00042030 g       *ABS*	00000000 end
0001f2c4 g     F .text	00000098 alt_up_ps2_write_fd
0001c698 g     F .text	00000078 alt_write_flash_command_16bit_device_8bit_mode
00026754 g     O .bss	00000001 highest
0001f728 g     F .text	00000080 alt_up_char_buffer_init
0001cbd0 g     F .text	000005c8 alt_read_cfi_table
00000d90 g     F .text	00000070 blinky_ledg
0001db44 g     F .text	0000013c altera_avalon_jtag_uart_init
00015ca4 g     F .text	000000cc OS_TaskStat
000001d4 g     F .exceptions	00000074 alt_instruction_exception_entry
000217a8 g       *ABS*	00000000 __CTOR_LIST__
08000000 g       *ABS*	00000000 __alt_stack_pointer
0001e780 g     F .text	00000074 alt_avalon_timer_sc_init
00013298 g     F .text	00000064 .hidden __clzsi2
0001e440 g     F .text	000002c4 altera_avalon_jtag_uart_write
00032898 g     O .bss	00002000 getsem_task3_stk
0001bd34 g     F .text	00000090 alt_flash_cfi_init
00009da8 g     F .text	00000004 __sfp_lock_acquire
0000b304 g     F .text	000000e4 memchr
00015980 g     F .text	00000054 OS_MemClr
0001e91c g     F .text	0000007c alt_up_character_lcd_write
00005974 g     F .text	000021f8 ___vfprintf_internal_r
00020540 g     F .text	0000015c OSTaskStkInit
00003564 g     F .text	00000058 _sprintf_r
00009f0c g     F .text	00000310 _free_r
0000a8e8 g     F .text	00000010 __locale_mb_cur_max
00014ff0 g     F .text	00000198 OS_EventTaskRdy
000025b0 g     F .text	000000bc query_sem
00007d98 g     F .text	00000180 __call_exitprocs
000267b8 g     O .bss	00000001 OSCPUUsage
0002675c g     O .bss	00000004 __mlocale_changed
0002277c g     O .rwdata	00000014 text_bottom_row
00000a8c g     F .text	00000134 pushbutton_isr
00024658 g     O .rwdata	00000004 __malloc_sbrk_base
00000248 g     F .text	0000004c _start
000267ec g     O .bss	00000004 _alt_tick_rate
0001872c g     F .text	0000028c OSQPend
0001b3d8 g     F .text	00000104 OSTimeDly
0000bcc4 g     F .text	00000148 __lshift
000267f0 g     O .bss	00000004 _alt_nticks
00013aa8 g     F .text	000000fc read
0001b92c g     F .text	000003d4 alt_sys_init
0001eb60 g     F .text	0000008c alt_up_character_lcd_shift_display
0000cca8 g     F .text	000001d0 __ssprint_r
00021690 g     F .text	00000118 __register_exitproc
000267b9 g     O .bss	00000001 OSTaskCtr
0001f1e0 g     F .text	00000058 alt_up_ps2_clear_fifo
0001f494 g     F .text	0000003c alt_up_rs232_get_available_space_in_write_FIFO
0001c5d4 g     F .text	00000040 alt_read_query_entry_16bit
0001b4dc g     F .text	00000154 OSTimeDlyHMSM
0000b98c g     F .text	000001f8 __multiply
0001ebec g     F .text	0000008c alt_up_character_lcd_erase_pos
0001e02c g     F .text	00000068 altera_avalon_jtag_uart_close
00022700 g       *ABS*	00000000 __ram_rwdata_start
00026750 g     O .bss	00000004 getmutex_task2_got_sem
000217a8 g       *ABS*	00000000 __ram_rodata_start
000267f8 g     O .bss	00000028 __malloc_current_mallinfo
00024696 g     O .rwdata	00000002 OSEventMax
0001c8f0 g     F .text	000001c4 alt_set_flash_width_func
0000c1d8 g     F .text	0000014c __d2b
0001994c g     F .text	00000110 OSSemPost
00014b94 g     F .text	000000dc OSSchedUnlock
000026fc g     F .text	00000278 send_task
0001d9e0 g     F .text	00000060 altera_avalon_jtag_uart_read_fd
0002118c g     F .text	000000dc alt_get_fd
000267bc g     O .bss	00000004 OSMemFreeList
00014ce0 g     F .text	000000b0 OSStatInit
000214a8 g     F .text	00000158 alt_busy_sleep
00017518 g     F .text	000000c4 OSFlagQuery
000246cc g     O .rwdata	00000002 OSTaskCreateExtEn
0000f75c g     F .text	00000054 _close_r
00020830 g     F .text	00000210 alt_erase_block_amd
00002da8 g     F .text	0000007c CreateTasks
00021614 g     F .text	0000007c memcmp
00014fd0 g     F .text	00000020 OS_Dummy
0001daa0 g     F .text	00000050 altera_avalon_jtag_uart_close_fd
00042030 g       *ABS*	00000000 __alt_stack_base
0001daf0 g     F .text	00000054 altera_avalon_jtag_uart_ioctl_fd
000030b4 g     F .text	000000cc _fwrite_r
00007c44 g     F .text	00000154 __swsetup_r
0001d198 g     F .text	00000770 alt_read_cfi_width
0004004c g     O .bss	000001e0 OSQTbl
00011540 g     F .text	000008e8 .hidden __divdf3
00009c68 g     F .text	00000118 __sfp
0000c43c g     F .text	00000078 __copybits
0002461c g     O .rwdata	00000004 linea
00022c2c g     O .rwdata	00000408 __malloc_av_
00009db4 g     F .text	00000004 __sinit_lock_release
000267c0 g     O .bss	00000004 OSTCBHighRdy
00012080 g     F .text	00000718 .hidden __muldf3
0000cb6c g     F .text	00000054 __sread
000267c4 g     O .bss	00000004 OSQFreeList
0001f3f4 g     F .text	00000060 alt_up_rs232_disable_read_interrupt
00021084 g     F .text	00000108 alt_find_file
0001fc30 g     F .text	000000a4 alt_dev_llist_insert
00013f10 g     F .text	00000120 __malloc_lock
00003068 g     F .text	00000028 _fprintf_r
00013c08 g     F .text	000000b0 sbrk
0000379c g     F .text	000021d8 ___svfprintf_internal_r
0001421c g     F .text	00000140 OSEventNameSet
000099bc g     F .text	0000005c _fflush_r
0000f7b0 g     F .text	000000c4 _calloc_r
000267c8 g     O .bss	00000001 OSRdyGrp
00024700 g     O .rwdata	00000008 alt_flash_dev_list
0001c760 g     F .text	0000004c alt_write_flash_command_16bit_device_16bit_mode
00026720 g       *ABS*	00000000 __bss_start
000032fc g     F .text	00000128 memset
00000294 g     F .text	00000034 main
00026784 g     O .bss	00000004 alt_envp
00026764 g     O .bss	00000004 __malloc_max_total_mem
0001f7a8 g     F .text	0000003c alt_up_char_buffer_open_dev
0001da40 g     F .text	00000060 altera_avalon_jtag_uart_write_fd
0000fe30 g     F .text	00000018 __swbuf
00022474 g     O .rodata	00000100 OSUnMapTbl
00002e24 g     F .text	0000020c initCreateTasks
00026748 g     O .bss	00000004 getsem_task4_got_sem
000246c6 g     O .rwdata	00000002 OSSemEn
00000c80 g     F .text	0000002c LCD_cursor_off
0001ead4 g     F .text	0000008c alt_up_character_lcd_shift_cursor
00017184 g     F .text	00000394 OSFlagPost
0000cca0 g     F .text	00000008 __sclose
0000054c g     F .text	00000458 alt_ucosii_simple_error_handler
08000000 g       *ABS*	00000000 __alt_heap_limit
0000f964 g     F .text	00000014 fclose
00015188 g     F .text	00000110 OS_EventTaskWait
0001f170 g     F .text	00000070 alt_up_ps2_read_data_byte
00015d70 g     F .text	000000cc OS_TaskStatStkChk
0001a830 g     F .text	00000150 OSTaskDelReq
00008118 g     F .text	00001688 _dtoa_r
0000aaf8 g     F .text	0000080c _malloc_r
0000ffa4 g     F .text	00000030 __ascii_wctomb
00000e00 g     F .text	00000058 ledg_OFF_All
00024678 g     O .rwdata	00000004 alt_errno
00014c70 g     F .text	00000070 OSStart
00026724 g     O .bss	00000004 EstadoMotor
0001c7fc g     F .text	00000050 alt_write_flash_command_32bit_device_32bit_mode
00013eb0 g     F .text	00000060 __env_unlock
0000a6d8 g     F .text	000000c4 _fwalk
0001accc g     F .text	000001d4 OSTaskResume
00017f54 g     F .text	000000e8 OSMemQuery
000246d8 g     O .rwdata	00000002 OSTaskStatEn
00026734 g     O .bss	00000004 number_of_messages_received_task1
0001c15c g     F .text	0000015c alt_write_value_to_flash
000246b2 g     O .rwdata	00000002 OSMemMax
00018c8c g     F .text	00000170 OSQPostFront
0001f35c g     F .text	0000003c alt_up_ps2_open_dev
0001c884 g     F .text	00000038 alt_write_native_16bit
00010ae0 g     F .text	00000084 .hidden __divsi3
000267c9 g     O .bss	00000004 OSRdyTbl
0002468c g     O .rwdata	00000002 OSDebugEn
0001e8e0 g     F .text	0000003c alt_up_character_lcd_open_dev
00009de8 g     F .text	00000124 _malloc_trim_r
0001eed8 g     F .text	0000005c alt_up_ps2_enable_read_interrupt
000217a8 g       *ABS*	00000000 __CTOR_END__
000246a4 g     O .rwdata	00000002 OSFlagNodeSize
00034898 g     O .bss	00002000 querysem_stk
000246ec g     O .rwdata	00000002 OSTmrCfgMax
0001e8a8 g     F .text	00000038 alt_up_character_lcd_init
00003628 g     F .text	000000dc strcmp
00018248 g     F .text	000001ac OSQCreate
0002674c g     O .bss	00000004 getmutex_task1_got_sem
0001a980 g     F .text	00000198 OSTaskNameGet
000217a8 g       *ABS*	00000000 __flash_rodata_start
00018dfc g     F .text	0000020c OSQPostOpt
00014d90 g     F .text	00000220 OSTimeTick
000246d4 g     O .rwdata	00000002 OSTaskMax
000217a8 g       *ABS*	00000000 __DTOR_LIST__
000192bc g     F .text	000000d8 OSSemCreate
000246f8 g     O .rwdata	00000002 OSTmrWheelSize
0001f6ec g     F .text	0000003c alt_up_rs232_open_dev
00011e28 g     F .text	00000088 .hidden __nedf2
000246ce g     O .rwdata	00000002 OSTaskDelEn
0003e898 g     O .bss	00000014 sem_owner_task_name
00019a5c g     F .text	00000110 OSSemQuery
000183f4 g     F .text	00000280 OSQDel
000189b8 g     F .text	0000016c OSQPendAbort
0001b8f4 g     F .text	00000038 alt_irq_init
00013ba4 g     F .text	00000064 alt_release_fd
0001edb0 g     F .text	00000034 read_data_valid
000035bc g     F .text	0000006c sprintf
0001ec78 g     F .text	00000038 alt_up_character_lcd_cursor_off
00022358 g     O .rodata	00000100 .hidden __clz_tab
00026758 g     O .bss	00000004 _PathLocale
00024644 g     O .rwdata	00000004 pixel_buffer
0001f070 g     F .text	00000064 alt_up_ps2_write_data_byte_with_ack
00021600 g     F .text	00000014 atexit
00002ad0 g     F .text	00000128 receive_task2
0000f6fc g     F .text	00000060 _write_r
00002c64 g     F .text	0000009c Mensaje_TaskMtl
00014b08 g     F .text	0000008c OSSchedLock
0000a918 g     F .text	00000018 setlocale
000165a8 g     F .text	00000108 OSFlagCreate
00024650 g     O .rwdata	00000004 _impure_ptr
0002677c g     O .bss	00000004 alt_argc
000097a0 g     F .text	0000021c __sflush_r
0001fd34 g     F .text	00000060 _do_dtors
0000a904 g     F .text	00000008 __locale_cjk_lang
0002469e g     O .rwdata	00000002 OSEventMultiEn
000166b0 g     F .text	00000248 OSFlagDel
000267d0 g     O .bss	00000004 OSEventFreeList
00000020 g       .exceptions	00000000 alt_irq_entry
0000c068 g     F .text	00000064 __ulp
000246ea g     O .rwdata	00000002 OSTmrEn
00016b6c g     F .text	000005b8 OSFlagPend
00009dd0 g     F .text	00000018 __fp_unlock_all
00026740 g     O .bss	00000004 getsem_task2_got_sem
00036898 g     O .bss	00002000 chequeomotor_stk
00024664 g     O .rwdata	00000008 alt_fs_list
00000500 g     F .text	0000004c alt_ucosii_check_return_code
00015b80 g     F .text	00000074 OS_StrCopy
0001f398 g     F .text	0000005c alt_up_rs232_enable_read_interrupt
0001c710 g     F .text	00000050 alt_write_flash_command_32bit_device_8bit_mode
0001f514 g     F .text	00000040 alt_up_rs232_write_data
000246b4 g     O .rwdata	00000002 OSMemNameSize
00020764 g     F .text	00000020 OSInitHookEnd
00000020 g       *ABS*	00000000 __ram_exceptions_start
000246e0 g     O .rwdata	00000002 OSTCBPrioTblMax
0000a930 g     F .text	0000000c localeconv
00026728 g     O .bss	00000004 shared_resource_sem
000246dc g     O .rwdata	00000002 OSTaskStatStkChkEn
000246b0 g     O .rwdata	00000002 OSMemEn
00003180 g     F .text	00000034 fwrite
000246ba g     O .rwdata	00000002 OSMutexEn
00024710 g       *ABS*	00000000 _edata
00042030 g       *ABS*	00000000 _end
0001fe24 g     F .text	00000068 alt_flash_open_dev
000267d4 g     O .bss	00000001 OSIntNesting
0000f978 g     F .text	00000164 __fputwc
00000248 g       *ABS*	00000000 __ram_exceptions_end
0001e094 g     F .text	000000f0 altera_avalon_jtag_uart_ioctl
0001b630 g     F .text	000001d4 OSTimeDlyResume
00016a20 g     F .text	0000014c OSFlagNameSet
00026744 g     O .bss	00000004 getsem_task3_got_sem
0001aea0 g     F .text	000001c0 OSTaskStkChk
000246b6 g     O .rwdata	00000002 OSMemSize
0000cbc8 g     F .text	0000007c __swrite
0002465c g     O .rwdata	00000004 __malloc_trim_threshold
00022768 g     O .rwdata	00000014 text_top_row
0000a8f8 g     F .text	0000000c __locale_msgcharset
000267d8 g     O .bss	00000004 OSTCBCur
00003030 g     F .text	00000038 exit
000246b8 g     O .rwdata	00000002 OSMemTblSize
0000a79c g     F .text	000000c4 _fwalk_reent
0001ee10 g     F .text	000000c8 alt_up_ps2_init
0000be6c g     F .text	000001fc __mdiff
0001fe8c g     F .text	00000054 alt_flash_close_dev
00010b64 g     F .text	00000074 .hidden __modsi3
08000000 g       *ABS*	00000000 __alt_data_end
00000020 g     F .exceptions	00000000 alt_exception
00009dac g     F .text	00000004 __sfp_lock_release
0001496c g     F .text	00000058 OSInit
00000000 g       *ABS*	00000000 __alt_mem_sdram
0001b244 g     F .text	00000124 OSTaskQuery
0001e998 g     F .text	00000078 alt_up_character_lcd_string
00019164 g     F .text	000000a8 OS_QInit
00015bf4 g     F .text	00000054 OS_StrLen
000002c8 g     F .text	000000ac MTL_box
00017d68 g     F .text	00000114 OSMemNameSet
000246d2 g     O .rwdata	00000002 OSTaskProfileEn
000267dc g     O .bss	00000004 OSTime
00038898 g     O .bss	00002000 initialize_task_stk
0004022c g     O .bss	00000800 OSTaskIdleStk
00013434 g     F .text	00000034 _exit
0001fa08 g     F .text	0000012c alt_alarm_start
000168f8 g     F .text	00000128 OSFlagNameGet
0003a898 g     O .bss	00002000 receive_task2_stk
00000e58 g     F .text	00000058 ledg_ON_All
0001b804 g     F .text	0000005c OSTimeGet
0000a93c g     F .text	000001bc __smakebuf_r
0001c8bc g     F .text	00000034 alt_write_native_32bit
0001f008 g     F .text	00000068 alt_up_ps2_wait_for_ack
00003704 g     F .text	00000098 strlen
000206e4 g     F .text	00000020 OSTaskSwHook
00020154 g     F .text	00000154 open
00040a2c g     O .bss	00000b40 OSEventTbl
00011eb0 g     F .text	000000dc .hidden __gedf2
0004156c g     O .bss	00000948 OSTCBTbl
00019b6c g     F .text	00000100 OSSemSet
0001c06c g     F .text	0000008c alt_flash_cfi_get_info
00024660 g     O .rwdata	00000004 __wctomb
0000e1b0 g     F .text	00000018 __sprint_r
0001fee0 g     F .text	00000034 alt_icache_flush_all
0002462c g     O .rwdata	00000004 green_LED_ptr
0001ea60 g     F .text	00000074 alt_up_character_lcd_set_cursor_pos
0002467c g     O .rwdata	00000004 alt_priority_mask
00019394 g     F .text	00000240 OSSemDel
000267e0 g     O .bss	00000004 OSFlagFreeList
00024698 g     O .rwdata	00000002 OSEventNameSize
00007b6c g     F .text	0000001c __vfprintf_internal
000267e4 g     O .bss	00000001 OSStatRdy
00041eb4 g     O .bss	0000007c OSTCBPrioTbl
0000ffd4 g     F .text	0000005c _wctomb_r
00013dec g     F .text	000000c4 __env_lock
0001f238 g     F .text	0000008c alt_up_ps2_read_fd
000246de g     O .rwdata	00000002 OSTaskSwHookEn
00012798 g     F .text	000008fc .hidden __subdf3
00002bf8 g     F .text	0000006c initOSDataStructs
00000cac g     F .text	00000070 ledg_ON
0000b8a0 g     F .text	000000b0 __lo0bits
00024708 g     O .rwdata	00000008 alt_alarm_list
000246a6 g     O .rwdata	00000002 OSFlagWidth
0001fcd4 g     F .text	00000060 _do_ctors
0001f454 g     F .text	00000040 alt_up_rs232_get_used_space_in_read_FIFO
0000fee4 g     F .text	000000c0 wcrtomb
00013338 g     F .text	000000d0 close
00002974 g     F .text	0000015c receive_task1
000207c8 g     F .text	00000068 alt_program_amd
0003c898 g     O .bss	00002000 receive_task1_stk
0002678c g     O .bss	00000004 alt_envsem
000267e8 g     O .bss	00000004 OSIdleCtrRun
00014fb0 g     F .text	00000020 OSVersion
000246f0 g     O .rwdata	00000002 OSTmrCfgWheelSize
0001381c g     F .text	00000084 alt_load
0001b368 g     F .text	00000070 OS_TaskStkClr
000246ca g     O .rwdata	00000002 OSTaskCreateEn
00002214 g     F .text	000000d8 getsem_task1
000155a0 g     F .text	00000068 OS_EventWaitListInit
0000fb00 g     F .text	00000080 fputwc
00020784 g     F .text	00000020 OSTaskIdleHook
00009db0 g     F .text	00000004 __sinit_lock_acquire
0000b614 g     F .text	00000120 __multadd
0001b060 g     F .text	000001e4 OSTaskSuspend
0000b5ec g     F .text	00000028 _Bfree
00015c48 g     F .text	0000005c OS_TaskIdle
000246f6 g     O .rwdata	00000002 OSTmrTblSize
00019008 g     F .text	0000015c OSQQuery



Disassembly of section .entry:

00000000 <__reset>:
#if NIOS2_ICACHE_SIZE > 0 && defined(ALT_ALLOW_CODE_AT_RESET) && (!defined(ALT_SIM_OPTIMIZE) || defined(NIOS2_ECC_PRESENT))
    /* Assume the instruction cache size is always a power of two. */
#if NIOS2_ICACHE_SIZE > 0x8000
    movhi r2, %hi(NIOS2_ICACHE_SIZE)
#else
    movui r2, NIOS2_ICACHE_SIZE
   0:	00840014 	movui	r2,4096
#endif

0:
    initi r2
   4:	1001483a 	initi	r2
    addi r2, r2, -NIOS2_ICACHE_LINE_SIZE
   8:	10bff804 	addi	r2,r2,-32
    bgt r2, zero, 0b
   c:	00bffd16 	blt	zero,r2,4 <__alt_mem_onchip_memory+0xf7800004>
 * Jump to the _start entry point in the .text section if reset code
 * is allowed or if optimizing for RTL simulation.
 */
#if defined(ALT_ALLOW_CODE_AT_RESET) || defined(ALT_SIM_OPTIMIZE)
    /* Jump to the _start entry point in the .text section. */
    movhi r1, %hi(_start)
  10:	00400034 	movhi	at,0
    ori r1, r1, %lo(_start)
  14:	08409214 	ori	at,at,584
    jmp r1
  18:	0800683a 	jmp	at
  1c:	00000000 	call	0 <__reset>

Disassembly of section .exceptions:

00000020 <alt_exception>:

#else /* ALT_EXCEPTION_STACK disabled */
        /* 
         * Reserve space on normal stack for registers about to be pushed.
         */
        addi  sp, sp, -76
  20:	deffed04 	addi	sp,sp,-76
         * documentation for details).
         *
         * Leave a gap in the stack frame at 4(sp) for the muldiv handler to
         * store zero into.
         */
        stw   ra,  0(sp)
  24:	dfc00015 	stw	ra,0(sp)
        stw   r1,   8(sp)
  28:	d8400215 	stw	at,8(sp)
        stw   r2,  12(sp)
  2c:	d8800315 	stw	r2,12(sp)
        stw   r3,  16(sp)
  30:	d8c00415 	stw	r3,16(sp)
        stw   r4,  20(sp)
  34:	d9000515 	stw	r4,20(sp)
        stw   r5,  24(sp)
  38:	d9400615 	stw	r5,24(sp)
        stw   r6,  28(sp)
  3c:	d9800715 	stw	r6,28(sp)
        stw   r7,  32(sp)
  40:	d9c00815 	stw	r7,32(sp)
        rdctl r5, estatus   /* Read early to avoid usage stall */
  44:	000b307a 	rdctl	r5,estatus
        stw   r8,  36(sp)
  48:	da000915 	stw	r8,36(sp)
        stw   r9,  40(sp)
  4c:	da400a15 	stw	r9,40(sp)
        stw   r10, 44(sp)
  50:	da800b15 	stw	r10,44(sp)
        stw   r11, 48(sp)
  54:	dac00c15 	stw	r11,48(sp)
        stw   r12, 52(sp)
  58:	db000d15 	stw	r12,52(sp)
        stw   r13, 56(sp)
  5c:	db400e15 	stw	r13,56(sp)
        stw   r14, 60(sp)
  60:	db800f15 	stw	r14,60(sp)
        stw   r15, 64(sp)
  64:	dbc01015 	stw	r15,64(sp)
        /*
         * ea-4 contains the address of the instruction being executed
         * when the exception occured. For interrupt exceptions, we will
         * will be re-issue the isntruction. Store it in 72(sp)
         */
        stw   r5,  68(sp)  /* estatus */
  68:	d9401115 	stw	r5,68(sp)
        addi  r15, ea, -4  /* instruction that caused exception */
  6c:	ebffff04 	addi	r15,ea,-4
        stw   r15,  72(sp)
  70:	dbc01215 	stw	r15,72(sp)
#else
        /*
         * Test to see if the exception was a software exception or caused 
         * by an external interrupt, and vector accordingly.
         */
        rdctl r4, ipending
  74:	0009313a 	rdctl	r4,ipending
        andi  r2, r5, 1
  78:	2880004c 	andi	r2,r5,1
        beq   r2, zero, .Lnot_irq
  7c:	10000326 	beq	r2,zero,8c <OSCtxSw_SWITCH_PC+0x4c>
        beq   r4, zero, .Lnot_irq
  80:	20000226 	beq	r4,zero,8c <OSCtxSw_SWITCH_PC+0x4c>
        /*
         * Now that all necessary registers have been preserved, call 
         * alt_irq_handler() to process the interrupts.
         */

        call alt_irq_handler
  84:	00000fc0 	call	fc <alt_irq_handler>

        .section .exceptions.irqreturn, "xa"

        br    .Lexception_exit
  88:	00000706 	br	a8 <OSCtxSw_SWITCH_PC+0x68>
         * upon completion, so we write ea (address of instruction *after*
         * the one where the exception occured) into 72(sp). The actual
         * instruction that caused the exception is written in r2, which these
         * handlers will utilize.
         */
        stw ea, 72(sp) /* EA is PC+4 so will skip over instruction causing exception */
  8c:	df401215 	stw	ea,72(sp)
.Lunknown_16bit:
        addi.n r4, r4, 2 /* Need PC+2 to skip over instruction causing exception */
        stw r4, 72(sp)

#else /* CDX is not Enabled and all instructions are 32bits */
        ldw r2, -4(ea) /* Instruction value that caused exception */
  90:	e8bfff17 	ldw	r2,-4(ea)
         * debugger is present) or go into an infinite loop since the
         * handling behavior is undefined; in that case we will not return here.
         */

        /* Load exception-causing address as first argument (r4) */
        addi   r4, ea, -4
  94:	e93fff04 	addi	r4,ea,-4

        /* Call the instruction-exception entry */
        call   alt_instruction_exception_entry
  98:	00001d40 	call	1d4 <alt_instruction_exception_entry>
         * instruction
         *
         * Return code was 0: Skip. The instruction after the exception is
         * already stored in 72(sp).
         */
        bne   r2, r0, .Lexception_exit
  9c:	1000021e 	bne	r2,zero,a8 <OSCtxSw_SWITCH_PC+0x68>

        /*
         * Otherwise, modify 72(sp) to re-issue the instruction that caused the
         * exception.
         */
        addi  r15, ea, -4  /* instruction that caused exception */
  a0:	ebffff04 	addi	r15,ea,-4
        stw   r15,  72(sp)
  a4:	dbc01215 	stw	r15,72(sp)
        /* 
         * Restore the saved registers, so that all general purpose registers 
         * have been restored to their state at the time the interrupt occured.
         */

        ldw   r5,  68(sp)
  a8:	d9401117 	ldw	r5,68(sp)
        ldw   ea,  72(sp)  /* This becomes the PC once eret is executed */
  ac:	df401217 	ldw	ea,72(sp)
        ldw   ra,   0(sp)
  b0:	dfc00017 	ldw	ra,0(sp)

        wrctl estatus, r5
  b4:	2801707a 	wrctl	estatus,r5

        ldw   r1,   8(sp)
  b8:	d8400217 	ldw	at,8(sp)
        ldw   r2,  12(sp)
  bc:	d8800317 	ldw	r2,12(sp)
        ldw   r3,  16(sp)
  c0:	d8c00417 	ldw	r3,16(sp)
        ldw   r4,  20(sp)
  c4:	d9000517 	ldw	r4,20(sp)
        ldw   r5,  24(sp)
  c8:	d9400617 	ldw	r5,24(sp)
        ldw   r6,  28(sp)
  cc:	d9800717 	ldw	r6,28(sp)
        ldw   r7,  32(sp)
  d0:	d9c00817 	ldw	r7,32(sp)

#if defined(ALT_EXCEPTION_STACK) && defined(ALT_STACK_CHECK)
        ldw   et, %gprel(alt_exception_old_stack_limit)(gp)
#endif

        ldw   r8,  36(sp)
  d4:	da000917 	ldw	r8,36(sp)
        ldw   r9,  40(sp)
  d8:	da400a17 	ldw	r9,40(sp)
        ldw   r10, 44(sp)
  dc:	da800b17 	ldw	r10,44(sp)
        ldw   r11, 48(sp)
  e0:	dac00c17 	ldw	r11,48(sp)
        ldw   r12, 52(sp)
  e4:	db000d17 	ldw	r12,52(sp)
        ldw   r13, 56(sp)
  e8:	db400e17 	ldw	r13,56(sp)
        ldw   r14, 60(sp)
  ec:	db800f17 	ldw	r14,60(sp)
        ldw   r15, 64(sp)
  f0:	dbc01017 	ldw	r15,64(sp)
        stw   et, %gprel(alt_stack_limit_value)(gp)
        stw   zero, %gprel(alt_exception_old_stack_limit)(gp)
#endif /* ALT_STACK_CHECK */
        ldw   sp,  76(sp)
#else /* ALT_EXCEPTION_STACK disabled */
        addi  sp, sp, 76
  f4:	dec01304 	addi	sp,sp,76

        /*
         * Return to the interrupted instruction.
         */

        eret
  f8:	ef80083a 	eret

000000fc <alt_irq_handler>:
 * instruction is present if the macro ALT_CI_INTERRUPT_VECTOR defined.
 */

void alt_irq_handler (void) __attribute__ ((section (".exceptions")));
void alt_irq_handler (void)
{
  fc:	defff904 	addi	sp,sp,-28
 100:	dfc00615 	stw	ra,24(sp)
 104:	df000515 	stw	fp,20(sp)
 108:	df000504 	addi	fp,sp,20
  
  /*
   * Notify the operating system that we are at interrupt level.
   */ 
  
  ALT_OS_INT_ENTER();
 10c:	00149c40 	call	149c4 <OSIntEnter>
#ifndef NIOS2_EIC_PRESENT
static ALT_INLINE alt_u32 ALT_ALWAYS_INLINE alt_irq_pending (void)
{
  alt_u32 active;

  NIOS2_READ_IPENDING (active);
 110:	0005313a 	rdctl	r2,ipending
 114:	e0bffe15 	stw	r2,-8(fp)

  return active;
 118:	e0bffe17 	ldw	r2,-8(fp)
   * Consider the case where the high priority interupt is asserted during
   * the interrupt entry sequence for a lower priority interrupt to see why
   * this is the case.
   */

  active = alt_irq_pending ();
 11c:	e0bffb15 	stw	r2,-20(fp)

  do
  {
    i = 0;
 120:	e03ffd15 	stw	zero,-12(fp)
    mask = 1;
 124:	00800044 	movi	r2,1
 128:	e0bffc15 	stw	r2,-16(fp)
     * called to clear the interrupt condition.
     */

    do
    {
      if (active & mask)
 12c:	e0fffb17 	ldw	r3,-20(fp)
 130:	e0bffc17 	ldw	r2,-16(fp)
 134:	1884703a 	and	r2,r3,r2
 138:	10001526 	beq	r2,zero,190 <alt_irq_handler+0x94>
      { 
#ifdef ALT_ENHANCED_INTERRUPT_API_PRESENT
        alt_irq[i].handler(alt_irq[i].context); 
#else
        alt_irq[i].handler(alt_irq[i].context, i); 
 13c:	00800134 	movhi	r2,4
 140:	1087cc04 	addi	r2,r2,7984
 144:	e0fffd17 	ldw	r3,-12(fp)
 148:	180690fa 	slli	r3,r3,3
 14c:	10c5883a 	add	r2,r2,r3
 150:	10c00017 	ldw	r3,0(r2)
 154:	00800134 	movhi	r2,4
 158:	1087cc04 	addi	r2,r2,7984
 15c:	e13ffd17 	ldw	r4,-12(fp)
 160:	200890fa 	slli	r4,r4,3
 164:	1105883a 	add	r2,r2,r4
 168:	10800104 	addi	r2,r2,4
 16c:	10800017 	ldw	r2,0(r2)
 170:	e17ffd17 	ldw	r5,-12(fp)
 174:	1009883a 	mov	r4,r2
 178:	183ee83a 	callr	r3
#endif
        break;
 17c:	0001883a 	nop
#ifndef NIOS2_EIC_PRESENT
static ALT_INLINE alt_u32 ALT_ALWAYS_INLINE alt_irq_pending (void)
{
  alt_u32 active;

  NIOS2_READ_IPENDING (active);
 180:	0005313a 	rdctl	r2,ipending
 184:	e0bfff15 	stw	r2,-4(fp)

  return active;
 188:	e0bfff17 	ldw	r2,-4(fp)
 18c:	00000706 	br	1ac <alt_irq_handler+0xb0>
      }
      mask <<= 1;
 190:	e0bffc17 	ldw	r2,-16(fp)
 194:	1085883a 	add	r2,r2,r2
 198:	e0bffc15 	stw	r2,-16(fp)
      i++;
 19c:	e0bffd17 	ldw	r2,-12(fp)
 1a0:	10800044 	addi	r2,r2,1
 1a4:	e0bffd15 	stw	r2,-12(fp)

    } while (1);
 1a8:	003fe006 	br	12c <__alt_mem_onchip_memory+0xf780012c>

    active = alt_irq_pending ();
 1ac:	e0bffb15 	stw	r2,-20(fp)
    
  } while (active);
 1b0:	e0bffb17 	ldw	r2,-20(fp)
 1b4:	103fda1e 	bne	r2,zero,120 <__alt_mem_onchip_memory+0xf7800120>

  /*
   * Notify the operating system that interrupt processing is complete.
   */ 

  ALT_OS_INT_EXIT();
 1b8:	0014a100 	call	14a10 <OSIntExit>
}
 1bc:	0001883a 	nop
 1c0:	e037883a 	mov	sp,fp
 1c4:	dfc00117 	ldw	ra,4(sp)
 1c8:	df000017 	ldw	fp,0(sp)
 1cc:	dec00204 	addi	sp,sp,8
 1d0:	f800283a 	ret

000001d4 <alt_instruction_exception_entry>:
 * that handler if it has been registered. Absent a handler, it will
 * break break or hang as discussed below.
 */
int 
alt_instruction_exception_entry (alt_u32 exception_pc)
{
 1d4:	defffb04 	addi	sp,sp,-20
 1d8:	dfc00415 	stw	ra,16(sp)
 1dc:	df000315 	stw	fp,12(sp)
 1e0:	df000304 	addi	fp,sp,12
 1e4:	e13fff15 	stw	r4,-4(fp)
 * NIOS2_EXCEPTION_CAUSE_NOT_PRESENT. Your handling routine should
 * check the validity of the cause argument before proceeding.
 */
#ifdef NIOS2_HAS_EXTRA_EXCEPTION_INFO
  /* Get exception cause & "badaddr" */
  NIOS2_READ_EXCEPTION(cause);
 1e8:	000531fa 	rdctl	r2,exception
 1ec:	e0bffd15 	stw	r2,-12(fp)
  cause = ( (cause & NIOS2_EXCEPTION_REG_CAUSE_MASK) >>
 1f0:	e0bffd17 	ldw	r2,-12(fp)
 1f4:	10801f0c 	andi	r2,r2,124
 1f8:	1004d0ba 	srli	r2,r2,2
 1fc:	e0bffd15 	stw	r2,-12(fp)
              NIOS2_EXCEPTION_REG_CAUSE_OFST );

  NIOS2_READ_BADADDR(badaddr);
 200:	0005333a 	rdctl	r2,badaddr
 204:	e0bffe15 	stw	r2,-8(fp)
#else
  cause = NIOS2_EXCEPTION_CAUSE_NOT_PRESENT;
  badaddr = 0;
#endif /* NIOS2_HAS_EXTRA_EXCEPTION_INFO */

  if(alt_instruction_exception_handler) {
 208:	d0a87617 	ldw	r2,-24104(gp)
 20c:	10000726 	beq	r2,zero,22c <alt_instruction_exception_entry+0x58>
     * Call handler. Its return value indicates whether the exception-causing
     * instruction should be re-issued. The code that called us,
     * alt_eceptions_entry.S, will look at this value and adjust the ea
     * register as necessary
     */
    return alt_instruction_exception_handler(cause, exception_pc, badaddr);
 210:	d0a87617 	ldw	r2,-24104(gp)
 214:	e0fffd17 	ldw	r3,-12(fp)
 218:	e1bffe17 	ldw	r6,-8(fp)
 21c:	e17fff17 	ldw	r5,-4(fp)
 220:	1809883a 	mov	r4,r3
 224:	103ee83a 	callr	r2
 228:	00000206 	br	234 <alt_instruction_exception_entry+0x60>
   *    (a peripheral which negates its interrupt output before its
   *    interrupt handler has been executed will cause spurious interrupts)
   */
  else {
#ifdef NIOS2_HAS_DEBUG_STUB
    NIOS2_BREAK();
 22c:	003da03a 	break	0
      ;
#endif /* NIOS2_HAS_DEBUG_STUB */
  }

  /* We should not get here. Remove compiler warning. */
  return NIOS2_EXCEPTION_RETURN_REISSUE_INST;
 230:	0005883a 	mov	r2,zero
}
 234:	e037883a 	mov	sp,fp
 238:	dfc00117 	ldw	ra,4(sp)
 23c:	df000017 	ldw	fp,0(sp)
 240:	dec00204 	addi	sp,sp,8
 244:	f800283a 	ret

Disassembly of section .text:

00000248 <_start>:

    /* Assume the data cache size is always a power of two. */
#if NIOS2_DCACHE_SIZE > 0x8000
    movhi r2, %hi(NIOS2_DCACHE_SIZE)
#else
    movui r2, NIOS2_DCACHE_SIZE
     248:	00820014 	movui	r2,2048
#endif

0:
    initd 0(r2)
     24c:	10000033 	initd	0(r2)
#ifdef NIOS2_ECC_PRESENT
    addi r2, r2, -4
#else
    addi r2, r2, -NIOS2_DCACHE_LINE_SIZE
     250:	10bff804 	addi	r2,r2,-32
#endif
    bgt r2, zero, 0b
     254:	00bffd16 	blt	zero,r2,24c <__alt_mem_onchip_memory+0xf780024c>

    /*
     * Now that the caches are initialized, set up the stack pointer and global pointer.
     * The values provided by the linker are assumed to be correctly aligned.
     */
    movhi sp, %hi(__alt_stack_pointer)
     258:	06c20034 	movhi	sp,2048
    ori sp, sp, %lo(__alt_stack_pointer)
     25c:	dec00014 	ori	sp,sp,0
    movhi gp, %hi(_gp)
     260:	068000b4 	movhi	gp,2
    ori gp, gp, %lo(_gp)
     264:	d6b18714 	ori	gp,gp,50716
 */
#ifndef ALT_SIM_OPTIMIZE
    /* Log that the BSS is about to be cleared. */
    ALT_LOG_PUTS(alt_log_msg_bss)

    movhi r2, %hi(__bss_start)
     268:	008000b4 	movhi	r2,2
    ori r2, r2, %lo(__bss_start)
     26c:	1099c814 	ori	r2,r2,26400

    movhi r3, %hi(__bss_end)
     270:	00c00134 	movhi	r3,4
    ori r3, r3, %lo(__bss_end)
     274:	18c80c14 	ori	r3,r3,8240

    beq r2, r3, 1f
     278:	10c00326 	beq	r2,r3,288 <_start+0x40>

0:
    stw zero, (r2)
     27c:	10000015 	stw	zero,0(r2)
    addi r2, r2, 4
     280:	10800104 	addi	r2,r2,4
    bltu r2, r3, 0b
     284:	10fffd36 	bltu	r2,r3,27c <__alt_mem_onchip_memory+0xf780027c>
     * section aren't defined until alt_load() has been called).
     */
    mov   et, zero
#endif

    call alt_load
     288:	001381c0 	call	1381c <alt_load>

    /* Log that alt_main is about to be called. */
    ALT_LOG_PUTS(alt_log_msg_alt_main)

    /* Call the C entry point. It should never return. */
    call alt_main
     28c:	00139b00 	call	139b0 <alt_main>

00000290 <alt_after_alt_main>:

    /* Wait in infinite loop in case alt_main does return. */
alt_after_alt_main:
    br alt_after_alt_main
     290:	003fff06 	br	290 <__alt_mem_onchip_memory+0xf7800290>

00000294 <main>:



/* The main function creates a single task and starts multi-tasking */
int main(void)
{
     294:	defffe04 	addi	sp,sp,-8
     298:	dfc00115 	stw	ra,4(sp)
     29c:	df000015 	stw	fp,0(sp)
     2a0:	d839883a 	mov	fp,sp

	Init_App();
     2a4:	00009a40 	call	9a4 <Init_App>

	CreateTasks();
     2a8:	0002da80 	call	2da8 <CreateTasks>

	OSStart();
     2ac:	0014c700 	call	14c70 <OSStart>

	return 0;
     2b0:	0005883a 	mov	r2,zero
}
     2b4:	e037883a 	mov	sp,fp
     2b8:	dfc00117 	ldw	ra,4(sp)
     2bc:	df000017 	ldw	fp,0(sp)
     2c0:	dec00204 	addi	sp,sp,8
     2c4:	f800283a 	ret

000002c8 <MTL_box>:

/*
 * Funcion para crear recuadros en la pantalla MTL
 */
void MTL_box(int x1, int y1, int x2, int y2, short pixel_color)
{
     2c8:	defff704 	addi	sp,sp,-36
     2cc:	df000815 	stw	fp,32(sp)
     2d0:	df000804 	addi	fp,sp,32
     2d4:	e13ffb15 	stw	r4,-20(fp)
     2d8:	e17ffc15 	stw	r5,-16(fp)
     2dc:	e1bffd15 	stw	r6,-12(fp)
     2e0:	e1fffe15 	stw	r7,-8(fp)
     2e4:	e0800117 	ldw	r2,4(fp)
     2e8:	e0bfff0d 	sth	r2,-4(fp)
	int offset, row, col;


	for (row = y1; row <= y2; row++)
     2ec:	e0bffc17 	ldw	r2,-16(fp)
     2f0:	e0bff815 	stw	r2,-32(fp)
     2f4:	00001706 	br	354 <MTL_box+0x8c>
	{
		col = x1;
     2f8:	e0bffb17 	ldw	r2,-20(fp)
     2fc:	e0bff915 	stw	r2,-28(fp)
		while (col <= x2)
     300:	00000e06 	br	33c <MTL_box+0x74>
		{
			offset = (row << 9) + col;
     304:	e0bff817 	ldw	r2,-32(fp)
     308:	1006927a 	slli	r3,r2,9
     30c:	e0bff917 	ldw	r2,-28(fp)
     310:	1885883a 	add	r2,r3,r2
     314:	e0bffa15 	stw	r2,-24(fp)
		* (pixel_buffer + offset) = pixel_color;
     318:	d0e00a17 	ldw	r3,-32728(gp)
     31c:	e0bffa17 	ldw	r2,-24(fp)
     320:	1085883a 	add	r2,r2,r2
     324:	1885883a 	add	r2,r3,r2
     328:	e0ffff0b 	ldhu	r3,-4(fp)
     32c:	10c0000d 	sth	r3,0(r2)
			++col;
     330:	e0bff917 	ldw	r2,-28(fp)
     334:	10800044 	addi	r2,r2,1
     338:	e0bff915 	stw	r2,-28(fp)


	for (row = y1; row <= y2; row++)
	{
		col = x1;
		while (col <= x2)
     33c:	e0bff917 	ldw	r2,-28(fp)
     340:	e0fffd17 	ldw	r3,-12(fp)
     344:	18bfef0e 	bge	r3,r2,304 <__alt_mem_onchip_memory+0xf7800304>
void MTL_box(int x1, int y1, int x2, int y2, short pixel_color)
{
	int offset, row, col;


	for (row = y1; row <= y2; row++)
     348:	e0bff817 	ldw	r2,-32(fp)
     34c:	10800044 	addi	r2,r2,1
     350:	e0bff815 	stw	r2,-32(fp)
     354:	e0bff817 	ldw	r2,-32(fp)
     358:	e0fffe17 	ldw	r3,-8(fp)
     35c:	18bfe60e 	bge	r3,r2,2f8 <__alt_mem_onchip_memory+0xf78002f8>
			offset = (row << 9) + col;
		* (pixel_buffer + offset) = pixel_color;
			++col;
		}
	}
}
     360:	0001883a 	nop
     364:	e037883a 	mov	sp,fp
     368:	df000017 	ldw	fp,0(sp)
     36c:	dec00104 	addi	sp,sp,4
     370:	f800283a 	ret

00000374 <MTL_text>:

/**
 * Funcion para mostrar texto por la pantalla MTL
 */
void MTL_text(int x, int y, char * text_ptr)
{
     374:	defffb04 	addi	sp,sp,-20
     378:	df000415 	stw	fp,16(sp)
     37c:	df000404 	addi	fp,sp,16
     380:	e13ffd15 	stw	r4,-12(fp)
     384:	e17ffe15 	stw	r5,-8(fp)
     388:	e1bfff15 	stw	r6,-4(fp)
	int offset;

  	offset = (y << 6) + x;
     38c:	e0bffe17 	ldw	r2,-8(fp)
     390:	100691ba 	slli	r3,r2,6
     394:	e0bffd17 	ldw	r2,-12(fp)
     398:	1885883a 	add	r2,r3,r2
     39c:	e0bffc15 	stw	r2,-16(fp)
  	while ( *(text_ptr) )
     3a0:	00000c06 	br	3d4 <MTL_text+0x60>
  	{
  		*(character_buffer + offset) = *(text_ptr);
     3a4:	d0e00b17 	ldw	r3,-32724(gp)
     3a8:	e0bffc17 	ldw	r2,-16(fp)
     3ac:	1885883a 	add	r2,r3,r2
     3b0:	e0ffff17 	ldw	r3,-4(fp)
     3b4:	18c00003 	ldbu	r3,0(r3)
     3b8:	10c00005 	stb	r3,0(r2)
  		++text_ptr;
     3bc:	e0bfff17 	ldw	r2,-4(fp)
     3c0:	10800044 	addi	r2,r2,1
     3c4:	e0bfff15 	stw	r2,-4(fp)
  		++offset;
     3c8:	e0bffc17 	ldw	r2,-16(fp)
     3cc:	10800044 	addi	r2,r2,1
     3d0:	e0bffc15 	stw	r2,-16(fp)
void MTL_text(int x, int y, char * text_ptr)
{
	int offset;

  	offset = (y << 6) + x;
  	while ( *(text_ptr) )
     3d4:	e0bfff17 	ldw	r2,-4(fp)
     3d8:	10800003 	ldbu	r2,0(r2)
     3dc:	10803fcc 	andi	r2,r2,255
     3e0:	1080201c 	xori	r2,r2,128
     3e4:	10bfe004 	addi	r2,r2,-128
     3e8:	103fee1e 	bne	r2,zero,3a4 <__alt_mem_onchip_memory+0xf78003a4>
  		*(character_buffer + offset) = *(text_ptr);
  		++text_ptr;
  		++offset;
  	}

}
     3ec:	0001883a 	nop
     3f0:	e037883a 	mov	sp,fp
     3f4:	df000017 	ldw	fp,0(sp)
     3f8:	dec00104 	addi	sp,sp,4
     3fc:	f800283a 	ret

00000400 <borra_lineas_pantalla>:

/**
 *  Funcion para borrar lineas de MTL
 */
void borra_lineas_pantalla(int inicio, int lineas)
{
     400:	deffee04 	addi	sp,sp,-72
     404:	dfc01115 	stw	ra,68(sp)
     408:	df001015 	stw	fp,64(sp)
     40c:	df001004 	addi	fp,sp,64
     410:	e13ffe15 	stw	r4,-8(fp)
     414:	e17fff15 	stw	r5,-4(fp)
	int i;
	char blank[50]="                                                  ";
     418:	00880834 	movhi	r2,8224
     41c:	10880804 	addi	r2,r2,8224
     420:	e0bff115 	stw	r2,-60(fp)
     424:	00880834 	movhi	r2,8224
     428:	10880804 	addi	r2,r2,8224
     42c:	e0bff215 	stw	r2,-56(fp)
     430:	00880834 	movhi	r2,8224
     434:	10880804 	addi	r2,r2,8224
     438:	e0bff315 	stw	r2,-52(fp)
     43c:	00880834 	movhi	r2,8224
     440:	10880804 	addi	r2,r2,8224
     444:	e0bff415 	stw	r2,-48(fp)
     448:	00880834 	movhi	r2,8224
     44c:	10880804 	addi	r2,r2,8224
     450:	e0bff515 	stw	r2,-44(fp)
     454:	00880834 	movhi	r2,8224
     458:	10880804 	addi	r2,r2,8224
     45c:	e0bff615 	stw	r2,-40(fp)
     460:	00880834 	movhi	r2,8224
     464:	10880804 	addi	r2,r2,8224
     468:	e0bff715 	stw	r2,-36(fp)
     46c:	00880834 	movhi	r2,8224
     470:	10880804 	addi	r2,r2,8224
     474:	e0bff815 	stw	r2,-32(fp)
     478:	00880834 	movhi	r2,8224
     47c:	10880804 	addi	r2,r2,8224
     480:	e0bff915 	stw	r2,-28(fp)
     484:	00880834 	movhi	r2,8224
     488:	10880804 	addi	r2,r2,8224
     48c:	e0bffa15 	stw	r2,-24(fp)
     490:	00880834 	movhi	r2,8224
     494:	10880804 	addi	r2,r2,8224
     498:	e0bffb15 	stw	r2,-20(fp)
     49c:	00880834 	movhi	r2,8224
     4a0:	10880804 	addi	r2,r2,8224
     4a4:	e0bffc15 	stw	r2,-16(fp)
     4a8:	00880804 	movi	r2,8224
     4ac:	e0bffd0d 	sth	r2,-12(fp)
	// borra pantalla desde inicio a lineas
		for (i=inicio;i<lineas;i++){
     4b0:	e0bffe17 	ldw	r2,-8(fp)
     4b4:	e0bff015 	stw	r2,-64(fp)
     4b8:	00000806 	br	4dc <borra_lineas_pantalla+0xdc>
			MTL_text(0,i,blank);
     4bc:	e0bff104 	addi	r2,fp,-60
     4c0:	100d883a 	mov	r6,r2
     4c4:	e17ff017 	ldw	r5,-64(fp)
     4c8:	0009883a 	mov	r4,zero
     4cc:	00003740 	call	374 <MTL_text>
void borra_lineas_pantalla(int inicio, int lineas)
{
	int i;
	char blank[50]="                                                  ";
	// borra pantalla desde inicio a lineas
		for (i=inicio;i<lineas;i++){
     4d0:	e0bff017 	ldw	r2,-64(fp)
     4d4:	10800044 	addi	r2,r2,1
     4d8:	e0bff015 	stw	r2,-64(fp)
     4dc:	e0fff017 	ldw	r3,-64(fp)
     4e0:	e0bfff17 	ldw	r2,-4(fp)
     4e4:	18bff516 	blt	r3,r2,4bc <__alt_mem_onchip_memory+0xf78004bc>
			MTL_text(0,i,blank);
		}

}
     4e8:	0001883a 	nop
     4ec:	e037883a 	mov	sp,fp
     4f0:	dfc00117 	ldw	ra,4(sp)
     4f4:	df000017 	ldw	fp,0(sp)
     4f8:	dec00204 	addi	sp,sp,8
     4fc:	f800283a 	ret

00000500 <alt_ucosii_check_return_code>:
 */
 

 
void alt_ucosii_check_return_code(INT8U return_code)
{
     500:	defffd04 	addi	sp,sp,-12
     504:	dfc00215 	stw	ra,8(sp)
     508:	df000115 	stw	fp,4(sp)
     50c:	df000104 	addi	fp,sp,4
     510:	2005883a 	mov	r2,r4
     514:	e0bfff05 	stb	r2,-4(fp)
  if(return_code != OS_NO_ERR)
     518:	e0bfff03 	ldbu	r2,-4(fp)
     51c:	10000526 	beq	r2,zero,534 <alt_ucosii_check_return_code+0x34>
  {
    OSSchedLock();  /* Disable Task Switching but still service other IRQs */
     520:	0014b080 	call	14b08 <OSSchedLock>
    alt_ucosii_simple_error_handler(return_code);
     524:	e0bfff03 	ldbu	r2,-4(fp)
     528:	1009883a 	mov	r4,r2
     52c:	000054c0 	call	54c <alt_ucosii_simple_error_handler>
    OSSchedUnlock(); /* Enable Task Switching */
     530:	0014b940 	call	14b94 <OSSchedUnlock>
  }
}
     534:	0001883a 	nop
     538:	e037883a 	mov	sp,fp
     53c:	dfc00117 	ldw	ra,4(sp)
     540:	df000017 	ldw	fp,0(sp)
     544:	dec00204 	addi	sp,sp,8
     548:	f800283a 	ret

0000054c <alt_ucosii_simple_error_handler>:
 * controls the flow that is taken from different errors occurring at different 
 * locations in the application code.
 */

void alt_ucosii_simple_error_handler(INT8U return_code)
{
     54c:	defffd04 	addi	sp,sp,-12
     550:	dfc00215 	stw	ra,8(sp)
     554:	df000115 	stw	fp,4(sp)
     558:	df000104 	addi	fp,sp,4
     55c:	2005883a 	mov	r2,r4
     560:	e0bfff05 	stb	r2,-4(fp)
  printf("[Program Error]: See STDERR\n");
     564:	010000b4 	movhi	r4,2
     568:	2105ea04 	addi	r4,r4,6056
     56c:	00035500 	call	3550 <puts>
  switch (return_code) {
     570:	e0bfff03 	ldbu	r2,-4(fp)
     574:	10c01968 	cmpgeui	r3,r2,101
     578:	1800f71e 	bne	r3,zero,958 <alt_ucosii_simple_error_handler+0x40c>
     57c:	100690ba 	slli	r3,r2,2
     580:	00800034 	movhi	r2,0
     584:	10816504 	addi	r2,r2,1428
     588:	1885883a 	add	r2,r3,r2
     58c:	10800017 	ldw	r2,0(r2)
     590:	1000683a 	jmp	r2
     594:	00000958 	cmpnei	zero,zero,37
     598:	000007f0 	cmpltui	zero,zero,31
     59c:	00000880 	call	88 <OSCtxSw_SWITCH_PC+0x48>
     5a0:	00000838 	rdprs	zero,zero,32
     5a4:	00000814 	movui	zero,32
     5a8:	00000958 	cmpnei	zero,zero,37
     5ac:	00000958 	cmpnei	zero,zero,37
     5b0:	00000958 	cmpnei	zero,zero,37
     5b4:	00000958 	cmpnei	zero,zero,37
     5b8:	00000958 	cmpnei	zero,zero,37
     5bc:	0000085c 	xori	zero,zero,33
     5c0:	00000958 	cmpnei	zero,zero,37
     5c4:	00000958 	cmpnei	zero,zero,37
     5c8:	00000958 	cmpnei	zero,zero,37
     5cc:	00000958 	cmpnei	zero,zero,37
     5d0:	00000958 	cmpnei	zero,zero,37
     5d4:	00000958 	cmpnei	zero,zero,37
     5d8:	00000958 	cmpnei	zero,zero,37
     5dc:	00000958 	cmpnei	zero,zero,37
     5e0:	00000958 	cmpnei	zero,zero,37
     5e4:	000007cc 	andi	zero,zero,31
     5e8:	00000958 	cmpnei	zero,zero,37
     5ec:	00000958 	cmpnei	zero,zero,37
     5f0:	00000958 	cmpnei	zero,zero,37
     5f4:	00000958 	cmpnei	zero,zero,37
     5f8:	00000958 	cmpnei	zero,zero,37
     5fc:	00000958 	cmpnei	zero,zero,37
     600:	00000958 	cmpnei	zero,zero,37
     604:	00000958 	cmpnei	zero,zero,37
     608:	00000958 	cmpnei	zero,zero,37
     60c:	00000910 	cmplti	zero,zero,36
     610:	00000958 	cmpnei	zero,zero,37
     614:	00000958 	cmpnei	zero,zero,37
     618:	00000958 	cmpnei	zero,zero,37
     61c:	00000958 	cmpnei	zero,zero,37
     620:	00000958 	cmpnei	zero,zero,37
     624:	00000958 	cmpnei	zero,zero,37
     628:	00000958 	cmpnei	zero,zero,37
     62c:	00000958 	cmpnei	zero,zero,37
     630:	00000958 	cmpnei	zero,zero,37
     634:	00000728 	cmpgeui	zero,zero,28
     638:	00000958 	cmpnei	zero,zero,37
     63c:	0000074c 	andi	zero,zero,29
     640:	00000958 	cmpnei	zero,zero,37
     644:	00000958 	cmpnei	zero,zero,37
     648:	00000958 	cmpnei	zero,zero,37
     64c:	00000958 	cmpnei	zero,zero,37
     650:	00000958 	cmpnei	zero,zero,37
     654:	00000958 	cmpnei	zero,zero,37
     658:	00000958 	cmpnei	zero,zero,37
     65c:	00000958 	cmpnei	zero,zero,37
     660:	00000958 	cmpnei	zero,zero,37
     664:	00000958 	cmpnei	zero,zero,37
     668:	00000958 	cmpnei	zero,zero,37
     66c:	00000958 	cmpnei	zero,zero,37
     670:	00000958 	cmpnei	zero,zero,37
     674:	00000958 	cmpnei	zero,zero,37
     678:	00000958 	cmpnei	zero,zero,37
     67c:	00000958 	cmpnei	zero,zero,37
     680:	00000958 	cmpnei	zero,zero,37
     684:	00000958 	cmpnei	zero,zero,37
     688:	000008c8 	cmpgei	zero,zero,35
     68c:	000008a4 	muli	zero,zero,34
     690:	00000958 	cmpnei	zero,zero,37
     694:	000008ec 	andhi	zero,zero,35
     698:	00000958 	cmpnei	zero,zero,37
     69c:	0000078c 	andi	zero,zero,30
     6a0:	00000958 	cmpnei	zero,zero,37
     6a4:	00000958 	cmpnei	zero,zero,37
     6a8:	00000958 	cmpnei	zero,zero,37
     6ac:	00000958 	cmpnei	zero,zero,37
     6b0:	00000958 	cmpnei	zero,zero,37
     6b4:	00000958 	cmpnei	zero,zero,37
     6b8:	00000958 	cmpnei	zero,zero,37
     6bc:	00000958 	cmpnei	zero,zero,37
     6c0:	00000958 	cmpnei	zero,zero,37
     6c4:	00000958 	cmpnei	zero,zero,37
     6c8:	00000958 	cmpnei	zero,zero,37
     6cc:	00000958 	cmpnei	zero,zero,37
     6d0:	00000958 	cmpnei	zero,zero,37
     6d4:	00000958 	cmpnei	zero,zero,37
     6d8:	00000958 	cmpnei	zero,zero,37
     6dc:	00000958 	cmpnei	zero,zero,37
     6e0:	00000958 	cmpnei	zero,zero,37
     6e4:	00000958 	cmpnei	zero,zero,37
     6e8:	00000958 	cmpnei	zero,zero,37
     6ec:	00000958 	cmpnei	zero,zero,37
     6f0:	00000958 	cmpnei	zero,zero,37
     6f4:	00000958 	cmpnei	zero,zero,37
     6f8:	00000958 	cmpnei	zero,zero,37
     6fc:	00000958 	cmpnei	zero,zero,37
     700:	00000958 	cmpnei	zero,zero,37
     704:	00000958 	cmpnei	zero,zero,37
     708:	00000958 	cmpnei	zero,zero,37
     70c:	00000958 	cmpnei	zero,zero,37
     710:	00000958 	cmpnei	zero,zero,37
     714:	00000958 	cmpnei	zero,zero,37
     718:	00000958 	cmpnei	zero,zero,37
     71c:	00000958 	cmpnei	zero,zero,37
     720:	00000958 	cmpnei	zero,zero,37
     724:	00000934 	movhi	zero,36
    case OS_PRIO_EXIST:
      fprintf(stderr, "Attempted to assign a task priority that is aready in use.\n");
     728:	d0a00d17 	ldw	r2,-32716(gp)
     72c:	10800317 	ldw	r2,12(r2)
     730:	100f883a 	mov	r7,r2
     734:	01800ec4 	movi	r6,59
     738:	01400044 	movi	r5,1
     73c:	010000b4 	movhi	r4,2
     740:	2105f104 	addi	r4,r4,6084
     744:	00031800 	call	3180 <fwrite>
      break;
     748:	00008c06 	br	97c <alt_ucosii_simple_error_handler+0x430>
    case OS_PRIO_INVALID:
      fprintf(stderr, "Specified a task priority higher than the allowed maximum.\n");
     74c:	d0a00d17 	ldw	r2,-32716(gp)
     750:	10800317 	ldw	r2,12(r2)
     754:	100f883a 	mov	r7,r2
     758:	01800ec4 	movi	r6,59
     75c:	01400044 	movi	r5,1
     760:	010000b4 	movhi	r4,2
     764:	21060004 	addi	r4,r4,6144
     768:	00031800 	call	3180 <fwrite>
      fprintf(stderr, "Task can not be assigned a priority higher than %d\n",OS_LOWEST_PRIO);
     76c:	d0a00d17 	ldw	r2,-32716(gp)
     770:	10800317 	ldw	r2,12(r2)
     774:	01800784 	movi	r6,30
     778:	014000b4 	movhi	r5,2
     77c:	29460f04 	addi	r5,r5,6204
     780:	1009883a 	mov	r4,r2
     784:	00030900 	call	3090 <fprintf>
      break;
     788:	00007c06 	br	97c <alt_ucosii_simple_error_handler+0x430>
    case OS_NO_MORE_TCB:
      fprintf(stderr, "Task Control Blocks have been exhausted\n");
     78c:	d0a00d17 	ldw	r2,-32716(gp)
     790:	10800317 	ldw	r2,12(r2)
     794:	100f883a 	mov	r7,r2
     798:	01800a04 	movi	r6,40
     79c:	01400044 	movi	r5,1
     7a0:	010000b4 	movhi	r4,2
     7a4:	21061c04 	addi	r4,r4,6256
     7a8:	00031800 	call	3180 <fwrite>
      fprintf(stderr, "The current max number of task is %d\n",OS_MAX_TASKS);
     7ac:	d0a00d17 	ldw	r2,-32716(gp)
     7b0:	10800317 	ldw	r2,12(r2)
     7b4:	01800504 	movi	r6,20
     7b8:	014000b4 	movhi	r5,2
     7bc:	29462704 	addi	r5,r5,6300
     7c0:	1009883a 	mov	r4,r2
     7c4:	00030900 	call	3090 <fprintf>
      break;
     7c8:	00006c06 	br	97c <alt_ucosii_simple_error_handler+0x430>
    case OS_MBOX_FULL:
      fprintf(stderr, "Attempted a Post to a Mailbox that already contains a message\n");
     7cc:	d0a00d17 	ldw	r2,-32716(gp)
     7d0:	10800317 	ldw	r2,12(r2)
     7d4:	100f883a 	mov	r7,r2
     7d8:	01800f84 	movi	r6,62
     7dc:	01400044 	movi	r5,1
     7e0:	010000b4 	movhi	r4,2
     7e4:	21063104 	addi	r4,r4,6340
     7e8:	00031800 	call	3180 <fwrite>
      break;
     7ec:	00006306 	br	97c <alt_ucosii_simple_error_handler+0x430>
    case OS_ERR_EVENT_TYPE:
      fprintf(stderr, "Attempted to access a resource that doesn't match the required data type\n");
     7f0:	d0a00d17 	ldw	r2,-32716(gp)
     7f4:	10800317 	ldw	r2,12(r2)
     7f8:	100f883a 	mov	r7,r2
     7fc:	01801244 	movi	r6,73
     800:	01400044 	movi	r5,1
     804:	010000b4 	movhi	r4,2
     808:	21064104 	addi	r4,r4,6404
     80c:	00031800 	call	3180 <fwrite>
      break;
     810:	00005a06 	br	97c <alt_ucosii_simple_error_handler+0x430>
    case OS_ERR_PEVENT_NULL:
      fprintf(stderr, "Attempting access a resource that is pointing to NULL\n");
     814:	d0a00d17 	ldw	r2,-32716(gp)
     818:	10800317 	ldw	r2,12(r2)
     81c:	100f883a 	mov	r7,r2
     820:	01800d84 	movi	r6,54
     824:	01400044 	movi	r5,1
     828:	010000b4 	movhi	r4,2
     82c:	21065404 	addi	r4,r4,6480
     830:	00031800 	call	3180 <fwrite>
      break;
     834:	00005106 	br	97c <alt_ucosii_simple_error_handler+0x430>
    case OS_ERR_POST_NULL_PTR:
      fprintf(stderr, "Attempted to Post a NULL to a resource. \n");
     838:	d0a00d17 	ldw	r2,-32716(gp)
     83c:	10800317 	ldw	r2,12(r2)
     840:	100f883a 	mov	r7,r2
     844:	01800a44 	movi	r6,41
     848:	01400044 	movi	r5,1
     84c:	010000b4 	movhi	r4,2
     850:	21066204 	addi	r4,r4,6536
     854:	00031800 	call	3180 <fwrite>
      break;
     858:	00004806 	br	97c <alt_ucosii_simple_error_handler+0x430>
    case OS_TIMEOUT:
      fprintf(stderr, "Resource not received in specified time\n");
     85c:	d0a00d17 	ldw	r2,-32716(gp)
     860:	10800317 	ldw	r2,12(r2)
     864:	100f883a 	mov	r7,r2
     868:	01800a04 	movi	r6,40
     86c:	01400044 	movi	r5,1
     870:	010000b4 	movhi	r4,2
     874:	21066d04 	addi	r4,r4,6580
     878:	00031800 	call	3180 <fwrite>
      break;
     87c:	00003f06 	br	97c <alt_ucosii_simple_error_handler+0x430>
    case OS_ERR_PEND_ISR:
      fprintf(stderr, "Attempting to pending for a resource in an ISR\n");
     880:	d0a00d17 	ldw	r2,-32716(gp)
     884:	10800317 	ldw	r2,12(r2)
     888:	100f883a 	mov	r7,r2
     88c:	01800bc4 	movi	r6,47
     890:	01400044 	movi	r5,1
     894:	010000b4 	movhi	r4,2
     898:	21067804 	addi	r4,r4,6624
     89c:	00031800 	call	3180 <fwrite>
      break;
     8a0:	00003606 	br	97c <alt_ucosii_simple_error_handler+0x430>
    case OS_TASK_DEL_IDLE:
      fprintf(stderr, "Attempted to delete the IDLE task\n");
     8a4:	d0a00d17 	ldw	r2,-32716(gp)
     8a8:	10800317 	ldw	r2,12(r2)
     8ac:	100f883a 	mov	r7,r2
     8b0:	01800884 	movi	r6,34
     8b4:	01400044 	movi	r5,1
     8b8:	010000b4 	movhi	r4,2
     8bc:	21068404 	addi	r4,r4,6672
     8c0:	00031800 	call	3180 <fwrite>
      break;
     8c4:	00002d06 	br	97c <alt_ucosii_simple_error_handler+0x430>
    case OS_TASK_DEL_ERR:
      fprintf(stderr, "Attempted to delete a task that does not exist\n");
     8c8:	d0a00d17 	ldw	r2,-32716(gp)
     8cc:	10800317 	ldw	r2,12(r2)
     8d0:	100f883a 	mov	r7,r2
     8d4:	01800bc4 	movi	r6,47
     8d8:	01400044 	movi	r5,1
     8dc:	010000b4 	movhi	r4,2
     8e0:	21068d04 	addi	r4,r4,6708
     8e4:	00031800 	call	3180 <fwrite>
      break;
     8e8:	00002406 	br	97c <alt_ucosii_simple_error_handler+0x430>
    case OS_TASK_DEL_ISR:
      fprintf(stderr, "Attempted to delete a task from an ISR\n");
     8ec:	d0a00d17 	ldw	r2,-32716(gp)
     8f0:	10800317 	ldw	r2,12(r2)
     8f4:	100f883a 	mov	r7,r2
     8f8:	018009c4 	movi	r6,39
     8fc:	01400044 	movi	r5,1
     900:	010000b4 	movhi	r4,2
     904:	21069904 	addi	r4,r4,6756
     908:	00031800 	call	3180 <fwrite>
      break;
     90c:	00001b06 	br	97c <alt_ucosii_simple_error_handler+0x430>
    case OS_Q_FULL:
      fprintf(stderr, "Attempted to post to a full message queue\n");
     910:	d0a00d17 	ldw	r2,-32716(gp)
     914:	10800317 	ldw	r2,12(r2)
     918:	100f883a 	mov	r7,r2
     91c:	01800a84 	movi	r6,42
     920:	01400044 	movi	r5,1
     924:	010000b4 	movhi	r4,2
     928:	2106a304 	addi	r4,r4,6796
     92c:	00031800 	call	3180 <fwrite>
      break;
     930:	00001206 	br	97c <alt_ucosii_simple_error_handler+0x430>
    case OS_ERR_NOT_MUTEX_OWNER:
      fprintf(stderr, "Attempted to post a mutex that is not owned by the task\n");
     934:	d0a00d17 	ldw	r2,-32716(gp)
     938:	10800317 	ldw	r2,12(r2)
     93c:	100f883a 	mov	r7,r2
     940:	01800e04 	movi	r6,56
     944:	01400044 	movi	r5,1
     948:	010000b4 	movhi	r4,2
     94c:	2106ae04 	addi	r4,r4,6840
     950:	00031800 	call	3180 <fwrite>
      break;
     954:	00000906 	br	97c <alt_ucosii_simple_error_handler+0x430>
    default:
      fprintf(stderr, "Unknown Error\n");
     958:	d0a00d17 	ldw	r2,-32716(gp)
     95c:	10800317 	ldw	r2,12(r2)
     960:	100f883a 	mov	r7,r2
     964:	01800384 	movi	r6,14
     968:	01400044 	movi	r5,1
     96c:	010000b4 	movhi	r4,2
     970:	2106bd04 	addi	r4,r4,6900
     974:	00031800 	call	3180 <fwrite>
      break;
     978:	0001883a 	nop
  }
  fprintf(stderr, "Program is terminating.\n");
     97c:	d0a00d17 	ldw	r2,-32716(gp)
     980:	10800317 	ldw	r2,12(r2)
     984:	100f883a 	mov	r7,r2
     988:	01800604 	movi	r6,24
     98c:	01400044 	movi	r5,1
     990:	010000b4 	movhi	r4,2
     994:	2106c104 	addi	r4,r4,6916
     998:	00031800 	call	3180 <fwrite>
  exit(0);
     99c:	0009883a 	mov	r4,zero
     9a0:	00030300 	call	3030 <exit>

000009a4 <Init_App>:



// inicializacion de la aplicacion
void Init_App(void)
{
     9a4:	defffd04 	addi	sp,sp,-12
     9a8:	dfc00215 	stw	ra,8(sp)
     9ac:	df000115 	stw	fp,4(sp)
     9b0:	df000104 	addi	fp,sp,4
	borra_lineas_pantalla(1,32);
     9b4:	01400804 	movi	r5,32
     9b8:	01000044 	movi	r4,1
     9bc:	00004000 	call	400 <borra_lineas_pantalla>

//	char texto_up[100] = "Comunicaciones de RTOS sobre MTL - CHS";


//Crea el texto en la pantalla
	MTL_text (2, 0, texto_up);		// primera linea
     9c0:	018000b4 	movhi	r6,2
     9c4:	3189c004 	addi	r6,r6,9984
     9c8:	000b883a 	mov	r5,zero
     9cc:	01000084 	movi	r4,2
     9d0:	00003740 	call	374 <MTL_text>

//Pintar en la pantalla cuadros
	MTL_box (0, 0, 400, 240, 0x1111);	 	//Pinta de azul toda la pantalla
     9d4:	00844444 	movi	r2,4369
     9d8:	d8800015 	stw	r2,0(sp)
     9dc:	01c03c04 	movi	r7,240
     9e0:	01806404 	movi	r6,400
     9e4:	000b883a 	mov	r5,zero
     9e8:	0009883a 	mov	r4,zero
     9ec:	00002c80 	call	2c8 <MTL_box>
	MTL_box (0, 0, 400, 8, 0x01100);  		//Franja superior
     9f0:	00844004 	movi	r2,4352
     9f4:	d8800015 	stw	r2,0(sp)
     9f8:	01c00204 	movi	r7,8
     9fc:	01806404 	movi	r6,400
     a00:	000b883a 	mov	r5,zero
     a04:	0009883a 	mov	r4,zero
     a08:	00002c80 	call	2c8 <MTL_box>
//	MTL_box (155, 30, 395, 235, 0x0100);	//cuadro para mensajes

// Texto LCD
	LCD_cursor (0,0);
     a0c:	000b883a 	mov	r5,zero
     a10:	0009883a 	mov	r4,zero
     a14:	0000bc00 	call	bc0 <LCD_cursor>
	LCD_text (text_top_row);
     a18:	010000b4 	movhi	r4,2
     a1c:	2109da04 	addi	r4,r4,10088
     a20:	0000c200 	call	c20 <LCD_text>
	LCD_cursor (0,1);
     a24:	01400044 	movi	r5,1
     a28:	0009883a 	mov	r4,zero
     a2c:	0000bc00 	call	bc0 <LCD_cursor>
	LCD_text (text_bottom_row);
     a30:	010000b4 	movhi	r4,2
     a34:	2109df04 	addi	r4,r4,10108
     a38:	0000c200 	call	c20 <LCD_text>
	LCD_cursor_off();
     a3c:	0000c800 	call	c80 <LCD_cursor_off>

// Interrupcion pulsador para los pulsadores
	*(KEY_ptr + 2) = 0xE;
     a40:	d0a00717 	ldw	r2,-32740(gp)
     a44:	10800204 	addi	r2,r2,8
     a48:	00c00384 	movi	r3,14
     a4c:	10c00015 	stw	r3,0(r2)
	*(KEY_ptr + 3) = 0;
     a50:	d0a00717 	ldw	r2,-32740(gp)
     a54:	10800304 	addi	r2,r2,12
     a58:	10000015 	stw	zero,0(r2)
	alt_irq_register(PUSHBUTTONS_IRQ, NULL, pushbutton_isr);
     a5c:	01800034 	movhi	r6,0
     a60:	3182a304 	addi	r6,r6,2700
     a64:	000b883a 	mov	r5,zero
     a68:	01000044 	movi	r4,1
     a6c:	00135540 	call	13554 <alt_irq_register>

// LEDGs apagados
	ledg_OFF_All();
     a70:	0000e000 	call	e00 <ledg_OFF_All>
}
     a74:	0001883a 	nop
     a78:	e037883a 	mov	sp,fp
     a7c:	dfc00117 	ldw	ra,4(sp)
     a80:	df000017 	ldw	fp,0(sp)
     a84:	dec00204 	addi	sp,sp,8
     a88:	f800283a 	ret

00000a8c <pushbutton_isr>:
#include "..\inc\isr.h"

/**
 * Subrutina de manejo de interrupcion por pulsador incrustada en uCOS
 */
void pushbutton_isr() {
     a8c:	defff504 	addi	sp,sp,-44
     a90:	dfc00a15 	stw	ra,40(sp)
     a94:	df000915 	stw	fp,36(sp)
     a98:	df000904 	addi	fp,sp,36
OSIntEnter();
     a9c:	00149c40 	call	149c4 <OSIntEnter>
	int KEY_value, SW_value;
	static int num_int=0; 			// static permite que el valor no se inicia a 0 cada vez que se entra en la int
	char vector[27];

	KEY_value = *(KEY_ptr + 3);		// Leemos registro de pulsadores
     aa0:	d0a00717 	ldw	r2,-32740(gp)
     aa4:	10800317 	ldw	r2,12(r2)
     aa8:	e0bff715 	stw	r2,-36(fp)
	SW_value = *(SW_switch_ptr);	// Leemos registro de Switches
     aac:	d0a00817 	ldw	r2,-32736(gp)
     ab0:	10800017 	ldw	r2,0(r2)
     ab4:	e0bff815 	stw	r2,-32(fp)
	SW_value = SW_value & 1;
     ab8:	e0bff817 	ldw	r2,-32(fp)
     abc:	1080004c 	andi	r2,r2,1
     ac0:	e0bff815 	stw	r2,-32(fp)

	*(KEY_ptr + 3) = 0;				// Borrar la interrupcion
     ac4:	d0a00717 	ldw	r2,-32740(gp)
     ac8:	10800304 	addi	r2,r2,12
     acc:	10000015 	stw	zero,0(r2)

	if (KEY_value == 0x2) {			// Texto de Atencion Interrupcion y contador de veces
     ad0:	e0bff717 	ldw	r2,-36(fp)
     ad4:	10800098 	cmpnei	r2,r2,2
     ad8:	1000321e 	bne	r2,zero,ba4 <pushbutton_isr+0x118>
		borra_lineas_pantalla(2,3);
     adc:	014000c4 	movi	r5,3
     ae0:	01000084 	movi	r4,2
     ae4:	00004000 	call	400 <borra_lineas_pantalla>
		if (num_int<100)
     ae8:	d0a84417 	ldw	r2,-24304(gp)
     aec:	10801908 	cmpgei	r2,r2,100
     af0:	1000171e 	bne	r2,zero,b50 <pushbutton_isr+0xc4>
			{
			++num_int;
     af4:	d0a84417 	ldw	r2,-24304(gp)
     af8:	10800044 	addi	r2,r2,1
     afc:	d0a84415 	stw	r2,-24304(gp)
			sprintf(vector,"Interrupcion Activada= %02u",num_int);
     b00:	d0e84417 	ldw	r3,-24304(gp)
     b04:	e0bff904 	addi	r2,fp,-28
     b08:	180d883a 	mov	r6,r3
     b0c:	014000b4 	movhi	r5,2
     b10:	2946c804 	addi	r5,r5,6944
     b14:	1009883a 	mov	r4,r2
     b18:	00035bc0 	call	35bc <sprintf>
			MTL_text (21,2, vector);
     b1c:	e0bff904 	addi	r2,fp,-28
     b20:	100d883a 	mov	r6,r2
     b24:	01400084 	movi	r5,2
     b28:	01000544 	movi	r4,21
     b2c:	00003740 	call	374 <MTL_text>
#ifdef PRINT
			printf("numero de interrupcion = %02u\n",num_int);
     b30:	d0a84417 	ldw	r2,-24304(gp)
     b34:	100b883a 	mov	r5,r2
     b38:	010000b4 	movhi	r4,2
     b3c:	2106cf04 	addi	r4,r4,6972
     b40:	00034540 	call	3454 <printf>
#endif
			linea=3;
     b44:	008000c4 	movi	r2,3
     b48:	d0a00015 	stw	r2,-32768(gp)
     b4c:	00001406 	br	ba0 <pushbutton_isr+0x114>
			}
		else
			{
			num_int=0;
     b50:	d0284415 	stw	zero,-24304(gp)
			sprintf(vector,"Interrupcion LIMITE= %02u",num_int);
     b54:	d0e84417 	ldw	r3,-24304(gp)
     b58:	e0bff904 	addi	r2,fp,-28
     b5c:	180d883a 	mov	r6,r3
     b60:	014000b4 	movhi	r5,2
     b64:	2946d704 	addi	r5,r5,7004
     b68:	1009883a 	mov	r4,r2
     b6c:	00035bc0 	call	35bc <sprintf>
			MTL_text (21,2, vector);
     b70:	e0bff904 	addi	r2,fp,-28
     b74:	100d883a 	mov	r6,r2
     b78:	01400084 	movi	r5,2
     b7c:	01000544 	movi	r4,21
     b80:	00003740 	call	374 <MTL_text>
#ifdef PRINT
			printf("ALCANZADO LIMITE DE INTERRUPCIONES = %02u\n",num_int);
     b84:	d0a84417 	ldw	r2,-24304(gp)
     b88:	100b883a 	mov	r5,r2
     b8c:	010000b4 	movhi	r4,2
     b90:	2106de04 	addi	r4,r4,7032
     b94:	00034540 	call	3454 <printf>
#endif
			linea=3;
     b98:	008000c4 	movi	r2,3
     b9c:	d0a00015 	stw	r2,-32768(gp)
			}

	KEY_value=0;
     ba0:	e03ff715 	stw	zero,-36(fp)
	}
OSIntExit();
     ba4:	0014a100 	call	14a10 <OSIntExit>
}
     ba8:	0001883a 	nop
     bac:	e037883a 	mov	sp,fp
     bb0:	dfc00117 	ldw	ra,4(sp)
     bb4:	df000017 	ldw	fp,0(sp)
     bb8:	dec00204 	addi	sp,sp,8
     bbc:	f800283a 	ret

00000bc0 <LCD_cursor>:

/**
 * Subrutina para mover Cursor del LCD en DE2-115
 */
void LCD_cursor (int x, int y)
{
     bc0:	defffc04 	addi	sp,sp,-16
     bc4:	df000315 	stw	fp,12(sp)
     bc8:	df000304 	addi	fp,sp,12
     bcc:	e13ffe15 	stw	r4,-8(fp)
     bd0:	e17fff15 	stw	r5,-4(fp)
//	volatile char * LCD_display_ptr = (char *) CHAR_LCD_BASE;
	char instruccion;
	instruccion =x;
     bd4:	e0bffe17 	ldw	r2,-8(fp)
     bd8:	e0bffd05 	stb	r2,-12(fp)
	if (y!=0)instruccion |= 0x40;
     bdc:	e0bfff17 	ldw	r2,-4(fp)
     be0:	10000326 	beq	r2,zero,bf0 <LCD_cursor+0x30>
     be4:	e0bffd03 	ldbu	r2,-12(fp)
     be8:	10801014 	ori	r2,r2,64
     bec:	e0bffd05 	stb	r2,-12(fp)
	instruccion |= 0x80;
     bf0:	e0fffd03 	ldbu	r3,-12(fp)
     bf4:	00bfe004 	movi	r2,-128
     bf8:	1884b03a 	or	r2,r3,r2
     bfc:	e0bffd05 	stb	r2,-12(fp)
	*(LCD_display_ptr)=instruccion;
     c00:	d0a00917 	ldw	r2,-32732(gp)
     c04:	e0fffd03 	ldbu	r3,-12(fp)
     c08:	10c00005 	stb	r3,0(r2)
}
     c0c:	0001883a 	nop
     c10:	e037883a 	mov	sp,fp
     c14:	df000017 	ldw	fp,0(sp)
     c18:	dec00104 	addi	sp,sp,4
     c1c:	f800283a 	ret

00000c20 <LCD_text>:
/**
 * Subrutina para enviar cadena texto a LCD
 */

void LCD_text (char *text_ptr)
{
     c20:	defffe04 	addi	sp,sp,-8
     c24:	df000115 	stw	fp,4(sp)
     c28:	df000104 	addi	fp,sp,4
     c2c:	e13fff15 	stw	r4,-4(fp)
//	volatile char *LCD_display_ptr =(char *)CHAR_LCD_BASE;
	while (*(text_ptr))
     c30:	00000806 	br	c54 <LCD_text+0x34>
	{
		*(LCD_display_ptr+1)=*(text_ptr);
     c34:	d0a00917 	ldw	r2,-32732(gp)
     c38:	10800044 	addi	r2,r2,1
     c3c:	e0ffff17 	ldw	r3,-4(fp)
     c40:	18c00003 	ldbu	r3,0(r3)
     c44:	10c00005 	stb	r3,0(r2)
		++text_ptr;
     c48:	e0bfff17 	ldw	r2,-4(fp)
     c4c:	10800044 	addi	r2,r2,1
     c50:	e0bfff15 	stw	r2,-4(fp)
 */

void LCD_text (char *text_ptr)
{
//	volatile char *LCD_display_ptr =(char *)CHAR_LCD_BASE;
	while (*(text_ptr))
     c54:	e0bfff17 	ldw	r2,-4(fp)
     c58:	10800003 	ldbu	r2,0(r2)
     c5c:	10803fcc 	andi	r2,r2,255
     c60:	1080201c 	xori	r2,r2,128
     c64:	10bfe004 	addi	r2,r2,-128
     c68:	103ff21e 	bne	r2,zero,c34 <__alt_mem_onchip_memory+0xf7800c34>
	{
		*(LCD_display_ptr+1)=*(text_ptr);
		++text_ptr;
	}
}
     c6c:	0001883a 	nop
     c70:	e037883a 	mov	sp,fp
     c74:	df000017 	ldw	fp,0(sp)
     c78:	dec00104 	addi	sp,sp,4
     c7c:	f800283a 	ret

00000c80 <LCD_cursor_off>:
/**
 * Subrutina para apagar el cursor del LCD
 */

void LCD_cursor_off (void)
{
     c80:	deffff04 	addi	sp,sp,-4
     c84:	df000015 	stw	fp,0(sp)
     c88:	d839883a 	mov	fp,sp
//	volatile char *LCD_display_ptr =(char *)CHAR_LCD_BASE;
	*(LCD_display_ptr)=0x0C;
     c8c:	d0a00917 	ldw	r2,-32732(gp)
     c90:	00c00304 	movi	r3,12
     c94:	10c00005 	stb	r3,0(r2)
}
     c98:	0001883a 	nop
     c9c:	e037883a 	mov	sp,fp
     ca0:	df000017 	ldw	fp,0(sp)
     ca4:	dec00104 	addi	sp,sp,4
     ca8:	f800283a 	ret

00000cac <ledg_ON>:
/*****************************************************************
 *                   FUNCIONES DE MANEJO DE LEDS
 ****************************************************************/

int ledg_ON (volatile int * ptr_led, int i)
{
     cac:	defffd04 	addi	sp,sp,-12
     cb0:	df000215 	stw	fp,8(sp)
     cb4:	df000204 	addi	fp,sp,8
     cb8:	e13ffe15 	stw	r4,-8(fp)
     cbc:	e17fff15 	stw	r5,-4(fp)
	if ((i<0) & (i>8))
     cc0:	e0bfff17 	ldw	r2,-4(fp)
     cc4:	1004d7fa 	srli	r2,r2,31
     cc8:	1007883a 	mov	r3,r2
     ccc:	e0bfff17 	ldw	r2,-4(fp)
     cd0:	10800248 	cmpgei	r2,r2,9
     cd4:	1884703a 	and	r2,r3,r2
     cd8:	10803fcc 	andi	r2,r2,255
     cdc:	10000226 	beq	r2,zero,ce8 <ledg_ON+0x3c>
	{
		return 0;
     ce0:	0005883a 	mov	r2,zero
     ce4:	00000906 	br	d0c <ledg_ON+0x60>
	}
	else
	{
		*(ptr_led) |= (0x00 | (1 << i));	//switch on LED-i
     ce8:	e0bffe17 	ldw	r2,-8(fp)
     cec:	10c00017 	ldw	r3,0(r2)
     cf0:	01000044 	movi	r4,1
     cf4:	e0bfff17 	ldw	r2,-4(fp)
     cf8:	2084983a 	sll	r2,r4,r2
     cfc:	1886b03a 	or	r3,r3,r2
     d00:	e0bffe17 	ldw	r2,-8(fp)
     d04:	10c00015 	stw	r3,0(r2)
		return 1;
     d08:	00800044 	movi	r2,1
	}
}
     d0c:	e037883a 	mov	sp,fp
     d10:	df000017 	ldw	fp,0(sp)
     d14:	dec00104 	addi	sp,sp,4
     d18:	f800283a 	ret

00000d1c <ledg_OFF>:

int ledg_OFF (volatile int * ptr_led, int i)
{
     d1c:	defffd04 	addi	sp,sp,-12
     d20:	df000215 	stw	fp,8(sp)
     d24:	df000204 	addi	fp,sp,8
     d28:	e13ffe15 	stw	r4,-8(fp)
     d2c:	e17fff15 	stw	r5,-4(fp)
	if (( i<0) & (i>8))
     d30:	e0bfff17 	ldw	r2,-4(fp)
     d34:	1004d7fa 	srli	r2,r2,31
     d38:	1007883a 	mov	r3,r2
     d3c:	e0bfff17 	ldw	r2,-4(fp)
     d40:	10800248 	cmpgei	r2,r2,9
     d44:	1884703a 	and	r2,r3,r2
     d48:	10803fcc 	andi	r2,r2,255
     d4c:	10000226 	beq	r2,zero,d58 <ledg_OFF+0x3c>
	{
		return 0;
     d50:	0005883a 	mov	r2,zero
     d54:	00000a06 	br	d80 <ledg_OFF+0x64>
	}
	else
	{
		*(ptr_led) &= (0xFF) ^ (1 << i);	//switch off LED-i
     d58:	e0bffe17 	ldw	r2,-8(fp)
     d5c:	10c00017 	ldw	r3,0(r2)
     d60:	01000044 	movi	r4,1
     d64:	e0bfff17 	ldw	r2,-4(fp)
     d68:	2084983a 	sll	r2,r4,r2
     d6c:	10803fdc 	xori	r2,r2,255
     d70:	1886703a 	and	r3,r3,r2
     d74:	e0bffe17 	ldw	r2,-8(fp)
     d78:	10c00015 	stw	r3,0(r2)

		return 1;
     d7c:	00800044 	movi	r2,1
	}
}
     d80:	e037883a 	mov	sp,fp
     d84:	df000017 	ldw	fp,0(sp)
     d88:	dec00104 	addi	sp,sp,4
     d8c:	f800283a 	ret

00000d90 <blinky_ledg>:

int blinky_ledg (volatile int * ptr_led, int i)
{
     d90:	defffd04 	addi	sp,sp,-12
     d94:	df000215 	stw	fp,8(sp)
     d98:	df000204 	addi	fp,sp,8
     d9c:	e13ffe15 	stw	r4,-8(fp)
     da0:	e17fff15 	stw	r5,-4(fp)

	if ((i<0) & (i>8))
     da4:	e0bfff17 	ldw	r2,-4(fp)
     da8:	1004d7fa 	srli	r2,r2,31
     dac:	1007883a 	mov	r3,r2
     db0:	e0bfff17 	ldw	r2,-4(fp)
     db4:	10800248 	cmpgei	r2,r2,9
     db8:	1884703a 	and	r2,r3,r2
     dbc:	10803fcc 	andi	r2,r2,255
     dc0:	10000226 	beq	r2,zero,dcc <blinky_ledg+0x3c>
		{
			return 0;
     dc4:	0005883a 	mov	r2,zero
     dc8:	00000906 	br	df0 <blinky_ledg+0x60>
		}
		else
		{
			*(ptr_led) ^= (0x00 | (1 << i)); //switch LED-i
     dcc:	e0bffe17 	ldw	r2,-8(fp)
     dd0:	10c00017 	ldw	r3,0(r2)
     dd4:	01000044 	movi	r4,1
     dd8:	e0bfff17 	ldw	r2,-4(fp)
     ddc:	2084983a 	sll	r2,r4,r2
     de0:	1886f03a 	xor	r3,r3,r2
     de4:	e0bffe17 	ldw	r2,-8(fp)
     de8:	10c00015 	stw	r3,0(r2)
			return 1;
     dec:	00800044 	movi	r2,1
		}
}
     df0:	e037883a 	mov	sp,fp
     df4:	df000017 	ldw	fp,0(sp)
     df8:	dec00104 	addi	sp,sp,4
     dfc:	f800283a 	ret

00000e00 <ledg_OFF_All>:

void ledg_OFF_All ()
{
     e00:	defffd04 	addi	sp,sp,-12
     e04:	dfc00215 	stw	ra,8(sp)
     e08:	df000115 	stw	fp,4(sp)
     e0c:	df000104 	addi	fp,sp,4
	int i;
	for (i=0; i<9; i++)
     e10:	e03fff15 	stw	zero,-4(fp)
     e14:	00000706 	br	e34 <ledg_OFF_All+0x34>
	{
	ledg_OFF(green_LED_ptr,i);
     e18:	d0a00417 	ldw	r2,-32752(gp)
     e1c:	e17fff17 	ldw	r5,-4(fp)
     e20:	1009883a 	mov	r4,r2
     e24:	0000d1c0 	call	d1c <ledg_OFF>
}

void ledg_OFF_All ()
{
	int i;
	for (i=0; i<9; i++)
     e28:	e0bfff17 	ldw	r2,-4(fp)
     e2c:	10800044 	addi	r2,r2,1
     e30:	e0bfff15 	stw	r2,-4(fp)
     e34:	e0bfff17 	ldw	r2,-4(fp)
     e38:	10800250 	cmplti	r2,r2,9
     e3c:	103ff61e 	bne	r2,zero,e18 <__alt_mem_onchip_memory+0xf7800e18>
	{
	ledg_OFF(green_LED_ptr,i);
	}
}
     e40:	0001883a 	nop
     e44:	e037883a 	mov	sp,fp
     e48:	dfc00117 	ldw	ra,4(sp)
     e4c:	df000017 	ldw	fp,0(sp)
     e50:	dec00204 	addi	sp,sp,8
     e54:	f800283a 	ret

00000e58 <ledg_ON_All>:


void ledg_ON_All ()
{
     e58:	defffd04 	addi	sp,sp,-12
     e5c:	dfc00215 	stw	ra,8(sp)
     e60:	df000115 	stw	fp,4(sp)
     e64:	df000104 	addi	fp,sp,4
	int i;
	for (i=0; i<9; i++)
     e68:	e03fff15 	stw	zero,-4(fp)
     e6c:	00000706 	br	e8c <ledg_ON_All+0x34>
	{
	ledg_ON(green_LED_ptr,i);
     e70:	d0a00417 	ldw	r2,-32752(gp)
     e74:	e17fff17 	ldw	r5,-4(fp)
     e78:	1009883a 	mov	r4,r2
     e7c:	0000cac0 	call	cac <ledg_ON>


void ledg_ON_All ()
{
	int i;
	for (i=0; i<9; i++)
     e80:	e0bfff17 	ldw	r2,-4(fp)
     e84:	10800044 	addi	r2,r2,1
     e88:	e0bfff15 	stw	r2,-4(fp)
     e8c:	e0bfff17 	ldw	r2,-4(fp)
     e90:	10800250 	cmplti	r2,r2,9
     e94:	103ff61e 	bne	r2,zero,e70 <__alt_mem_onchip_memory+0xf7800e70>
	{
	ledg_ON(green_LED_ptr,i);
	}
}
     e98:	0001883a 	nop
     e9c:	e037883a 	mov	sp,fp
     ea0:	dfc00117 	ldw	ra,4(sp)
     ea4:	df000017 	ldw	fp,0(sp)
     ea8:	dec00204 	addi	sp,sp,8
     eac:	f800283a 	ret

00000eb0 <print_status_task>:
char sem_owner_task_name[20];



void print_status_task(void* pdata)
	{
     eb0:	deff5704 	addi	sp,sp,-676
     eb4:	dfc0a815 	stw	ra,672(sp)
     eb8:	df00a715 	stw	fp,668(sp)
     ebc:	df00a704 	addi	fp,sp,668
     ec0:	e13fff15 	stw	r4,-4(fp)

		int linea_sent,linea_receive1,linea_receive2,linea_sem_own,linea_getsem1,linea_getsem2;
		int linea_getsem3, linea_getsem4,linea_querysem;
		int columna=2;
     ec4:	00800084 	movi	r2,2
     ec8:	e0bf5915 	stw	r2,-668(fp)
		int linea=3;
     ecc:	008000c4 	movi	r2,3
     ed0:	e0bf5a15 	stw	r2,-664(fp)
		char message[4];
		char message2[10];
		char blank [60]="                                                ";
     ed4:	008000b4 	movhi	r2,2
     ed8:	1086ef04 	addi	r2,r2,7100
     edc:	e0ff6784 	addi	r3,fp,-610
     ee0:	1009883a 	mov	r4,r2
     ee4:	00800c44 	movi	r2,49
     ee8:	100d883a 	mov	r6,r2
     eec:	200b883a 	mov	r5,r4
     ef0:	1809883a 	mov	r4,r3
     ef4:	00031b40 	call	31b4 <memcpy>
     ef8:	e03f73c5 	stb	zero,-561(fp)
     efc:	e03f7405 	stb	zero,-560(fp)
     f00:	e03f7445 	stb	zero,-559(fp)
     f04:	e03f7485 	stb	zero,-558(fp)
     f08:	e03f74c5 	stb	zero,-557(fp)
     f0c:	e03f7505 	stb	zero,-556(fp)
     f10:	e03f7545 	stb	zero,-555(fp)
     f14:	e03f7585 	stb	zero,-554(fp)
     f18:	e03f75c5 	stb	zero,-553(fp)
     f1c:	e03f7605 	stb	zero,-552(fp)
     f20:	e03f7645 	stb	zero,-551(fp)
		char linea1[60]= "***********************************************";
     f24:	008000b4 	movhi	r2,2
     f28:	1086fe04 	addi	r2,r2,7160
     f2c:	e0ff7684 	addi	r3,fp,-550
     f30:	1009883a 	mov	r4,r2
     f34:	00800c04 	movi	r2,48
     f38:	100d883a 	mov	r6,r2
     f3c:	200b883a 	mov	r5,r4
     f40:	1809883a 	mov	r4,r3
     f44:	00031b40 	call	31b4 <memcpy>
     f48:	e03f828d 	sth	zero,-502(fp)
     f4c:	e03f830d 	sth	zero,-500(fp)
     f50:	e03f838d 	sth	zero,-498(fp)
     f54:	e03f840d 	sth	zero,-496(fp)
     f58:	e03f848d 	sth	zero,-494(fp)
     f5c:	e03f850d 	sth	zero,-492(fp)
		char linea2[60]= "Hello From uCOS-II. We like this RTOS!";
     f60:	008000b4 	movhi	r2,2
     f64:	10870d04 	addi	r2,r2,7220
     f68:	e0ff8584 	addi	r3,fp,-490
     f6c:	1009883a 	mov	r4,r2
     f70:	008009c4 	movi	r2,39
     f74:	100d883a 	mov	r6,r2
     f78:	200b883a 	mov	r5,r4
     f7c:	1809883a 	mov	r4,r3
     f80:	00031b40 	call	31b4 <memcpy>
     f84:	e0bf8f44 	addi	r2,fp,-451
     f88:	00c00544 	movi	r3,21
     f8c:	180d883a 	mov	r6,r3
     f90:	000b883a 	mov	r5,zero
     f94:	1009883a 	mov	r4,r2
     f98:	00032fc0 	call	32fc <memset>
		char linea3[50]= "Number of messages sent by send_task:";
     f9c:	008000b4 	movhi	r2,2
     fa0:	10871c04 	addi	r2,r2,7280
     fa4:	e0ff9484 	addi	r3,fp,-430
     fa8:	1009883a 	mov	r4,r2
     fac:	00800984 	movi	r2,38
     fb0:	100d883a 	mov	r6,r2
     fb4:	200b883a 	mov	r5,r4
     fb8:	1809883a 	mov	r4,r3
     fbc:	00031b40 	call	31b4 <memcpy>
     fc0:	e03f9e0d 	sth	zero,-392(fp)
     fc4:	e03f9e8d 	sth	zero,-390(fp)
     fc8:	e03f9f0d 	sth	zero,-388(fp)
     fcc:	e03f9f8d 	sth	zero,-386(fp)
     fd0:	e03fa00d 	sth	zero,-384(fp)
     fd4:	e03fa08d 	sth	zero,-382(fp)
		char linea4[50]= "Messages received by receive_task1:";
     fd8:	009cdcf4 	movhi	r2,29555
     fdc:	10995344 	addi	r2,r2,25933
     fe0:	e0bfa115 	stw	r2,-380(fp)
     fe4:	009cd974 	movhi	r2,29541
     fe8:	1099d844 	addi	r2,r2,26465
     fec:	e0bfa215 	stw	r2,-376(fp)
     ff0:	0098d974 	movhi	r2,25445
     ff4:	109c8804 	addi	r2,r2,29216
     ff8:	e0bfa315 	stw	r2,-372(fp)
     ffc:	00995db4 	movhi	r2,25974
    1000:	109a5944 	addi	r2,r2,26981
    1004:	e0bfa415 	stw	r2,-368(fp)
    1008:	009e58b4 	movhi	r2,31074
    100c:	10881904 	addi	r2,r2,8292
    1010:	e0bfa515 	stw	r2,-364(fp)
    1014:	0098d974 	movhi	r2,25445
    1018:	109c8804 	addi	r2,r2,29216
    101c:	e0bfa615 	stw	r2,-360(fp)
    1020:	00995db4 	movhi	r2,25974
    1024:	109a5944 	addi	r2,r2,26981
    1028:	e0bfa715 	stw	r2,-356(fp)
    102c:	009cd874 	movhi	r2,29537
    1030:	109d17c4 	addi	r2,r2,29791
    1034:	e0bfa815 	stw	r2,-352(fp)
    1038:	00800eb4 	movhi	r2,58
    103c:	108c5ac4 	addi	r2,r2,12651
    1040:	e0bfa915 	stw	r2,-348(fp)
    1044:	e03faa15 	stw	zero,-344(fp)
    1048:	e03fab15 	stw	zero,-340(fp)
    104c:	e03fac15 	stw	zero,-336(fp)
    1050:	e03fad0d 	sth	zero,-332(fp)
		char linea5[50]= "Messages received by receive_task2:";
    1054:	008000b4 	movhi	r2,2
    1058:	10872904 	addi	r2,r2,7332
    105c:	e0ffad84 	addi	r3,fp,-330
    1060:	1009883a 	mov	r4,r2
    1064:	00800904 	movi	r2,36
    1068:	100d883a 	mov	r6,r2
    106c:	200b883a 	mov	r5,r4
    1070:	1809883a 	mov	r4,r3
    1074:	00031b40 	call	31b4 <memcpy>
    1078:	e03fb68d 	sth	zero,-294(fp)
    107c:	e03fb70d 	sth	zero,-292(fp)
    1080:	e03fb78d 	sth	zero,-290(fp)
    1084:	e03fb80d 	sth	zero,-288(fp)
    1088:	e03fb88d 	sth	zero,-286(fp)
    108c:	e03fb90d 	sth	zero,-284(fp)
    1090:	e03fb98d 	sth	zero,-282(fp)
		char linea6[23]= "Semaphore is owned by:";
    1094:	00985b74 	movhi	r2,24941
    1098:	109954c4 	addi	r2,r2,25939
    109c:	e0bfba15 	stw	r2,-280(fp)
    10a0:	009c9bf4 	movhi	r2,29295
    10a4:	109a1c04 	addi	r2,r2,26736
    10a8:	e0bfbb15 	stw	r2,-276(fp)
    10ac:	009cda74 	movhi	r2,29545
    10b0:	10881944 	addi	r2,r2,8293
    10b4:	e0bfbc15 	stw	r2,-272(fp)
    10b8:	009b9df4 	movhi	r2,28279
    10bc:	109bc804 	addi	r2,r2,28448
    10c0:	e0bfbd15 	stw	r2,-268(fp)
    10c4:	00988834 	movhi	r2,25120
    10c8:	10991944 	addi	r2,r2,25701
    10cc:	e0bfbe15 	stw	r2,-264(fp)
    10d0:	008e9e44 	movi	r2,14969
    10d4:	e0bfbf0d 	sth	r2,-260(fp)
    10d8:	e03fbf85 	stb	zero,-258(fp)
		char linea7[50]= "Times getsem_task1 acquired semaphore:";
    10dc:	008000b4 	movhi	r2,2
    10e0:	10873604 	addi	r2,r2,7384
    10e4:	e0ffbfc4 	addi	r3,fp,-257
    10e8:	1009883a 	mov	r4,r2
    10ec:	008009c4 	movi	r2,39
    10f0:	100d883a 	mov	r6,r2
    10f4:	200b883a 	mov	r5,r4
    10f8:	1809883a 	mov	r4,r3
    10fc:	00031b40 	call	31b4 <memcpy>
    1100:	e03fc985 	stb	zero,-218(fp)
    1104:	e03fc9c5 	stb	zero,-217(fp)
    1108:	e03fca05 	stb	zero,-216(fp)
    110c:	e03fca45 	stb	zero,-215(fp)
    1110:	e03fca85 	stb	zero,-214(fp)
    1114:	e03fcac5 	stb	zero,-213(fp)
    1118:	e03fcb05 	stb	zero,-212(fp)
    111c:	e03fcb45 	stb	zero,-211(fp)
    1120:	e03fcb85 	stb	zero,-210(fp)
    1124:	e03fcbc5 	stb	zero,-209(fp)
    1128:	e03fcc05 	stb	zero,-208(fp)
		char linea8[50]= "Times getsem_task2 acquired semaphore:";
    112c:	008000b4 	movhi	r2,2
    1130:	10874304 	addi	r2,r2,7436
    1134:	e0ffcc44 	addi	r3,fp,-207
    1138:	1009883a 	mov	r4,r2
    113c:	008009c4 	movi	r2,39
    1140:	100d883a 	mov	r6,r2
    1144:	200b883a 	mov	r5,r4
    1148:	1809883a 	mov	r4,r3
    114c:	00031b40 	call	31b4 <memcpy>
    1150:	e03fd605 	stb	zero,-168(fp)
    1154:	e03fd645 	stb	zero,-167(fp)
    1158:	e03fd685 	stb	zero,-166(fp)
    115c:	e03fd6c5 	stb	zero,-165(fp)
    1160:	e03fd705 	stb	zero,-164(fp)
    1164:	e03fd745 	stb	zero,-163(fp)
    1168:	e03fd785 	stb	zero,-162(fp)
    116c:	e03fd7c5 	stb	zero,-161(fp)
    1170:	e03fd805 	stb	zero,-160(fp)
    1174:	e03fd845 	stb	zero,-159(fp)
    1178:	e03fd885 	stb	zero,-158(fp)
		char linea9[50]= "Times getsem_task3 acquired semaphore:";
    117c:	008000b4 	movhi	r2,2
    1180:	10875004 	addi	r2,r2,7488
    1184:	e0ffd8c4 	addi	r3,fp,-157
    1188:	1009883a 	mov	r4,r2
    118c:	008009c4 	movi	r2,39
    1190:	100d883a 	mov	r6,r2
    1194:	200b883a 	mov	r5,r4
    1198:	1809883a 	mov	r4,r3
    119c:	00031b40 	call	31b4 <memcpy>
    11a0:	e03fe285 	stb	zero,-118(fp)
    11a4:	e03fe2c5 	stb	zero,-117(fp)
    11a8:	e03fe305 	stb	zero,-116(fp)
    11ac:	e03fe345 	stb	zero,-115(fp)
    11b0:	e03fe385 	stb	zero,-114(fp)
    11b4:	e03fe3c5 	stb	zero,-113(fp)
    11b8:	e03fe405 	stb	zero,-112(fp)
    11bc:	e03fe445 	stb	zero,-111(fp)
    11c0:	e03fe485 	stb	zero,-110(fp)
    11c4:	e03fe4c5 	stb	zero,-109(fp)
    11c8:	e03fe505 	stb	zero,-108(fp)
		char linea10[50]= "Times getsem_task4 acquired semaphore:";
    11cc:	008000b4 	movhi	r2,2
    11d0:	10875d04 	addi	r2,r2,7540
    11d4:	e0ffe544 	addi	r3,fp,-107
    11d8:	1009883a 	mov	r4,r2
    11dc:	008009c4 	movi	r2,39
    11e0:	100d883a 	mov	r6,r2
    11e4:	200b883a 	mov	r5,r4
    11e8:	1809883a 	mov	r4,r3
    11ec:	00031b40 	call	31b4 <memcpy>
    11f0:	e03fef05 	stb	zero,-68(fp)
    11f4:	e03fef45 	stb	zero,-67(fp)
    11f8:	e03fef85 	stb	zero,-66(fp)
    11fc:	e03fefc5 	stb	zero,-65(fp)
    1200:	e03ff005 	stb	zero,-64(fp)
    1204:	e03ff045 	stb	zero,-63(fp)
    1208:	e03ff085 	stb	zero,-62(fp)
    120c:	e03ff0c5 	stb	zero,-61(fp)
    1210:	e03ff105 	stb	zero,-60(fp)
    1214:	e03ff145 	stb	zero,-59(fp)
    1218:	e03ff185 	stb	zero,-58(fp)
		char linea11[50]= "The task waiting Sem with highest Prio:";
    121c:	008000b4 	movhi	r2,2
    1220:	10876a04 	addi	r2,r2,7592
    1224:	e0fff1c4 	addi	r3,fp,-57
    1228:	1009883a 	mov	r4,r2
    122c:	00800a04 	movi	r2,40
    1230:	100d883a 	mov	r6,r2
    1234:	200b883a 	mov	r5,r4
    1238:	1809883a 	mov	r4,r3
    123c:	00031b40 	call	31b4 <memcpy>
    1240:	e03ffbc5 	stb	zero,-17(fp)
    1244:	e03ffc05 	stb	zero,-16(fp)
    1248:	e03ffc45 	stb	zero,-15(fp)
    124c:	e03ffc85 	stb	zero,-14(fp)
    1250:	e03ffcc5 	stb	zero,-13(fp)
    1254:	e03ffd05 	stb	zero,-12(fp)
    1258:	e03ffd45 	stb	zero,-11(fp)
    125c:	e03ffd85 	stb	zero,-10(fp)
    1260:	e03ffdc5 	stb	zero,-9(fp)
    1264:	e03ffe05 	stb	zero,-8(fp)
		borra_lineas_pantalla(3,30);
    1268:	01400784 	movi	r5,30
    126c:	010000c4 	movi	r4,3
    1270:	00004000 	call	400 <borra_lineas_pantalla>
		MTL_text (columna, linea++, linea1);
    1274:	e0bf5a17 	ldw	r2,-664(fp)
    1278:	10c00044 	addi	r3,r2,1
    127c:	e0ff5a15 	stw	r3,-664(fp)
    1280:	e0ff7684 	addi	r3,fp,-550
    1284:	180d883a 	mov	r6,r3
    1288:	100b883a 	mov	r5,r2
    128c:	e13f5917 	ldw	r4,-668(fp)
    1290:	00003740 	call	374 <MTL_text>
		MTL_text (columna, linea++, linea2);
    1294:	e0bf5a17 	ldw	r2,-664(fp)
    1298:	10c00044 	addi	r3,r2,1
    129c:	e0ff5a15 	stw	r3,-664(fp)
    12a0:	e0ff8584 	addi	r3,fp,-490
    12a4:	180d883a 	mov	r6,r3
    12a8:	100b883a 	mov	r5,r2
    12ac:	e13f5917 	ldw	r4,-668(fp)
    12b0:	00003740 	call	374 <MTL_text>
		MTL_text (columna, linea++, blank);linea_sent=linea;
    12b4:	e0bf5a17 	ldw	r2,-664(fp)
    12b8:	10c00044 	addi	r3,r2,1
    12bc:	e0ff5a15 	stw	r3,-664(fp)
    12c0:	e0ff6784 	addi	r3,fp,-610
    12c4:	180d883a 	mov	r6,r3
    12c8:	100b883a 	mov	r5,r2
    12cc:	e13f5917 	ldw	r4,-668(fp)
    12d0:	00003740 	call	374 <MTL_text>
    12d4:	e0bf5a17 	ldw	r2,-664(fp)
    12d8:	e0bf5b15 	stw	r2,-660(fp)
		MTL_text (columna, linea++, linea3);linea_receive1=linea;
    12dc:	e0bf5a17 	ldw	r2,-664(fp)
    12e0:	10c00044 	addi	r3,r2,1
    12e4:	e0ff5a15 	stw	r3,-664(fp)
    12e8:	e0ff9484 	addi	r3,fp,-430
    12ec:	180d883a 	mov	r6,r3
    12f0:	100b883a 	mov	r5,r2
    12f4:	e13f5917 	ldw	r4,-668(fp)
    12f8:	00003740 	call	374 <MTL_text>
    12fc:	e0bf5a17 	ldw	r2,-664(fp)
    1300:	e0bf5c15 	stw	r2,-656(fp)
		MTL_text (columna, linea++, linea4);linea_receive2=linea;
    1304:	e0bf5a17 	ldw	r2,-664(fp)
    1308:	10c00044 	addi	r3,r2,1
    130c:	e0ff5a15 	stw	r3,-664(fp)
    1310:	e0ffa104 	addi	r3,fp,-380
    1314:	180d883a 	mov	r6,r3
    1318:	100b883a 	mov	r5,r2
    131c:	e13f5917 	ldw	r4,-668(fp)
    1320:	00003740 	call	374 <MTL_text>
    1324:	e0bf5a17 	ldw	r2,-664(fp)
    1328:	e0bf5d15 	stw	r2,-652(fp)
		MTL_text (columna, linea++, linea5);
    132c:	e0bf5a17 	ldw	r2,-664(fp)
    1330:	10c00044 	addi	r3,r2,1
    1334:	e0ff5a15 	stw	r3,-664(fp)
    1338:	e0ffad84 	addi	r3,fp,-330
    133c:	180d883a 	mov	r6,r3
    1340:	100b883a 	mov	r5,r2
    1344:	e13f5917 	ldw	r4,-668(fp)
    1348:	00003740 	call	374 <MTL_text>
		MTL_text (columna, linea++, blank);linea_sem_own=linea;
    134c:	e0bf5a17 	ldw	r2,-664(fp)
    1350:	10c00044 	addi	r3,r2,1
    1354:	e0ff5a15 	stw	r3,-664(fp)
    1358:	e0ff6784 	addi	r3,fp,-610
    135c:	180d883a 	mov	r6,r3
    1360:	100b883a 	mov	r5,r2
    1364:	e13f5917 	ldw	r4,-668(fp)
    1368:	00003740 	call	374 <MTL_text>
    136c:	e0bf5a17 	ldw	r2,-664(fp)
    1370:	e0bf5e15 	stw	r2,-648(fp)
		MTL_text (columna, linea++, linea6);linea_getsem1=linea;
    1374:	e0bf5a17 	ldw	r2,-664(fp)
    1378:	10c00044 	addi	r3,r2,1
    137c:	e0ff5a15 	stw	r3,-664(fp)
    1380:	e0ffba04 	addi	r3,fp,-280
    1384:	180d883a 	mov	r6,r3
    1388:	100b883a 	mov	r5,r2
    138c:	e13f5917 	ldw	r4,-668(fp)
    1390:	00003740 	call	374 <MTL_text>
    1394:	e0bf5a17 	ldw	r2,-664(fp)
    1398:	e0bf5f15 	stw	r2,-644(fp)
		MTL_text (columna, linea++, linea7);linea_getsem2=linea;
    139c:	e0bf5a17 	ldw	r2,-664(fp)
    13a0:	10c00044 	addi	r3,r2,1
    13a4:	e0ff5a15 	stw	r3,-664(fp)
    13a8:	e0ffbfc4 	addi	r3,fp,-257
    13ac:	180d883a 	mov	r6,r3
    13b0:	100b883a 	mov	r5,r2
    13b4:	e13f5917 	ldw	r4,-668(fp)
    13b8:	00003740 	call	374 <MTL_text>
    13bc:	e0bf5a17 	ldw	r2,-664(fp)
    13c0:	e0bf6015 	stw	r2,-640(fp)
		MTL_text (columna, linea++, linea8);linea_getsem3=linea;
    13c4:	e0bf5a17 	ldw	r2,-664(fp)
    13c8:	10c00044 	addi	r3,r2,1
    13cc:	e0ff5a15 	stw	r3,-664(fp)
    13d0:	e0ffcc44 	addi	r3,fp,-207
    13d4:	180d883a 	mov	r6,r3
    13d8:	100b883a 	mov	r5,r2
    13dc:	e13f5917 	ldw	r4,-668(fp)
    13e0:	00003740 	call	374 <MTL_text>
    13e4:	e0bf5a17 	ldw	r2,-664(fp)
    13e8:	e0bf6115 	stw	r2,-636(fp)
		MTL_text (columna, linea++, linea9);linea_getsem4=linea;
    13ec:	e0bf5a17 	ldw	r2,-664(fp)
    13f0:	10c00044 	addi	r3,r2,1
    13f4:	e0ff5a15 	stw	r3,-664(fp)
    13f8:	e0ffd8c4 	addi	r3,fp,-157
    13fc:	180d883a 	mov	r6,r3
    1400:	100b883a 	mov	r5,r2
    1404:	e13f5917 	ldw	r4,-668(fp)
    1408:	00003740 	call	374 <MTL_text>
    140c:	e0bf5a17 	ldw	r2,-664(fp)
    1410:	e0bf6215 	stw	r2,-632(fp)
		MTL_text (columna, linea++, linea10);linea_querysem=linea;
    1414:	e0bf5a17 	ldw	r2,-664(fp)
    1418:	10c00044 	addi	r3,r2,1
    141c:	e0ff5a15 	stw	r3,-664(fp)
    1420:	e0ffe544 	addi	r3,fp,-107
    1424:	180d883a 	mov	r6,r3
    1428:	100b883a 	mov	r5,r2
    142c:	e13f5917 	ldw	r4,-668(fp)
    1430:	00003740 	call	374 <MTL_text>
    1434:	e0bf5a17 	ldw	r2,-664(fp)
    1438:	e0bf6315 	stw	r2,-628(fp)
		MTL_text (columna, linea++, linea11);
    143c:	e0bf5a17 	ldw	r2,-664(fp)
    1440:	10c00044 	addi	r3,r2,1
    1444:	e0ff5a15 	stw	r3,-664(fp)
    1448:	e0fff1c4 	addi	r3,fp,-57
    144c:	180d883a 	mov	r6,r3
    1450:	100b883a 	mov	r5,r2
    1454:	e13f5917 	ldw	r4,-668(fp)
    1458:	00003740 	call	374 <MTL_text>

	  while (1)
	  {
		  OSSchedLock();
    145c:	0014b080 	call	14b08 <OSSchedLock>
		  	 sprintf(message," %04lu",number_of_messages_sent);
    1460:	d0e84517 	ldw	r3,-24300(gp)
    1464:	e0bf6404 	addi	r2,fp,-624
    1468:	180d883a 	mov	r6,r3
    146c:	014000b4 	movhi	r5,2
    1470:	2946e904 	addi	r5,r5,7076
    1474:	1009883a 	mov	r4,r2
    1478:	00035bc0 	call	35bc <sprintf>
		  	 MTL_text (40, linea_sent, message);
    147c:	e0bf6404 	addi	r2,fp,-624
    1480:	100d883a 	mov	r6,r2
    1484:	e17f5b17 	ldw	r5,-660(fp)
    1488:	01000a04 	movi	r4,40
    148c:	00003740 	call	374 <MTL_text>
		  	 sprintf(message," %04lu",number_of_messages_received_task1);
    1490:	d0e84617 	ldw	r3,-24296(gp)
    1494:	e0bf6404 	addi	r2,fp,-624
    1498:	180d883a 	mov	r6,r3
    149c:	014000b4 	movhi	r5,2
    14a0:	2946e904 	addi	r5,r5,7076
    14a4:	1009883a 	mov	r4,r2
    14a8:	00035bc0 	call	35bc <sprintf>
		  	 MTL_text (40, linea_receive1, message);
    14ac:	e0bf6404 	addi	r2,fp,-624
    14b0:	100d883a 	mov	r6,r2
    14b4:	e17f5c17 	ldw	r5,-656(fp)
    14b8:	01000a04 	movi	r4,40
    14bc:	00003740 	call	374 <MTL_text>
		  	 sprintf(message," %04lu",number_of_messages_received_task2);
    14c0:	d0e84717 	ldw	r3,-24292(gp)
    14c4:	e0bf6404 	addi	r2,fp,-624
    14c8:	180d883a 	mov	r6,r3
    14cc:	014000b4 	movhi	r5,2
    14d0:	2946e904 	addi	r5,r5,7076
    14d4:	1009883a 	mov	r4,r2
    14d8:	00035bc0 	call	35bc <sprintf>
		  	 MTL_text (40, linea_receive2, message);
    14dc:	e0bf6404 	addi	r2,fp,-624
    14e0:	100d883a 	mov	r6,r2
    14e4:	e17f5d17 	ldw	r5,-652(fp)
    14e8:	01000a04 	movi	r4,40
    14ec:	00003740 	call	374 <MTL_text>
		  	 sprintf(message2,"%21s",&sem_owner_task_name[0]);
    14f0:	e0bf6504 	addi	r2,fp,-620
    14f4:	01800134 	movhi	r6,4
    14f8:	31ba2604 	addi	r6,r6,-5992
    14fc:	014000b4 	movhi	r5,2
    1500:	2946eb04 	addi	r5,r5,7084
    1504:	1009883a 	mov	r4,r2
    1508:	00035bc0 	call	35bc <sprintf>
		  	 MTL_text (24, linea_sem_own, message2);
    150c:	e0bf6504 	addi	r2,fp,-620
    1510:	100d883a 	mov	r6,r2
    1514:	e17f5e17 	ldw	r5,-648(fp)
    1518:	01000604 	movi	r4,24
    151c:	00003740 	call	374 <MTL_text>
		  	 sprintf(message," %04lu",getsem_task1_got_sem);
    1520:	d0e84817 	ldw	r3,-24288(gp)
    1524:	e0bf6404 	addi	r2,fp,-624
    1528:	180d883a 	mov	r6,r3
    152c:	014000b4 	movhi	r5,2
    1530:	2946e904 	addi	r5,r5,7076
    1534:	1009883a 	mov	r4,r2
    1538:	00035bc0 	call	35bc <sprintf>
		  	 MTL_text (40, linea_getsem1, message);
    153c:	e0bf6404 	addi	r2,fp,-624
    1540:	100d883a 	mov	r6,r2
    1544:	e17f5f17 	ldw	r5,-644(fp)
    1548:	01000a04 	movi	r4,40
    154c:	00003740 	call	374 <MTL_text>
		  	 sprintf(message," %04lu",getsem_task2_got_sem);
    1550:	d0e84917 	ldw	r3,-24284(gp)
    1554:	e0bf6404 	addi	r2,fp,-624
    1558:	180d883a 	mov	r6,r3
    155c:	014000b4 	movhi	r5,2
    1560:	2946e904 	addi	r5,r5,7076
    1564:	1009883a 	mov	r4,r2
    1568:	00035bc0 	call	35bc <sprintf>
		  	 MTL_text (40, linea_getsem2, message);
    156c:	e0bf6404 	addi	r2,fp,-624
    1570:	100d883a 	mov	r6,r2
    1574:	e17f6017 	ldw	r5,-640(fp)
    1578:	01000a04 	movi	r4,40
    157c:	00003740 	call	374 <MTL_text>
		  	 sprintf(message," %04lu",getsem_task3_got_sem);
    1580:	d0e84a17 	ldw	r3,-24280(gp)
    1584:	e0bf6404 	addi	r2,fp,-624
    1588:	180d883a 	mov	r6,r3
    158c:	014000b4 	movhi	r5,2
    1590:	2946e904 	addi	r5,r5,7076
    1594:	1009883a 	mov	r4,r2
    1598:	00035bc0 	call	35bc <sprintf>
		  	 MTL_text (40, linea_getsem3, message);
    159c:	e0bf6404 	addi	r2,fp,-624
    15a0:	100d883a 	mov	r6,r2
    15a4:	e17f6117 	ldw	r5,-636(fp)
    15a8:	01000a04 	movi	r4,40
    15ac:	00003740 	call	374 <MTL_text>
		  	 sprintf(message," %04lu",getsem_task4_got_sem);
    15b0:	d0e84b17 	ldw	r3,-24276(gp)
    15b4:	e0bf6404 	addi	r2,fp,-624
    15b8:	180d883a 	mov	r6,r3
    15bc:	014000b4 	movhi	r5,2
    15c0:	2946e904 	addi	r5,r5,7076
    15c4:	1009883a 	mov	r4,r2
    15c8:	00035bc0 	call	35bc <sprintf>
		  	 MTL_text (40, linea_getsem4, message);
    15cc:	e0bf6404 	addi	r2,fp,-624
    15d0:	100d883a 	mov	r6,r2
    15d4:	e17f6217 	ldw	r5,-632(fp)
    15d8:	01000a04 	movi	r4,40
    15dc:	00003740 	call	374 <MTL_text>
		  	 sprintf(message," %04d",highest);
    15e0:	d0a84e03 	ldbu	r2,-24264(gp)
    15e4:	10c03fcc 	andi	r3,r2,255
    15e8:	e0bf6404 	addi	r2,fp,-624
    15ec:	180d883a 	mov	r6,r3
    15f0:	014000b4 	movhi	r5,2
    15f4:	2946ed04 	addi	r5,r5,7092
    15f8:	1009883a 	mov	r4,r2
    15fc:	00035bc0 	call	35bc <sprintf>
		  	 MTL_text (40, linea_querysem, message);
    1600:	e0bf6404 	addi	r2,fp,-624
    1604:	100d883a 	mov	r6,r2
    1608:	e17f6317 	ldw	r5,-628(fp)
    160c:	01000a04 	movi	r4,40
    1610:	00003740 	call	374 <MTL_text>
		  OSSchedUnlock();
    1614:	0014b940 	call	14b94 <OSSchedUnlock>

	    OSTimeDlyHMSM(0, 0, 1, 0);
    1618:	000f883a 	mov	r7,zero
    161c:	01800044 	movi	r6,1
    1620:	000b883a 	mov	r5,zero
    1624:	0009883a 	mov	r4,zero
    1628:	001b4dc0 	call	1b4dc <OSTimeDlyHMSM>

	  }
    162c:	003f8b06 	br	145c <__alt_mem_onchip_memory+0xf780145c>

00001630 <read_switches>:

}

// tarea de lectura de los switches
void read_switches() {
    1630:	deff9804 	addi	sp,sp,-416
    1634:	dfc06715 	stw	ra,412(sp)
    1638:	df006615 	stw	fp,408(sp)
    163c:	df006604 	addi	fp,sp,408

	char mensaje[20]="Sensors ON are: \0";
    1640:	008000b4 	movhi	r2,2
    1644:	10878404 	addi	r2,r2,7696
    1648:	10c0000b 	ldhu	r3,0(r2)
    164c:	e0ff9b8d 	sth	r3,-402(fp)
    1650:	10c0008b 	ldhu	r3,2(r2)
    1654:	e0ff9c0d 	sth	r3,-400(fp)
    1658:	10c0010b 	ldhu	r3,4(r2)
    165c:	e0ff9c8d 	sth	r3,-398(fp)
    1660:	10c0018b 	ldhu	r3,6(r2)
    1664:	e0ff9d0d 	sth	r3,-396(fp)
    1668:	10c0020b 	ldhu	r3,8(r2)
    166c:	e0ff9d8d 	sth	r3,-394(fp)
    1670:	10c0028b 	ldhu	r3,10(r2)
    1674:	e0ff9e0d 	sth	r3,-392(fp)
    1678:	10c0030b 	ldhu	r3,12(r2)
    167c:	e0ff9e8d 	sth	r3,-390(fp)
    1680:	10c0038b 	ldhu	r3,14(r2)
    1684:	e0ff9f0d 	sth	r3,-388(fp)
    1688:	1080040b 	ldhu	r2,16(r2)
    168c:	e0bf9f8d 	sth	r2,-386(fp)
    1690:	e03fa00d 	sth	zero,-384(fp)
	char mensajetodo[40];
	int SW_value;
	INT8U Error=OS_NO_ERR;
    1694:	e03faa85 	stb	zero,-342(fp)
	OS_FLAGS return_code;
	while(1){

	SW_value = *(SW_switch_ptr);
    1698:	d0a00817 	ldw	r2,-32736(gp)
    169c:	10800017 	ldw	r2,0(r2)
    16a0:	e0bf9a15 	stw	r2,-408(fp)
	SW_value = SW_value & 0xFFFF;
    16a4:	e0bf9a17 	ldw	r2,-408(fp)
    16a8:	10bfffcc 	andi	r2,r2,65535
    16ac:	e0bf9a15 	stw	r2,-408(fp)



	switch (SW_value){
    16b0:	e0bf9a17 	ldw	r2,-408(fp)
    16b4:	10800428 	cmpgeui	r2,r2,16
    16b8:	1002871e 	bne	r2,zero,20d8 <read_switches+0xaa8>
    16bc:	e0bf9a17 	ldw	r2,-408(fp)
    16c0:	100690ba 	slli	r3,r2,2
    16c4:	00800034 	movhi	r2,0
    16c8:	1085b604 	addi	r2,r2,5848
    16cc:	1885883a 	add	r2,r3,r2
    16d0:	10800017 	ldw	r2,0(r2)
    16d4:	1000683a 	jmp	r2
    16d8:	00001718 	cmpnei	zero,zero,92
    16dc:	000017c4 	movi	zero,95
    16e0:	00001868 	cmpgeui	zero,zero,97
    16e4:	00001900 	call	190 <alt_irq_handler+0x94>
    16e8:	00001998 	cmpnei	zero,zero,102
    16ec:	00001a34 	movhi	zero,104
    16f0:	00001ad0 	cmplti	zero,zero,107
    16f4:	00001b80 	call	1b8 <alt_irq_handler+0xbc>
    16f8:	00001c30 	cmpltui	zero,zero,112
    16fc:	00001ccc 	andi	zero,zero,115
    1700:	00001d68 	cmpgeui	zero,zero,117
    1704:	00001e18 	cmpnei	zero,zero,120
    1708:	00001ec8 	cmpgei	zero,zero,123
    170c:	00001f7c 	xorhi	zero,zero,125
    1710:	00002030 	cmpltui	zero,zero,128
    1714:	00002084 	movi	zero,130
	case(0x00):	{char mensajito[20]=	"NO SENSOR\0";sprintf(mensajetodo,"%s %s",mensaje,mensajito);}
    1718:	008000b4 	movhi	r2,2
    171c:	10878904 	addi	r2,r2,7716
    1720:	10c00003 	ldbu	r3,0(r2)
    1724:	e0ffaac5 	stb	r3,-341(fp)
    1728:	10c00043 	ldbu	r3,1(r2)
    172c:	e0ffab05 	stb	r3,-340(fp)
    1730:	10c00083 	ldbu	r3,2(r2)
    1734:	e0ffab45 	stb	r3,-339(fp)
    1738:	10c000c3 	ldbu	r3,3(r2)
    173c:	e0ffab85 	stb	r3,-338(fp)
    1740:	10c00103 	ldbu	r3,4(r2)
    1744:	e0ffabc5 	stb	r3,-337(fp)
    1748:	10c00143 	ldbu	r3,5(r2)
    174c:	e0ffac05 	stb	r3,-336(fp)
    1750:	10c00183 	ldbu	r3,6(r2)
    1754:	e0ffac45 	stb	r3,-335(fp)
    1758:	10c001c3 	ldbu	r3,7(r2)
    175c:	e0ffac85 	stb	r3,-334(fp)
    1760:	10c00203 	ldbu	r3,8(r2)
    1764:	e0ffacc5 	stb	r3,-333(fp)
    1768:	10c00243 	ldbu	r3,9(r2)
    176c:	e0ffad05 	stb	r3,-332(fp)
    1770:	10800283 	ldbu	r2,10(r2)
    1774:	e0bfad45 	stb	r2,-331(fp)
    1778:	e03fad85 	stb	zero,-330(fp)
    177c:	e03fadc5 	stb	zero,-329(fp)
    1780:	e03fae05 	stb	zero,-328(fp)
    1784:	e03fae45 	stb	zero,-327(fp)
    1788:	e03fae85 	stb	zero,-326(fp)
    178c:	e03faec5 	stb	zero,-325(fp)
    1790:	e03faf05 	stb	zero,-324(fp)
    1794:	e03faf45 	stb	zero,-323(fp)
    1798:	e03faf85 	stb	zero,-322(fp)
    179c:	e13faac4 	addi	r4,fp,-341
    17a0:	e0ff9b84 	addi	r3,fp,-402
    17a4:	e0bfa084 	addi	r2,fp,-382
    17a8:	200f883a 	mov	r7,r4
    17ac:	180d883a 	mov	r6,r3
    17b0:	014000b4 	movhi	r5,2
    17b4:	29477704 	addi	r5,r5,7644
    17b8:	1009883a 	mov	r4,r2
    17bc:	00035bc0 	call	35bc <sprintf>
	break;
    17c0:	00027306 	br	2190 <read_switches+0xb60>
	case(0x01):	{char mensajito[20]=	"SW ZERO\0";sprintf(mensajetodo,"%s %s",mensaje,mensajito);}
    17c4:	008000b4 	movhi	r2,2
    17c8:	10878e04 	addi	r2,r2,7736
    17cc:	10c00003 	ldbu	r3,0(r2)
    17d0:	e0ffafc5 	stb	r3,-321(fp)
    17d4:	10c00043 	ldbu	r3,1(r2)
    17d8:	e0ffb005 	stb	r3,-320(fp)
    17dc:	10c00083 	ldbu	r3,2(r2)
    17e0:	e0ffb045 	stb	r3,-319(fp)
    17e4:	10c000c3 	ldbu	r3,3(r2)
    17e8:	e0ffb085 	stb	r3,-318(fp)
    17ec:	10c00103 	ldbu	r3,4(r2)
    17f0:	e0ffb0c5 	stb	r3,-317(fp)
    17f4:	10c00143 	ldbu	r3,5(r2)
    17f8:	e0ffb105 	stb	r3,-316(fp)
    17fc:	10c00183 	ldbu	r3,6(r2)
    1800:	e0ffb145 	stb	r3,-315(fp)
    1804:	10c001c3 	ldbu	r3,7(r2)
    1808:	e0ffb185 	stb	r3,-314(fp)
    180c:	10800203 	ldbu	r2,8(r2)
    1810:	e0bfb1c5 	stb	r2,-313(fp)
    1814:	e03fb205 	stb	zero,-312(fp)
    1818:	e03fb245 	stb	zero,-311(fp)
    181c:	e03fb285 	stb	zero,-310(fp)
    1820:	e03fb2c5 	stb	zero,-309(fp)
    1824:	e03fb305 	stb	zero,-308(fp)
    1828:	e03fb345 	stb	zero,-307(fp)
    182c:	e03fb385 	stb	zero,-306(fp)
    1830:	e03fb3c5 	stb	zero,-305(fp)
    1834:	e03fb405 	stb	zero,-304(fp)
    1838:	e03fb445 	stb	zero,-303(fp)
    183c:	e03fb485 	stb	zero,-302(fp)
    1840:	e13fafc4 	addi	r4,fp,-321
    1844:	e0ff9b84 	addi	r3,fp,-402
    1848:	e0bfa084 	addi	r2,fp,-382
    184c:	200f883a 	mov	r7,r4
    1850:	180d883a 	mov	r6,r3
    1854:	014000b4 	movhi	r5,2
    1858:	29477704 	addi	r5,r5,7644
    185c:	1009883a 	mov	r4,r2
    1860:	00035bc0 	call	35bc <sprintf>
	break;
    1864:	00024a06 	br	2190 <read_switches+0xb60>
	case(0x02):	{char mensajito[20]=	"TEMP\0";sprintf(mensajetodo,"%s %s",mensaje,mensajito);}
    1868:	008000b4 	movhi	r2,2
    186c:	10879304 	addi	r2,r2,7756
    1870:	10c00003 	ldbu	r3,0(r2)
    1874:	e0ffb4c5 	stb	r3,-301(fp)
    1878:	10c00043 	ldbu	r3,1(r2)
    187c:	e0ffb505 	stb	r3,-300(fp)
    1880:	10c00083 	ldbu	r3,2(r2)
    1884:	e0ffb545 	stb	r3,-299(fp)
    1888:	10c000c3 	ldbu	r3,3(r2)
    188c:	e0ffb585 	stb	r3,-298(fp)
    1890:	10c00103 	ldbu	r3,4(r2)
    1894:	e0ffb5c5 	stb	r3,-297(fp)
    1898:	10800143 	ldbu	r2,5(r2)
    189c:	e0bfb605 	stb	r2,-296(fp)
    18a0:	e03fb645 	stb	zero,-295(fp)
    18a4:	e03fb685 	stb	zero,-294(fp)
    18a8:	e03fb6c5 	stb	zero,-293(fp)
    18ac:	e03fb705 	stb	zero,-292(fp)
    18b0:	e03fb745 	stb	zero,-291(fp)
    18b4:	e03fb785 	stb	zero,-290(fp)
    18b8:	e03fb7c5 	stb	zero,-289(fp)
    18bc:	e03fb805 	stb	zero,-288(fp)
    18c0:	e03fb845 	stb	zero,-287(fp)
    18c4:	e03fb885 	stb	zero,-286(fp)
    18c8:	e03fb8c5 	stb	zero,-285(fp)
    18cc:	e03fb905 	stb	zero,-284(fp)
    18d0:	e03fb945 	stb	zero,-283(fp)
    18d4:	e03fb985 	stb	zero,-282(fp)
    18d8:	e13fb4c4 	addi	r4,fp,-301
    18dc:	e0ff9b84 	addi	r3,fp,-402
    18e0:	e0bfa084 	addi	r2,fp,-382
    18e4:	200f883a 	mov	r7,r4
    18e8:	180d883a 	mov	r6,r3
    18ec:	014000b4 	movhi	r5,2
    18f0:	29477704 	addi	r5,r5,7644
    18f4:	1009883a 	mov	r4,r2
    18f8:	00035bc0 	call	35bc <sprintf>
	break;
    18fc:	00022406 	br	2190 <read_switches+0xb60>
	case(0x03):	{char mensajito[20]=	"TEMP\0";sprintf(mensajetodo,"%s %s",mensaje,mensajito);}
    1900:	008000b4 	movhi	r2,2
    1904:	10879304 	addi	r2,r2,7756
    1908:	10c00003 	ldbu	r3,0(r2)
    190c:	e0ffb9c5 	stb	r3,-281(fp)
    1910:	10c00043 	ldbu	r3,1(r2)
    1914:	e0ffba05 	stb	r3,-280(fp)
    1918:	10c00083 	ldbu	r3,2(r2)
    191c:	e0ffba45 	stb	r3,-279(fp)
    1920:	10c000c3 	ldbu	r3,3(r2)
    1924:	e0ffba85 	stb	r3,-278(fp)
    1928:	10c00103 	ldbu	r3,4(r2)
    192c:	e0ffbac5 	stb	r3,-277(fp)
    1930:	10800143 	ldbu	r2,5(r2)
    1934:	e0bfbb05 	stb	r2,-276(fp)
    1938:	e03fbb45 	stb	zero,-275(fp)
    193c:	e03fbb85 	stb	zero,-274(fp)
    1940:	e03fbbc5 	stb	zero,-273(fp)
    1944:	e03fbc05 	stb	zero,-272(fp)
    1948:	e03fbc45 	stb	zero,-271(fp)
    194c:	e03fbc85 	stb	zero,-270(fp)
    1950:	e03fbcc5 	stb	zero,-269(fp)
    1954:	e03fbd05 	stb	zero,-268(fp)
    1958:	e03fbd45 	stb	zero,-267(fp)
    195c:	e03fbd85 	stb	zero,-266(fp)
    1960:	e03fbdc5 	stb	zero,-265(fp)
    1964:	e03fbe05 	stb	zero,-264(fp)
    1968:	e03fbe45 	stb	zero,-263(fp)
    196c:	e03fbe85 	stb	zero,-262(fp)
    1970:	e13fb9c4 	addi	r4,fp,-281
    1974:	e0ff9b84 	addi	r3,fp,-402
    1978:	e0bfa084 	addi	r2,fp,-382
    197c:	200f883a 	mov	r7,r4
    1980:	180d883a 	mov	r6,r3
    1984:	014000b4 	movhi	r5,2
    1988:	29477704 	addi	r5,r5,7644
    198c:	1009883a 	mov	r4,r2
    1990:	00035bc0 	call	35bc <sprintf>
	break;
    1994:	0001fe06 	br	2190 <read_switches+0xb60>
	case(0x04):	{char mensajito[20]=	"PRESS\0";sprintf(mensajetodo,"%s %s",mensaje,mensajito);}
    1998:	008000b4 	movhi	r2,2
    199c:	10879804 	addi	r2,r2,7776
    19a0:	10c00003 	ldbu	r3,0(r2)
    19a4:	e0ffbec5 	stb	r3,-261(fp)
    19a8:	10c00043 	ldbu	r3,1(r2)
    19ac:	e0ffbf05 	stb	r3,-260(fp)
    19b0:	10c00083 	ldbu	r3,2(r2)
    19b4:	e0ffbf45 	stb	r3,-259(fp)
    19b8:	10c000c3 	ldbu	r3,3(r2)
    19bc:	e0ffbf85 	stb	r3,-258(fp)
    19c0:	10c00103 	ldbu	r3,4(r2)
    19c4:	e0ffbfc5 	stb	r3,-257(fp)
    19c8:	10c00143 	ldbu	r3,5(r2)
    19cc:	e0ffc005 	stb	r3,-256(fp)
    19d0:	10800183 	ldbu	r2,6(r2)
    19d4:	e0bfc045 	stb	r2,-255(fp)
    19d8:	e03fc085 	stb	zero,-254(fp)
    19dc:	e03fc0c5 	stb	zero,-253(fp)
    19e0:	e03fc105 	stb	zero,-252(fp)
    19e4:	e03fc145 	stb	zero,-251(fp)
    19e8:	e03fc185 	stb	zero,-250(fp)
    19ec:	e03fc1c5 	stb	zero,-249(fp)
    19f0:	e03fc205 	stb	zero,-248(fp)
    19f4:	e03fc245 	stb	zero,-247(fp)
    19f8:	e03fc285 	stb	zero,-246(fp)
    19fc:	e03fc2c5 	stb	zero,-245(fp)
    1a00:	e03fc305 	stb	zero,-244(fp)
    1a04:	e03fc345 	stb	zero,-243(fp)
    1a08:	e03fc385 	stb	zero,-242(fp)
    1a0c:	e13fbec4 	addi	r4,fp,-261
    1a10:	e0ff9b84 	addi	r3,fp,-402
    1a14:	e0bfa084 	addi	r2,fp,-382
    1a18:	200f883a 	mov	r7,r4
    1a1c:	180d883a 	mov	r6,r3
    1a20:	014000b4 	movhi	r5,2
    1a24:	29477704 	addi	r5,r5,7644
    1a28:	1009883a 	mov	r4,r2
    1a2c:	00035bc0 	call	35bc <sprintf>
	break;
    1a30:	0001d706 	br	2190 <read_switches+0xb60>
	case(0x05):	{char mensajito[20]=	"PRESS\0";sprintf(mensajetodo,"%s %s",mensaje,mensajito);}
    1a34:	008000b4 	movhi	r2,2
    1a38:	10879804 	addi	r2,r2,7776
    1a3c:	10c00003 	ldbu	r3,0(r2)
    1a40:	e0ffc3c5 	stb	r3,-241(fp)
    1a44:	10c00043 	ldbu	r3,1(r2)
    1a48:	e0ffc405 	stb	r3,-240(fp)
    1a4c:	10c00083 	ldbu	r3,2(r2)
    1a50:	e0ffc445 	stb	r3,-239(fp)
    1a54:	10c000c3 	ldbu	r3,3(r2)
    1a58:	e0ffc485 	stb	r3,-238(fp)
    1a5c:	10c00103 	ldbu	r3,4(r2)
    1a60:	e0ffc4c5 	stb	r3,-237(fp)
    1a64:	10c00143 	ldbu	r3,5(r2)
    1a68:	e0ffc505 	stb	r3,-236(fp)
    1a6c:	10800183 	ldbu	r2,6(r2)
    1a70:	e0bfc545 	stb	r2,-235(fp)
    1a74:	e03fc585 	stb	zero,-234(fp)
    1a78:	e03fc5c5 	stb	zero,-233(fp)
    1a7c:	e03fc605 	stb	zero,-232(fp)
    1a80:	e03fc645 	stb	zero,-231(fp)
    1a84:	e03fc685 	stb	zero,-230(fp)
    1a88:	e03fc6c5 	stb	zero,-229(fp)
    1a8c:	e03fc705 	stb	zero,-228(fp)
    1a90:	e03fc745 	stb	zero,-227(fp)
    1a94:	e03fc785 	stb	zero,-226(fp)
    1a98:	e03fc7c5 	stb	zero,-225(fp)
    1a9c:	e03fc805 	stb	zero,-224(fp)
    1aa0:	e03fc845 	stb	zero,-223(fp)
    1aa4:	e03fc885 	stb	zero,-222(fp)
    1aa8:	e13fc3c4 	addi	r4,fp,-241
    1aac:	e0ff9b84 	addi	r3,fp,-402
    1ab0:	e0bfa084 	addi	r2,fp,-382
    1ab4:	200f883a 	mov	r7,r4
    1ab8:	180d883a 	mov	r6,r3
    1abc:	014000b4 	movhi	r5,2
    1ac0:	29477704 	addi	r5,r5,7644
    1ac4:	1009883a 	mov	r4,r2
    1ac8:	00035bc0 	call	35bc <sprintf>
	break;
    1acc:	0001b006 	br	2190 <read_switches+0xb60>
	case(0x06):	{char mensajito[20]=	"PRESS&TEMP\0";sprintf(mensajetodo,"%s %s",mensaje,mensajito);}
    1ad0:	008000b4 	movhi	r2,2
    1ad4:	10879d04 	addi	r2,r2,7796
    1ad8:	10c00003 	ldbu	r3,0(r2)
    1adc:	e0ffc8c5 	stb	r3,-221(fp)
    1ae0:	10c00043 	ldbu	r3,1(r2)
    1ae4:	e0ffc905 	stb	r3,-220(fp)
    1ae8:	10c00083 	ldbu	r3,2(r2)
    1aec:	e0ffc945 	stb	r3,-219(fp)
    1af0:	10c000c3 	ldbu	r3,3(r2)
    1af4:	e0ffc985 	stb	r3,-218(fp)
    1af8:	10c00103 	ldbu	r3,4(r2)
    1afc:	e0ffc9c5 	stb	r3,-217(fp)
    1b00:	10c00143 	ldbu	r3,5(r2)
    1b04:	e0ffca05 	stb	r3,-216(fp)
    1b08:	10c00183 	ldbu	r3,6(r2)
    1b0c:	e0ffca45 	stb	r3,-215(fp)
    1b10:	10c001c3 	ldbu	r3,7(r2)
    1b14:	e0ffca85 	stb	r3,-214(fp)
    1b18:	10c00203 	ldbu	r3,8(r2)
    1b1c:	e0ffcac5 	stb	r3,-213(fp)
    1b20:	10c00243 	ldbu	r3,9(r2)
    1b24:	e0ffcb05 	stb	r3,-212(fp)
    1b28:	10c00283 	ldbu	r3,10(r2)
    1b2c:	e0ffcb45 	stb	r3,-211(fp)
    1b30:	108002c3 	ldbu	r2,11(r2)
    1b34:	e0bfcb85 	stb	r2,-210(fp)
    1b38:	e03fcbc5 	stb	zero,-209(fp)
    1b3c:	e03fcc05 	stb	zero,-208(fp)
    1b40:	e03fcc45 	stb	zero,-207(fp)
    1b44:	e03fcc85 	stb	zero,-206(fp)
    1b48:	e03fccc5 	stb	zero,-205(fp)
    1b4c:	e03fcd05 	stb	zero,-204(fp)
    1b50:	e03fcd45 	stb	zero,-203(fp)
    1b54:	e03fcd85 	stb	zero,-202(fp)
    1b58:	e13fc8c4 	addi	r4,fp,-221
    1b5c:	e0ff9b84 	addi	r3,fp,-402
    1b60:	e0bfa084 	addi	r2,fp,-382
    1b64:	200f883a 	mov	r7,r4
    1b68:	180d883a 	mov	r6,r3
    1b6c:	014000b4 	movhi	r5,2
    1b70:	29477704 	addi	r5,r5,7644
    1b74:	1009883a 	mov	r4,r2
    1b78:	00035bc0 	call	35bc <sprintf>
	break;
    1b7c:	00018406 	br	2190 <read_switches+0xb60>
	case(0x07):	{char mensajito[20]=	"PRESS&TEMP\0";sprintf(mensajetodo,"%s %s",mensaje,mensajito);}
    1b80:	008000b4 	movhi	r2,2
    1b84:	10879d04 	addi	r2,r2,7796
    1b88:	10c00003 	ldbu	r3,0(r2)
    1b8c:	e0ffcdc5 	stb	r3,-201(fp)
    1b90:	10c00043 	ldbu	r3,1(r2)
    1b94:	e0ffce05 	stb	r3,-200(fp)
    1b98:	10c00083 	ldbu	r3,2(r2)
    1b9c:	e0ffce45 	stb	r3,-199(fp)
    1ba0:	10c000c3 	ldbu	r3,3(r2)
    1ba4:	e0ffce85 	stb	r3,-198(fp)
    1ba8:	10c00103 	ldbu	r3,4(r2)
    1bac:	e0ffcec5 	stb	r3,-197(fp)
    1bb0:	10c00143 	ldbu	r3,5(r2)
    1bb4:	e0ffcf05 	stb	r3,-196(fp)
    1bb8:	10c00183 	ldbu	r3,6(r2)
    1bbc:	e0ffcf45 	stb	r3,-195(fp)
    1bc0:	10c001c3 	ldbu	r3,7(r2)
    1bc4:	e0ffcf85 	stb	r3,-194(fp)
    1bc8:	10c00203 	ldbu	r3,8(r2)
    1bcc:	e0ffcfc5 	stb	r3,-193(fp)
    1bd0:	10c00243 	ldbu	r3,9(r2)
    1bd4:	e0ffd005 	stb	r3,-192(fp)
    1bd8:	10c00283 	ldbu	r3,10(r2)
    1bdc:	e0ffd045 	stb	r3,-191(fp)
    1be0:	108002c3 	ldbu	r2,11(r2)
    1be4:	e0bfd085 	stb	r2,-190(fp)
    1be8:	e03fd0c5 	stb	zero,-189(fp)
    1bec:	e03fd105 	stb	zero,-188(fp)
    1bf0:	e03fd145 	stb	zero,-187(fp)
    1bf4:	e03fd185 	stb	zero,-186(fp)
    1bf8:	e03fd1c5 	stb	zero,-185(fp)
    1bfc:	e03fd205 	stb	zero,-184(fp)
    1c00:	e03fd245 	stb	zero,-183(fp)
    1c04:	e03fd285 	stb	zero,-182(fp)
    1c08:	e13fcdc4 	addi	r4,fp,-201
    1c0c:	e0ff9b84 	addi	r3,fp,-402
    1c10:	e0bfa084 	addi	r2,fp,-382
    1c14:	200f883a 	mov	r7,r4
    1c18:	180d883a 	mov	r6,r3
    1c1c:	014000b4 	movhi	r5,2
    1c20:	29477704 	addi	r5,r5,7644
    1c24:	1009883a 	mov	r4,r2
    1c28:	00035bc0 	call	35bc <sprintf>
	break;
    1c2c:	00015806 	br	2190 <read_switches+0xb60>
	case(0x08):	{char mensajito[20]=	"START\0";sprintf(mensajetodo,"%s %s",mensaje,mensajito);}
    1c30:	008000b4 	movhi	r2,2
    1c34:	1087a204 	addi	r2,r2,7816
    1c38:	10c00003 	ldbu	r3,0(r2)
    1c3c:	e0ffd2c5 	stb	r3,-181(fp)
    1c40:	10c00043 	ldbu	r3,1(r2)
    1c44:	e0ffd305 	stb	r3,-180(fp)
    1c48:	10c00083 	ldbu	r3,2(r2)
    1c4c:	e0ffd345 	stb	r3,-179(fp)
    1c50:	10c000c3 	ldbu	r3,3(r2)
    1c54:	e0ffd385 	stb	r3,-178(fp)
    1c58:	10c00103 	ldbu	r3,4(r2)
    1c5c:	e0ffd3c5 	stb	r3,-177(fp)
    1c60:	10c00143 	ldbu	r3,5(r2)
    1c64:	e0ffd405 	stb	r3,-176(fp)
    1c68:	10800183 	ldbu	r2,6(r2)
    1c6c:	e0bfd445 	stb	r2,-175(fp)
    1c70:	e03fd485 	stb	zero,-174(fp)
    1c74:	e03fd4c5 	stb	zero,-173(fp)
    1c78:	e03fd505 	stb	zero,-172(fp)
    1c7c:	e03fd545 	stb	zero,-171(fp)
    1c80:	e03fd585 	stb	zero,-170(fp)
    1c84:	e03fd5c5 	stb	zero,-169(fp)
    1c88:	e03fd605 	stb	zero,-168(fp)
    1c8c:	e03fd645 	stb	zero,-167(fp)
    1c90:	e03fd685 	stb	zero,-166(fp)
    1c94:	e03fd6c5 	stb	zero,-165(fp)
    1c98:	e03fd705 	stb	zero,-164(fp)
    1c9c:	e03fd745 	stb	zero,-163(fp)
    1ca0:	e03fd785 	stb	zero,-162(fp)
    1ca4:	e13fd2c4 	addi	r4,fp,-181
    1ca8:	e0ff9b84 	addi	r3,fp,-402
    1cac:	e0bfa084 	addi	r2,fp,-382
    1cb0:	200f883a 	mov	r7,r4
    1cb4:	180d883a 	mov	r6,r3
    1cb8:	014000b4 	movhi	r5,2
    1cbc:	29477704 	addi	r5,r5,7644
    1cc0:	1009883a 	mov	r4,r2
    1cc4:	00035bc0 	call	35bc <sprintf>
	break;
    1cc8:	00013106 	br	2190 <read_switches+0xb60>
	case(0x09):	{char mensajito[20]=	"START\0";sprintf(mensajetodo,"%s %s",mensaje,mensajito);}
    1ccc:	008000b4 	movhi	r2,2
    1cd0:	1087a204 	addi	r2,r2,7816
    1cd4:	10c00003 	ldbu	r3,0(r2)
    1cd8:	e0ffd7c5 	stb	r3,-161(fp)
    1cdc:	10c00043 	ldbu	r3,1(r2)
    1ce0:	e0ffd805 	stb	r3,-160(fp)
    1ce4:	10c00083 	ldbu	r3,2(r2)
    1ce8:	e0ffd845 	stb	r3,-159(fp)
    1cec:	10c000c3 	ldbu	r3,3(r2)
    1cf0:	e0ffd885 	stb	r3,-158(fp)
    1cf4:	10c00103 	ldbu	r3,4(r2)
    1cf8:	e0ffd8c5 	stb	r3,-157(fp)
    1cfc:	10c00143 	ldbu	r3,5(r2)
    1d00:	e0ffd905 	stb	r3,-156(fp)
    1d04:	10800183 	ldbu	r2,6(r2)
    1d08:	e0bfd945 	stb	r2,-155(fp)
    1d0c:	e03fd985 	stb	zero,-154(fp)
    1d10:	e03fd9c5 	stb	zero,-153(fp)
    1d14:	e03fda05 	stb	zero,-152(fp)
    1d18:	e03fda45 	stb	zero,-151(fp)
    1d1c:	e03fda85 	stb	zero,-150(fp)
    1d20:	e03fdac5 	stb	zero,-149(fp)
    1d24:	e03fdb05 	stb	zero,-148(fp)
    1d28:	e03fdb45 	stb	zero,-147(fp)
    1d2c:	e03fdb85 	stb	zero,-146(fp)
    1d30:	e03fdbc5 	stb	zero,-145(fp)
    1d34:	e03fdc05 	stb	zero,-144(fp)
    1d38:	e03fdc45 	stb	zero,-143(fp)
    1d3c:	e03fdc85 	stb	zero,-142(fp)
    1d40:	e13fd7c4 	addi	r4,fp,-161
    1d44:	e0ff9b84 	addi	r3,fp,-402
    1d48:	e0bfa084 	addi	r2,fp,-382
    1d4c:	200f883a 	mov	r7,r4
    1d50:	180d883a 	mov	r6,r3
    1d54:	014000b4 	movhi	r5,2
    1d58:	29477704 	addi	r5,r5,7644
    1d5c:	1009883a 	mov	r4,r2
    1d60:	00035bc0 	call	35bc <sprintf>
	break;
    1d64:	00010a06 	br	2190 <read_switches+0xb60>
	case(0x0A):	{char mensajito[20]=	"START&TEMP\0";sprintf(mensajetodo,"%s %s",mensaje,mensajito);}
    1d68:	008000b4 	movhi	r2,2
    1d6c:	1087a704 	addi	r2,r2,7836
    1d70:	10c00003 	ldbu	r3,0(r2)
    1d74:	e0ffdcc5 	stb	r3,-141(fp)
    1d78:	10c00043 	ldbu	r3,1(r2)
    1d7c:	e0ffdd05 	stb	r3,-140(fp)
    1d80:	10c00083 	ldbu	r3,2(r2)
    1d84:	e0ffdd45 	stb	r3,-139(fp)
    1d88:	10c000c3 	ldbu	r3,3(r2)
    1d8c:	e0ffdd85 	stb	r3,-138(fp)
    1d90:	10c00103 	ldbu	r3,4(r2)
    1d94:	e0ffddc5 	stb	r3,-137(fp)
    1d98:	10c00143 	ldbu	r3,5(r2)
    1d9c:	e0ffde05 	stb	r3,-136(fp)
    1da0:	10c00183 	ldbu	r3,6(r2)
    1da4:	e0ffde45 	stb	r3,-135(fp)
    1da8:	10c001c3 	ldbu	r3,7(r2)
    1dac:	e0ffde85 	stb	r3,-134(fp)
    1db0:	10c00203 	ldbu	r3,8(r2)
    1db4:	e0ffdec5 	stb	r3,-133(fp)
    1db8:	10c00243 	ldbu	r3,9(r2)
    1dbc:	e0ffdf05 	stb	r3,-132(fp)
    1dc0:	10c00283 	ldbu	r3,10(r2)
    1dc4:	e0ffdf45 	stb	r3,-131(fp)
    1dc8:	108002c3 	ldbu	r2,11(r2)
    1dcc:	e0bfdf85 	stb	r2,-130(fp)
    1dd0:	e03fdfc5 	stb	zero,-129(fp)
    1dd4:	e03fe005 	stb	zero,-128(fp)
    1dd8:	e03fe045 	stb	zero,-127(fp)
    1ddc:	e03fe085 	stb	zero,-126(fp)
    1de0:	e03fe0c5 	stb	zero,-125(fp)
    1de4:	e03fe105 	stb	zero,-124(fp)
    1de8:	e03fe145 	stb	zero,-123(fp)
    1dec:	e03fe185 	stb	zero,-122(fp)
    1df0:	e13fdcc4 	addi	r4,fp,-141
    1df4:	e0ff9b84 	addi	r3,fp,-402
    1df8:	e0bfa084 	addi	r2,fp,-382
    1dfc:	200f883a 	mov	r7,r4
    1e00:	180d883a 	mov	r6,r3
    1e04:	014000b4 	movhi	r5,2
    1e08:	29477704 	addi	r5,r5,7644
    1e0c:	1009883a 	mov	r4,r2
    1e10:	00035bc0 	call	35bc <sprintf>
	break;
    1e14:	0000de06 	br	2190 <read_switches+0xb60>
	case(0x0B):	{char mensajito[20]=	"START&TEMP\0";sprintf(mensajetodo,"%s %s",mensaje,mensajito);}
    1e18:	008000b4 	movhi	r2,2
    1e1c:	1087a704 	addi	r2,r2,7836
    1e20:	10c00003 	ldbu	r3,0(r2)
    1e24:	e0ffe1c5 	stb	r3,-121(fp)
    1e28:	10c00043 	ldbu	r3,1(r2)
    1e2c:	e0ffe205 	stb	r3,-120(fp)
    1e30:	10c00083 	ldbu	r3,2(r2)
    1e34:	e0ffe245 	stb	r3,-119(fp)
    1e38:	10c000c3 	ldbu	r3,3(r2)
    1e3c:	e0ffe285 	stb	r3,-118(fp)
    1e40:	10c00103 	ldbu	r3,4(r2)
    1e44:	e0ffe2c5 	stb	r3,-117(fp)
    1e48:	10c00143 	ldbu	r3,5(r2)
    1e4c:	e0ffe305 	stb	r3,-116(fp)
    1e50:	10c00183 	ldbu	r3,6(r2)
    1e54:	e0ffe345 	stb	r3,-115(fp)
    1e58:	10c001c3 	ldbu	r3,7(r2)
    1e5c:	e0ffe385 	stb	r3,-114(fp)
    1e60:	10c00203 	ldbu	r3,8(r2)
    1e64:	e0ffe3c5 	stb	r3,-113(fp)
    1e68:	10c00243 	ldbu	r3,9(r2)
    1e6c:	e0ffe405 	stb	r3,-112(fp)
    1e70:	10c00283 	ldbu	r3,10(r2)
    1e74:	e0ffe445 	stb	r3,-111(fp)
    1e78:	108002c3 	ldbu	r2,11(r2)
    1e7c:	e0bfe485 	stb	r2,-110(fp)
    1e80:	e03fe4c5 	stb	zero,-109(fp)
    1e84:	e03fe505 	stb	zero,-108(fp)
    1e88:	e03fe545 	stb	zero,-107(fp)
    1e8c:	e03fe585 	stb	zero,-106(fp)
    1e90:	e03fe5c5 	stb	zero,-105(fp)
    1e94:	e03fe605 	stb	zero,-104(fp)
    1e98:	e03fe645 	stb	zero,-103(fp)
    1e9c:	e03fe685 	stb	zero,-102(fp)
    1ea0:	e13fe1c4 	addi	r4,fp,-121
    1ea4:	e0ff9b84 	addi	r3,fp,-402
    1ea8:	e0bfa084 	addi	r2,fp,-382
    1eac:	200f883a 	mov	r7,r4
    1eb0:	180d883a 	mov	r6,r3
    1eb4:	014000b4 	movhi	r5,2
    1eb8:	29477704 	addi	r5,r5,7644
    1ebc:	1009883a 	mov	r4,r2
    1ec0:	00035bc0 	call	35bc <sprintf>
	break;
    1ec4:	0000b206 	br	2190 <read_switches+0xb60>
	case(0x0C):	{char mensajito[20]=	"START&PRESS\0";sprintf(mensajetodo,"%s %s",mensaje,mensajito);}
    1ec8:	008000b4 	movhi	r2,2
    1ecc:	1087ac04 	addi	r2,r2,7856
    1ed0:	10c00003 	ldbu	r3,0(r2)
    1ed4:	e0ffe6c5 	stb	r3,-101(fp)
    1ed8:	10c00043 	ldbu	r3,1(r2)
    1edc:	e0ffe705 	stb	r3,-100(fp)
    1ee0:	10c00083 	ldbu	r3,2(r2)
    1ee4:	e0ffe745 	stb	r3,-99(fp)
    1ee8:	10c000c3 	ldbu	r3,3(r2)
    1eec:	e0ffe785 	stb	r3,-98(fp)
    1ef0:	10c00103 	ldbu	r3,4(r2)
    1ef4:	e0ffe7c5 	stb	r3,-97(fp)
    1ef8:	10c00143 	ldbu	r3,5(r2)
    1efc:	e0ffe805 	stb	r3,-96(fp)
    1f00:	10c00183 	ldbu	r3,6(r2)
    1f04:	e0ffe845 	stb	r3,-95(fp)
    1f08:	10c001c3 	ldbu	r3,7(r2)
    1f0c:	e0ffe885 	stb	r3,-94(fp)
    1f10:	10c00203 	ldbu	r3,8(r2)
    1f14:	e0ffe8c5 	stb	r3,-93(fp)
    1f18:	10c00243 	ldbu	r3,9(r2)
    1f1c:	e0ffe905 	stb	r3,-92(fp)
    1f20:	10c00283 	ldbu	r3,10(r2)
    1f24:	e0ffe945 	stb	r3,-91(fp)
    1f28:	10c002c3 	ldbu	r3,11(r2)
    1f2c:	e0ffe985 	stb	r3,-90(fp)
    1f30:	10800303 	ldbu	r2,12(r2)
    1f34:	e0bfe9c5 	stb	r2,-89(fp)
    1f38:	e03fea05 	stb	zero,-88(fp)
    1f3c:	e03fea45 	stb	zero,-87(fp)
    1f40:	e03fea85 	stb	zero,-86(fp)
    1f44:	e03feac5 	stb	zero,-85(fp)
    1f48:	e03feb05 	stb	zero,-84(fp)
    1f4c:	e03feb45 	stb	zero,-83(fp)
    1f50:	e03feb85 	stb	zero,-82(fp)
    1f54:	e13fe6c4 	addi	r4,fp,-101
    1f58:	e0ff9b84 	addi	r3,fp,-402
    1f5c:	e0bfa084 	addi	r2,fp,-382
    1f60:	200f883a 	mov	r7,r4
    1f64:	180d883a 	mov	r6,r3
    1f68:	014000b4 	movhi	r5,2
    1f6c:	29477704 	addi	r5,r5,7644
    1f70:	1009883a 	mov	r4,r2
    1f74:	00035bc0 	call	35bc <sprintf>
	break;
    1f78:	00008506 	br	2190 <read_switches+0xb60>
	case(0x0D):	{char mensajito[20]=	"START&PRESS\0";sprintf(mensajetodo,"%s %s",mensaje,mensajito);}
    1f7c:	008000b4 	movhi	r2,2
    1f80:	1087ac04 	addi	r2,r2,7856
    1f84:	10c00003 	ldbu	r3,0(r2)
    1f88:	e0ffebc5 	stb	r3,-81(fp)
    1f8c:	10c00043 	ldbu	r3,1(r2)
    1f90:	e0ffec05 	stb	r3,-80(fp)
    1f94:	10c00083 	ldbu	r3,2(r2)
    1f98:	e0ffec45 	stb	r3,-79(fp)
    1f9c:	10c000c3 	ldbu	r3,3(r2)
    1fa0:	e0ffec85 	stb	r3,-78(fp)
    1fa4:	10c00103 	ldbu	r3,4(r2)
    1fa8:	e0ffecc5 	stb	r3,-77(fp)
    1fac:	10c00143 	ldbu	r3,5(r2)
    1fb0:	e0ffed05 	stb	r3,-76(fp)
    1fb4:	10c00183 	ldbu	r3,6(r2)
    1fb8:	e0ffed45 	stb	r3,-75(fp)
    1fbc:	10c001c3 	ldbu	r3,7(r2)
    1fc0:	e0ffed85 	stb	r3,-74(fp)
    1fc4:	10c00203 	ldbu	r3,8(r2)
    1fc8:	e0ffedc5 	stb	r3,-73(fp)
    1fcc:	10c00243 	ldbu	r3,9(r2)
    1fd0:	e0ffee05 	stb	r3,-72(fp)
    1fd4:	10c00283 	ldbu	r3,10(r2)
    1fd8:	e0ffee45 	stb	r3,-71(fp)
    1fdc:	10c002c3 	ldbu	r3,11(r2)
    1fe0:	e0ffee85 	stb	r3,-70(fp)
    1fe4:	10800303 	ldbu	r2,12(r2)
    1fe8:	e0bfeec5 	stb	r2,-69(fp)
    1fec:	e03fef05 	stb	zero,-68(fp)
    1ff0:	e03fef45 	stb	zero,-67(fp)
    1ff4:	e03fef85 	stb	zero,-66(fp)
    1ff8:	e03fefc5 	stb	zero,-65(fp)
    1ffc:	e03ff005 	stb	zero,-64(fp)
    2000:	e03ff045 	stb	zero,-63(fp)
    2004:	e03ff085 	stb	zero,-62(fp)
    2008:	e13febc4 	addi	r4,fp,-81
    200c:	e0ff9b84 	addi	r3,fp,-402
    2010:	e0bfa084 	addi	r2,fp,-382
    2014:	200f883a 	mov	r7,r4
    2018:	180d883a 	mov	r6,r3
    201c:	014000b4 	movhi	r5,2
    2020:	29477704 	addi	r5,r5,7644
    2024:	1009883a 	mov	r4,r2
    2028:	00035bc0 	call	35bc <sprintf>
	break;
    202c:	00005806 	br	2190 <read_switches+0xb60>
	case(0x0E):	{char mensajito[20]=	"START&PRESS&TEMP\0";sprintf(mensajetodo,"%s %s",mensaje,mensajito);}
    2030:	008000b4 	movhi	r2,2
    2034:	1087b104 	addi	r2,r2,7876
    2038:	e0fff0c4 	addi	r3,fp,-61
    203c:	1009883a 	mov	r4,r2
    2040:	00800484 	movi	r2,18
    2044:	100d883a 	mov	r6,r2
    2048:	200b883a 	mov	r5,r4
    204c:	1809883a 	mov	r4,r3
    2050:	00031b40 	call	31b4 <memcpy>
    2054:	e03ff545 	stb	zero,-43(fp)
    2058:	e03ff585 	stb	zero,-42(fp)
    205c:	e13ff0c4 	addi	r4,fp,-61
    2060:	e0ff9b84 	addi	r3,fp,-402
    2064:	e0bfa084 	addi	r2,fp,-382
    2068:	200f883a 	mov	r7,r4
    206c:	180d883a 	mov	r6,r3
    2070:	014000b4 	movhi	r5,2
    2074:	29477704 	addi	r5,r5,7644
    2078:	1009883a 	mov	r4,r2
    207c:	00035bc0 	call	35bc <sprintf>
	break;
    2080:	00004306 	br	2190 <read_switches+0xb60>
	case(0x0F):	{char mensajito[20]=	"START&PRESS&TEMP\0";sprintf(mensajetodo,"%s %s",mensaje,mensajito);}
    2084:	008000b4 	movhi	r2,2
    2088:	1087b104 	addi	r2,r2,7876
    208c:	e0fff5c4 	addi	r3,fp,-41
    2090:	1009883a 	mov	r4,r2
    2094:	00800484 	movi	r2,18
    2098:	100d883a 	mov	r6,r2
    209c:	200b883a 	mov	r5,r4
    20a0:	1809883a 	mov	r4,r3
    20a4:	00031b40 	call	31b4 <memcpy>
    20a8:	e03ffa45 	stb	zero,-23(fp)
    20ac:	e03ffa85 	stb	zero,-22(fp)
    20b0:	e13ff5c4 	addi	r4,fp,-41
    20b4:	e0ff9b84 	addi	r3,fp,-402
    20b8:	e0bfa084 	addi	r2,fp,-382
    20bc:	200f883a 	mov	r7,r4
    20c0:	180d883a 	mov	r6,r3
    20c4:	014000b4 	movhi	r5,2
    20c8:	29477704 	addi	r5,r5,7644
    20cc:	1009883a 	mov	r4,r2
    20d0:	00035bc0 	call	35bc <sprintf>
	break;
    20d4:	00002e06 	br	2190 <read_switches+0xb60>
	default: 	{char mensajito[20]=	"WRONG SWITCH\0";sprintf(mensajetodo,"%s %s",mensaje,mensajito);}
    20d8:	008000b4 	movhi	r2,2
    20dc:	1087b604 	addi	r2,r2,7896
    20e0:	10c00003 	ldbu	r3,0(r2)
    20e4:	e0fffac5 	stb	r3,-21(fp)
    20e8:	10c00043 	ldbu	r3,1(r2)
    20ec:	e0fffb05 	stb	r3,-20(fp)
    20f0:	10c00083 	ldbu	r3,2(r2)
    20f4:	e0fffb45 	stb	r3,-19(fp)
    20f8:	10c000c3 	ldbu	r3,3(r2)
    20fc:	e0fffb85 	stb	r3,-18(fp)
    2100:	10c00103 	ldbu	r3,4(r2)
    2104:	e0fffbc5 	stb	r3,-17(fp)
    2108:	10c00143 	ldbu	r3,5(r2)
    210c:	e0fffc05 	stb	r3,-16(fp)
    2110:	10c00183 	ldbu	r3,6(r2)
    2114:	e0fffc45 	stb	r3,-15(fp)
    2118:	10c001c3 	ldbu	r3,7(r2)
    211c:	e0fffc85 	stb	r3,-14(fp)
    2120:	10c00203 	ldbu	r3,8(r2)
    2124:	e0fffcc5 	stb	r3,-13(fp)
    2128:	10c00243 	ldbu	r3,9(r2)
    212c:	e0fffd05 	stb	r3,-12(fp)
    2130:	10c00283 	ldbu	r3,10(r2)
    2134:	e0fffd45 	stb	r3,-11(fp)
    2138:	10c002c3 	ldbu	r3,11(r2)
    213c:	e0fffd85 	stb	r3,-10(fp)
    2140:	10c00303 	ldbu	r3,12(r2)
    2144:	e0fffdc5 	stb	r3,-9(fp)
    2148:	10800343 	ldbu	r2,13(r2)
    214c:	e0bffe05 	stb	r2,-8(fp)
    2150:	e03ffe45 	stb	zero,-7(fp)
    2154:	e03ffe85 	stb	zero,-6(fp)
    2158:	e03ffec5 	stb	zero,-5(fp)
    215c:	e03fff05 	stb	zero,-4(fp)
    2160:	e03fff45 	stb	zero,-3(fp)
    2164:	e03fff85 	stb	zero,-2(fp)
    2168:	e13ffac4 	addi	r4,fp,-21
    216c:	e0ff9b84 	addi	r3,fp,-402
    2170:	e0bfa084 	addi	r2,fp,-382
    2174:	200f883a 	mov	r7,r4
    2178:	180d883a 	mov	r6,r3
    217c:	014000b4 	movhi	r5,2
    2180:	29477704 	addi	r5,r5,7644
    2184:	1009883a 	mov	r4,r2
    2188:	00035bc0 	call	35bc <sprintf>
	break;
    218c:	0001883a 	nop
	}

	return_code=OSFlagPost(EstadoMotor,(INT8U )SW_value,OS_FLAG_SET,&Error);
    2190:	d0e84217 	ldw	r3,-24312(gp)
    2194:	e0bf9a17 	ldw	r2,-408(fp)
    2198:	10803fcc 	andi	r2,r2,255
    219c:	e13faa84 	addi	r4,fp,-342
    21a0:	200f883a 	mov	r7,r4
    21a4:	01800044 	movi	r6,1
    21a8:	100b883a 	mov	r5,r2
    21ac:	1809883a 	mov	r4,r3
    21b0:	00171840 	call	17184 <OSFlagPost>
    21b4:	e0bf9b0d 	sth	r2,-404(fp)
	alt_ucosii_check_return_code(Error);
    21b8:	e0bfaa83 	ldbu	r2,-342(fp)
    21bc:	10803fcc 	andi	r2,r2,255
    21c0:	1009883a 	mov	r4,r2
    21c4:	00005000 	call	500 <alt_ucosii_check_return_code>
	printf("El valor actual de los switches es %02d\n", return_code);
    21c8:	e0bf9b0b 	ldhu	r2,-404(fp)
    21cc:	100b883a 	mov	r5,r2
    21d0:	010000b4 	movhi	r4,2
    21d4:	21077904 	addi	r4,r4,7652
    21d8:	00034540 	call	3454 <printf>

	borra_lineas_pantalla (22,23);
    21dc:	014005c4 	movi	r5,23
    21e0:	01000584 	movi	r4,22
    21e4:	00004000 	call	400 <borra_lineas_pantalla>
	MTL_text (2, 22, mensajetodo);
    21e8:	e0bfa084 	addi	r2,fp,-382
    21ec:	100d883a 	mov	r6,r2
    21f0:	01400584 	movi	r5,22
    21f4:	01000084 	movi	r4,2
    21f8:	00003740 	call	374 <MTL_text>

	OSTimeDlyHMSM(0,0,0,300);
    21fc:	01c04b04 	movi	r7,300
    2200:	000d883a 	mov	r6,zero
    2204:	000b883a 	mov	r5,zero
    2208:	0009883a 	mov	r4,zero
    220c:	001b4dc0 	call	1b4dc <OSTimeDlyHMSM>
	}
    2210:	003d2106 	br	1698 <__alt_mem_onchip_memory+0xf7801698>

00002214 <getsem_task1>:
/*The next two task compete for a shared resource via a semaphore.  The name of
 * the task that owns the semaphore is copied into the global variable
 * sem_owner_task_name[].
 */
void getsem_task1(void* pdata)
{
    2214:	defffc04 	addi	sp,sp,-16
    2218:	dfc00315 	stw	ra,12(sp)
    221c:	df000215 	stw	fp,8(sp)
    2220:	df000204 	addi	fp,sp,8
    2224:	e13fff15 	stw	r4,-4(fp)
  INT8U return_code = OS_NO_ERR;
    2228:	e03ffe05 	stb	zero,-8(fp)

  while (1)
  {
    OSSemPend(shared_resource_sem, 0, &return_code);
    222c:	d0a84317 	ldw	r2,-24308(gp)
    2230:	e1bffe04 	addi	r6,fp,-8
    2234:	000b883a 	mov	r5,zero
    2238:	1009883a 	mov	r4,r2
    223c:	00195d40 	call	195d4 <OSSemPend>
    alt_ucosii_check_return_code(return_code);
    2240:	e0bffe03 	ldbu	r2,-8(fp)
    2244:	10803fcc 	andi	r2,r2,255
    2248:	1009883a 	mov	r4,r2
    224c:	00005000 	call	500 <alt_ucosii_check_return_code>
    strcpy(&sem_owner_task_name[0], "getsem_task1");
    2250:	00800134 	movhi	r2,4
    2254:	10ba2604 	addi	r2,r2,-5992
    2258:	00c019c4 	movi	r3,103
    225c:	10c00005 	stb	r3,0(r2)
    2260:	00c01944 	movi	r3,101
    2264:	10c00045 	stb	r3,1(r2)
    2268:	00c01d04 	movi	r3,116
    226c:	10c00085 	stb	r3,2(r2)
    2270:	00c01cc4 	movi	r3,115
    2274:	10c000c5 	stb	r3,3(r2)
    2278:	00c01944 	movi	r3,101
    227c:	10c00105 	stb	r3,4(r2)
    2280:	00c01b44 	movi	r3,109
    2284:	10c00145 	stb	r3,5(r2)
    2288:	00c017c4 	movi	r3,95
    228c:	10c00185 	stb	r3,6(r2)
    2290:	00c01d04 	movi	r3,116
    2294:	10c001c5 	stb	r3,7(r2)
    2298:	00c01844 	movi	r3,97
    229c:	10c00205 	stb	r3,8(r2)
    22a0:	00c01cc4 	movi	r3,115
    22a4:	10c00245 	stb	r3,9(r2)
    22a8:	00c01ac4 	movi	r3,107
    22ac:	10c00285 	stb	r3,10(r2)
    22b0:	00c00c44 	movi	r3,49
    22b4:	10c002c5 	stb	r3,11(r2)
    22b8:	10000305 	stb	zero,12(r2)
    getsem_task1_got_sem++;
    22bc:	d0a84817 	ldw	r2,-24288(gp)
    22c0:	10800044 	addi	r2,r2,1
    22c4:	d0a84815 	stw	r2,-24288(gp)
    OSSemPost(shared_resource_sem);
    22c8:	d0a84317 	ldw	r2,-24308(gp)
    22cc:	1009883a 	mov	r4,r2
    22d0:	001994c0 	call	1994c <OSSemPost>
    OSTimeDlyHMSM(0, 0, 0, 100);
    22d4:	01c01904 	movi	r7,100
    22d8:	000d883a 	mov	r6,zero
    22dc:	000b883a 	mov	r5,zero
    22e0:	0009883a 	mov	r4,zero
    22e4:	001b4dc0 	call	1b4dc <OSTimeDlyHMSM>
  }
    22e8:	003fd006 	br	222c <__alt_mem_onchip_memory+0xf780222c>

000022ec <getsem_task2>:
}

void getsem_task2(void* pdata)
{
    22ec:	defffc04 	addi	sp,sp,-16
    22f0:	dfc00315 	stw	ra,12(sp)
    22f4:	df000215 	stw	fp,8(sp)
    22f8:	df000204 	addi	fp,sp,8
    22fc:	e13fff15 	stw	r4,-4(fp)
  INT8U return_code = OS_NO_ERR;
    2300:	e03ffe05 	stb	zero,-8(fp)
  while (1)
  {
    OSSemPend(shared_resource_sem, 0, &return_code);
    2304:	d0a84317 	ldw	r2,-24308(gp)
    2308:	e1bffe04 	addi	r6,fp,-8
    230c:	000b883a 	mov	r5,zero
    2310:	1009883a 	mov	r4,r2
    2314:	00195d40 	call	195d4 <OSSemPend>
    strcpy(&sem_owner_task_name[0], "getsem_task2");
    2318:	00800134 	movhi	r2,4
    231c:	10ba2604 	addi	r2,r2,-5992
    2320:	00c019c4 	movi	r3,103
    2324:	10c00005 	stb	r3,0(r2)
    2328:	00c01944 	movi	r3,101
    232c:	10c00045 	stb	r3,1(r2)
    2330:	00c01d04 	movi	r3,116
    2334:	10c00085 	stb	r3,2(r2)
    2338:	00c01cc4 	movi	r3,115
    233c:	10c000c5 	stb	r3,3(r2)
    2340:	00c01944 	movi	r3,101
    2344:	10c00105 	stb	r3,4(r2)
    2348:	00c01b44 	movi	r3,109
    234c:	10c00145 	stb	r3,5(r2)
    2350:	00c017c4 	movi	r3,95
    2354:	10c00185 	stb	r3,6(r2)
    2358:	00c01d04 	movi	r3,116
    235c:	10c001c5 	stb	r3,7(r2)
    2360:	00c01844 	movi	r3,97
    2364:	10c00205 	stb	r3,8(r2)
    2368:	00c01cc4 	movi	r3,115
    236c:	10c00245 	stb	r3,9(r2)
    2370:	00c01ac4 	movi	r3,107
    2374:	10c00285 	stb	r3,10(r2)
    2378:	00c00c84 	movi	r3,50
    237c:	10c002c5 	stb	r3,11(r2)
    2380:	10000305 	stb	zero,12(r2)
    alt_ucosii_check_return_code(return_code);
    2384:	e0bffe03 	ldbu	r2,-8(fp)
    2388:	10803fcc 	andi	r2,r2,255
    238c:	1009883a 	mov	r4,r2
    2390:	00005000 	call	500 <alt_ucosii_check_return_code>
    getsem_task2_got_sem++;
    2394:	d0a84917 	ldw	r2,-24284(gp)
    2398:	10800044 	addi	r2,r2,1
    239c:	d0a84915 	stw	r2,-24284(gp)
    OSSemPost(shared_resource_sem);
    23a0:	d0a84317 	ldw	r2,-24308(gp)
    23a4:	1009883a 	mov	r4,r2
    23a8:	001994c0 	call	1994c <OSSemPost>
    OSTimeDlyHMSM(0, 0, 0, 130);
    23ac:	01c02084 	movi	r7,130
    23b0:	000d883a 	mov	r6,zero
    23b4:	000b883a 	mov	r5,zero
    23b8:	0009883a 	mov	r4,zero
    23bc:	001b4dc0 	call	1b4dc <OSTimeDlyHMSM>
  }
    23c0:	003fd006 	br	2304 <__alt_mem_onchip_memory+0xf7802304>

000023c4 <getsem_task3>:
}
// EJERCICIO 2
void getsem_task3(void* pdata)
{
    23c4:	defffc04 	addi	sp,sp,-16
    23c8:	dfc00315 	stw	ra,12(sp)
    23cc:	df000215 	stw	fp,8(sp)
    23d0:	df000204 	addi	fp,sp,8
    23d4:	e13fff15 	stw	r4,-4(fp)
  INT8U return_code = OS_NO_ERR;
    23d8:	e03ffe05 	stb	zero,-8(fp)
  while (1)
  {
    //OSSemPend(shared_resource_sem, 0, &return_code);
    OSSemPend(shared_resource_sem, 100, &return_code); /*Ejercicio 2 g*/
    23dc:	d0a84317 	ldw	r2,-24308(gp)
    23e0:	e1bffe04 	addi	r6,fp,-8
    23e4:	01401904 	movi	r5,100
    23e8:	1009883a 	mov	r4,r2
    23ec:	00195d40 	call	195d4 <OSSemPend>
    strcpy(&sem_owner_task_name[0], "getsem_task3");
    23f0:	00800134 	movhi	r2,4
    23f4:	10ba2604 	addi	r2,r2,-5992
    23f8:	00c019c4 	movi	r3,103
    23fc:	10c00005 	stb	r3,0(r2)
    2400:	00c01944 	movi	r3,101
    2404:	10c00045 	stb	r3,1(r2)
    2408:	00c01d04 	movi	r3,116
    240c:	10c00085 	stb	r3,2(r2)
    2410:	00c01cc4 	movi	r3,115
    2414:	10c000c5 	stb	r3,3(r2)
    2418:	00c01944 	movi	r3,101
    241c:	10c00105 	stb	r3,4(r2)
    2420:	00c01b44 	movi	r3,109
    2424:	10c00145 	stb	r3,5(r2)
    2428:	00c017c4 	movi	r3,95
    242c:	10c00185 	stb	r3,6(r2)
    2430:	00c01d04 	movi	r3,116
    2434:	10c001c5 	stb	r3,7(r2)
    2438:	00c01844 	movi	r3,97
    243c:	10c00205 	stb	r3,8(r2)
    2440:	00c01cc4 	movi	r3,115
    2444:	10c00245 	stb	r3,9(r2)
    2448:	00c01ac4 	movi	r3,107
    244c:	10c00285 	stb	r3,10(r2)
    2450:	00c00cc4 	movi	r3,51
    2454:	10c002c5 	stb	r3,11(r2)
    2458:	10000305 	stb	zero,12(r2)
    alt_ucosii_check_return_code(return_code);
    245c:	e0bffe03 	ldbu	r2,-8(fp)
    2460:	10803fcc 	andi	r2,r2,255
    2464:	1009883a 	mov	r4,r2
    2468:	00005000 	call	500 <alt_ucosii_check_return_code>
    getsem_task3_got_sem++;
    246c:	d0a84a17 	ldw	r2,-24280(gp)
    2470:	10800044 	addi	r2,r2,1
    2474:	d0a84a15 	stw	r2,-24280(gp)
    OSSemPost(shared_resource_sem);
    2478:	d0a84317 	ldw	r2,-24308(gp)
    247c:	1009883a 	mov	r4,r2
    2480:	001994c0 	call	1994c <OSSemPost>
    OSTimeDlyHMSM(0, 0, 0, 100);
    2484:	01c01904 	movi	r7,100
    2488:	000d883a 	mov	r6,zero
    248c:	000b883a 	mov	r5,zero
    2490:	0009883a 	mov	r4,zero
    2494:	001b4dc0 	call	1b4dc <OSTimeDlyHMSM>
  }
    2498:	003fd006 	br	23dc <__alt_mem_onchip_memory+0xf78023dc>

0000249c <getsem_task4>:
}

void getsem_task4(void* pdata)
{
    249c:	defffa04 	addi	sp,sp,-24
    24a0:	dfc00515 	stw	ra,20(sp)
    24a4:	df000415 	stw	fp,16(sp)
    24a8:	df000404 	addi	fp,sp,16
    24ac:	e13fff15 	stw	r4,-4(fp)
  INT8U return_code = OS_NO_ERR;
    24b0:	e03ffc45 	stb	zero,-15(fp)
  OS_SEM_DATA sem_data;
  BOOLEAN stopper=1;
    24b4:	00800044 	movi	r2,1
    24b8:	e0bffc05 	stb	r2,-16(fp)
  while (1)
  {
    //OSSemPend(shared_resource_sem, 0, &return_code);
    OSSemAccept(shared_resource_sem);
    24bc:	d0a84317 	ldw	r2,-24308(gp)
    24c0:	1009883a 	mov	r4,r2
    24c4:	001920c0 	call	1920c <OSSemAccept>
	return_code=OSSemQuery(shared_resource_sem,&sem_data);
    24c8:	d0a84317 	ldw	r2,-24308(gp)
    24cc:	e0fffc84 	addi	r3,fp,-14
    24d0:	180b883a 	mov	r5,r3
    24d4:	1009883a 	mov	r4,r2
    24d8:	0019a5c0 	call	19a5c <OSSemQuery>
    24dc:	e0bffc45 	stb	r2,-15(fp)
	alt_ucosii_check_return_code(return_code);
    24e0:	e0bffc43 	ldbu	r2,-15(fp)
    24e4:	1009883a 	mov	r4,r2
    24e8:	00005000 	call	500 <alt_ucosii_check_return_code>
	if (sem_data.OSCnt==0){
    24ec:	e0bffc8b 	ldhu	r2,-14(fp)
    24f0:	10bfffcc 	andi	r2,r2,65535
    24f4:	1000071e 	bne	r2,zero,2514 <getsem_task4+0x78>
		if (stopper){
    24f8:	e0bffc03 	ldbu	r2,-16(fp)
    24fc:	103fef26 	beq	r2,zero,24bc <__alt_mem_onchip_memory+0xf78024bc>
			printf("La tarea 4 se ha comido todos los recursos\n");
    2500:	010000b4 	movhi	r4,2
    2504:	2107bb04 	addi	r4,r4,7916
    2508:	00035500 	call	3550 <puts>
			stopper=0;
    250c:	e03ffc05 	stb	zero,-16(fp)
    2510:	003fea06 	br	24bc <__alt_mem_onchip_memory+0xf78024bc>
		}
	}
	else{
		strcpy(&sem_owner_task_name[0], "getsem_task4");
    2514:	00800134 	movhi	r2,4
    2518:	10ba2604 	addi	r2,r2,-5992
    251c:	00c019c4 	movi	r3,103
    2520:	10c00005 	stb	r3,0(r2)
    2524:	00c01944 	movi	r3,101
    2528:	10c00045 	stb	r3,1(r2)
    252c:	00c01d04 	movi	r3,116
    2530:	10c00085 	stb	r3,2(r2)
    2534:	00c01cc4 	movi	r3,115
    2538:	10c000c5 	stb	r3,3(r2)
    253c:	00c01944 	movi	r3,101
    2540:	10c00105 	stb	r3,4(r2)
    2544:	00c01b44 	movi	r3,109
    2548:	10c00145 	stb	r3,5(r2)
    254c:	00c017c4 	movi	r3,95
    2550:	10c00185 	stb	r3,6(r2)
    2554:	00c01d04 	movi	r3,116
    2558:	10c001c5 	stb	r3,7(r2)
    255c:	00c01844 	movi	r3,97
    2560:	10c00205 	stb	r3,8(r2)
    2564:	00c01cc4 	movi	r3,115
    2568:	10c00245 	stb	r3,9(r2)
    256c:	00c01ac4 	movi	r3,107
    2570:	10c00285 	stb	r3,10(r2)
    2574:	00c00d04 	movi	r3,52
    2578:	10c002c5 	stb	r3,11(r2)
    257c:	10000305 	stb	zero,12(r2)
		alt_ucosii_check_return_code(return_code);
    2580:	e0bffc43 	ldbu	r2,-15(fp)
    2584:	1009883a 	mov	r4,r2
    2588:	00005000 	call	500 <alt_ucosii_check_return_code>
		getsem_task4_got_sem++;
    258c:	d0a84b17 	ldw	r2,-24276(gp)
    2590:	10800044 	addi	r2,r2,1
    2594:	d0a84b15 	stw	r2,-24276(gp)
	//}

    //OSSemPost(shared_resource_sem); // comentar para el apartado d y f
    //OSTimeDlyHMSM(0, 0, 0, 130);
    OSTimeDlyHMSM(0, 0, 5, 0); /*Ejercicio 2 f*/
    2598:	000f883a 	mov	r7,zero
    259c:	01800144 	movi	r6,5
    25a0:	000b883a 	mov	r5,zero
    25a4:	0009883a 	mov	r4,zero
    25a8:	001b4dc0 	call	1b4dc <OSTimeDlyHMSM>
	}
  }
    25ac:	003fc306 	br	24bc <__alt_mem_onchip_memory+0xf78024bc>

000025b0 <query_sem>:
}

// Apartado a
void query_sem(void* pdata)
{
    25b0:	defffa04 	addi	sp,sp,-24
    25b4:	dfc00515 	stw	ra,20(sp)
    25b8:	df000415 	stw	fp,16(sp)
    25bc:	df000404 	addi	fp,sp,16
    25c0:	e13fff15 	stw	r4,-4(fp)
INT8U return_code = OS_NO_ERR;
    25c4:	e03ffc05 	stb	zero,-16(fp)
OS_SEM_DATA sem_data;


while (1)
{
	return_code=OSSemQuery(shared_resource_sem,&sem_data);
    25c8:	d0a84317 	ldw	r2,-24308(gp)
    25cc:	e0fffd04 	addi	r3,fp,-12
    25d0:	180b883a 	mov	r5,r3
    25d4:	1009883a 	mov	r4,r2
    25d8:	0019a5c0 	call	19a5c <OSSemQuery>
    25dc:	e0bffc05 	stb	r2,-16(fp)
	alt_ucosii_check_return_code(return_code);
    25e0:	e0bffc03 	ldbu	r2,-16(fp)
    25e4:	1009883a 	mov	r4,r2
    25e8:	00005000 	call	500 <alt_ucosii_check_return_code>
	if(sem_data.OSEventGrp!=0x00){
    25ec:	e0bffe83 	ldbu	r2,-6(fp)
    25f0:	10803fcc 	andi	r2,r2,255
    25f4:	10001726 	beq	r2,zero,2654 <query_sem+0xa4>
		y=OSUnMapTbl[sem_data.OSEventGrp];
    25f8:	e0bffe83 	ldbu	r2,-6(fp)
    25fc:	10c03fcc 	andi	r3,r2,255
    2600:	008000b4 	movhi	r2,2
    2604:	10891d04 	addi	r2,r2,9332
    2608:	10c5883a 	add	r2,r2,r3
    260c:	10800003 	ldbu	r2,0(r2)
    2610:	e0bffc45 	stb	r2,-15(fp)
		x=OSUnMapTbl[sem_data.OSEventTbl[y]];
    2614:	e0bffc43 	ldbu	r2,-15(fp)
    2618:	e0fffd84 	addi	r3,fp,-10
    261c:	1885883a 	add	r2,r3,r2
    2620:	10800003 	ldbu	r2,0(r2)
    2624:	10c03fcc 	andi	r3,r2,255
    2628:	008000b4 	movhi	r2,2
    262c:	10891d04 	addi	r2,r2,9332
    2630:	10c5883a 	add	r2,r2,r3
    2634:	10800003 	ldbu	r2,0(r2)
    2638:	e0bffc85 	stb	r2,-14(fp)
		highest=(y<<3)+x;
    263c:	e0bffc43 	ldbu	r2,-15(fp)
    2640:	100490fa 	slli	r2,r2,3
    2644:	1007883a 	mov	r3,r2
    2648:	e0bffc83 	ldbu	r2,-14(fp)
    264c:	1885883a 	add	r2,r3,r2
    2650:	d0a84e05 	stb	r2,-24264(gp)
}
	OSTimeDlyHMSM(0, 0, 0, 100);
    2654:	01c01904 	movi	r7,100
    2658:	000d883a 	mov	r6,zero
    265c:	000b883a 	mov	r5,zero
    2660:	0009883a 	mov	r4,zero
    2664:	001b4dc0 	call	1b4dc <OSTimeDlyHMSM>
}
    2668:	003fd706 	br	25c8 <__alt_mem_onchip_memory+0xf78025c8>

0000266c <CHEQUEO_MOTOR>:

//EJERCICIO 2

// EJERCICIO 4

void CHEQUEO_MOTOR() {
    266c:	defffc04 	addi	sp,sp,-16
    2670:	dfc00315 	stw	ra,12(sp)
    2674:	df000215 	stw	fp,8(sp)
    2678:	df000204 	addi	fp,sp,8

	OS_FLAGS Respuesta;
	INT8U Error=OS_NO_ERR;
    267c:	e03fff85 	stb	zero,-2(fp)
	while(1){

		Respuesta=OSFlagPend(EstadoMotor,MOTOR_START+PRESION_ACEITE_OK+TEMP_ACEITE_MOTOR_OK,OS_FLAG_WAIT_SET_ALL + OS_FLAG_CONSUME,2000,&Error);
    2680:	d0e84217 	ldw	r3,-24312(gp)
    2684:	e0bfff84 	addi	r2,fp,-2
    2688:	d8800015 	stw	r2,0(sp)
    268c:	01c1f404 	movi	r7,2000
    2690:	01802084 	movi	r6,130
    2694:	01400384 	movi	r5,14
    2698:	1809883a 	mov	r4,r3
    269c:	0016b6c0 	call	16b6c <OSFlagPend>
    26a0:	e0bfff0d 	sth	r2,-4(fp)

		switch (Error) {
    26a4:	e0bfff83 	ldbu	r2,-2(fp)
    26a8:	10803fcc 	andi	r2,r2,255
    26ac:	10000326 	beq	r2,zero,26bc <CHEQUEO_MOTOR+0x50>
    26b0:	108002a0 	cmpeqi	r2,r2,10
    26b4:	1000071e 	bne	r2,zero,26d4 <CHEQUEO_MOTOR+0x68>
    26b8:	00000a06 	br	26e4 <CHEQUEO_MOTOR+0x78>
		case OS_ERR_NONE:
		/* Desired flags are available */
			printf("El Motor ha arrancado yupiiii...los flags registrados estan a %02d\n", Respuesta);
    26bc:	e0bfff0b 	ldhu	r2,-4(fp)
    26c0:	100b883a 	mov	r5,r2
    26c4:	010000b4 	movhi	r4,2
    26c8:	2107c604 	addi	r4,r4,7960
    26cc:	00034540 	call	3454 <printf>
		break;
    26d0:	00000406 	br	26e4 <CHEQUEO_MOTOR+0x78>
		case OS_ERR_TIMEOUT:
		/* The desired flags were NOT available before .. */
		/* .. 2000 ticks occurred */
			printf("El motor no esta preparado ...\n");
    26d4:	010000b4 	movhi	r4,2
    26d8:	2107d704 	addi	r4,r4,8028
    26dc:	00035500 	call	3550 <puts>
		break;
    26e0:	0001883a 	nop
		}

		OSTimeDlyHMSM(0,0,1,0);
    26e4:	000f883a 	mov	r7,zero
    26e8:	01800044 	movi	r6,1
    26ec:	000b883a 	mov	r5,zero
    26f0:	0009883a 	mov	r4,zero
    26f4:	001b4dc0 	call	1b4dc <OSTimeDlyHMSM>

	}
    26f8:	003fe106 	br	2680 <__alt_mem_onchip_memory+0xf7802680>

000026fc <send_task>:
 * is not actually used by the application.  If the queue is full the task is
 * suspended for 1 second.
 */

void send_task(void* pdata)
{
    26fc:	deffd204 	addi	sp,sp,-184
    2700:	dfc02d15 	stw	ra,180(sp)
    2704:	df002c15 	stw	fp,176(sp)
    2708:	df002c04 	addi	fp,sp,176
    270c:	e13fff15 	stw	r4,-4(fp)
  INT8U return_code = OS_NO_ERR;
    2710:	e03fd405 	stb	zero,-176(fp)
  char mensaje[]=		"The Queue Message is: ";
    2714:	008000b4 	movhi	r2,2
    2718:	10880604 	addi	r2,r2,8216
    271c:	e0ffd444 	addi	r3,fp,-175
    2720:	1009883a 	mov	r4,r2
    2724:	008005c4 	movi	r2,23
    2728:	100d883a 	mov	r6,r2
    272c:	200b883a 	mov	r5,r4
    2730:	1809883a 	mov	r4,r3
    2734:	00031b40 	call	31b4 <memcpy>
  char  mensajito[] =	"...ME GUSTA EL REGGETON!";
    2738:	00934bb4 	movhi	r2,19758
    273c:	108b8b84 	addi	r2,r2,11822
    2740:	e0bfda15 	stw	r2,-152(fp)
    2744:	009551f4 	movhi	r2,21831
    2748:	10881144 	addi	r2,r2,8261
    274c:	e0bfdb15 	stw	r2,-148(fp)
    2750:	00881074 	movhi	r2,8257
    2754:	109514c4 	addi	r2,r2,21587
    2758:	e0bfdc15 	stw	r2,-144(fp)
    275c:	00948834 	movhi	r2,21024
    2760:	10931144 	addi	r2,r2,19525
    2764:	e0bfdd15 	stw	r2,-140(fp)
    2768:	009151f4 	movhi	r2,17735
    276c:	1091d144 	addi	r2,r2,18245
    2770:	e0bfde15 	stw	r2,-136(fp)
    2774:	008853b4 	movhi	r2,8526
    2778:	1093d504 	addi	r2,r2,20308
    277c:	e0bfdf15 	stw	r2,-132(fp)
    2780:	e03fe005 	stb	zero,-128(fp)


  char mensaje_m[]="ESTE ES EL MALDITO MENSAJE";
    2784:	008000b4 	movhi	r2,2
    2788:	10880c04 	addi	r2,r2,8240
    278c:	e0ffe044 	addi	r3,fp,-127
    2790:	1009883a 	mov	r4,r2
    2794:	008006c4 	movi	r2,27
    2798:	100d883a 	mov	r6,r2
    279c:	200b883a 	mov	r5,r4
    27a0:	1809883a 	mov	r4,r3
    27a4:	00031b40 	call	31b4 <memcpy>
   char mensaje1[]="ESTE ES EL MENSAJE SECRETO";
    27a8:	00915534 	movhi	r2,17748
    27ac:	1094d144 	addi	r2,r2,21317
    27b0:	e0bfe715 	stw	r2,-100(fp)
    27b4:	008814f4 	movhi	r2,8275
    27b8:	10914804 	addi	r2,r2,17696
    27bc:	e0bfe815 	stw	r2,-96(fp)
    27c0:	00934834 	movhi	r2,19744
    27c4:	10931144 	addi	r2,r2,19525
    27c8:	e0bfe915 	stw	r2,-92(fp)
    27cc:	009054f4 	movhi	r2,16723
    27d0:	10939144 	addi	r2,r2,20037
    27d4:	e0bfea15 	stw	r2,-88(fp)
    27d8:	0094c834 	movhi	r2,21280
    27dc:	10915284 	addi	r2,r2,17738
    27e0:	e0bfeb15 	stw	r2,-84(fp)
    27e4:	009154b4 	movhi	r2,17746
    27e8:	1090d144 	addi	r2,r2,17221
    27ec:	e0bfec15 	stw	r2,-80(fp)
    27f0:	0093d504 	movi	r2,20308
    27f4:	e0bfed0d 	sth	r2,-76(fp)
    27f8:	e03fed85 	stb	zero,-74(fp)



   OS_Q_DATA queue_data;

   printf("El mensaje es %s\n",mensaje);
    27fc:	e0bfd444 	addi	r2,fp,-175
    2800:	100b883a 	mov	r5,r2
    2804:	010000b4 	movhi	r4,2
    2808:	2107df04 	addi	r4,r4,8060
    280c:	00034540 	call	3454 <printf>
   printf("La cola de mensajes se inicia en la posicion de memoria %ld\n", (unsigned long int) &msgqueueTbl[0]);
    2810:	008000f4 	movhi	r2,3
    2814:	10ba0804 	addi	r2,r2,-6112
    2818:	100b883a 	mov	r5,r2
    281c:	010000b4 	movhi	r4,2
    2820:	2107e404 	addi	r4,r4,8080
    2824:	00034540 	call	3454 <printf>

   while (1) //llenamos la cola de mensajes cada vez que llamamos a esta funcion, no pasamos un unico mensaje
   {
     return_code = OSQQuery(msgqueue, &queue_data);
    2828:	d0a84117 	ldw	r2,-24316(gp)
    282c:	e0fffb04 	addi	r3,fp,-20
    2830:	180b883a 	mov	r5,r3
    2834:	1009883a 	mov	r4,r2
    2838:	00190080 	call	19008 <OSQQuery>
    283c:	e0bfd405 	stb	r2,-176(fp)
     alt_ucosii_check_return_code(return_code);
    2840:	e0bfd403 	ldbu	r2,-176(fp)
    2844:	1009883a 	mov	r4,r2
    2848:	00005000 	call	500 <alt_ucosii_check_return_code>
    if(queue_data.OSNMsgs < MSG_QUEUE_SIZE) /*Check the number of messages*/
    284c:	e0bffc0b 	ldhu	r2,-16(fp)
    2850:	10bfffcc 	andi	r2,r2,65535
    2854:	108007a8 	cmpgeui	r2,r2,30
    2858:	1000401e 	bne	r2,zero,295c <send_task+0x260>
     {                                       /*in the message queue*/
       if (queue_data.OSNMsgs == MSG_QUEUE_SIZE_E5) // Size de 9
    285c:	e0bffc0b 	ldhu	r2,-16(fp)
    2860:	10bfffcc 	andi	r2,r2,65535
    2864:	10800258 	cmpnei	r2,r2,9
    2868:	1000181e 	bne	r2,zero,28cc <send_task+0x1d0>
       {
     	  return_code = OSQPostFront(msgqueue, (void *)&mensaje1[0]); //introducimos el mensaje secreto como LIFO sin Broadcast
    286c:	d0a84117 	ldw	r2,-24316(gp)
    2870:	e0ffe704 	addi	r3,fp,-100
    2874:	180b883a 	mov	r5,r3
    2878:	1009883a 	mov	r4,r2
    287c:	0018c8c0 	call	18c8c <OSQPostFront>
    2880:	e0bfd405 	stb	r2,-176(fp)
     	  alt_ucosii_check_return_code(return_code);
    2884:	e0bfd403 	ldbu	r2,-176(fp)
    2888:	1009883a 	mov	r4,r2
    288c:	00005000 	call	500 <alt_ucosii_check_return_code>
          sprintf(mensajetodo,"%22s %25s",mensaje,mensaje1);
    2890:	e13fe704 	addi	r4,fp,-100
    2894:	e0ffd444 	addi	r3,fp,-175
    2898:	e0bfedc4 	addi	r2,fp,-73
    289c:	200f883a 	mov	r7,r4
    28a0:	180d883a 	mov	r6,r3
    28a4:	014000b4 	movhi	r5,2
    28a8:	2947f404 	addi	r5,r5,8144
    28ac:	1009883a 	mov	r4,r2
    28b0:	00035bc0 	call	35bc <sprintf>
          MTL_text (2, 20, mensajetodo);
    28b4:	e0bfedc4 	addi	r2,fp,-73
    28b8:	100d883a 	mov	r6,r2
    28bc:	01400504 	movi	r5,20
    28c0:	01000084 	movi	r4,2
    28c4:	00003740 	call	374 <MTL_text>
    28c8:	00001806 	br	292c <send_task+0x230>
       }
       else
       {
     	  return_code = OSQPostOpt(msgqueue, (void *)&mensaje_m[0], OS_POST_OPT_BROADCAST);
    28cc:	d0a84117 	ldw	r2,-24316(gp)
    28d0:	e0ffe044 	addi	r3,fp,-127
    28d4:	01800044 	movi	r6,1
    28d8:	180b883a 	mov	r5,r3
    28dc:	1009883a 	mov	r4,r2
    28e0:	0018dfc0 	call	18dfc <OSQPostOpt>
    28e4:	e0bfd405 	stb	r2,-176(fp)
     	  alt_ucosii_check_return_code(return_code);
    28e8:	e0bfd403 	ldbu	r2,-176(fp)
    28ec:	1009883a 	mov	r4,r2
    28f0:	00005000 	call	500 <alt_ucosii_check_return_code>
          sprintf(mensajetodo,"%22s %25s",mensaje,mensaje_m);
    28f4:	e13fe044 	addi	r4,fp,-127
    28f8:	e0ffd444 	addi	r3,fp,-175
    28fc:	e0bfedc4 	addi	r2,fp,-73
    2900:	200f883a 	mov	r7,r4
    2904:	180d883a 	mov	r6,r3
    2908:	014000b4 	movhi	r5,2
    290c:	2947f404 	addi	r5,r5,8144
    2910:	1009883a 	mov	r4,r2
    2914:	00035bc0 	call	35bc <sprintf>
          MTL_text (2, 20, mensajetodo);
    2918:	e0bfedc4 	addi	r2,fp,-73
    291c:	100d883a 	mov	r6,r2
    2920:	01400504 	movi	r5,20
    2924:	01000084 	movi	r4,2
    2928:	00003740 	call	374 <MTL_text>
       }


       number_of_messages_sent++;
    292c:	d0a84517 	ldw	r2,-24300(gp)
    2930:	10800044 	addi	r2,r2,1
    2934:	d0a84515 	stw	r2,-24300(gp)

       printf("La cola tiene %d mensajes y el tamanyo de la cola es %d\n",queue_data.OSNMsgs,queue_data.OSQSize);
    2938:	e0bffc0b 	ldhu	r2,-16(fp)
    293c:	10bfffcc 	andi	r2,r2,65535
    2940:	e0fffc8b 	ldhu	r3,-14(fp)
    2944:	18ffffcc 	andi	r3,r3,65535
    2948:	180d883a 	mov	r6,r3
    294c:	100b883a 	mov	r5,r2
    2950:	010000b4 	movhi	r4,2
    2954:	2107f704 	addi	r4,r4,8156
    2958:	00034540 	call	3454 <printf>
     }

    OSTimeDlyHMSM(0, 0, 0,500);
    295c:	01c07d04 	movi	r7,500
    2960:	000d883a 	mov	r6,zero
    2964:	000b883a 	mov	r5,zero
    2968:	0009883a 	mov	r4,zero
    296c:	001b4dc0 	call	1b4dc <OSTimeDlyHMSM>
   }
    2970:	003fad06 	br	2828 <__alt_mem_onchip_memory+0xf7802828>

00002974 <receive_task1>:

/*The next two task pull messages in the queue at different rates.  The number
 * of messages received by the task is incremented when a new message is received
 */
void receive_task1(void* pdata)
{
    2974:	deffe804 	addi	sp,sp,-96
    2978:	dfc01715 	stw	ra,92(sp)
    297c:	df001615 	stw	fp,88(sp)
    2980:	df001604 	addi	fp,sp,88
    2984:	e13fff15 	stw	r4,-4(fp)
  INT8U return_code = OS_NO_ERR;
    2988:	e03fea45 	stb	zero,-87(fp)
  void * msg;
  char mensaje[]="Queue Rx message in 1: ";
    298c:	009d5974 	movhi	r2,30053
    2990:	109d5444 	addi	r2,r2,30033
    2994:	e0bfec15 	stw	r2,-80(fp)
    2998:	009e14b4 	movhi	r2,30802
    299c:	10881944 	addi	r2,r2,8293
    29a0:	e0bfed15 	stw	r2,-76(fp)
    29a4:	009cd974 	movhi	r2,29541
    29a8:	109b4804 	addi	r2,r2,27936
    29ac:	e0bfee15 	stw	r2,-72(fp)
    29b0:	009959f4 	movhi	r2,25959
    29b4:	10985cc4 	addi	r2,r2,24947
    29b8:	e0bfef15 	stw	r2,-68(fp)
    29bc:	00881bb4 	movhi	r2,8302
    29c0:	109a4804 	addi	r2,r2,26912
    29c4:	e0bff015 	stw	r2,-64(fp)
    29c8:	00800834 	movhi	r2,32
    29cc:	108e8c44 	addi	r2,r2,14897
    29d0:	e0bff115 	stw	r2,-60(fp)
  char mensajetodo[50];

  INT8U resultado=1;
    29d4:	00800044 	movi	r2,1
    29d8:	e0bfea05 	stb	r2,-88(fp)
  msg=0;
    29dc:	e03feb15 	stw	zero,-84(fp)
  while (1)
  {
    msg = OSQPend(msgqueue, 0, &return_code);
    29e0:	d0a84117 	ldw	r2,-24316(gp)
    29e4:	e0ffea44 	addi	r3,fp,-87
    29e8:	180d883a 	mov	r6,r3
    29ec:	000b883a 	mov	r5,zero
    29f0:	1009883a 	mov	r4,r2
    29f4:	001872c0 	call	1872c <OSQPend>
    29f8:	e0bfeb15 	stw	r2,-84(fp)
    alt_ucosii_check_return_code(return_code);
    29fc:	e0bfea43 	ldbu	r2,-87(fp)
    2a00:	10803fcc 	andi	r2,r2,255
    2a04:	1009883a 	mov	r4,r2
    2a08:	00005000 	call	500 <alt_ucosii_check_return_code>
    sprintf(mensajetodo,"%22s %23s",mensaje,(char *)msg);
    2a0c:	e13feb17 	ldw	r4,-84(fp)
    2a10:	e0ffec04 	addi	r3,fp,-80
    2a14:	e0bff204 	addi	r2,fp,-56
    2a18:	200f883a 	mov	r7,r4
    2a1c:	180d883a 	mov	r6,r3
    2a20:	014000b4 	movhi	r5,2
    2a24:	29481304 	addi	r5,r5,8268
    2a28:	1009883a 	mov	r4,r2
    2a2c:	00035bc0 	call	35bc <sprintf>
    MTL_text (2, 25, mensajetodo);
    2a30:	e0bff204 	addi	r2,fp,-56
    2a34:	100d883a 	mov	r6,r2
    2a38:	01400644 	movi	r5,25
    2a3c:	01000084 	movi	r4,2
    2a40:	00003740 	call	374 <MTL_text>
	printf("Receive_task1 ha tomado el mensaje %s desde la posicion de memoria %4lu\n",msg,(unsigned long int)&msg);
    2a44:	e0bfeb17 	ldw	r2,-84(fp)
    2a48:	e0ffeb04 	addi	r3,fp,-84
    2a4c:	180d883a 	mov	r6,r3
    2a50:	100b883a 	mov	r5,r2
    2a54:	010000b4 	movhi	r4,2
    2a58:	21081604 	addi	r4,r4,8280
    2a5c:	00034540 	call	3454 <printf>
    number_of_messages_received_task1++;
    2a60:	d0a84617 	ldw	r2,-24296(gp)
    2a64:	10800044 	addi	r2,r2,1
    2a68:	d0a84615 	stw	r2,-24296(gp)
    resultado=strcmp(msg,"ESTE ES EL MENSAJE SECRETO");
    2a6c:	e0bfeb17 	ldw	r2,-84(fp)
    2a70:	014000b4 	movhi	r5,2
    2a74:	29482904 	addi	r5,r5,8356
    2a78:	1009883a 	mov	r4,r2
    2a7c:	00036280 	call	3628 <strcmp>
    2a80:	e0bfea05 	stb	r2,-88(fp)
// EJERCICIO 5 APARTADO D //
    if (resultado==0){
    2a84:	e0bfea03 	ldbu	r2,-88(fp)
    2a88:	10000b1e 	bne	r2,zero,2ab8 <receive_task1+0x144>
     return_code=OSQFlush(msgqueue);
    2a8c:	d0a84117 	ldw	r2,-24316(gp)
    2a90:	1009883a 	mov	r4,r2
    2a94:	00186740 	call	18674 <OSQFlush>
    2a98:	e0bfea45 	stb	r2,-87(fp)
     alt_ucosii_check_return_code(return_code);
    2a9c:	e0bfea43 	ldbu	r2,-87(fp)
    2aa0:	10803fcc 	andi	r2,r2,255
    2aa4:	1009883a 	mov	r4,r2
    2aa8:	00005000 	call	500 <alt_ucosii_check_return_code>
     printf("La cola se ha vaciado\n");
    2aac:	010000b4 	movhi	r4,2
    2ab0:	21083004 	addi	r4,r4,8384
    2ab4:	00035500 	call	3550 <puts>
    }
    else
     {
    }

    OSTimeDlyHMSM(0, 0, 3, 0);
    2ab8:	000f883a 	mov	r7,zero
    2abc:	018000c4 	movi	r6,3
    2ac0:	000b883a 	mov	r5,zero
    2ac4:	0009883a 	mov	r4,zero
    2ac8:	001b4dc0 	call	1b4dc <OSTimeDlyHMSM>

  }
    2acc:	003fc406 	br	29e0 <__alt_mem_onchip_memory+0xf78029e0>

00002ad0 <receive_task2>:
}

void receive_task2(void* pdata)
{
    2ad0:	deffe804 	addi	sp,sp,-96
    2ad4:	dfc01715 	stw	ra,92(sp)
    2ad8:	df001615 	stw	fp,88(sp)
    2adc:	df001604 	addi	fp,sp,88
    2ae0:	e13fff15 	stw	r4,-4(fp)
  INT8U return_code = OS_NO_ERR;
    2ae4:	e03fea45 	stb	zero,-87(fp)
  void * msg;
  char mensaje[]="Queue Rx message in 1: ";
    2ae8:	009d5974 	movhi	r2,30053
    2aec:	109d5444 	addi	r2,r2,30033
    2af0:	e0bfec15 	stw	r2,-80(fp)
    2af4:	009e14b4 	movhi	r2,30802
    2af8:	10881944 	addi	r2,r2,8293
    2afc:	e0bfed15 	stw	r2,-76(fp)
    2b00:	009cd974 	movhi	r2,29541
    2b04:	109b4804 	addi	r2,r2,27936
    2b08:	e0bfee15 	stw	r2,-72(fp)
    2b0c:	009959f4 	movhi	r2,25959
    2b10:	10985cc4 	addi	r2,r2,24947
    2b14:	e0bfef15 	stw	r2,-68(fp)
    2b18:	00881bb4 	movhi	r2,8302
    2b1c:	109a4804 	addi	r2,r2,26912
    2b20:	e0bff015 	stw	r2,-64(fp)
    2b24:	00800834 	movhi	r2,32
    2b28:	108e8c44 	addi	r2,r2,14897
    2b2c:	e0bff115 	stw	r2,-60(fp)
  char mensajetodo[50];

  INT8U resultado=1;
    2b30:	00800044 	movi	r2,1
    2b34:	e0bfea05 	stb	r2,-88(fp)
  msg=0;
    2b38:	e03feb15 	stw	zero,-84(fp)
  while (1)
  {
    msg = OSQPend(msgqueue, 0, &return_code);
    2b3c:	d0a84117 	ldw	r2,-24316(gp)
    2b40:	e0ffea44 	addi	r3,fp,-87
    2b44:	180d883a 	mov	r6,r3
    2b48:	000b883a 	mov	r5,zero
    2b4c:	1009883a 	mov	r4,r2
    2b50:	001872c0 	call	1872c <OSQPend>
    2b54:	e0bfeb15 	stw	r2,-84(fp)
    alt_ucosii_check_return_code(return_code);
    2b58:	e0bfea43 	ldbu	r2,-87(fp)
    2b5c:	10803fcc 	andi	r2,r2,255
    2b60:	1009883a 	mov	r4,r2
    2b64:	00005000 	call	500 <alt_ucosii_check_return_code>
    sprintf(mensajetodo,"%22s %23s",mensaje,(char *)msg);
    2b68:	e13feb17 	ldw	r4,-84(fp)
    2b6c:	e0ffec04 	addi	r3,fp,-80
    2b70:	e0bff204 	addi	r2,fp,-56
    2b74:	200f883a 	mov	r7,r4
    2b78:	180d883a 	mov	r6,r3
    2b7c:	014000b4 	movhi	r5,2
    2b80:	29481304 	addi	r5,r5,8268
    2b84:	1009883a 	mov	r4,r2
    2b88:	00035bc0 	call	35bc <sprintf>
    MTL_text (2, 25, mensajetodo);
    2b8c:	e0bff204 	addi	r2,fp,-56
    2b90:	100d883a 	mov	r6,r2
    2b94:	01400644 	movi	r5,25
    2b98:	01000084 	movi	r4,2
    2b9c:	00003740 	call	374 <MTL_text>
	printf("Receive_task2 ha tomado el mensaje %s desde la posicion de memoria %4lu\n",msg,(unsigned long int)&msg);
    2ba0:	e0bfeb17 	ldw	r2,-84(fp)
    2ba4:	e0ffeb04 	addi	r3,fp,-84
    2ba8:	180d883a 	mov	r6,r3
    2bac:	100b883a 	mov	r5,r2
    2bb0:	010000b4 	movhi	r4,2
    2bb4:	21083604 	addi	r4,r4,8408
    2bb8:	00034540 	call	3454 <printf>
    number_of_messages_received_task2++;
    2bbc:	d0a84717 	ldw	r2,-24292(gp)
    2bc0:	10800044 	addi	r2,r2,1
    2bc4:	d0a84715 	stw	r2,-24292(gp)
    resultado=strcmp(msg,"ESTE ES EL MENSAJE SECRETO");
    2bc8:	e0bfeb17 	ldw	r2,-84(fp)
    2bcc:	014000b4 	movhi	r5,2
    2bd0:	29482904 	addi	r5,r5,8356
    2bd4:	1009883a 	mov	r4,r2
    2bd8:	00036280 	call	3628 <strcmp>
    2bdc:	e0bfea05 	stb	r2,-88(fp)
    }
    else
     {
    }
*/
    OSTimeDlyHMSM(0, 0, 3, 0);
    2be0:	000f883a 	mov	r7,zero
    2be4:	018000c4 	movi	r6,3
    2be8:	000b883a 	mov	r5,zero
    2bec:	0009883a 	mov	r4,zero
    2bf0:	001b4dc0 	call	1b4dc <OSTimeDlyHMSM>

  }
    2bf4:	003fd106 	br	2b3c <__alt_mem_onchip_memory+0xf7802b3c>

00002bf8 <initOSDataStructs>:

/* This function simply creates a message queue and a semaphore
 */

int initOSDataStructs(void)
{
    2bf8:	defffd04 	addi	sp,sp,-12
    2bfc:	dfc00215 	stw	ra,8(sp)
    2c00:	df000115 	stw	fp,4(sp)
    2c04:	df000104 	addi	fp,sp,4
  INT8U ErrorFlags = OS_NO_ERR;
    2c08:	e03fff05 	stb	zero,-4(fp)

  msgqueue = OSQCreate(&msgqueueTbl[0], MSG_QUEUE_SIZE);
    2c0c:	01400784 	movi	r5,30
    2c10:	010000f4 	movhi	r4,3
    2c14:	213a0804 	addi	r4,r4,-6112
    2c18:	00182480 	call	18248 <OSQCreate>
    2c1c:	d0a84115 	stw	r2,-24316(gp)
  //shared_resource_sem = OSSemCreate(1);
  shared_resource_sem = OSSemCreate(3); /*ejercicio 2 e*/
    2c20:	010000c4 	movi	r4,3
    2c24:	00192bc0 	call	192bc <OSSemCreate>
    2c28:	d0a84315 	stw	r2,-24308(gp)
  //Ejercicio 4 EFG
  EstadoMotor = OSFlagCreate(0x00, &ErrorFlags);
    2c2c:	e17fff04 	addi	r5,fp,-4
    2c30:	0009883a 	mov	r4,zero
    2c34:	00165a80 	call	165a8 <OSFlagCreate>
    2c38:	d0a84215 	stw	r2,-24312(gp)
  alt_ucosii_check_return_code(ErrorFlags);
    2c3c:	e0bfff03 	ldbu	r2,-4(fp)
    2c40:	10803fcc 	andi	r2,r2,255
    2c44:	1009883a 	mov	r4,r2
    2c48:	00005000 	call	500 <alt_ucosii_check_return_code>
  return 0;
    2c4c:	0005883a 	mov	r2,zero
}
    2c50:	e037883a 	mov	sp,fp
    2c54:	dfc00117 	ldw	ra,4(sp)
    2c58:	df000017 	ldw	fp,0(sp)
    2c5c:	dec00204 	addi	sp,sp,8
    2c60:	f800283a 	ret

00002c64 <Mensaje_TaskMtl>:


void Mensaje_TaskMtl(char visualiza_string[40], int posicion)
	{
    2c64:	defffc04 	addi	sp,sp,-16
    2c68:	dfc00315 	stw	ra,12(sp)
    2c6c:	df000215 	stw	fp,8(sp)
    2c70:	df000204 	addi	fp,sp,8
    2c74:	e13ffe15 	stw	r4,-8(fp)
    2c78:	e17fff15 	stw	r5,-4(fp)
#ifdef PRINT
    	printf("%s\n",visualiza_string);
    2c7c:	e13ffe17 	ldw	r4,-8(fp)
    2c80:	00035500 	call	3550 <puts>
#endif
    posicion=(linea>ultima_linea)?primera_linea:linea++;
    2c84:	d0a00017 	ldw	r2,-32768(gp)
    2c88:	d0e00217 	ldw	r3,-32760(gp)
    2c8c:	18800416 	blt	r3,r2,2ca0 <Mensaje_TaskMtl+0x3c>
    2c90:	d0a00017 	ldw	r2,-32768(gp)
    2c94:	10c00044 	addi	r3,r2,1
    2c98:	d0e00015 	stw	r3,-32768(gp)
    2c9c:	00000106 	br	2ca4 <Mensaje_TaskMtl+0x40>
    2ca0:	d0a00117 	ldw	r2,-32764(gp)
    2ca4:	e0bfff15 	stw	r2,-4(fp)
    if (linea>ultima_linea){linea=primera_linea;}
    2ca8:	d0a00017 	ldw	r2,-32768(gp)
    2cac:	d0e00217 	ldw	r3,-32760(gp)
    2cb0:	1880020e 	bge	r3,r2,2cbc <Mensaje_TaskMtl+0x58>
    2cb4:	d0a00117 	ldw	r2,-32764(gp)
    2cb8:	d0a00015 	stw	r2,-32768(gp)
    MTL_text (2, posicion, visualiza_string);
    2cbc:	e1bffe17 	ldw	r6,-8(fp)
    2cc0:	e17fff17 	ldw	r5,-4(fp)
    2cc4:	01000084 	movi	r4,2
    2cc8:	00003740 	call	374 <MTL_text>
    borra_lineas_pantalla(posicion+1,posicion+2);
    2ccc:	e0bfff17 	ldw	r2,-4(fp)
    2cd0:	10c00044 	addi	r3,r2,1
    2cd4:	e0bfff17 	ldw	r2,-4(fp)
    2cd8:	10800084 	addi	r2,r2,2
    2cdc:	100b883a 	mov	r5,r2
    2ce0:	1809883a 	mov	r4,r3
    2ce4:	00004000 	call	400 <borra_lineas_pantalla>

    }
    2ce8:	0001883a 	nop
    2cec:	e037883a 	mov	sp,fp
    2cf0:	dfc00117 	ldw	ra,4(sp)
    2cf4:	df000017 	ldw	fp,0(sp)
    2cf8:	dec00204 	addi	sp,sp,8
    2cfc:	f800283a 	ret

00002d00 <TaskInit>:



void TaskInit(void* pdata)
{
    2d00:	defff104 	addi	sp,sp,-60
    2d04:	dfc00e15 	stw	ra,56(sp)
    2d08:	df000d15 	stw	fp,52(sp)
    2d0c:	df000d04 	addi	fp,sp,52
    2d10:	e13fff15 	stw	r4,-4(fp)
	char visualiza_string[40] = "Hello from Task Init";
    2d14:	008000b4 	movhi	r2,2
    2d18:	10884904 	addi	r2,r2,8484
    2d1c:	e0fff444 	addi	r3,fp,-47
    2d20:	1009883a 	mov	r4,r2
    2d24:	00800544 	movi	r2,21
    2d28:	100d883a 	mov	r6,r2
    2d2c:	200b883a 	mov	r5,r4
    2d30:	1809883a 	mov	r4,r3
    2d34:	00031b40 	call	31b4 <memcpy>
    2d38:	e0bff984 	addi	r2,fp,-26
    2d3c:	00c004c4 	movi	r3,19
    2d40:	180d883a 	mov	r6,r3
    2d44:	000b883a 	mov	r5,zero
    2d48:	1009883a 	mov	r4,r2
    2d4c:	00032fc0 	call	32fc <memset>
	int posicion=0;
    2d50:	e03ff315 	stw	zero,-52(fp)
	 INT8U return_code = OS_NO_ERR;
    2d54:	e03ff405 	stb	zero,-48(fp)
  while (1)
  {
		ledg_OFF_All();
    2d58:	0000e000 	call	e00 <ledg_OFF_All>
		blinky_ledg(green_LED_ptr,8);
    2d5c:	d0a00417 	ldw	r2,-32752(gp)
    2d60:	01400204 	movi	r5,8
    2d64:	1009883a 	mov	r4,r2
    2d68:	0000d900 	call	d90 <blinky_ledg>
		OSSchedLock();	 /* entramos en seccion critica*/
    2d6c:	0014b080 	call	14b08 <OSSchedLock>
		Mensaje_TaskMtl(visualiza_string, posicion);
    2d70:	e0bff444 	addi	r2,fp,-47
    2d74:	e17ff317 	ldw	r5,-52(fp)
    2d78:	1009883a 	mov	r4,r2
    2d7c:	0002c640 	call	2c64 <Mensaje_TaskMtl>
		OSSchedUnlock(); /* salimos SC */
    2d80:	0014b940 	call	14b94 <OSSchedUnlock>

	    /*create os data structures */
	    initOSDataStructs();
    2d84:	0002bf80 	call	2bf8 <initOSDataStructs>

	    /* create the tasks */
	    initCreateTasks();
    2d88:	0002e240 	call	2e24 <initCreateTasks>

	    /*This task is deleted because there is no need for it to run again */
	    return_code = OSTaskDel(OS_PRIO_SELF);
    2d8c:	01003fc4 	movi	r4,255
    2d90:	001a4ec0 	call	1a4ec <OSTaskDel>
    2d94:	e0bff405 	stb	r2,-48(fp)
	    alt_ucosii_check_return_code(return_code);
    2d98:	e0bff403 	ldbu	r2,-48(fp)
    2d9c:	1009883a 	mov	r4,r2
    2da0:	00005000 	call	500 <alt_ucosii_check_return_code>

  }
    2da4:	003fec06 	br	2d58 <__alt_mem_onchip_memory+0xf7802d58>

00002da8 <CreateTasks>:
}

void CreateTasks (void)
{
    2da8:	defff804 	addi	sp,sp,-32
    2dac:	dfc00715 	stw	ra,28(sp)
    2db0:	df000615 	stw	fp,24(sp)
    2db4:	df000604 	addi	fp,sp,24
	INT8U return_code = OS_NO_ERR;
    2db8:	e03fff05 	stb	zero,-4(fp)

	 return_code= OSTaskCreateExt(TaskInit,
    2dbc:	d8000415 	stw	zero,16(sp)
    2dc0:	d8000315 	stw	zero,12(sp)
    2dc4:	00820004 	movi	r2,2048
    2dc8:	d8800215 	stw	r2,8(sp)
    2dcc:	00800134 	movhi	r2,4
    2dd0:	10a22604 	addi	r2,r2,-30568
    2dd4:	d8800115 	stw	r2,4(sp)
    2dd8:	00800184 	movi	r2,6
    2ddc:	d8800015 	stw	r2,0(sp)
    2de0:	01c00184 	movi	r7,6
    2de4:	01800134 	movhi	r6,4
    2de8:	31aa2504 	addi	r6,r6,-22380
    2dec:	000b883a 	mov	r5,zero
    2df0:	01000034 	movhi	r4,0
    2df4:	210b4004 	addi	r4,r4,11520
    2df8:	001a3080 	call	1a308 <OSTaskCreateExt>
    2dfc:	e0bfff05 	stb	r2,-4(fp)
					  INITIALIZE_TASK_PRIORITY,
					  initialize_task_stk,
	                  TASK_STACKSIZE,
	                  NULL,
	                  0);
	  alt_ucosii_check_return_code(return_code);
    2e00:	e0bfff03 	ldbu	r2,-4(fp)
    2e04:	1009883a 	mov	r4,r2
    2e08:	00005000 	call	500 <alt_ucosii_check_return_code>
}
    2e0c:	0001883a 	nop
    2e10:	e037883a 	mov	sp,fp
    2e14:	dfc00117 	ldw	ra,4(sp)
    2e18:	df000017 	ldw	fp,0(sp)
    2e1c:	dec00204 	addi	sp,sp,8
    2e20:	f800283a 	ret

00002e24 <initCreateTasks>:

/*This function creates the tasks used in this example
 */

int initCreateTasks(void)
{
    2e24:	defff804 	addi	sp,sp,-32
    2e28:	dfc00715 	stw	ra,28(sp)
    2e2c:	df000615 	stw	fp,24(sp)
    2e30:	df000604 	addi	fp,sp,24
  INT8U return_code = OS_NO_ERR;
    2e34:	e03fff05 	stb	zero,-4(fp)

  return_code = OSTaskCreateExt(getsem_task1,
    2e38:	d8000415 	stw	zero,16(sp)
    2e3c:	d8000315 	stw	zero,12(sp)
    2e40:	00820004 	movi	r2,2048
    2e44:	d8800215 	stw	r2,8(sp)
    2e48:	008000f4 	movhi	r2,3
    2e4c:	10a20804 	addi	r2,r2,-30688
    2e50:	d8800115 	stw	r2,4(sp)
    2e54:	00800204 	movi	r2,8
    2e58:	d8800015 	stw	r2,0(sp)
    2e5c:	01c00204 	movi	r7,8
    2e60:	018000f4 	movhi	r6,3
    2e64:	31aa0804 	addi	r6,r6,-22496
    2e68:	000b883a 	mov	r5,zero
    2e6c:	01000034 	movhi	r4,0
    2e70:	21088504 	addi	r4,r4,8724
    2e74:	001a3080 	call	1a308 <OSTaskCreateExt>
    2e78:	e0bfff05 	stb	r2,-4(fp)
                             GETSEM_TASK1_PRIORITY,
                             getsem_task1_stk,
                             TASK_STACKSIZE,
                             NULL,
                             0);
  alt_ucosii_check_return_code(return_code);
    2e7c:	e0bfff03 	ldbu	r2,-4(fp)
    2e80:	1009883a 	mov	r4,r2
    2e84:	00005000 	call	500 <alt_ucosii_check_return_code>

  return_code = OSTaskCreateExt(getsem_task2,
    2e88:	d8000415 	stw	zero,16(sp)
    2e8c:	d8000315 	stw	zero,12(sp)
    2e90:	00820004 	movi	r2,2048
    2e94:	d8800215 	stw	r2,8(sp)
    2e98:	008000f4 	movhi	r2,3
    2e9c:	10822604 	addi	r2,r2,2200
    2ea0:	d8800115 	stw	r2,4(sp)
    2ea4:	00800244 	movi	r2,9
    2ea8:	d8800015 	stw	r2,0(sp)
    2eac:	01c00244 	movi	r7,9
    2eb0:	018000f4 	movhi	r6,3
    2eb4:	318a2604 	addi	r6,r6,10392
    2eb8:	000b883a 	mov	r5,zero
    2ebc:	01000034 	movhi	r4,0
    2ec0:	2108bb04 	addi	r4,r4,8940
    2ec4:	001a3080 	call	1a308 <OSTaskCreateExt>
    2ec8:	e0bfff05 	stb	r2,-4(fp)
                             GETSEM_TASK2_PRIORITY,
                             getsem_task2_stk,
                             TASK_STACKSIZE,
                             NULL,
                             0);
  alt_ucosii_check_return_code(return_code);
    2ecc:	e0bfff03 	ldbu	r2,-4(fp)
    2ed0:	1009883a 	mov	r4,r2
    2ed4:	00005000 	call	500 <alt_ucosii_check_return_code>

  return_code = OSTaskCreateExt(receive_task1,
    2ed8:	d8000415 	stw	zero,16(sp)
    2edc:	d8000315 	stw	zero,12(sp)
    2ee0:	00820004 	movi	r2,2048
    2ee4:	d8800215 	stw	r2,8(sp)
    2ee8:	00800134 	movhi	r2,4
    2eec:	10b22604 	addi	r2,r2,-14184
    2ef0:	d8800115 	stw	r2,4(sp)
    2ef4:	00800284 	movi	r2,10
    2ef8:	d8800015 	stw	r2,0(sp)
    2efc:	01c00284 	movi	r7,10
    2f00:	01800134 	movhi	r6,4
    2f04:	31ba2604 	addi	r6,r6,-5992
    2f08:	000b883a 	mov	r5,zero
    2f0c:	01000034 	movhi	r4,0
    2f10:	210a5d04 	addi	r4,r4,10612
    2f14:	001a3080 	call	1a308 <OSTaskCreateExt>
    2f18:	e0bfff05 	stb	r2,-4(fp)
                             RECEIVE_TASK1_PRIORITY,
                             receive_task1_stk,
                             TASK_STACKSIZE,
                             NULL,
                             0);
  alt_ucosii_check_return_code(return_code);
    2f1c:	e0bfff03 	ldbu	r2,-4(fp)
    2f20:	1009883a 	mov	r4,r2
    2f24:	00005000 	call	500 <alt_ucosii_check_return_code>

  return_code = OSTaskCreateExt(receive_task2,
    2f28:	d8000415 	stw	zero,16(sp)
    2f2c:	d8000315 	stw	zero,12(sp)
    2f30:	00820004 	movi	r2,2048
    2f34:	d8800215 	stw	r2,8(sp)
    2f38:	00800134 	movhi	r2,4
    2f3c:	10aa2604 	addi	r2,r2,-22376
    2f40:	d8800115 	stw	r2,4(sp)
    2f44:	008002c4 	movi	r2,11
    2f48:	d8800015 	stw	r2,0(sp)
    2f4c:	01c002c4 	movi	r7,11
    2f50:	01800134 	movhi	r6,4
    2f54:	31b22604 	addi	r6,r6,-14184
    2f58:	000b883a 	mov	r5,zero
    2f5c:	01000034 	movhi	r4,0
    2f60:	210ab404 	addi	r4,r4,10960
    2f64:	001a3080 	call	1a308 <OSTaskCreateExt>
    2f68:	e0bfff05 	stb	r2,-4(fp)
                             RECEIVE_TASK2_PRIORITY,
                             receive_task2_stk,
                             TASK_STACKSIZE,
                             NULL,
                             0);
  alt_ucosii_check_return_code(return_code);
    2f6c:	e0bfff03 	ldbu	r2,-4(fp)
    2f70:	1009883a 	mov	r4,r2
    2f74:	00005000 	call	500 <alt_ucosii_check_return_code>

  return_code = OSTaskCreateExt(send_task,
    2f78:	d8000415 	stw	zero,16(sp)
    2f7c:	d8000315 	stw	zero,12(sp)
    2f80:	00820004 	movi	r2,2048
    2f84:	d8800215 	stw	r2,8(sp)
    2f88:	008000b4 	movhi	r2,2
    2f8c:	109a0804 	addi	r2,r2,26656
    2f90:	d8800115 	stw	r2,4(sp)
    2f94:	00800304 	movi	r2,12
    2f98:	d8800015 	stw	r2,0(sp)
    2f9c:	01c00304 	movi	r7,12
    2fa0:	018000f4 	movhi	r6,3
    2fa4:	31a20804 	addi	r6,r6,-30688
    2fa8:	000b883a 	mov	r5,zero
    2fac:	01000034 	movhi	r4,0
    2fb0:	2109bf04 	addi	r4,r4,9980
    2fb4:	001a3080 	call	1a308 <OSTaskCreateExt>
    2fb8:	e0bfff05 	stb	r2,-4(fp)
                             SEND_TASK_PRIORITY,
                             send_task_stk,
                             TASK_STACKSIZE,
                             NULL,
                             0);
  alt_ucosii_check_return_code(return_code);
    2fbc:	e0bfff03 	ldbu	r2,-4(fp)
    2fc0:	1009883a 	mov	r4,r2
    2fc4:	00005000 	call	500 <alt_ucosii_check_return_code>

  return_code = OSTaskCreateExt(print_status_task,
    2fc8:	d8000415 	stw	zero,16(sp)
    2fcc:	d8000315 	stw	zero,12(sp)
    2fd0:	00820004 	movi	r2,2048
    2fd4:	d8800215 	stw	r2,8(sp)
    2fd8:	008000f4 	movhi	r2,3
    2fdc:	10aa0804 	addi	r2,r2,-22496
    2fe0:	d8800115 	stw	r2,4(sp)
    2fe4:	008001c4 	movi	r2,7
    2fe8:	d8800015 	stw	r2,0(sp)
    2fec:	01c001c4 	movi	r7,7
    2ff0:	018000f4 	movhi	r6,3
    2ff4:	31b20804 	addi	r6,r6,-14304
    2ff8:	000b883a 	mov	r5,zero
    2ffc:	01000034 	movhi	r4,0
    3000:	2103ac04 	addi	r4,r4,3760
    3004:	001a3080 	call	1a308 <OSTaskCreateExt>
    3008:	e0bfff05 	stb	r2,-4(fp)
                             PRINT_STATUS_TASK_PRIORITY,
                             print_status_task_stk,
                             TASK_STACKSIZE,
                             NULL,
                             0);
  alt_ucosii_check_return_code(return_code);
    300c:	e0bfff03 	ldbu	r2,-4(fp)
    3010:	1009883a 	mov	r4,r2
    3014:	00005000 	call	500 <alt_ucosii_check_return_code>
                                 0);
      alt_ucosii_check_return_code(return_code);*/

   // EJERCICIO 4

  return 0;
    3018:	0005883a 	mov	r2,zero
}
    301c:	e037883a 	mov	sp,fp
    3020:	dfc00117 	ldw	ra,4(sp)
    3024:	df000017 	ldw	fp,0(sp)
    3028:	dec00204 	addi	sp,sp,8
    302c:	f800283a 	ret

00003030 <exit>:
    3030:	defffe04 	addi	sp,sp,-8
    3034:	000b883a 	mov	r5,zero
    3038:	dc000015 	stw	r16,0(sp)
    303c:	dfc00115 	stw	ra,4(sp)
    3040:	2021883a 	mov	r16,r4
    3044:	0007d980 	call	7d98 <__call_exitprocs>
    3048:	008000b4 	movhi	r2,2
    304c:	10919304 	addi	r2,r2,17996
    3050:	11000017 	ldw	r4,0(r2)
    3054:	20800f17 	ldw	r2,60(r4)
    3058:	10000126 	beq	r2,zero,3060 <exit+0x30>
    305c:	103ee83a 	callr	r2
    3060:	8009883a 	mov	r4,r16
    3064:	00134340 	call	13434 <_exit>

00003068 <_fprintf_r>:
    3068:	defffe04 	addi	sp,sp,-8
    306c:	2809883a 	mov	r4,r5
    3070:	300b883a 	mov	r5,r6
    3074:	dfc00015 	stw	ra,0(sp)
    3078:	d9c00115 	stw	r7,4(sp)
    307c:	d9800104 	addi	r6,sp,4
    3080:	0007b6c0 	call	7b6c <__vfprintf_internal>
    3084:	dfc00017 	ldw	ra,0(sp)
    3088:	dec00204 	addi	sp,sp,8
    308c:	f800283a 	ret

00003090 <fprintf>:
    3090:	defffd04 	addi	sp,sp,-12
    3094:	dfc00015 	stw	ra,0(sp)
    3098:	d9800115 	stw	r6,4(sp)
    309c:	d9c00215 	stw	r7,8(sp)
    30a0:	d9800104 	addi	r6,sp,4
    30a4:	0007b6c0 	call	7b6c <__vfprintf_internal>
    30a8:	dfc00017 	ldw	ra,0(sp)
    30ac:	dec00304 	addi	sp,sp,12
    30b0:	f800283a 	ret

000030b4 <_fwrite_r>:
    30b4:	defff504 	addi	sp,sp,-44
    30b8:	dc800815 	stw	r18,32(sp)
    30bc:	39a5383a 	mul	r18,r7,r6
    30c0:	d8800304 	addi	r2,sp,12
    30c4:	d8800015 	stw	r2,0(sp)
    30c8:	00800044 	movi	r2,1
    30cc:	dcc00915 	stw	r19,36(sp)
    30d0:	dc400715 	stw	r17,28(sp)
    30d4:	dc000615 	stw	r16,24(sp)
    30d8:	d9400315 	stw	r5,12(sp)
    30dc:	dfc00a15 	stw	ra,40(sp)
    30e0:	dc800415 	stw	r18,16(sp)
    30e4:	dc800215 	stw	r18,8(sp)
    30e8:	d8800115 	stw	r2,4(sp)
    30ec:	3027883a 	mov	r19,r6
    30f0:	3821883a 	mov	r16,r7
    30f4:	2023883a 	mov	r17,r4
    30f8:	d9400b17 	ldw	r5,44(sp)
    30fc:	20000226 	beq	r4,zero,3108 <_fwrite_r+0x54>
    3100:	20800e17 	ldw	r2,56(r4)
    3104:	10001a26 	beq	r2,zero,3170 <_fwrite_r+0xbc>
    3108:	2880030b 	ldhu	r2,12(r5)
    310c:	10c8000c 	andi	r3,r2,8192
    3110:	1800061e 	bne	r3,zero,312c <_fwrite_r+0x78>
    3114:	29001917 	ldw	r4,100(r5)
    3118:	00f7ffc4 	movi	r3,-8193
    311c:	10880014 	ori	r2,r2,8192
    3120:	20c6703a 	and	r3,r4,r3
    3124:	2880030d 	sth	r2,12(r5)
    3128:	28c01915 	stw	r3,100(r5)
    312c:	d80d883a 	mov	r6,sp
    3130:	8809883a 	mov	r4,r17
    3134:	000a21c0 	call	a21c <__sfvwrite_r>
    3138:	10000b26 	beq	r2,zero,3168 <_fwrite_r+0xb4>
    313c:	d9000217 	ldw	r4,8(sp)
    3140:	980b883a 	mov	r5,r19
    3144:	9109c83a 	sub	r4,r18,r4
    3148:	0010bd80 	call	10bd8 <__udivsi3>
    314c:	dfc00a17 	ldw	ra,40(sp)
    3150:	dcc00917 	ldw	r19,36(sp)
    3154:	dc800817 	ldw	r18,32(sp)
    3158:	dc400717 	ldw	r17,28(sp)
    315c:	dc000617 	ldw	r16,24(sp)
    3160:	dec00b04 	addi	sp,sp,44
    3164:	f800283a 	ret
    3168:	8005883a 	mov	r2,r16
    316c:	003ff706 	br	314c <__alt_mem_onchip_memory+0xf780314c>
    3170:	d9400515 	stw	r5,20(sp)
    3174:	0009d980 	call	9d98 <__sinit>
    3178:	d9400517 	ldw	r5,20(sp)
    317c:	003fe206 	br	3108 <__alt_mem_onchip_memory+0xf7803108>

00003180 <fwrite>:
    3180:	defffe04 	addi	sp,sp,-8
    3184:	008000b4 	movhi	r2,2
    3188:	d9c00015 	stw	r7,0(sp)
    318c:	10919404 	addi	r2,r2,18000
    3190:	300f883a 	mov	r7,r6
    3194:	280d883a 	mov	r6,r5
    3198:	200b883a 	mov	r5,r4
    319c:	11000017 	ldw	r4,0(r2)
    31a0:	dfc00115 	stw	ra,4(sp)
    31a4:	00030b40 	call	30b4 <_fwrite_r>
    31a8:	dfc00117 	ldw	ra,4(sp)
    31ac:	dec00204 	addi	sp,sp,8
    31b0:	f800283a 	ret

000031b4 <memcpy>:
    31b4:	defffd04 	addi	sp,sp,-12
    31b8:	dfc00215 	stw	ra,8(sp)
    31bc:	dc400115 	stw	r17,4(sp)
    31c0:	dc000015 	stw	r16,0(sp)
    31c4:	00c003c4 	movi	r3,15
    31c8:	2005883a 	mov	r2,r4
    31cc:	1980452e 	bgeu	r3,r6,32e4 <memcpy+0x130>
    31d0:	2906b03a 	or	r3,r5,r4
    31d4:	18c000cc 	andi	r3,r3,3
    31d8:	1800441e 	bne	r3,zero,32ec <memcpy+0x138>
    31dc:	347ffc04 	addi	r17,r6,-16
    31e0:	8822d13a 	srli	r17,r17,4
    31e4:	28c00104 	addi	r3,r5,4
    31e8:	23400104 	addi	r13,r4,4
    31ec:	8820913a 	slli	r16,r17,4
    31f0:	2b000204 	addi	r12,r5,8
    31f4:	22c00204 	addi	r11,r4,8
    31f8:	84000504 	addi	r16,r16,20
    31fc:	2a800304 	addi	r10,r5,12
    3200:	22400304 	addi	r9,r4,12
    3204:	2c21883a 	add	r16,r5,r16
    3208:	2811883a 	mov	r8,r5
    320c:	200f883a 	mov	r7,r4
    3210:	41000017 	ldw	r4,0(r8)
    3214:	1fc00017 	ldw	ra,0(r3)
    3218:	63c00017 	ldw	r15,0(r12)
    321c:	39000015 	stw	r4,0(r7)
    3220:	53800017 	ldw	r14,0(r10)
    3224:	6fc00015 	stw	ra,0(r13)
    3228:	5bc00015 	stw	r15,0(r11)
    322c:	4b800015 	stw	r14,0(r9)
    3230:	18c00404 	addi	r3,r3,16
    3234:	39c00404 	addi	r7,r7,16
    3238:	42000404 	addi	r8,r8,16
    323c:	6b400404 	addi	r13,r13,16
    3240:	63000404 	addi	r12,r12,16
    3244:	5ac00404 	addi	r11,r11,16
    3248:	52800404 	addi	r10,r10,16
    324c:	4a400404 	addi	r9,r9,16
    3250:	1c3fef1e 	bne	r3,r16,3210 <__alt_mem_onchip_memory+0xf7803210>
    3254:	89c00044 	addi	r7,r17,1
    3258:	380e913a 	slli	r7,r7,4
    325c:	310003cc 	andi	r4,r6,15
    3260:	02c000c4 	movi	r11,3
    3264:	11c7883a 	add	r3,r2,r7
    3268:	29cb883a 	add	r5,r5,r7
    326c:	5900212e 	bgeu	r11,r4,32f4 <memcpy+0x140>
    3270:	1813883a 	mov	r9,r3
    3274:	2811883a 	mov	r8,r5
    3278:	200f883a 	mov	r7,r4
    327c:	42800017 	ldw	r10,0(r8)
    3280:	4a400104 	addi	r9,r9,4
    3284:	39ffff04 	addi	r7,r7,-4
    3288:	4abfff15 	stw	r10,-4(r9)
    328c:	42000104 	addi	r8,r8,4
    3290:	59fffa36 	bltu	r11,r7,327c <__alt_mem_onchip_memory+0xf780327c>
    3294:	213fff04 	addi	r4,r4,-4
    3298:	2008d0ba 	srli	r4,r4,2
    329c:	318000cc 	andi	r6,r6,3
    32a0:	21000044 	addi	r4,r4,1
    32a4:	2109883a 	add	r4,r4,r4
    32a8:	2109883a 	add	r4,r4,r4
    32ac:	1907883a 	add	r3,r3,r4
    32b0:	290b883a 	add	r5,r5,r4
    32b4:	30000626 	beq	r6,zero,32d0 <memcpy+0x11c>
    32b8:	198d883a 	add	r6,r3,r6
    32bc:	29c00003 	ldbu	r7,0(r5)
    32c0:	18c00044 	addi	r3,r3,1
    32c4:	29400044 	addi	r5,r5,1
    32c8:	19ffffc5 	stb	r7,-1(r3)
    32cc:	19bffb1e 	bne	r3,r6,32bc <__alt_mem_onchip_memory+0xf78032bc>
    32d0:	dfc00217 	ldw	ra,8(sp)
    32d4:	dc400117 	ldw	r17,4(sp)
    32d8:	dc000017 	ldw	r16,0(sp)
    32dc:	dec00304 	addi	sp,sp,12
    32e0:	f800283a 	ret
    32e4:	2007883a 	mov	r3,r4
    32e8:	003ff206 	br	32b4 <__alt_mem_onchip_memory+0xf78032b4>
    32ec:	2007883a 	mov	r3,r4
    32f0:	003ff106 	br	32b8 <__alt_mem_onchip_memory+0xf78032b8>
    32f4:	200d883a 	mov	r6,r4
    32f8:	003fee06 	br	32b4 <__alt_mem_onchip_memory+0xf78032b4>

000032fc <memset>:
    32fc:	20c000cc 	andi	r3,r4,3
    3300:	2005883a 	mov	r2,r4
    3304:	18004426 	beq	r3,zero,3418 <memset+0x11c>
    3308:	31ffffc4 	addi	r7,r6,-1
    330c:	30004026 	beq	r6,zero,3410 <memset+0x114>
    3310:	2813883a 	mov	r9,r5
    3314:	200d883a 	mov	r6,r4
    3318:	2007883a 	mov	r3,r4
    331c:	00000406 	br	3330 <memset+0x34>
    3320:	3a3fffc4 	addi	r8,r7,-1
    3324:	31800044 	addi	r6,r6,1
    3328:	38003926 	beq	r7,zero,3410 <memset+0x114>
    332c:	400f883a 	mov	r7,r8
    3330:	18c00044 	addi	r3,r3,1
    3334:	32400005 	stb	r9,0(r6)
    3338:	1a0000cc 	andi	r8,r3,3
    333c:	403ff81e 	bne	r8,zero,3320 <__alt_mem_onchip_memory+0xf7803320>
    3340:	010000c4 	movi	r4,3
    3344:	21c02d2e 	bgeu	r4,r7,33fc <memset+0x100>
    3348:	29003fcc 	andi	r4,r5,255
    334c:	200c923a 	slli	r6,r4,8
    3350:	3108b03a 	or	r4,r6,r4
    3354:	200c943a 	slli	r6,r4,16
    3358:	218cb03a 	or	r6,r4,r6
    335c:	010003c4 	movi	r4,15
    3360:	21c0182e 	bgeu	r4,r7,33c4 <memset+0xc8>
    3364:	3b3ffc04 	addi	r12,r7,-16
    3368:	6018d13a 	srli	r12,r12,4
    336c:	1a000104 	addi	r8,r3,4
    3370:	1ac00204 	addi	r11,r3,8
    3374:	6008913a 	slli	r4,r12,4
    3378:	1a800304 	addi	r10,r3,12
    337c:	1813883a 	mov	r9,r3
    3380:	21000504 	addi	r4,r4,20
    3384:	1909883a 	add	r4,r3,r4
    3388:	49800015 	stw	r6,0(r9)
    338c:	41800015 	stw	r6,0(r8)
    3390:	59800015 	stw	r6,0(r11)
    3394:	51800015 	stw	r6,0(r10)
    3398:	42000404 	addi	r8,r8,16
    339c:	4a400404 	addi	r9,r9,16
    33a0:	5ac00404 	addi	r11,r11,16
    33a4:	52800404 	addi	r10,r10,16
    33a8:	413ff71e 	bne	r8,r4,3388 <__alt_mem_onchip_memory+0xf7803388>
    33ac:	63000044 	addi	r12,r12,1
    33b0:	6018913a 	slli	r12,r12,4
    33b4:	39c003cc 	andi	r7,r7,15
    33b8:	010000c4 	movi	r4,3
    33bc:	1b07883a 	add	r3,r3,r12
    33c0:	21c00e2e 	bgeu	r4,r7,33fc <memset+0x100>
    33c4:	1813883a 	mov	r9,r3
    33c8:	3811883a 	mov	r8,r7
    33cc:	010000c4 	movi	r4,3
    33d0:	49800015 	stw	r6,0(r9)
    33d4:	423fff04 	addi	r8,r8,-4
    33d8:	4a400104 	addi	r9,r9,4
    33dc:	223ffc36 	bltu	r4,r8,33d0 <__alt_mem_onchip_memory+0xf78033d0>
    33e0:	393fff04 	addi	r4,r7,-4
    33e4:	2008d0ba 	srli	r4,r4,2
    33e8:	39c000cc 	andi	r7,r7,3
    33ec:	21000044 	addi	r4,r4,1
    33f0:	2109883a 	add	r4,r4,r4
    33f4:	2109883a 	add	r4,r4,r4
    33f8:	1907883a 	add	r3,r3,r4
    33fc:	38000526 	beq	r7,zero,3414 <memset+0x118>
    3400:	19cf883a 	add	r7,r3,r7
    3404:	19400005 	stb	r5,0(r3)
    3408:	18c00044 	addi	r3,r3,1
    340c:	38fffd1e 	bne	r7,r3,3404 <__alt_mem_onchip_memory+0xf7803404>
    3410:	f800283a 	ret
    3414:	f800283a 	ret
    3418:	2007883a 	mov	r3,r4
    341c:	300f883a 	mov	r7,r6
    3420:	003fc706 	br	3340 <__alt_mem_onchip_memory+0xf7803340>

00003424 <_printf_r>:
    3424:	defffd04 	addi	sp,sp,-12
    3428:	2805883a 	mov	r2,r5
    342c:	dfc00015 	stw	ra,0(sp)
    3430:	d9800115 	stw	r6,4(sp)
    3434:	d9c00215 	stw	r7,8(sp)
    3438:	21400217 	ldw	r5,8(r4)
    343c:	d9c00104 	addi	r7,sp,4
    3440:	100d883a 	mov	r6,r2
    3444:	00059740 	call	5974 <___vfprintf_internal_r>
    3448:	dfc00017 	ldw	ra,0(sp)
    344c:	dec00304 	addi	sp,sp,12
    3450:	f800283a 	ret

00003454 <printf>:
    3454:	defffc04 	addi	sp,sp,-16
    3458:	dfc00015 	stw	ra,0(sp)
    345c:	d9400115 	stw	r5,4(sp)
    3460:	d9800215 	stw	r6,8(sp)
    3464:	d9c00315 	stw	r7,12(sp)
    3468:	008000b4 	movhi	r2,2
    346c:	10919404 	addi	r2,r2,18000
    3470:	10800017 	ldw	r2,0(r2)
    3474:	200b883a 	mov	r5,r4
    3478:	d9800104 	addi	r6,sp,4
    347c:	11000217 	ldw	r4,8(r2)
    3480:	0007b6c0 	call	7b6c <__vfprintf_internal>
    3484:	dfc00017 	ldw	ra,0(sp)
    3488:	dec00404 	addi	sp,sp,16
    348c:	f800283a 	ret

00003490 <_puts_r>:
    3490:	defff604 	addi	sp,sp,-40
    3494:	dc000715 	stw	r16,28(sp)
    3498:	2021883a 	mov	r16,r4
    349c:	2809883a 	mov	r4,r5
    34a0:	dc400815 	stw	r17,32(sp)
    34a4:	dfc00915 	stw	ra,36(sp)
    34a8:	2823883a 	mov	r17,r5
    34ac:	00037040 	call	3704 <strlen>
    34b0:	10c00044 	addi	r3,r2,1
    34b4:	d8800115 	stw	r2,4(sp)
    34b8:	008000b4 	movhi	r2,2
    34bc:	10885404 	addi	r2,r2,8528
    34c0:	d8800215 	stw	r2,8(sp)
    34c4:	00800044 	movi	r2,1
    34c8:	d8800315 	stw	r2,12(sp)
    34cc:	00800084 	movi	r2,2
    34d0:	dc400015 	stw	r17,0(sp)
    34d4:	d8c00615 	stw	r3,24(sp)
    34d8:	dec00415 	stw	sp,16(sp)
    34dc:	d8800515 	stw	r2,20(sp)
    34e0:	80000226 	beq	r16,zero,34ec <_puts_r+0x5c>
    34e4:	80800e17 	ldw	r2,56(r16)
    34e8:	10001426 	beq	r2,zero,353c <_puts_r+0xac>
    34ec:	81400217 	ldw	r5,8(r16)
    34f0:	2880030b 	ldhu	r2,12(r5)
    34f4:	10c8000c 	andi	r3,r2,8192
    34f8:	1800061e 	bne	r3,zero,3514 <_puts_r+0x84>
    34fc:	29001917 	ldw	r4,100(r5)
    3500:	00f7ffc4 	movi	r3,-8193
    3504:	10880014 	ori	r2,r2,8192
    3508:	20c6703a 	and	r3,r4,r3
    350c:	2880030d 	sth	r2,12(r5)
    3510:	28c01915 	stw	r3,100(r5)
    3514:	d9800404 	addi	r6,sp,16
    3518:	8009883a 	mov	r4,r16
    351c:	000a21c0 	call	a21c <__sfvwrite_r>
    3520:	1000091e 	bne	r2,zero,3548 <_puts_r+0xb8>
    3524:	00800284 	movi	r2,10
    3528:	dfc00917 	ldw	ra,36(sp)
    352c:	dc400817 	ldw	r17,32(sp)
    3530:	dc000717 	ldw	r16,28(sp)
    3534:	dec00a04 	addi	sp,sp,40
    3538:	f800283a 	ret
    353c:	8009883a 	mov	r4,r16
    3540:	0009d980 	call	9d98 <__sinit>
    3544:	003fe906 	br	34ec <__alt_mem_onchip_memory+0xf78034ec>
    3548:	00bfffc4 	movi	r2,-1
    354c:	003ff606 	br	3528 <__alt_mem_onchip_memory+0xf7803528>

00003550 <puts>:
    3550:	008000b4 	movhi	r2,2
    3554:	10919404 	addi	r2,r2,18000
    3558:	200b883a 	mov	r5,r4
    355c:	11000017 	ldw	r4,0(r2)
    3560:	00034901 	jmpi	3490 <_puts_r>

00003564 <_sprintf_r>:
    3564:	deffe404 	addi	sp,sp,-112
    3568:	2807883a 	mov	r3,r5
    356c:	dfc01a15 	stw	ra,104(sp)
    3570:	d9c01b15 	stw	r7,108(sp)
    3574:	00a00034 	movhi	r2,32768
    3578:	10bfffc4 	addi	r2,r2,-1
    357c:	02008204 	movi	r8,520
    3580:	d8800215 	stw	r2,8(sp)
    3584:	d8800515 	stw	r2,20(sp)
    3588:	d9c01b04 	addi	r7,sp,108
    358c:	d80b883a 	mov	r5,sp
    3590:	00bfffc4 	movi	r2,-1
    3594:	d8c00015 	stw	r3,0(sp)
    3598:	d8c00415 	stw	r3,16(sp)
    359c:	da00030d 	sth	r8,12(sp)
    35a0:	d880038d 	sth	r2,14(sp)
    35a4:	000379c0 	call	379c <___svfprintf_internal_r>
    35a8:	d8c00017 	ldw	r3,0(sp)
    35ac:	18000005 	stb	zero,0(r3)
    35b0:	dfc01a17 	ldw	ra,104(sp)
    35b4:	dec01c04 	addi	sp,sp,112
    35b8:	f800283a 	ret

000035bc <sprintf>:
    35bc:	deffe304 	addi	sp,sp,-116
    35c0:	2007883a 	mov	r3,r4
    35c4:	dfc01a15 	stw	ra,104(sp)
    35c8:	d9801b15 	stw	r6,108(sp)
    35cc:	d9c01c15 	stw	r7,112(sp)
    35d0:	010000b4 	movhi	r4,2
    35d4:	21119404 	addi	r4,r4,18000
    35d8:	21000017 	ldw	r4,0(r4)
    35dc:	00a00034 	movhi	r2,32768
    35e0:	10bfffc4 	addi	r2,r2,-1
    35e4:	280d883a 	mov	r6,r5
    35e8:	02008204 	movi	r8,520
    35ec:	d8800215 	stw	r2,8(sp)
    35f0:	d8800515 	stw	r2,20(sp)
    35f4:	d9c01b04 	addi	r7,sp,108
    35f8:	d80b883a 	mov	r5,sp
    35fc:	00bfffc4 	movi	r2,-1
    3600:	d8c00015 	stw	r3,0(sp)
    3604:	d8c00415 	stw	r3,16(sp)
    3608:	da00030d 	sth	r8,12(sp)
    360c:	d880038d 	sth	r2,14(sp)
    3610:	000379c0 	call	379c <___svfprintf_internal_r>
    3614:	d8c00017 	ldw	r3,0(sp)
    3618:	18000005 	stb	zero,0(r3)
    361c:	dfc01a17 	ldw	ra,104(sp)
    3620:	dec01d04 	addi	sp,sp,116
    3624:	f800283a 	ret

00003628 <strcmp>:
    3628:	2144b03a 	or	r2,r4,r5
    362c:	108000cc 	andi	r2,r2,3
    3630:	1000171e 	bne	r2,zero,3690 <strcmp+0x68>
    3634:	20800017 	ldw	r2,0(r4)
    3638:	28c00017 	ldw	r3,0(r5)
    363c:	10c0141e 	bne	r2,r3,3690 <strcmp+0x68>
    3640:	027fbff4 	movhi	r9,65279
    3644:	4a7fbfc4 	addi	r9,r9,-257
    3648:	0086303a 	nor	r3,zero,r2
    364c:	02202074 	movhi	r8,32897
    3650:	1245883a 	add	r2,r2,r9
    3654:	42202004 	addi	r8,r8,-32640
    3658:	10c4703a 	and	r2,r2,r3
    365c:	1204703a 	and	r2,r2,r8
    3660:	10000226 	beq	r2,zero,366c <strcmp+0x44>
    3664:	00002306 	br	36f4 <strcmp+0xcc>
    3668:	1000221e 	bne	r2,zero,36f4 <strcmp+0xcc>
    366c:	21000104 	addi	r4,r4,4
    3670:	20c00017 	ldw	r3,0(r4)
    3674:	29400104 	addi	r5,r5,4
    3678:	29800017 	ldw	r6,0(r5)
    367c:	1a4f883a 	add	r7,r3,r9
    3680:	00c4303a 	nor	r2,zero,r3
    3684:	3884703a 	and	r2,r7,r2
    3688:	1204703a 	and	r2,r2,r8
    368c:	19bff626 	beq	r3,r6,3668 <__alt_mem_onchip_memory+0xf7803668>
    3690:	20800003 	ldbu	r2,0(r4)
    3694:	10c03fcc 	andi	r3,r2,255
    3698:	18c0201c 	xori	r3,r3,128
    369c:	18ffe004 	addi	r3,r3,-128
    36a0:	18000c26 	beq	r3,zero,36d4 <strcmp+0xac>
    36a4:	29800007 	ldb	r6,0(r5)
    36a8:	19800326 	beq	r3,r6,36b8 <strcmp+0x90>
    36ac:	00001306 	br	36fc <strcmp+0xd4>
    36b0:	29800007 	ldb	r6,0(r5)
    36b4:	11800b1e 	bne	r2,r6,36e4 <strcmp+0xbc>
    36b8:	21000044 	addi	r4,r4,1
    36bc:	20c00003 	ldbu	r3,0(r4)
    36c0:	29400044 	addi	r5,r5,1
    36c4:	18803fcc 	andi	r2,r3,255
    36c8:	1080201c 	xori	r2,r2,128
    36cc:	10bfe004 	addi	r2,r2,-128
    36d0:	103ff71e 	bne	r2,zero,36b0 <__alt_mem_onchip_memory+0xf78036b0>
    36d4:	0007883a 	mov	r3,zero
    36d8:	28800003 	ldbu	r2,0(r5)
    36dc:	1885c83a 	sub	r2,r3,r2
    36e0:	f800283a 	ret
    36e4:	28800003 	ldbu	r2,0(r5)
    36e8:	18c03fcc 	andi	r3,r3,255
    36ec:	1885c83a 	sub	r2,r3,r2
    36f0:	f800283a 	ret
    36f4:	0005883a 	mov	r2,zero
    36f8:	f800283a 	ret
    36fc:	10c03fcc 	andi	r3,r2,255
    3700:	003ff506 	br	36d8 <__alt_mem_onchip_memory+0xf78036d8>

00003704 <strlen>:
    3704:	208000cc 	andi	r2,r4,3
    3708:	10002026 	beq	r2,zero,378c <strlen+0x88>
    370c:	20800007 	ldb	r2,0(r4)
    3710:	10002026 	beq	r2,zero,3794 <strlen+0x90>
    3714:	2005883a 	mov	r2,r4
    3718:	00000206 	br	3724 <strlen+0x20>
    371c:	10c00007 	ldb	r3,0(r2)
    3720:	18001826 	beq	r3,zero,3784 <strlen+0x80>
    3724:	10800044 	addi	r2,r2,1
    3728:	10c000cc 	andi	r3,r2,3
    372c:	183ffb1e 	bne	r3,zero,371c <__alt_mem_onchip_memory+0xf780371c>
    3730:	10c00017 	ldw	r3,0(r2)
    3734:	01ffbff4 	movhi	r7,65279
    3738:	39ffbfc4 	addi	r7,r7,-257
    373c:	00ca303a 	nor	r5,zero,r3
    3740:	01a02074 	movhi	r6,32897
    3744:	19c7883a 	add	r3,r3,r7
    3748:	31a02004 	addi	r6,r6,-32640
    374c:	1946703a 	and	r3,r3,r5
    3750:	1986703a 	and	r3,r3,r6
    3754:	1800091e 	bne	r3,zero,377c <strlen+0x78>
    3758:	10800104 	addi	r2,r2,4
    375c:	10c00017 	ldw	r3,0(r2)
    3760:	19cb883a 	add	r5,r3,r7
    3764:	00c6303a 	nor	r3,zero,r3
    3768:	28c6703a 	and	r3,r5,r3
    376c:	1986703a 	and	r3,r3,r6
    3770:	183ff926 	beq	r3,zero,3758 <__alt_mem_onchip_memory+0xf7803758>
    3774:	00000106 	br	377c <strlen+0x78>
    3778:	10800044 	addi	r2,r2,1
    377c:	10c00007 	ldb	r3,0(r2)
    3780:	183ffd1e 	bne	r3,zero,3778 <__alt_mem_onchip_memory+0xf7803778>
    3784:	1105c83a 	sub	r2,r2,r4
    3788:	f800283a 	ret
    378c:	2005883a 	mov	r2,r4
    3790:	003fe706 	br	3730 <__alt_mem_onchip_memory+0xf7803730>
    3794:	0005883a 	mov	r2,zero
    3798:	f800283a 	ret

0000379c <___svfprintf_internal_r>:
    379c:	deffb704 	addi	sp,sp,-292
    37a0:	dfc04815 	stw	ra,288(sp)
    37a4:	ddc04615 	stw	r23,280(sp)
    37a8:	d9402c15 	stw	r5,176(sp)
    37ac:	d9003915 	stw	r4,228(sp)
    37b0:	302f883a 	mov	r23,r6
    37b4:	d9c02d15 	stw	r7,180(sp)
    37b8:	df004715 	stw	fp,284(sp)
    37bc:	dd804515 	stw	r22,276(sp)
    37c0:	dd404415 	stw	r21,272(sp)
    37c4:	dd004315 	stw	r20,268(sp)
    37c8:	dcc04215 	stw	r19,264(sp)
    37cc:	dc804115 	stw	r18,260(sp)
    37d0:	dc404015 	stw	r17,256(sp)
    37d4:	dc003f15 	stw	r16,252(sp)
    37d8:	000a90c0 	call	a90c <_localeconv_r>
    37dc:	10800017 	ldw	r2,0(r2)
    37e0:	1009883a 	mov	r4,r2
    37e4:	d8803415 	stw	r2,208(sp)
    37e8:	00037040 	call	3704 <strlen>
    37ec:	d8c02c17 	ldw	r3,176(sp)
    37f0:	d8803815 	stw	r2,224(sp)
    37f4:	1880030b 	ldhu	r2,12(r3)
    37f8:	1080200c 	andi	r2,r2,128
    37fc:	10000226 	beq	r2,zero,3808 <___svfprintf_internal_r+0x6c>
    3800:	18800417 	ldw	r2,16(r3)
    3804:	10067f26 	beq	r2,zero,5204 <___svfprintf_internal_r+0x1a68>
    3808:	dcc03917 	ldw	r19,228(sp)
    380c:	d8c00404 	addi	r3,sp,16
    3810:	054000b4 	movhi	r21,2
    3814:	d9001e04 	addi	r4,sp,120
    3818:	ad486584 	addi	r21,r21,8598
    381c:	d8c01e15 	stw	r3,120(sp)
    3820:	d8002015 	stw	zero,128(sp)
    3824:	d8001f15 	stw	zero,124(sp)
    3828:	d8003315 	stw	zero,204(sp)
    382c:	d8003615 	stw	zero,216(sp)
    3830:	d8003715 	stw	zero,220(sp)
    3834:	1811883a 	mov	r8,r3
    3838:	d8003a15 	stw	zero,232(sp)
    383c:	d8003b15 	stw	zero,236(sp)
    3840:	d8002f15 	stw	zero,188(sp)
    3844:	d9002815 	stw	r4,160(sp)
    3848:	b8800007 	ldb	r2,0(r23)
    384c:	10026726 	beq	r2,zero,41ec <___svfprintf_internal_r+0xa50>
    3850:	00c00944 	movi	r3,37
    3854:	b821883a 	mov	r16,r23
    3858:	10c0021e 	bne	r2,r3,3864 <___svfprintf_internal_r+0xc8>
    385c:	00001406 	br	38b0 <___svfprintf_internal_r+0x114>
    3860:	10c00326 	beq	r2,r3,3870 <___svfprintf_internal_r+0xd4>
    3864:	84000044 	addi	r16,r16,1
    3868:	80800007 	ldb	r2,0(r16)
    386c:	103ffc1e 	bne	r2,zero,3860 <__alt_mem_onchip_memory+0xf7803860>
    3870:	85e3c83a 	sub	r17,r16,r23
    3874:	88000e26 	beq	r17,zero,38b0 <___svfprintf_internal_r+0x114>
    3878:	d8c02017 	ldw	r3,128(sp)
    387c:	d8801f17 	ldw	r2,124(sp)
    3880:	45c00015 	stw	r23,0(r8)
    3884:	1c47883a 	add	r3,r3,r17
    3888:	10800044 	addi	r2,r2,1
    388c:	d8c02015 	stw	r3,128(sp)
    3890:	44400115 	stw	r17,4(r8)
    3894:	d8801f15 	stw	r2,124(sp)
    3898:	00c001c4 	movi	r3,7
    389c:	18809716 	blt	r3,r2,3afc <___svfprintf_internal_r+0x360>
    38a0:	42000204 	addi	r8,r8,8
    38a4:	d9402f17 	ldw	r5,188(sp)
    38a8:	2c4b883a 	add	r5,r5,r17
    38ac:	d9402f15 	stw	r5,188(sp)
    38b0:	80800007 	ldb	r2,0(r16)
    38b4:	10009826 	beq	r2,zero,3b18 <___svfprintf_internal_r+0x37c>
    38b8:	84400047 	ldb	r17,1(r16)
    38bc:	00bfffc4 	movi	r2,-1
    38c0:	85c00044 	addi	r23,r16,1
    38c4:	d8002785 	stb	zero,158(sp)
    38c8:	0007883a 	mov	r3,zero
    38cc:	000f883a 	mov	r7,zero
    38d0:	d8802915 	stw	r2,164(sp)
    38d4:	d8003115 	stw	zero,196(sp)
    38d8:	0025883a 	mov	r18,zero
    38dc:	01401604 	movi	r5,88
    38e0:	01800244 	movi	r6,9
    38e4:	02800a84 	movi	r10,42
    38e8:	02401b04 	movi	r9,108
    38ec:	bdc00044 	addi	r23,r23,1
    38f0:	88bff804 	addi	r2,r17,-32
    38f4:	2882f036 	bltu	r5,r2,44b8 <___svfprintf_internal_r+0xd1c>
    38f8:	100490ba 	slli	r2,r2,2
    38fc:	01000034 	movhi	r4,0
    3900:	210e4404 	addi	r4,r4,14608
    3904:	1105883a 	add	r2,r2,r4
    3908:	10800017 	ldw	r2,0(r2)
    390c:	1000683a 	jmp	r2
    3910:	00004420 	cmpeqi	zero,zero,272
    3914:	000044b8 	rdprs	zero,zero,274
    3918:	000044b8 	rdprs	zero,zero,274
    391c:	00004414 	movui	zero,272
    3920:	000044b8 	rdprs	zero,zero,274
    3924:	000044b8 	rdprs	zero,zero,274
    3928:	000044b8 	rdprs	zero,zero,274
    392c:	000044b8 	rdprs	zero,zero,274
    3930:	000044b8 	rdprs	zero,zero,274
    3934:	000044b8 	rdprs	zero,zero,274
    3938:	00003b74 	movhi	zero,237
    393c:	00004350 	cmplti	zero,zero,269
    3940:	000044b8 	rdprs	zero,zero,274
    3944:	00003a84 	movi	zero,234
    3948:	00003b9c 	xori	zero,zero,238
    394c:	000044b8 	rdprs	zero,zero,274
    3950:	00003c10 	cmplti	zero,zero,240
    3954:	00003bdc 	xori	zero,zero,239
    3958:	00003bdc 	xori	zero,zero,239
    395c:	00003bdc 	xori	zero,zero,239
    3960:	00003bdc 	xori	zero,zero,239
    3964:	00003bdc 	xori	zero,zero,239
    3968:	00003bdc 	xori	zero,zero,239
    396c:	00003bdc 	xori	zero,zero,239
    3970:	00003bdc 	xori	zero,zero,239
    3974:	00003bdc 	xori	zero,zero,239
    3978:	000044b8 	rdprs	zero,zero,274
    397c:	000044b8 	rdprs	zero,zero,274
    3980:	000044b8 	rdprs	zero,zero,274
    3984:	000044b8 	rdprs	zero,zero,274
    3988:	000044b8 	rdprs	zero,zero,274
    398c:	000044b8 	rdprs	zero,zero,274
    3990:	000044b8 	rdprs	zero,zero,274
    3994:	000044b8 	rdprs	zero,zero,274
    3998:	000044b8 	rdprs	zero,zero,274
    399c:	000044b8 	rdprs	zero,zero,274
    39a0:	00003cc8 	cmpgei	zero,zero,243
    39a4:	00003c1c 	xori	zero,zero,240
    39a8:	000044b8 	rdprs	zero,zero,274
    39ac:	00003c1c 	xori	zero,zero,240
    39b0:	000044b8 	rdprs	zero,zero,274
    39b4:	000044b8 	rdprs	zero,zero,274
    39b8:	000044b8 	rdprs	zero,zero,274
    39bc:	000044b8 	rdprs	zero,zero,274
    39c0:	00003cbc 	xorhi	zero,zero,242
    39c4:	000044b8 	rdprs	zero,zero,274
    39c8:	000044b8 	rdprs	zero,zero,274
    39cc:	00003d84 	movi	zero,246
    39d0:	000044b8 	rdprs	zero,zero,274
    39d4:	000044b8 	rdprs	zero,zero,274
    39d8:	000044b8 	rdprs	zero,zero,274
    39dc:	000044b8 	rdprs	zero,zero,274
    39e0:	000044b8 	rdprs	zero,zero,274
    39e4:	000041f4 	movhi	zero,263
    39e8:	000044b8 	rdprs	zero,zero,274
    39ec:	000044b8 	rdprs	zero,zero,274
    39f0:	00004254 	movui	zero,265
    39f4:	000044b8 	rdprs	zero,zero,274
    39f8:	000044b8 	rdprs	zero,zero,274
    39fc:	000044b8 	rdprs	zero,zero,274
    3a00:	000044b8 	rdprs	zero,zero,274
    3a04:	000044b8 	rdprs	zero,zero,274
    3a08:	000044b8 	rdprs	zero,zero,274
    3a0c:	000044b8 	rdprs	zero,zero,274
    3a10:	000044b8 	rdprs	zero,zero,274
    3a14:	000044b8 	rdprs	zero,zero,274
    3a18:	000044b8 	rdprs	zero,zero,274
    3a1c:	00004304 	movi	zero,268
    3a20:	00004440 	call	444 <borra_lineas_pantalla+0x44>
    3a24:	00003c1c 	xori	zero,zero,240
    3a28:	00003c1c 	xori	zero,zero,240
    3a2c:	00003c1c 	xori	zero,zero,240
    3a30:	00004494 	movui	zero,274
    3a34:	00004440 	call	444 <borra_lineas_pantalla+0x44>
    3a38:	000044b8 	rdprs	zero,zero,274
    3a3c:	000044b8 	rdprs	zero,zero,274
    3a40:	00004450 	cmplti	zero,zero,273
    3a44:	000044b8 	rdprs	zero,zero,274
    3a48:	00004460 	cmpeqi	zero,zero,273
    3a4c:	00004340 	call	434 <borra_lineas_pantalla+0x34>
    3a50:	00003a90 	cmplti	zero,zero,234
    3a54:	00004360 	cmpeqi	zero,zero,269
    3a58:	000044b8 	rdprs	zero,zero,274
    3a5c:	0000436c 	andhi	zero,zero,269
    3a60:	000044b8 	rdprs	zero,zero,274
    3a64:	000043c8 	cmpgei	zero,zero,271
    3a68:	000044b8 	rdprs	zero,zero,274
    3a6c:	000044b8 	rdprs	zero,zero,274
    3a70:	000043d8 	cmpnei	zero,zero,271
    3a74:	d9003117 	ldw	r4,196(sp)
    3a78:	d8802d15 	stw	r2,180(sp)
    3a7c:	0109c83a 	sub	r4,zero,r4
    3a80:	d9003115 	stw	r4,196(sp)
    3a84:	94800114 	ori	r18,r18,4
    3a88:	bc400007 	ldb	r17,0(r23)
    3a8c:	003f9706 	br	38ec <__alt_mem_onchip_memory+0xf78038ec>
    3a90:	00800c04 	movi	r2,48
    3a94:	d9002d17 	ldw	r4,180(sp)
    3a98:	d9402917 	ldw	r5,164(sp)
    3a9c:	d8802705 	stb	r2,156(sp)
    3aa0:	00801e04 	movi	r2,120
    3aa4:	d8802745 	stb	r2,157(sp)
    3aa8:	d8002785 	stb	zero,158(sp)
    3aac:	20c00104 	addi	r3,r4,4
    3ab0:	25000017 	ldw	r20,0(r4)
    3ab4:	002d883a 	mov	r22,zero
    3ab8:	90800094 	ori	r2,r18,2
    3abc:	28028616 	blt	r5,zero,44d8 <___svfprintf_internal_r+0xd3c>
    3ac0:	00bfdfc4 	movi	r2,-129
    3ac4:	90a4703a 	and	r18,r18,r2
    3ac8:	d8c02d15 	stw	r3,180(sp)
    3acc:	94800094 	ori	r18,r18,2
    3ad0:	a002731e 	bne	r20,zero,44a0 <___svfprintf_internal_r+0xd04>
    3ad4:	008000b4 	movhi	r2,2
    3ad8:	10885e04 	addi	r2,r2,8568
    3adc:	d8803a15 	stw	r2,232(sp)
    3ae0:	04401e04 	movi	r17,120
    3ae4:	d8c02917 	ldw	r3,164(sp)
    3ae8:	0039883a 	mov	fp,zero
    3aec:	1801d526 	beq	r3,zero,4244 <___svfprintf_internal_r+0xaa8>
    3af0:	0029883a 	mov	r20,zero
    3af4:	002d883a 	mov	r22,zero
    3af8:	0001f106 	br	42c0 <___svfprintf_internal_r+0xb24>
    3afc:	d9402c17 	ldw	r5,176(sp)
    3b00:	d9801e04 	addi	r6,sp,120
    3b04:	9809883a 	mov	r4,r19
    3b08:	000cca80 	call	cca8 <__ssprint_r>
    3b0c:	1000081e 	bne	r2,zero,3b30 <___svfprintf_internal_r+0x394>
    3b10:	da000404 	addi	r8,sp,16
    3b14:	003f6306 	br	38a4 <__alt_mem_onchip_memory+0xf78038a4>
    3b18:	d8802017 	ldw	r2,128(sp)
    3b1c:	10000426 	beq	r2,zero,3b30 <___svfprintf_internal_r+0x394>
    3b20:	d9402c17 	ldw	r5,176(sp)
    3b24:	d9003917 	ldw	r4,228(sp)
    3b28:	d9801e04 	addi	r6,sp,120
    3b2c:	000cca80 	call	cca8 <__ssprint_r>
    3b30:	d8802c17 	ldw	r2,176(sp)
    3b34:	10c0030b 	ldhu	r3,12(r2)
    3b38:	d8802f17 	ldw	r2,188(sp)
    3b3c:	18c0100c 	andi	r3,r3,64
    3b40:	1805f51e 	bne	r3,zero,5318 <___svfprintf_internal_r+0x1b7c>
    3b44:	dfc04817 	ldw	ra,288(sp)
    3b48:	df004717 	ldw	fp,284(sp)
    3b4c:	ddc04617 	ldw	r23,280(sp)
    3b50:	dd804517 	ldw	r22,276(sp)
    3b54:	dd404417 	ldw	r21,272(sp)
    3b58:	dd004317 	ldw	r20,268(sp)
    3b5c:	dcc04217 	ldw	r19,264(sp)
    3b60:	dc804117 	ldw	r18,260(sp)
    3b64:	dc404017 	ldw	r17,256(sp)
    3b68:	dc003f17 	ldw	r16,252(sp)
    3b6c:	dec04904 	addi	sp,sp,292
    3b70:	f800283a 	ret
    3b74:	d8802d17 	ldw	r2,180(sp)
    3b78:	d9002d17 	ldw	r4,180(sp)
    3b7c:	10800017 	ldw	r2,0(r2)
    3b80:	d8803115 	stw	r2,196(sp)
    3b84:	20800104 	addi	r2,r4,4
    3b88:	d9003117 	ldw	r4,196(sp)
    3b8c:	203fb916 	blt	r4,zero,3a74 <__alt_mem_onchip_memory+0xf7803a74>
    3b90:	d8802d15 	stw	r2,180(sp)
    3b94:	bc400007 	ldb	r17,0(r23)
    3b98:	003f5406 	br	38ec <__alt_mem_onchip_memory+0xf78038ec>
    3b9c:	bc400007 	ldb	r17,0(r23)
    3ba0:	bac00044 	addi	r11,r23,1
    3ba4:	8a873926 	beq	r17,r10,588c <___svfprintf_internal_r+0x20f0>
    3ba8:	88bff404 	addi	r2,r17,-48
    3bac:	0009883a 	mov	r4,zero
    3bb0:	30868836 	bltu	r6,r2,55d4 <___svfprintf_internal_r+0x1e38>
    3bb4:	5c400007 	ldb	r17,0(r11)
    3bb8:	210002a4 	muli	r4,r4,10
    3bbc:	5dc00044 	addi	r23,r11,1
    3bc0:	b817883a 	mov	r11,r23
    3bc4:	2089883a 	add	r4,r4,r2
    3bc8:	88bff404 	addi	r2,r17,-48
    3bcc:	30bff92e 	bgeu	r6,r2,3bb4 <__alt_mem_onchip_memory+0xf7803bb4>
    3bd0:	2005d716 	blt	r4,zero,5330 <___svfprintf_internal_r+0x1b94>
    3bd4:	d9002915 	stw	r4,164(sp)
    3bd8:	003f4506 	br	38f0 <__alt_mem_onchip_memory+0xf78038f0>
    3bdc:	b809883a 	mov	r4,r23
    3be0:	d8003115 	stw	zero,196(sp)
    3be4:	88bff404 	addi	r2,r17,-48
    3be8:	0017883a 	mov	r11,zero
    3bec:	24400007 	ldb	r17,0(r4)
    3bf0:	5ac002a4 	muli	r11,r11,10
    3bf4:	bdc00044 	addi	r23,r23,1
    3bf8:	b809883a 	mov	r4,r23
    3bfc:	12d7883a 	add	r11,r2,r11
    3c00:	88bff404 	addi	r2,r17,-48
    3c04:	30bff92e 	bgeu	r6,r2,3bec <__alt_mem_onchip_memory+0xf7803bec>
    3c08:	dac03115 	stw	r11,196(sp)
    3c0c:	003f3806 	br	38f0 <__alt_mem_onchip_memory+0xf78038f0>
    3c10:	94802014 	ori	r18,r18,128
    3c14:	bc400007 	ldb	r17,0(r23)
    3c18:	003f3406 	br	38ec <__alt_mem_onchip_memory+0xf78038ec>
    3c1c:	18c03fcc 	andi	r3,r3,255
    3c20:	1807471e 	bne	r3,zero,5940 <___svfprintf_internal_r+0x21a4>
    3c24:	9080020c 	andi	r2,r18,8
    3c28:	10047d26 	beq	r2,zero,4e20 <___svfprintf_internal_r+0x1684>
    3c2c:	d8c02d17 	ldw	r3,180(sp)
    3c30:	d9002d17 	ldw	r4,180(sp)
    3c34:	d9402d17 	ldw	r5,180(sp)
    3c38:	18c00017 	ldw	r3,0(r3)
    3c3c:	21000117 	ldw	r4,4(r4)
    3c40:	29400204 	addi	r5,r5,8
    3c44:	d8c03615 	stw	r3,216(sp)
    3c48:	d9003715 	stw	r4,220(sp)
    3c4c:	d9402d15 	stw	r5,180(sp)
    3c50:	d9003617 	ldw	r4,216(sp)
    3c54:	d9403717 	ldw	r5,220(sp)
    3c58:	da003e15 	stw	r8,248(sp)
    3c5c:	04000044 	movi	r16,1
    3c60:	000caa40 	call	caa4 <__fpclassifyd>
    3c64:	da003e17 	ldw	r8,248(sp)
    3c68:	14044b1e 	bne	r2,r16,4d98 <___svfprintf_internal_r+0x15fc>
    3c6c:	d9003617 	ldw	r4,216(sp)
    3c70:	d9403717 	ldw	r5,220(sp)
    3c74:	000d883a 	mov	r6,zero
    3c78:	000f883a 	mov	r7,zero
    3c7c:	0011f8c0 	call	11f8c <__ledf2>
    3c80:	da003e17 	ldw	r8,248(sp)
    3c84:	1005f316 	blt	r2,zero,5454 <___svfprintf_internal_r+0x1cb8>
    3c88:	df002783 	ldbu	fp,158(sp)
    3c8c:	008011c4 	movi	r2,71
    3c90:	1445590e 	bge	r2,r17,51f8 <___svfprintf_internal_r+0x1a5c>
    3c94:	040000b4 	movhi	r16,2
    3c98:	84085604 	addi	r16,r16,8536
    3c9c:	00c000c4 	movi	r3,3
    3ca0:	00bfdfc4 	movi	r2,-129
    3ca4:	d8c02a15 	stw	r3,168(sp)
    3ca8:	90a4703a 	and	r18,r18,r2
    3cac:	d8c02e15 	stw	r3,184(sp)
    3cb0:	d8002915 	stw	zero,164(sp)
    3cb4:	d8003215 	stw	zero,200(sp)
    3cb8:	00006606 	br	3e54 <___svfprintf_internal_r+0x6b8>
    3cbc:	94800214 	ori	r18,r18,8
    3cc0:	bc400007 	ldb	r17,0(r23)
    3cc4:	003f0906 	br	38ec <__alt_mem_onchip_memory+0xf78038ec>
    3cc8:	18c03fcc 	andi	r3,r3,255
    3ccc:	1807181e 	bne	r3,zero,5930 <___svfprintf_internal_r+0x2194>
    3cd0:	94800414 	ori	r18,r18,16
    3cd4:	9080080c 	andi	r2,r18,32
    3cd8:	10039626 	beq	r2,zero,4b34 <___svfprintf_internal_r+0x1398>
    3cdc:	d9402d17 	ldw	r5,180(sp)
    3ce0:	28800117 	ldw	r2,4(r5)
    3ce4:	2d000017 	ldw	r20,0(r5)
    3ce8:	29400204 	addi	r5,r5,8
    3cec:	d9402d15 	stw	r5,180(sp)
    3cf0:	102d883a 	mov	r22,r2
    3cf4:	10039816 	blt	r2,zero,4b58 <___svfprintf_internal_r+0x13bc>
    3cf8:	d9402917 	ldw	r5,164(sp)
    3cfc:	df002783 	ldbu	fp,158(sp)
    3d00:	2803ab16 	blt	r5,zero,4bb0 <___svfprintf_internal_r+0x1414>
    3d04:	00ffdfc4 	movi	r3,-129
    3d08:	a584b03a 	or	r2,r20,r22
    3d0c:	90e4703a 	and	r18,r18,r3
    3d10:	10014a26 	beq	r2,zero,423c <___svfprintf_internal_r+0xaa0>
    3d14:	b0034b26 	beq	r22,zero,4a44 <___svfprintf_internal_r+0x12a8>
    3d18:	dc402a15 	stw	r17,168(sp)
    3d1c:	dc001e04 	addi	r16,sp,120
    3d20:	b023883a 	mov	r17,r22
    3d24:	402d883a 	mov	r22,r8
    3d28:	a009883a 	mov	r4,r20
    3d2c:	880b883a 	mov	r5,r17
    3d30:	01800284 	movi	r6,10
    3d34:	000f883a 	mov	r7,zero
    3d38:	00105a80 	call	105a8 <__umoddi3>
    3d3c:	10800c04 	addi	r2,r2,48
    3d40:	843fffc4 	addi	r16,r16,-1
    3d44:	a009883a 	mov	r4,r20
    3d48:	880b883a 	mov	r5,r17
    3d4c:	80800005 	stb	r2,0(r16)
    3d50:	01800284 	movi	r6,10
    3d54:	000f883a 	mov	r7,zero
    3d58:	00100300 	call	10030 <__udivdi3>
    3d5c:	1029883a 	mov	r20,r2
    3d60:	10c4b03a 	or	r2,r2,r3
    3d64:	1823883a 	mov	r17,r3
    3d68:	103fef1e 	bne	r2,zero,3d28 <__alt_mem_onchip_memory+0xf7803d28>
    3d6c:	d8c02817 	ldw	r3,160(sp)
    3d70:	dc402a17 	ldw	r17,168(sp)
    3d74:	b011883a 	mov	r8,r22
    3d78:	1c07c83a 	sub	r3,r3,r16
    3d7c:	d8c02e15 	stw	r3,184(sp)
    3d80:	00002e06 	br	3e3c <___svfprintf_internal_r+0x6a0>
    3d84:	18c03fcc 	andi	r3,r3,255
    3d88:	1806e71e 	bne	r3,zero,5928 <___svfprintf_internal_r+0x218c>
    3d8c:	94800414 	ori	r18,r18,16
    3d90:	9080080c 	andi	r2,r18,32
    3d94:	1002d426 	beq	r2,zero,48e8 <___svfprintf_internal_r+0x114c>
    3d98:	d9402d17 	ldw	r5,180(sp)
    3d9c:	d8c02917 	ldw	r3,164(sp)
    3da0:	d8002785 	stb	zero,158(sp)
    3da4:	28800204 	addi	r2,r5,8
    3da8:	2d000017 	ldw	r20,0(r5)
    3dac:	2d800117 	ldw	r22,4(r5)
    3db0:	18041516 	blt	r3,zero,4e08 <___svfprintf_internal_r+0x166c>
    3db4:	013fdfc4 	movi	r4,-129
    3db8:	a586b03a 	or	r3,r20,r22
    3dbc:	d8802d15 	stw	r2,180(sp)
    3dc0:	9124703a 	and	r18,r18,r4
    3dc4:	1802d51e 	bne	r3,zero,491c <___svfprintf_internal_r+0x1180>
    3dc8:	d9402917 	ldw	r5,164(sp)
    3dcc:	0039883a 	mov	fp,zero
    3dd0:	2806be26 	beq	r5,zero,58cc <___svfprintf_internal_r+0x2130>
    3dd4:	0029883a 	mov	r20,zero
    3dd8:	002d883a 	mov	r22,zero
    3ddc:	dc001e04 	addi	r16,sp,120
    3de0:	a006d0fa 	srli	r3,r20,3
    3de4:	b008977a 	slli	r4,r22,29
    3de8:	b02cd0fa 	srli	r22,r22,3
    3dec:	a50001cc 	andi	r20,r20,7
    3df0:	a0800c04 	addi	r2,r20,48
    3df4:	843fffc4 	addi	r16,r16,-1
    3df8:	20e8b03a 	or	r20,r4,r3
    3dfc:	80800005 	stb	r2,0(r16)
    3e00:	a586b03a 	or	r3,r20,r22
    3e04:	183ff61e 	bne	r3,zero,3de0 <__alt_mem_onchip_memory+0xf7803de0>
    3e08:	90c0004c 	andi	r3,r18,1
    3e0c:	18013926 	beq	r3,zero,42f4 <___svfprintf_internal_r+0xb58>
    3e10:	10803fcc 	andi	r2,r2,255
    3e14:	1080201c 	xori	r2,r2,128
    3e18:	10bfe004 	addi	r2,r2,-128
    3e1c:	00c00c04 	movi	r3,48
    3e20:	10c13426 	beq	r2,r3,42f4 <___svfprintf_internal_r+0xb58>
    3e24:	80ffffc5 	stb	r3,-1(r16)
    3e28:	d8c02817 	ldw	r3,160(sp)
    3e2c:	80bfffc4 	addi	r2,r16,-1
    3e30:	1021883a 	mov	r16,r2
    3e34:	1887c83a 	sub	r3,r3,r2
    3e38:	d8c02e15 	stw	r3,184(sp)
    3e3c:	d8802e17 	ldw	r2,184(sp)
    3e40:	d9002917 	ldw	r4,164(sp)
    3e44:	1100010e 	bge	r2,r4,3e4c <___svfprintf_internal_r+0x6b0>
    3e48:	2005883a 	mov	r2,r4
    3e4c:	d8802a15 	stw	r2,168(sp)
    3e50:	d8003215 	stw	zero,200(sp)
    3e54:	e7003fcc 	andi	fp,fp,255
    3e58:	e700201c 	xori	fp,fp,128
    3e5c:	e73fe004 	addi	fp,fp,-128
    3e60:	e0000326 	beq	fp,zero,3e70 <___svfprintf_internal_r+0x6d4>
    3e64:	d8c02a17 	ldw	r3,168(sp)
    3e68:	18c00044 	addi	r3,r3,1
    3e6c:	d8c02a15 	stw	r3,168(sp)
    3e70:	90c0008c 	andi	r3,r18,2
    3e74:	d8c02b15 	stw	r3,172(sp)
    3e78:	18000326 	beq	r3,zero,3e88 <___svfprintf_internal_r+0x6ec>
    3e7c:	d8c02a17 	ldw	r3,168(sp)
    3e80:	18c00084 	addi	r3,r3,2
    3e84:	d8c02a15 	stw	r3,168(sp)
    3e88:	90c0210c 	andi	r3,r18,132
    3e8c:	d8c03015 	stw	r3,192(sp)
    3e90:	1801a11e 	bne	r3,zero,4518 <___svfprintf_internal_r+0xd7c>
    3e94:	d9003117 	ldw	r4,196(sp)
    3e98:	d8c02a17 	ldw	r3,168(sp)
    3e9c:	20e9c83a 	sub	r20,r4,r3
    3ea0:	05019d0e 	bge	zero,r20,4518 <___svfprintf_internal_r+0xd7c>
    3ea4:	02400404 	movi	r9,16
    3ea8:	d8c02017 	ldw	r3,128(sp)
    3eac:	d8801f17 	ldw	r2,124(sp)
    3eb0:	4d051b0e 	bge	r9,r20,5320 <___svfprintf_internal_r+0x1b84>
    3eb4:	014000b4 	movhi	r5,2
    3eb8:	29486984 	addi	r5,r5,8614
    3ebc:	dc403c15 	stw	r17,240(sp)
    3ec0:	d9403515 	stw	r5,212(sp)
    3ec4:	a023883a 	mov	r17,r20
    3ec8:	482d883a 	mov	r22,r9
    3ecc:	9029883a 	mov	r20,r18
    3ed0:	070001c4 	movi	fp,7
    3ed4:	8025883a 	mov	r18,r16
    3ed8:	dc002c17 	ldw	r16,176(sp)
    3edc:	00000306 	br	3eec <___svfprintf_internal_r+0x750>
    3ee0:	8c7ffc04 	addi	r17,r17,-16
    3ee4:	42000204 	addi	r8,r8,8
    3ee8:	b440130e 	bge	r22,r17,3f38 <___svfprintf_internal_r+0x79c>
    3eec:	010000b4 	movhi	r4,2
    3ef0:	18c00404 	addi	r3,r3,16
    3ef4:	10800044 	addi	r2,r2,1
    3ef8:	21086984 	addi	r4,r4,8614
    3efc:	41000015 	stw	r4,0(r8)
    3f00:	45800115 	stw	r22,4(r8)
    3f04:	d8c02015 	stw	r3,128(sp)
    3f08:	d8801f15 	stw	r2,124(sp)
    3f0c:	e0bff40e 	bge	fp,r2,3ee0 <__alt_mem_onchip_memory+0xf7803ee0>
    3f10:	d9801e04 	addi	r6,sp,120
    3f14:	800b883a 	mov	r5,r16
    3f18:	9809883a 	mov	r4,r19
    3f1c:	000cca80 	call	cca8 <__ssprint_r>
    3f20:	103f031e 	bne	r2,zero,3b30 <__alt_mem_onchip_memory+0xf7803b30>
    3f24:	8c7ffc04 	addi	r17,r17,-16
    3f28:	d8c02017 	ldw	r3,128(sp)
    3f2c:	d8801f17 	ldw	r2,124(sp)
    3f30:	da000404 	addi	r8,sp,16
    3f34:	b47fed16 	blt	r22,r17,3eec <__alt_mem_onchip_memory+0xf7803eec>
    3f38:	9021883a 	mov	r16,r18
    3f3c:	a025883a 	mov	r18,r20
    3f40:	8829883a 	mov	r20,r17
    3f44:	dc403c17 	ldw	r17,240(sp)
    3f48:	d9403517 	ldw	r5,212(sp)
    3f4c:	a0c7883a 	add	r3,r20,r3
    3f50:	10800044 	addi	r2,r2,1
    3f54:	41400015 	stw	r5,0(r8)
    3f58:	45000115 	stw	r20,4(r8)
    3f5c:	d8c02015 	stw	r3,128(sp)
    3f60:	d8801f15 	stw	r2,124(sp)
    3f64:	010001c4 	movi	r4,7
    3f68:	20829f16 	blt	r4,r2,49e8 <___svfprintf_internal_r+0x124c>
    3f6c:	df002787 	ldb	fp,158(sp)
    3f70:	42000204 	addi	r8,r8,8
    3f74:	e0000c26 	beq	fp,zero,3fa8 <___svfprintf_internal_r+0x80c>
    3f78:	d8801f17 	ldw	r2,124(sp)
    3f7c:	d9002784 	addi	r4,sp,158
    3f80:	18c00044 	addi	r3,r3,1
    3f84:	10800044 	addi	r2,r2,1
    3f88:	41000015 	stw	r4,0(r8)
    3f8c:	01000044 	movi	r4,1
    3f90:	41000115 	stw	r4,4(r8)
    3f94:	d8c02015 	stw	r3,128(sp)
    3f98:	d8801f15 	stw	r2,124(sp)
    3f9c:	010001c4 	movi	r4,7
    3fa0:	20823816 	blt	r4,r2,4884 <___svfprintf_internal_r+0x10e8>
    3fa4:	42000204 	addi	r8,r8,8
    3fa8:	d8802b17 	ldw	r2,172(sp)
    3fac:	10000c26 	beq	r2,zero,3fe0 <___svfprintf_internal_r+0x844>
    3fb0:	d8801f17 	ldw	r2,124(sp)
    3fb4:	d9002704 	addi	r4,sp,156
    3fb8:	18c00084 	addi	r3,r3,2
    3fbc:	10800044 	addi	r2,r2,1
    3fc0:	41000015 	stw	r4,0(r8)
    3fc4:	01000084 	movi	r4,2
    3fc8:	41000115 	stw	r4,4(r8)
    3fcc:	d8c02015 	stw	r3,128(sp)
    3fd0:	d8801f15 	stw	r2,124(sp)
    3fd4:	010001c4 	movi	r4,7
    3fd8:	20823216 	blt	r4,r2,48a4 <___svfprintf_internal_r+0x1108>
    3fdc:	42000204 	addi	r8,r8,8
    3fe0:	d9003017 	ldw	r4,192(sp)
    3fe4:	00802004 	movi	r2,128
    3fe8:	20819726 	beq	r4,r2,4648 <___svfprintf_internal_r+0xeac>
    3fec:	d9402917 	ldw	r5,164(sp)
    3ff0:	d8802e17 	ldw	r2,184(sp)
    3ff4:	28adc83a 	sub	r22,r5,r2
    3ff8:	05802f0e 	bge	zero,r22,40b8 <___svfprintf_internal_r+0x91c>
    3ffc:	07000404 	movi	fp,16
    4000:	d8801f17 	ldw	r2,124(sp)
    4004:	e583c00e 	bge	fp,r22,4f08 <___svfprintf_internal_r+0x176c>
    4008:	014000b4 	movhi	r5,2
    400c:	29486584 	addi	r5,r5,8598
    4010:	dc402915 	stw	r17,164(sp)
    4014:	d9402b15 	stw	r5,172(sp)
    4018:	b023883a 	mov	r17,r22
    401c:	050001c4 	movi	r20,7
    4020:	902d883a 	mov	r22,r18
    4024:	8025883a 	mov	r18,r16
    4028:	dc002c17 	ldw	r16,176(sp)
    402c:	00000306 	br	403c <___svfprintf_internal_r+0x8a0>
    4030:	8c7ffc04 	addi	r17,r17,-16
    4034:	42000204 	addi	r8,r8,8
    4038:	e440110e 	bge	fp,r17,4080 <___svfprintf_internal_r+0x8e4>
    403c:	18c00404 	addi	r3,r3,16
    4040:	10800044 	addi	r2,r2,1
    4044:	45400015 	stw	r21,0(r8)
    4048:	47000115 	stw	fp,4(r8)
    404c:	d8c02015 	stw	r3,128(sp)
    4050:	d8801f15 	stw	r2,124(sp)
    4054:	a0bff60e 	bge	r20,r2,4030 <__alt_mem_onchip_memory+0xf7804030>
    4058:	d9801e04 	addi	r6,sp,120
    405c:	800b883a 	mov	r5,r16
    4060:	9809883a 	mov	r4,r19
    4064:	000cca80 	call	cca8 <__ssprint_r>
    4068:	103eb11e 	bne	r2,zero,3b30 <__alt_mem_onchip_memory+0xf7803b30>
    406c:	8c7ffc04 	addi	r17,r17,-16
    4070:	d8c02017 	ldw	r3,128(sp)
    4074:	d8801f17 	ldw	r2,124(sp)
    4078:	da000404 	addi	r8,sp,16
    407c:	e47fef16 	blt	fp,r17,403c <__alt_mem_onchip_memory+0xf780403c>
    4080:	9021883a 	mov	r16,r18
    4084:	b025883a 	mov	r18,r22
    4088:	882d883a 	mov	r22,r17
    408c:	dc402917 	ldw	r17,164(sp)
    4090:	d9002b17 	ldw	r4,172(sp)
    4094:	1d87883a 	add	r3,r3,r22
    4098:	10800044 	addi	r2,r2,1
    409c:	41000015 	stw	r4,0(r8)
    40a0:	45800115 	stw	r22,4(r8)
    40a4:	d8c02015 	stw	r3,128(sp)
    40a8:	d8801f15 	stw	r2,124(sp)
    40ac:	010001c4 	movi	r4,7
    40b0:	2081ec16 	blt	r4,r2,4864 <___svfprintf_internal_r+0x10c8>
    40b4:	42000204 	addi	r8,r8,8
    40b8:	9080400c 	andi	r2,r18,256
    40bc:	1001181e 	bne	r2,zero,4520 <___svfprintf_internal_r+0xd84>
    40c0:	d9402e17 	ldw	r5,184(sp)
    40c4:	d8801f17 	ldw	r2,124(sp)
    40c8:	44000015 	stw	r16,0(r8)
    40cc:	1947883a 	add	r3,r3,r5
    40d0:	10800044 	addi	r2,r2,1
    40d4:	41400115 	stw	r5,4(r8)
    40d8:	d8c02015 	stw	r3,128(sp)
    40dc:	d8801f15 	stw	r2,124(sp)
    40e0:	010001c4 	movi	r4,7
    40e4:	2081d116 	blt	r4,r2,482c <___svfprintf_internal_r+0x1090>
    40e8:	42000204 	addi	r8,r8,8
    40ec:	9480010c 	andi	r18,r18,4
    40f0:	90003226 	beq	r18,zero,41bc <___svfprintf_internal_r+0xa20>
    40f4:	d9403117 	ldw	r5,196(sp)
    40f8:	d8802a17 	ldw	r2,168(sp)
    40fc:	28a1c83a 	sub	r16,r5,r2
    4100:	04002e0e 	bge	zero,r16,41bc <___svfprintf_internal_r+0xa20>
    4104:	04400404 	movi	r17,16
    4108:	d8801f17 	ldw	r2,124(sp)
    410c:	8c04b90e 	bge	r17,r16,53f4 <___svfprintf_internal_r+0x1c58>
    4110:	014000b4 	movhi	r5,2
    4114:	29486984 	addi	r5,r5,8614
    4118:	d9403515 	stw	r5,212(sp)
    411c:	048001c4 	movi	r18,7
    4120:	dd002c17 	ldw	r20,176(sp)
    4124:	00000306 	br	4134 <___svfprintf_internal_r+0x998>
    4128:	843ffc04 	addi	r16,r16,-16
    412c:	42000204 	addi	r8,r8,8
    4130:	8c00130e 	bge	r17,r16,4180 <___svfprintf_internal_r+0x9e4>
    4134:	010000b4 	movhi	r4,2
    4138:	18c00404 	addi	r3,r3,16
    413c:	10800044 	addi	r2,r2,1
    4140:	21086984 	addi	r4,r4,8614
    4144:	41000015 	stw	r4,0(r8)
    4148:	44400115 	stw	r17,4(r8)
    414c:	d8c02015 	stw	r3,128(sp)
    4150:	d8801f15 	stw	r2,124(sp)
    4154:	90bff40e 	bge	r18,r2,4128 <__alt_mem_onchip_memory+0xf7804128>
    4158:	d9801e04 	addi	r6,sp,120
    415c:	a00b883a 	mov	r5,r20
    4160:	9809883a 	mov	r4,r19
    4164:	000cca80 	call	cca8 <__ssprint_r>
    4168:	103e711e 	bne	r2,zero,3b30 <__alt_mem_onchip_memory+0xf7803b30>
    416c:	843ffc04 	addi	r16,r16,-16
    4170:	d8c02017 	ldw	r3,128(sp)
    4174:	d8801f17 	ldw	r2,124(sp)
    4178:	da000404 	addi	r8,sp,16
    417c:	8c3fed16 	blt	r17,r16,4134 <__alt_mem_onchip_memory+0xf7804134>
    4180:	d9403517 	ldw	r5,212(sp)
    4184:	1c07883a 	add	r3,r3,r16
    4188:	10800044 	addi	r2,r2,1
    418c:	41400015 	stw	r5,0(r8)
    4190:	44000115 	stw	r16,4(r8)
    4194:	d8c02015 	stw	r3,128(sp)
    4198:	d8801f15 	stw	r2,124(sp)
    419c:	010001c4 	movi	r4,7
    41a0:	2080060e 	bge	r4,r2,41bc <___svfprintf_internal_r+0xa20>
    41a4:	d9402c17 	ldw	r5,176(sp)
    41a8:	d9801e04 	addi	r6,sp,120
    41ac:	9809883a 	mov	r4,r19
    41b0:	000cca80 	call	cca8 <__ssprint_r>
    41b4:	103e5e1e 	bne	r2,zero,3b30 <__alt_mem_onchip_memory+0xf7803b30>
    41b8:	d8c02017 	ldw	r3,128(sp)
    41bc:	d8803117 	ldw	r2,196(sp)
    41c0:	d9002a17 	ldw	r4,168(sp)
    41c4:	1100010e 	bge	r2,r4,41cc <___svfprintf_internal_r+0xa30>
    41c8:	2005883a 	mov	r2,r4
    41cc:	d9402f17 	ldw	r5,188(sp)
    41d0:	288b883a 	add	r5,r5,r2
    41d4:	d9402f15 	stw	r5,188(sp)
    41d8:	18019c1e 	bne	r3,zero,484c <___svfprintf_internal_r+0x10b0>
    41dc:	b8800007 	ldb	r2,0(r23)
    41e0:	d8001f15 	stw	zero,124(sp)
    41e4:	da000404 	addi	r8,sp,16
    41e8:	103d991e 	bne	r2,zero,3850 <__alt_mem_onchip_memory+0xf7803850>
    41ec:	b821883a 	mov	r16,r23
    41f0:	003daf06 	br	38b0 <__alt_mem_onchip_memory+0xf78038b0>
    41f4:	18c03fcc 	andi	r3,r3,255
    41f8:	1805c71e 	bne	r3,zero,5918 <___svfprintf_internal_r+0x217c>
    41fc:	94800414 	ori	r18,r18,16
    4200:	9080080c 	andi	r2,r18,32
    4204:	10020126 	beq	r2,zero,4a0c <___svfprintf_internal_r+0x1270>
    4208:	d8802d17 	ldw	r2,180(sp)
    420c:	d9002917 	ldw	r4,164(sp)
    4210:	d8002785 	stb	zero,158(sp)
    4214:	10c00204 	addi	r3,r2,8
    4218:	15000017 	ldw	r20,0(r2)
    421c:	15800117 	ldw	r22,4(r2)
    4220:	20038e16 	blt	r4,zero,505c <___svfprintf_internal_r+0x18c0>
    4224:	013fdfc4 	movi	r4,-129
    4228:	a584b03a 	or	r2,r20,r22
    422c:	d8c02d15 	stw	r3,180(sp)
    4230:	9124703a 	and	r18,r18,r4
    4234:	0039883a 	mov	fp,zero
    4238:	103eb61e 	bne	r2,zero,3d14 <__alt_mem_onchip_memory+0xf7803d14>
    423c:	d8802917 	ldw	r2,164(sp)
    4240:	1002c81e 	bne	r2,zero,4d64 <___svfprintf_internal_r+0x15c8>
    4244:	d8002915 	stw	zero,164(sp)
    4248:	d8002e15 	stw	zero,184(sp)
    424c:	dc001e04 	addi	r16,sp,120
    4250:	003efa06 	br	3e3c <__alt_mem_onchip_memory+0xf7803e3c>
    4254:	18c03fcc 	andi	r3,r3,255
    4258:	1805ad1e 	bne	r3,zero,5910 <___svfprintf_internal_r+0x2174>
    425c:	014000b4 	movhi	r5,2
    4260:	29485904 	addi	r5,r5,8548
    4264:	d9403a15 	stw	r5,232(sp)
    4268:	9080080c 	andi	r2,r18,32
    426c:	10006126 	beq	r2,zero,43f4 <___svfprintf_internal_r+0xc58>
    4270:	d8802d17 	ldw	r2,180(sp)
    4274:	15000017 	ldw	r20,0(r2)
    4278:	15800117 	ldw	r22,4(r2)
    427c:	10800204 	addi	r2,r2,8
    4280:	d8802d15 	stw	r2,180(sp)
    4284:	9080004c 	andi	r2,r18,1
    4288:	10018e26 	beq	r2,zero,48c4 <___svfprintf_internal_r+0x1128>
    428c:	a584b03a 	or	r2,r20,r22
    4290:	10030926 	beq	r2,zero,4eb8 <___svfprintf_internal_r+0x171c>
    4294:	d8c02917 	ldw	r3,164(sp)
    4298:	00800c04 	movi	r2,48
    429c:	d8802705 	stb	r2,156(sp)
    42a0:	dc402745 	stb	r17,157(sp)
    42a4:	d8002785 	stb	zero,158(sp)
    42a8:	90800094 	ori	r2,r18,2
    42ac:	18048716 	blt	r3,zero,54cc <___svfprintf_internal_r+0x1d30>
    42b0:	00bfdfc4 	movi	r2,-129
    42b4:	90a4703a 	and	r18,r18,r2
    42b8:	94800094 	ori	r18,r18,2
    42bc:	0039883a 	mov	fp,zero
    42c0:	d9003a17 	ldw	r4,232(sp)
    42c4:	dc001e04 	addi	r16,sp,120
    42c8:	a08003cc 	andi	r2,r20,15
    42cc:	b006973a 	slli	r3,r22,28
    42d0:	2085883a 	add	r2,r4,r2
    42d4:	a028d13a 	srli	r20,r20,4
    42d8:	10800003 	ldbu	r2,0(r2)
    42dc:	b02cd13a 	srli	r22,r22,4
    42e0:	843fffc4 	addi	r16,r16,-1
    42e4:	1d28b03a 	or	r20,r3,r20
    42e8:	80800005 	stb	r2,0(r16)
    42ec:	a584b03a 	or	r2,r20,r22
    42f0:	103ff51e 	bne	r2,zero,42c8 <__alt_mem_onchip_memory+0xf78042c8>
    42f4:	d8c02817 	ldw	r3,160(sp)
    42f8:	1c07c83a 	sub	r3,r3,r16
    42fc:	d8c02e15 	stw	r3,184(sp)
    4300:	003ece06 	br	3e3c <__alt_mem_onchip_memory+0xf7803e3c>
    4304:	d8c02d17 	ldw	r3,180(sp)
    4308:	d9002d17 	ldw	r4,180(sp)
    430c:	d8002785 	stb	zero,158(sp)
    4310:	18800017 	ldw	r2,0(r3)
    4314:	21000104 	addi	r4,r4,4
    4318:	00c00044 	movi	r3,1
    431c:	d8c02a15 	stw	r3,168(sp)
    4320:	d8801405 	stb	r2,80(sp)
    4324:	d9002d15 	stw	r4,180(sp)
    4328:	d8c02e15 	stw	r3,184(sp)
    432c:	d8002915 	stw	zero,164(sp)
    4330:	d8003215 	stw	zero,200(sp)
    4334:	dc001404 	addi	r16,sp,80
    4338:	0039883a 	mov	fp,zero
    433c:	003ecc06 	br	3e70 <__alt_mem_onchip_memory+0xf7803e70>
    4340:	18c03fcc 	andi	r3,r3,255
    4344:	183e9226 	beq	r3,zero,3d90 <__alt_mem_onchip_memory+0xf7803d90>
    4348:	d9c02785 	stb	r7,158(sp)
    434c:	003e9006 	br	3d90 <__alt_mem_onchip_memory+0xf7803d90>
    4350:	00c00044 	movi	r3,1
    4354:	01c00ac4 	movi	r7,43
    4358:	bc400007 	ldb	r17,0(r23)
    435c:	003d6306 	br	38ec <__alt_mem_onchip_memory+0xf78038ec>
    4360:	94800814 	ori	r18,r18,32
    4364:	bc400007 	ldb	r17,0(r23)
    4368:	003d6006 	br	38ec <__alt_mem_onchip_memory+0xf78038ec>
    436c:	d8c02d17 	ldw	r3,180(sp)
    4370:	d8002785 	stb	zero,158(sp)
    4374:	1c000017 	ldw	r16,0(r3)
    4378:	1d000104 	addi	r20,r3,4
    437c:	80040f26 	beq	r16,zero,53bc <___svfprintf_internal_r+0x1c20>
    4380:	d9002917 	ldw	r4,164(sp)
    4384:	2003dc16 	blt	r4,zero,52f8 <___svfprintf_internal_r+0x1b5c>
    4388:	200d883a 	mov	r6,r4
    438c:	000b883a 	mov	r5,zero
    4390:	8009883a 	mov	r4,r16
    4394:	da003e15 	stw	r8,248(sp)
    4398:	000b3040 	call	b304 <memchr>
    439c:	da003e17 	ldw	r8,248(sp)
    43a0:	10045826 	beq	r2,zero,5504 <___svfprintf_internal_r+0x1d68>
    43a4:	1405c83a 	sub	r2,r2,r16
    43a8:	d8802e15 	stw	r2,184(sp)
    43ac:	1003d816 	blt	r2,zero,5310 <___svfprintf_internal_r+0x1b74>
    43b0:	df002783 	ldbu	fp,158(sp)
    43b4:	d8802a15 	stw	r2,168(sp)
    43b8:	dd002d15 	stw	r20,180(sp)
    43bc:	d8002915 	stw	zero,164(sp)
    43c0:	d8003215 	stw	zero,200(sp)
    43c4:	003ea306 	br	3e54 <__alt_mem_onchip_memory+0xf7803e54>
    43c8:	18c03fcc 	andi	r3,r3,255
    43cc:	183f8c26 	beq	r3,zero,4200 <__alt_mem_onchip_memory+0xf7804200>
    43d0:	d9c02785 	stb	r7,158(sp)
    43d4:	003f8a06 	br	4200 <__alt_mem_onchip_memory+0xf7804200>
    43d8:	18c03fcc 	andi	r3,r3,255
    43dc:	1805631e 	bne	r3,zero,596c <___svfprintf_internal_r+0x21d0>
    43e0:	014000b4 	movhi	r5,2
    43e4:	29485e04 	addi	r5,r5,8568
    43e8:	d9403a15 	stw	r5,232(sp)
    43ec:	9080080c 	andi	r2,r18,32
    43f0:	103f9f1e 	bne	r2,zero,4270 <__alt_mem_onchip_memory+0xf7804270>
    43f4:	9080040c 	andi	r2,r18,16
    43f8:	10029c26 	beq	r2,zero,4e6c <___svfprintf_internal_r+0x16d0>
    43fc:	d8c02d17 	ldw	r3,180(sp)
    4400:	002d883a 	mov	r22,zero
    4404:	1d000017 	ldw	r20,0(r3)
    4408:	18c00104 	addi	r3,r3,4
    440c:	d8c02d15 	stw	r3,180(sp)
    4410:	003f9c06 	br	4284 <__alt_mem_onchip_memory+0xf7804284>
    4414:	94800054 	ori	r18,r18,1
    4418:	bc400007 	ldb	r17,0(r23)
    441c:	003d3306 	br	38ec <__alt_mem_onchip_memory+0xf78038ec>
    4420:	38803fcc 	andi	r2,r7,255
    4424:	1080201c 	xori	r2,r2,128
    4428:	10bfe004 	addi	r2,r2,-128
    442c:	1002971e 	bne	r2,zero,4e8c <___svfprintf_internal_r+0x16f0>
    4430:	00c00044 	movi	r3,1
    4434:	01c00804 	movi	r7,32
    4438:	bc400007 	ldb	r17,0(r23)
    443c:	003d2b06 	br	38ec <__alt_mem_onchip_memory+0xf78038ec>
    4440:	18c03fcc 	andi	r3,r3,255
    4444:	183e2326 	beq	r3,zero,3cd4 <__alt_mem_onchip_memory+0xf7803cd4>
    4448:	d9c02785 	stb	r7,158(sp)
    444c:	003e2106 	br	3cd4 <__alt_mem_onchip_memory+0xf7803cd4>
    4450:	bc400007 	ldb	r17,0(r23)
    4454:	8a430426 	beq	r17,r9,5068 <___svfprintf_internal_r+0x18cc>
    4458:	94800414 	ori	r18,r18,16
    445c:	003d2306 	br	38ec <__alt_mem_onchip_memory+0xf78038ec>
    4460:	18c03fcc 	andi	r3,r3,255
    4464:	18053f1e 	bne	r3,zero,5964 <___svfprintf_internal_r+0x21c8>
    4468:	9080080c 	andi	r2,r18,32
    446c:	10028926 	beq	r2,zero,4e94 <___svfprintf_internal_r+0x16f8>
    4470:	d9402d17 	ldw	r5,180(sp)
    4474:	d9002f17 	ldw	r4,188(sp)
    4478:	28800017 	ldw	r2,0(r5)
    447c:	2007d7fa 	srai	r3,r4,31
    4480:	29400104 	addi	r5,r5,4
    4484:	d9402d15 	stw	r5,180(sp)
    4488:	11000015 	stw	r4,0(r2)
    448c:	10c00115 	stw	r3,4(r2)
    4490:	003ced06 	br	3848 <__alt_mem_onchip_memory+0xf7803848>
    4494:	94801014 	ori	r18,r18,64
    4498:	bc400007 	ldb	r17,0(r23)
    449c:	003d1306 	br	38ec <__alt_mem_onchip_memory+0xf78038ec>
    44a0:	010000b4 	movhi	r4,2
    44a4:	21085e04 	addi	r4,r4,8568
    44a8:	0039883a 	mov	fp,zero
    44ac:	d9003a15 	stw	r4,232(sp)
    44b0:	04401e04 	movi	r17,120
    44b4:	003f8206 	br	42c0 <__alt_mem_onchip_memory+0xf78042c0>
    44b8:	18c03fcc 	andi	r3,r3,255
    44bc:	1805221e 	bne	r3,zero,5948 <___svfprintf_internal_r+0x21ac>
    44c0:	883d9526 	beq	r17,zero,3b18 <__alt_mem_onchip_memory+0xf7803b18>
    44c4:	00c00044 	movi	r3,1
    44c8:	d8c02a15 	stw	r3,168(sp)
    44cc:	dc401405 	stb	r17,80(sp)
    44d0:	d8002785 	stb	zero,158(sp)
    44d4:	003f9406 	br	4328 <__alt_mem_onchip_memory+0xf7804328>
    44d8:	010000b4 	movhi	r4,2
    44dc:	21085e04 	addi	r4,r4,8568
    44e0:	d9003a15 	stw	r4,232(sp)
    44e4:	d8c02d15 	stw	r3,180(sp)
    44e8:	1025883a 	mov	r18,r2
    44ec:	04401e04 	movi	r17,120
    44f0:	a584b03a 	or	r2,r20,r22
    44f4:	1000fa1e 	bne	r2,zero,48e0 <___svfprintf_internal_r+0x1144>
    44f8:	0039883a 	mov	fp,zero
    44fc:	00800084 	movi	r2,2
    4500:	10803fcc 	andi	r2,r2,255
    4504:	00c00044 	movi	r3,1
    4508:	10c21626 	beq	r2,r3,4d64 <___svfprintf_internal_r+0x15c8>
    450c:	00c00084 	movi	r3,2
    4510:	10fe301e 	bne	r2,r3,3dd4 <__alt_mem_onchip_memory+0xf7803dd4>
    4514:	003d7606 	br	3af0 <__alt_mem_onchip_memory+0xf7803af0>
    4518:	d8c02017 	ldw	r3,128(sp)
    451c:	003e9506 	br	3f74 <__alt_mem_onchip_memory+0xf7803f74>
    4520:	00801944 	movi	r2,101
    4524:	14407c0e 	bge	r2,r17,4718 <___svfprintf_internal_r+0xf7c>
    4528:	d9003617 	ldw	r4,216(sp)
    452c:	d9403717 	ldw	r5,220(sp)
    4530:	000d883a 	mov	r6,zero
    4534:	000f883a 	mov	r7,zero
    4538:	d8c03d15 	stw	r3,244(sp)
    453c:	da003e15 	stw	r8,248(sp)
    4540:	0011e280 	call	11e28 <__eqdf2>
    4544:	d8c03d17 	ldw	r3,244(sp)
    4548:	da003e17 	ldw	r8,248(sp)
    454c:	1000f51e 	bne	r2,zero,4924 <___svfprintf_internal_r+0x1188>
    4550:	d8801f17 	ldw	r2,124(sp)
    4554:	010000b4 	movhi	r4,2
    4558:	21086504 	addi	r4,r4,8596
    455c:	18c00044 	addi	r3,r3,1
    4560:	10800044 	addi	r2,r2,1
    4564:	41000015 	stw	r4,0(r8)
    4568:	01000044 	movi	r4,1
    456c:	41000115 	stw	r4,4(r8)
    4570:	d8c02015 	stw	r3,128(sp)
    4574:	d8801f15 	stw	r2,124(sp)
    4578:	010001c4 	movi	r4,7
    457c:	20826616 	blt	r4,r2,4f18 <___svfprintf_internal_r+0x177c>
    4580:	42000204 	addi	r8,r8,8
    4584:	d8802617 	ldw	r2,152(sp)
    4588:	d9403317 	ldw	r5,204(sp)
    458c:	11400216 	blt	r2,r5,4598 <___svfprintf_internal_r+0xdfc>
    4590:	9080004c 	andi	r2,r18,1
    4594:	103ed526 	beq	r2,zero,40ec <__alt_mem_onchip_memory+0xf78040ec>
    4598:	d8803817 	ldw	r2,224(sp)
    459c:	d9003417 	ldw	r4,208(sp)
    45a0:	d9403817 	ldw	r5,224(sp)
    45a4:	1887883a 	add	r3,r3,r2
    45a8:	d8801f17 	ldw	r2,124(sp)
    45ac:	41000015 	stw	r4,0(r8)
    45b0:	41400115 	stw	r5,4(r8)
    45b4:	10800044 	addi	r2,r2,1
    45b8:	d8c02015 	stw	r3,128(sp)
    45bc:	d8801f15 	stw	r2,124(sp)
    45c0:	010001c4 	movi	r4,7
    45c4:	2082af16 	blt	r4,r2,5084 <___svfprintf_internal_r+0x18e8>
    45c8:	42000204 	addi	r8,r8,8
    45cc:	d8803317 	ldw	r2,204(sp)
    45d0:	143fffc4 	addi	r16,r2,-1
    45d4:	043ec50e 	bge	zero,r16,40ec <__alt_mem_onchip_memory+0xf78040ec>
    45d8:	04400404 	movi	r17,16
    45dc:	d8801f17 	ldw	r2,124(sp)
    45e0:	8c00860e 	bge	r17,r16,47fc <___svfprintf_internal_r+0x1060>
    45e4:	014000b4 	movhi	r5,2
    45e8:	29486584 	addi	r5,r5,8598
    45ec:	d9402b15 	stw	r5,172(sp)
    45f0:	058001c4 	movi	r22,7
    45f4:	dd002c17 	ldw	r20,176(sp)
    45f8:	00000306 	br	4608 <___svfprintf_internal_r+0xe6c>
    45fc:	42000204 	addi	r8,r8,8
    4600:	843ffc04 	addi	r16,r16,-16
    4604:	8c00800e 	bge	r17,r16,4808 <___svfprintf_internal_r+0x106c>
    4608:	18c00404 	addi	r3,r3,16
    460c:	10800044 	addi	r2,r2,1
    4610:	45400015 	stw	r21,0(r8)
    4614:	44400115 	stw	r17,4(r8)
    4618:	d8c02015 	stw	r3,128(sp)
    461c:	d8801f15 	stw	r2,124(sp)
    4620:	b0bff60e 	bge	r22,r2,45fc <__alt_mem_onchip_memory+0xf78045fc>
    4624:	d9801e04 	addi	r6,sp,120
    4628:	a00b883a 	mov	r5,r20
    462c:	9809883a 	mov	r4,r19
    4630:	000cca80 	call	cca8 <__ssprint_r>
    4634:	103d3e1e 	bne	r2,zero,3b30 <__alt_mem_onchip_memory+0xf7803b30>
    4638:	d8c02017 	ldw	r3,128(sp)
    463c:	d8801f17 	ldw	r2,124(sp)
    4640:	da000404 	addi	r8,sp,16
    4644:	003fee06 	br	4600 <__alt_mem_onchip_memory+0xf7804600>
    4648:	d9403117 	ldw	r5,196(sp)
    464c:	d8802a17 	ldw	r2,168(sp)
    4650:	28adc83a 	sub	r22,r5,r2
    4654:	05be650e 	bge	zero,r22,3fec <__alt_mem_onchip_memory+0xf7803fec>
    4658:	07000404 	movi	fp,16
    465c:	d8801f17 	ldw	r2,124(sp)
    4660:	e583a20e 	bge	fp,r22,54ec <___svfprintf_internal_r+0x1d50>
    4664:	014000b4 	movhi	r5,2
    4668:	29486584 	addi	r5,r5,8598
    466c:	dc403015 	stw	r17,192(sp)
    4670:	d9402b15 	stw	r5,172(sp)
    4674:	b023883a 	mov	r17,r22
    4678:	050001c4 	movi	r20,7
    467c:	902d883a 	mov	r22,r18
    4680:	8025883a 	mov	r18,r16
    4684:	dc002c17 	ldw	r16,176(sp)
    4688:	00000306 	br	4698 <___svfprintf_internal_r+0xefc>
    468c:	8c7ffc04 	addi	r17,r17,-16
    4690:	42000204 	addi	r8,r8,8
    4694:	e440110e 	bge	fp,r17,46dc <___svfprintf_internal_r+0xf40>
    4698:	18c00404 	addi	r3,r3,16
    469c:	10800044 	addi	r2,r2,1
    46a0:	45400015 	stw	r21,0(r8)
    46a4:	47000115 	stw	fp,4(r8)
    46a8:	d8c02015 	stw	r3,128(sp)
    46ac:	d8801f15 	stw	r2,124(sp)
    46b0:	a0bff60e 	bge	r20,r2,468c <__alt_mem_onchip_memory+0xf780468c>
    46b4:	d9801e04 	addi	r6,sp,120
    46b8:	800b883a 	mov	r5,r16
    46bc:	9809883a 	mov	r4,r19
    46c0:	000cca80 	call	cca8 <__ssprint_r>
    46c4:	103d1a1e 	bne	r2,zero,3b30 <__alt_mem_onchip_memory+0xf7803b30>
    46c8:	8c7ffc04 	addi	r17,r17,-16
    46cc:	d8c02017 	ldw	r3,128(sp)
    46d0:	d8801f17 	ldw	r2,124(sp)
    46d4:	da000404 	addi	r8,sp,16
    46d8:	e47fef16 	blt	fp,r17,4698 <__alt_mem_onchip_memory+0xf7804698>
    46dc:	9021883a 	mov	r16,r18
    46e0:	b025883a 	mov	r18,r22
    46e4:	882d883a 	mov	r22,r17
    46e8:	dc403017 	ldw	r17,192(sp)
    46ec:	d9002b17 	ldw	r4,172(sp)
    46f0:	1d87883a 	add	r3,r3,r22
    46f4:	10800044 	addi	r2,r2,1
    46f8:	41000015 	stw	r4,0(r8)
    46fc:	45800115 	stw	r22,4(r8)
    4700:	d8c02015 	stw	r3,128(sp)
    4704:	d8801f15 	stw	r2,124(sp)
    4708:	010001c4 	movi	r4,7
    470c:	20819a16 	blt	r4,r2,4d78 <___svfprintf_internal_r+0x15dc>
    4710:	42000204 	addi	r8,r8,8
    4714:	003e3506 	br	3fec <__alt_mem_onchip_memory+0xf7803fec>
    4718:	d9403317 	ldw	r5,204(sp)
    471c:	00800044 	movi	r2,1
    4720:	18c00044 	addi	r3,r3,1
    4724:	1141710e 	bge	r2,r5,4cec <___svfprintf_internal_r+0x1550>
    4728:	dc401f17 	ldw	r17,124(sp)
    472c:	00800044 	movi	r2,1
    4730:	40800115 	stw	r2,4(r8)
    4734:	8c400044 	addi	r17,r17,1
    4738:	44000015 	stw	r16,0(r8)
    473c:	d8c02015 	stw	r3,128(sp)
    4740:	dc401f15 	stw	r17,124(sp)
    4744:	008001c4 	movi	r2,7
    4748:	14417416 	blt	r2,r17,4d1c <___svfprintf_internal_r+0x1580>
    474c:	42000204 	addi	r8,r8,8
    4750:	d8803817 	ldw	r2,224(sp)
    4754:	d9003417 	ldw	r4,208(sp)
    4758:	8c400044 	addi	r17,r17,1
    475c:	10c7883a 	add	r3,r2,r3
    4760:	40800115 	stw	r2,4(r8)
    4764:	41000015 	stw	r4,0(r8)
    4768:	d8c02015 	stw	r3,128(sp)
    476c:	dc401f15 	stw	r17,124(sp)
    4770:	008001c4 	movi	r2,7
    4774:	14417216 	blt	r2,r17,4d40 <___svfprintf_internal_r+0x15a4>
    4778:	45800204 	addi	r22,r8,8
    477c:	d9003617 	ldw	r4,216(sp)
    4780:	d9403717 	ldw	r5,220(sp)
    4784:	000d883a 	mov	r6,zero
    4788:	000f883a 	mov	r7,zero
    478c:	d8c03d15 	stw	r3,244(sp)
    4790:	0011e280 	call	11e28 <__eqdf2>
    4794:	d8c03d17 	ldw	r3,244(sp)
    4798:	1000b326 	beq	r2,zero,4a68 <___svfprintf_internal_r+0x12cc>
    479c:	d9403317 	ldw	r5,204(sp)
    47a0:	84000044 	addi	r16,r16,1
    47a4:	8c400044 	addi	r17,r17,1
    47a8:	28bfffc4 	addi	r2,r5,-1
    47ac:	1887883a 	add	r3,r3,r2
    47b0:	b0800115 	stw	r2,4(r22)
    47b4:	b4000015 	stw	r16,0(r22)
    47b8:	d8c02015 	stw	r3,128(sp)
    47bc:	dc401f15 	stw	r17,124(sp)
    47c0:	008001c4 	movi	r2,7
    47c4:	1440d216 	blt	r2,r17,4b10 <___svfprintf_internal_r+0x1374>
    47c8:	b5800204 	addi	r22,r22,8
    47cc:	d9003b17 	ldw	r4,236(sp)
    47d0:	df0022c4 	addi	fp,sp,139
    47d4:	8c400044 	addi	r17,r17,1
    47d8:	20c7883a 	add	r3,r4,r3
    47dc:	b7000015 	stw	fp,0(r22)
    47e0:	b1000115 	stw	r4,4(r22)
    47e4:	d8c02015 	stw	r3,128(sp)
    47e8:	dc401f15 	stw	r17,124(sp)
    47ec:	008001c4 	movi	r2,7
    47f0:	14400e16 	blt	r2,r17,482c <___svfprintf_internal_r+0x1090>
    47f4:	b2000204 	addi	r8,r22,8
    47f8:	003e3c06 	br	40ec <__alt_mem_onchip_memory+0xf78040ec>
    47fc:	010000b4 	movhi	r4,2
    4800:	21086584 	addi	r4,r4,8598
    4804:	d9002b15 	stw	r4,172(sp)
    4808:	d9002b17 	ldw	r4,172(sp)
    480c:	1c07883a 	add	r3,r3,r16
    4810:	44000115 	stw	r16,4(r8)
    4814:	41000015 	stw	r4,0(r8)
    4818:	10800044 	addi	r2,r2,1
    481c:	d8c02015 	stw	r3,128(sp)
    4820:	d8801f15 	stw	r2,124(sp)
    4824:	010001c4 	movi	r4,7
    4828:	20be2f0e 	bge	r4,r2,40e8 <__alt_mem_onchip_memory+0xf78040e8>
    482c:	d9402c17 	ldw	r5,176(sp)
    4830:	d9801e04 	addi	r6,sp,120
    4834:	9809883a 	mov	r4,r19
    4838:	000cca80 	call	cca8 <__ssprint_r>
    483c:	103cbc1e 	bne	r2,zero,3b30 <__alt_mem_onchip_memory+0xf7803b30>
    4840:	d8c02017 	ldw	r3,128(sp)
    4844:	da000404 	addi	r8,sp,16
    4848:	003e2806 	br	40ec <__alt_mem_onchip_memory+0xf78040ec>
    484c:	d9402c17 	ldw	r5,176(sp)
    4850:	d9801e04 	addi	r6,sp,120
    4854:	9809883a 	mov	r4,r19
    4858:	000cca80 	call	cca8 <__ssprint_r>
    485c:	103e5f26 	beq	r2,zero,41dc <__alt_mem_onchip_memory+0xf78041dc>
    4860:	003cb306 	br	3b30 <__alt_mem_onchip_memory+0xf7803b30>
    4864:	d9402c17 	ldw	r5,176(sp)
    4868:	d9801e04 	addi	r6,sp,120
    486c:	9809883a 	mov	r4,r19
    4870:	000cca80 	call	cca8 <__ssprint_r>
    4874:	103cae1e 	bne	r2,zero,3b30 <__alt_mem_onchip_memory+0xf7803b30>
    4878:	d8c02017 	ldw	r3,128(sp)
    487c:	da000404 	addi	r8,sp,16
    4880:	003e0d06 	br	40b8 <__alt_mem_onchip_memory+0xf78040b8>
    4884:	d9402c17 	ldw	r5,176(sp)
    4888:	d9801e04 	addi	r6,sp,120
    488c:	9809883a 	mov	r4,r19
    4890:	000cca80 	call	cca8 <__ssprint_r>
    4894:	103ca61e 	bne	r2,zero,3b30 <__alt_mem_onchip_memory+0xf7803b30>
    4898:	d8c02017 	ldw	r3,128(sp)
    489c:	da000404 	addi	r8,sp,16
    48a0:	003dc106 	br	3fa8 <__alt_mem_onchip_memory+0xf7803fa8>
    48a4:	d9402c17 	ldw	r5,176(sp)
    48a8:	d9801e04 	addi	r6,sp,120
    48ac:	9809883a 	mov	r4,r19
    48b0:	000cca80 	call	cca8 <__ssprint_r>
    48b4:	103c9e1e 	bne	r2,zero,3b30 <__alt_mem_onchip_memory+0xf7803b30>
    48b8:	d8c02017 	ldw	r3,128(sp)
    48bc:	da000404 	addi	r8,sp,16
    48c0:	003dc706 	br	3fe0 <__alt_mem_onchip_memory+0xf7803fe0>
    48c4:	d8802917 	ldw	r2,164(sp)
    48c8:	d8002785 	stb	zero,158(sp)
    48cc:	103f0816 	blt	r2,zero,44f0 <__alt_mem_onchip_memory+0xf78044f0>
    48d0:	00ffdfc4 	movi	r3,-129
    48d4:	a584b03a 	or	r2,r20,r22
    48d8:	90e4703a 	and	r18,r18,r3
    48dc:	103c8126 	beq	r2,zero,3ae4 <__alt_mem_onchip_memory+0xf7803ae4>
    48e0:	0039883a 	mov	fp,zero
    48e4:	003e7606 	br	42c0 <__alt_mem_onchip_memory+0xf78042c0>
    48e8:	9080040c 	andi	r2,r18,16
    48ec:	10013d26 	beq	r2,zero,4de4 <___svfprintf_internal_r+0x1648>
    48f0:	d9002d17 	ldw	r4,180(sp)
    48f4:	d9402917 	ldw	r5,164(sp)
    48f8:	d8002785 	stb	zero,158(sp)
    48fc:	20800104 	addi	r2,r4,4
    4900:	25000017 	ldw	r20,0(r4)
    4904:	002d883a 	mov	r22,zero
    4908:	28013f16 	blt	r5,zero,4e08 <___svfprintf_internal_r+0x166c>
    490c:	00ffdfc4 	movi	r3,-129
    4910:	d8802d15 	stw	r2,180(sp)
    4914:	90e4703a 	and	r18,r18,r3
    4918:	a03d2b26 	beq	r20,zero,3dc8 <__alt_mem_onchip_memory+0xf7803dc8>
    491c:	0039883a 	mov	fp,zero
    4920:	003d2e06 	br	3ddc <__alt_mem_onchip_memory+0xf7803ddc>
    4924:	dc402617 	ldw	r17,152(sp)
    4928:	0441830e 	bge	zero,r17,4f38 <___svfprintf_internal_r+0x179c>
    492c:	dc403217 	ldw	r17,200(sp)
    4930:	d8803317 	ldw	r2,204(sp)
    4934:	1440010e 	bge	r2,r17,493c <___svfprintf_internal_r+0x11a0>
    4938:	1023883a 	mov	r17,r2
    493c:	04400a0e 	bge	zero,r17,4968 <___svfprintf_internal_r+0x11cc>
    4940:	d8801f17 	ldw	r2,124(sp)
    4944:	1c47883a 	add	r3,r3,r17
    4948:	44000015 	stw	r16,0(r8)
    494c:	10800044 	addi	r2,r2,1
    4950:	44400115 	stw	r17,4(r8)
    4954:	d8c02015 	stw	r3,128(sp)
    4958:	d8801f15 	stw	r2,124(sp)
    495c:	010001c4 	movi	r4,7
    4960:	20827516 	blt	r4,r2,5338 <___svfprintf_internal_r+0x1b9c>
    4964:	42000204 	addi	r8,r8,8
    4968:	88027b16 	blt	r17,zero,5358 <___svfprintf_internal_r+0x1bbc>
    496c:	d9003217 	ldw	r4,200(sp)
    4970:	2463c83a 	sub	r17,r4,r17
    4974:	0440990e 	bge	zero,r17,4bdc <___svfprintf_internal_r+0x1440>
    4978:	05800404 	movi	r22,16
    497c:	d8801f17 	ldw	r2,124(sp)
    4980:	b441530e 	bge	r22,r17,4ed0 <___svfprintf_internal_r+0x1734>
    4984:	010000b4 	movhi	r4,2
    4988:	21086584 	addi	r4,r4,8598
    498c:	d9002b15 	stw	r4,172(sp)
    4990:	070001c4 	movi	fp,7
    4994:	dd002c17 	ldw	r20,176(sp)
    4998:	00000306 	br	49a8 <___svfprintf_internal_r+0x120c>
